
uCBoardBeispiele.elf:     file format elf32-avr

Sections:
Idx Name          Size      VMA       LMA       File off  Algn
  0 .data         0000008e  00800200  00000fc4  00001058  2**0
                  CONTENTS, ALLOC, LOAD, DATA
  1 .text         00000fc4  00000000  00000000  00000094  2**1
                  CONTENTS, ALLOC, LOAD, READONLY, CODE
  2 .bss          0000007e  0080028e  0080028e  000010e6  2**0
                  ALLOC
  3 .comment      0000005c  00000000  00000000  000010e6  2**0
                  CONTENTS, READONLY
  4 .note.gnu.avr.deviceinfo 00000040  00000000  00000000  00001144  2**2
                  CONTENTS, READONLY
  5 .debug_aranges 000001e8  00000000  00000000  00001184  2**0
                  CONTENTS, READONLY, DEBUGGING
  6 .debug_info   0000248e  00000000  00000000  0000136c  2**0
                  CONTENTS, READONLY, DEBUGGING
  7 .debug_abbrev 00000f83  00000000  00000000  000037fa  2**0
                  CONTENTS, READONLY, DEBUGGING
  8 .debug_line   0000141b  00000000  00000000  0000477d  2**0
                  CONTENTS, READONLY, DEBUGGING
  9 .debug_frame  000006a0  00000000  00000000  00005b98  2**2
                  CONTENTS, READONLY, DEBUGGING
 10 .debug_str    00000cd4  00000000  00000000  00006238  2**0
                  CONTENTS, READONLY, DEBUGGING
 11 .debug_loc    00001a80  00000000  00000000  00006f0c  2**0
                  CONTENTS, READONLY, DEBUGGING
 12 .debug_ranges 00000218  00000000  00000000  0000898c  2**0
                  CONTENTS, READONLY, DEBUGGING

Disassembly of section .text:

00000000 <__vectors>:
   0:	71 c0       	rjmp	.+226    	; 0xe4 <__ctors_end>
   2:	00 00       	nop
   4:	8e c0       	rjmp	.+284    	; 0x122 <__bad_interrupt>
   6:	00 00       	nop
   8:	8c c0       	rjmp	.+280    	; 0x122 <__bad_interrupt>
   a:	00 00       	nop
   c:	8a c0       	rjmp	.+276    	; 0x122 <__bad_interrupt>
   e:	00 00       	nop
  10:	88 c0       	rjmp	.+272    	; 0x122 <__bad_interrupt>
  12:	00 00       	nop
  14:	86 c0       	rjmp	.+268    	; 0x122 <__bad_interrupt>
  16:	00 00       	nop
  18:	84 c0       	rjmp	.+264    	; 0x122 <__bad_interrupt>
  1a:	00 00       	nop
  1c:	82 c0       	rjmp	.+260    	; 0x122 <__bad_interrupt>
  1e:	00 00       	nop
  20:	80 c0       	rjmp	.+256    	; 0x122 <__bad_interrupt>
  22:	00 00       	nop
  24:	7e c0       	rjmp	.+252    	; 0x122 <__bad_interrupt>
  26:	00 00       	nop
  28:	7c c0       	rjmp	.+248    	; 0x122 <__bad_interrupt>
  2a:	00 00       	nop
  2c:	7a c0       	rjmp	.+244    	; 0x122 <__bad_interrupt>
  2e:	00 00       	nop
  30:	78 c0       	rjmp	.+240    	; 0x122 <__bad_interrupt>
  32:	00 00       	nop
  34:	76 c0       	rjmp	.+236    	; 0x122 <__bad_interrupt>
  36:	00 00       	nop
  38:	74 c0       	rjmp	.+232    	; 0x122 <__bad_interrupt>
  3a:	00 00       	nop
  3c:	72 c0       	rjmp	.+228    	; 0x122 <__bad_interrupt>
  3e:	00 00       	nop
  40:	70 c0       	rjmp	.+224    	; 0x122 <__bad_interrupt>
  42:	00 00       	nop
  44:	6e c0       	rjmp	.+220    	; 0x122 <__bad_interrupt>
  46:	00 00       	nop
  48:	6c c0       	rjmp	.+216    	; 0x122 <__bad_interrupt>
  4a:	00 00       	nop
  4c:	6a c0       	rjmp	.+212    	; 0x122 <__bad_interrupt>
  4e:	00 00       	nop
  50:	68 c0       	rjmp	.+208    	; 0x122 <__bad_interrupt>
  52:	00 00       	nop
  54:	66 c0       	rjmp	.+204    	; 0x122 <__bad_interrupt>
  56:	00 00       	nop
  58:	64 c0       	rjmp	.+200    	; 0x122 <__bad_interrupt>
  5a:	00 00       	nop
  5c:	43 c4       	rjmp	.+2182   	; 0x8e4 <__vector_23>
  5e:	00 00       	nop
  60:	60 c0       	rjmp	.+192    	; 0x122 <__bad_interrupt>
  62:	00 00       	nop
  64:	5e c0       	rjmp	.+188    	; 0x122 <__bad_interrupt>
  66:	00 00       	nop
  68:	5c c0       	rjmp	.+184    	; 0x122 <__bad_interrupt>
  6a:	00 00       	nop
  6c:	5a c0       	rjmp	.+180    	; 0x122 <__bad_interrupt>
  6e:	00 00       	nop
  70:	58 c0       	rjmp	.+176    	; 0x122 <__bad_interrupt>
  72:	00 00       	nop
  74:	56 c0       	rjmp	.+172    	; 0x122 <__bad_interrupt>
  76:	00 00       	nop
  78:	54 c0       	rjmp	.+168    	; 0x122 <__bad_interrupt>
  7a:	00 00       	nop
  7c:	52 c0       	rjmp	.+164    	; 0x122 <__bad_interrupt>
  7e:	00 00       	nop
  80:	50 c0       	rjmp	.+160    	; 0x122 <__bad_interrupt>
  82:	00 00       	nop
  84:	4e c0       	rjmp	.+156    	; 0x122 <__bad_interrupt>
  86:	00 00       	nop
  88:	4c c0       	rjmp	.+152    	; 0x122 <__bad_interrupt>
  8a:	00 00       	nop
  8c:	4a c0       	rjmp	.+148    	; 0x122 <__bad_interrupt>
  8e:	00 00       	nop
  90:	48 c0       	rjmp	.+144    	; 0x122 <__bad_interrupt>
  92:	00 00       	nop
  94:	46 c0       	rjmp	.+140    	; 0x122 <__bad_interrupt>
  96:	00 00       	nop
  98:	44 c0       	rjmp	.+136    	; 0x122 <__bad_interrupt>
  9a:	00 00       	nop
  9c:	42 c0       	rjmp	.+132    	; 0x122 <__bad_interrupt>
  9e:	00 00       	nop
  a0:	40 c0       	rjmp	.+128    	; 0x122 <__bad_interrupt>
  a2:	00 00       	nop
  a4:	3e c0       	rjmp	.+124    	; 0x122 <__bad_interrupt>
  a6:	00 00       	nop
  a8:	3c c0       	rjmp	.+120    	; 0x122 <__bad_interrupt>
  aa:	00 00       	nop
  ac:	3a c0       	rjmp	.+116    	; 0x122 <__bad_interrupt>
  ae:	00 00       	nop
  b0:	38 c0       	rjmp	.+112    	; 0x122 <__bad_interrupt>
  b2:	00 00       	nop
  b4:	36 c0       	rjmp	.+108    	; 0x122 <__bad_interrupt>
  b6:	00 00       	nop
  b8:	34 c0       	rjmp	.+104    	; 0x122 <__bad_interrupt>
  ba:	00 00       	nop
  bc:	32 c0       	rjmp	.+100    	; 0x122 <__bad_interrupt>
  be:	00 00       	nop
  c0:	30 c0       	rjmp	.+96     	; 0x122 <__bad_interrupt>
  c2:	00 00       	nop
  c4:	2e c0       	rjmp	.+92     	; 0x122 <__bad_interrupt>
  c6:	00 00       	nop
  c8:	2c c0       	rjmp	.+88     	; 0x122 <__bad_interrupt>
  ca:	00 00       	nop
  cc:	2a c0       	rjmp	.+84     	; 0x122 <__bad_interrupt>
  ce:	00 00       	nop
  d0:	28 c0       	rjmp	.+80     	; 0x122 <__bad_interrupt>
  d2:	00 00       	nop
  d4:	26 c0       	rjmp	.+76     	; 0x122 <__bad_interrupt>
  d6:	00 00       	nop
  d8:	24 c0       	rjmp	.+72     	; 0x122 <__bad_interrupt>
  da:	00 00       	nop
  dc:	22 c0       	rjmp	.+68     	; 0x122 <__bad_interrupt>
  de:	00 00       	nop
  e0:	20 c0       	rjmp	.+64     	; 0x122 <__bad_interrupt>
	...

000000e4 <__ctors_end>:
  e4:	11 24       	eor	r1, r1
  e6:	1f be       	out	0x3f, r1	; 63
  e8:	cf ef       	ldi	r28, 0xFF	; 255
  ea:	d1 e2       	ldi	r29, 0x21	; 33
  ec:	de bf       	out	0x3e, r29	; 62
  ee:	cd bf       	out	0x3d, r28	; 61
  f0:	00 e0       	ldi	r16, 0x00	; 0
  f2:	0c bf       	out	0x3c, r16	; 60

000000f4 <__do_copy_data>:
  f4:	12 e0       	ldi	r17, 0x02	; 2
  f6:	a0 e0       	ldi	r26, 0x00	; 0
  f8:	b2 e0       	ldi	r27, 0x02	; 2
  fa:	e4 ec       	ldi	r30, 0xC4	; 196
  fc:	ff e0       	ldi	r31, 0x0F	; 15
  fe:	00 e0       	ldi	r16, 0x00	; 0
 100:	0b bf       	out	0x3b, r16	; 59
 102:	02 c0       	rjmp	.+4      	; 0x108 <__do_copy_data+0x14>
 104:	07 90       	elpm	r0, Z+
 106:	0d 92       	st	X+, r0
 108:	ae 38       	cpi	r26, 0x8E	; 142
 10a:	b1 07       	cpc	r27, r17
 10c:	d9 f7       	brne	.-10     	; 0x104 <__do_copy_data+0x10>

0000010e <__do_clear_bss>:
 10e:	23 e0       	ldi	r18, 0x03	; 3
 110:	ae e8       	ldi	r26, 0x8E	; 142
 112:	b2 e0       	ldi	r27, 0x02	; 2
 114:	01 c0       	rjmp	.+2      	; 0x118 <.do_clear_bss_start>

00000116 <.do_clear_bss_loop>:
 116:	1d 92       	st	X+, r1

00000118 <.do_clear_bss_start>:
 118:	ac 30       	cpi	r26, 0x0C	; 12
 11a:	b2 07       	cpc	r27, r18
 11c:	e1 f7       	brne	.-8      	; 0x116 <.do_clear_bss_loop>
 11e:	02 d0       	rcall	.+4      	; 0x124 <main>
 120:	4f c7       	rjmp	.+3742   	; 0xfc0 <_exit>

00000122 <__bad_interrupt>:
 122:	6e cf       	rjmp	.-292    	; 0x0 <__vectors>

00000124 <main>:
int main(void)
{
    //Variablen
    
    //Initialisieren
    initBoard(1);
 124:	81 e0       	ldi	r24, 0x01	; 1
 126:	5b d2       	rcall	.+1206   	; 0x5de <initBoard>
    pinInitX4PortL(2,OUTPUT);
 128:	60 e0       	ldi	r22, 0x00	; 0
 12a:	82 e0       	ldi	r24, 0x02	; 2
 12c:	5c d0       	rcall	.+184    	; 0x1e6 <pinInitX4PortL>
    uint16_t uIst_mV=0;
    uint16_t uSoll_mV1=0;
    uint16_t outQ1leit = 0;
    uint8_t counter = 0;
 12e:	10 e0       	ldi	r17, 0x00	; 0
    //Unendlichschlaufe
    while(1)
    {
        //Eingabe------------------------------------------------------------------
        uIst_mV = (uint32_t)adcRead(ADC_03_X4_PORTF_BIT3) * 5000 /1023;
 130:	0f 2e       	mov	r0, r31
 132:	44 24       	eor	r4, r4
 134:	4a 94       	dec	r4
 136:	f3 e0       	ldi	r31, 0x03	; 3
 138:	5f 2e       	mov	r5, r31
 13a:	61 2c       	mov	r6, r1
 13c:	71 2c       	mov	r7, r1
 13e:	f0 2d       	mov	r31, r0
        else
        {
            outQ1leit= 0;
        }
        //Ausgabe------------------------------------------------------------------
       pinWriteX4PortL(2,!outQ1leit);
 140:	01 e0       	ldi	r16, 0x01	; 1
 142:	21 2c       	mov	r2, r1
       ledWriteAll(outQ1leit);
       counter = counter +1;
        if (!(counter%200))
 144:	0f 2e       	mov	r0, r31
 146:	f8 ec       	ldi	r31, 0xC8	; 200
 148:	3f 2e       	mov	r3, r31
 14a:	f0 2d       	mov	r31, r0
        {
            lcdWriteText( 0,0,"ist:  %4u mV" ,uIst_mV);
 14c:	0f 2e       	mov	r0, r31
 14e:	f8 e0       	ldi	r31, 0x08	; 8
 150:	8f 2e       	mov	r8, r31
 152:	f2 e0       	ldi	r31, 0x02	; 2
 154:	9f 2e       	mov	r9, r31
 156:	f0 2d       	mov	r31, r0
            lcdWriteText( 1,0,"Soll: %4u mv",uSoll_mV1);
 158:	0f 2e       	mov	r0, r31
 15a:	f5 e1       	ldi	r31, 0x15	; 21
 15c:	af 2e       	mov	r10, r31
 15e:	f2 e0       	ldi	r31, 0x02	; 2
 160:	bf 2e       	mov	r11, r31
    uint8_t counter = 0;
    //Unendlichschlaufe
    while(1)
    {
        //Eingabe------------------------------------------------------------------
        uIst_mV = (uint32_t)adcRead(ADC_03_X4_PORTF_BIT3) * 5000 /1023;
 162:	f0 2d       	mov	r31, r0
 164:	83 e0       	ldi	r24, 0x03	; 3
 166:	d8 d0       	rcall	.+432    	; 0x318 <adcRead>
 168:	9c 01       	movw	r18, r24
 16a:	a8 e8       	ldi	r26, 0x88	; 136
 16c:	b3 e1       	ldi	r27, 0x13	; 19
 16e:	28 d4       	rcall	.+2128   	; 0x9c0 <__umulhisi3>
 170:	a3 01       	movw	r20, r6
 172:	92 01       	movw	r18, r4
 174:	03 d4       	rcall	.+2054   	; 0x97c <__udivmodsi4>
 176:	69 01       	movw	r12, r18
 178:	7a 01       	movw	r14, r20
        uSoll_mV1 = 2500;//(uint32_t)adcRead(ADC_08_POTI_1) * 5000 /1023;
        //Verarbeitung-------------------------------------------------------------
        if (uIst_mV >= uSoll_mV1)
 17a:	81 e0       	ldi	r24, 0x01	; 1
 17c:	c8 2f       	mov	r28, r24
 17e:	90 e0       	ldi	r25, 0x00	; 0
 180:	d9 2f       	mov	r29, r25
 182:	24 3c       	cpi	r18, 0xC4	; 196
 184:	39 40       	sbci	r19, 0x09	; 9
 186:	08 f4       	brcc	.+2      	; 0x18a <main+0x66>
 188:	c9 2f       	mov	r28, r25
 18a:	d1 95       	neg	r29
 18c:	c1 95       	neg	r28
        else
        {
            outQ1leit= 0;
        }
        //Ausgabe------------------------------------------------------------------
       pinWriteX4PortL(2,!outQ1leit);
 18e:	d1 09       	sbc	r29, r1
 190:	60 2f       	mov	r22, r16
 192:	09 f0       	breq	.+2      	; 0x196 <main+0x72>
 194:	62 2d       	mov	r22, r2
 196:	82 e0       	ldi	r24, 0x02	; 2
       ledWriteAll(outQ1leit);
 198:	6c d0       	rcall	.+216    	; 0x272 <pinWriteX4PortL>
 19a:	ce 01       	movw	r24, r28
 19c:	8f d0       	rcall	.+286    	; 0x2bc <ledWriteAll>
       counter = counter +1;
 19e:	1f 5f       	subi	r17, 0xFF	; 255
        if (!(counter%200))
 1a0:	80 2f       	mov	r24, r16
 1a2:	18 3c       	cpi	r17, 0xC8	; 200
 1a4:	08 f4       	brcc	.+2      	; 0x1a8 <main+0x84>
 1a6:	82 2d       	mov	r24, r2
 1a8:	91 2f       	mov	r25, r17
 1aa:	83 9d       	mul	r24, r3
 1ac:	90 19       	sub	r25, r0
 1ae:	11 24       	eor	r1, r1
 1b0:	91 11       	cpse	r25, r1
        {
            lcdWriteText( 0,0,"ist:  %4u mV" ,uIst_mV);
 1b2:	d8 cf       	rjmp	.-80     	; 0x164 <main+0x40>
 1b4:	df 92       	push	r13
 1b6:	cf 92       	push	r12
 1b8:	9f 92       	push	r9
 1ba:	8f 92       	push	r8
 1bc:	1f 92       	push	r1
 1be:	1f 92       	push	r1
 1c0:	9a d1       	rcall	.+820    	; 0x4f6 <lcdWriteText>
            lcdWriteText( 1,0,"Soll: %4u mv",uSoll_mV1);
 1c2:	89 e0       	ldi	r24, 0x09	; 9
 1c4:	8f 93       	push	r24
 1c6:	94 ec       	ldi	r25, 0xC4	; 196
 1c8:	9f 93       	push	r25
 1ca:	bf 92       	push	r11
 1cc:	af 92       	push	r10
 1ce:	1f 92       	push	r1
 1d0:	0f 93       	push	r16
 1d2:	91 d1       	rcall	.+802    	; 0x4f6 <lcdWriteText>
 1d4:	8d b7       	in	r24, 0x3d	; 61
 1d6:	9e b7       	in	r25, 0x3e	; 62
 1d8:	0c 96       	adiw	r24, 0x0c	; 12
 1da:	0f b6       	in	r0, 0x3f	; 63
 1dc:	f8 94       	cli
 1de:	9e bf       	out	0x3e, r25	; 62
 1e0:	0f be       	out	0x3f, r0	; 63
 1e2:	8d bf       	out	0x3d, r24	; 61
 1e4:	bf cf       	rjmp	.-130    	; 0x164 <main+0x40>

000001e6 <pinInitX4PortL>:
            }
        }
        matrix_buffer_pos += breite + Zeichenabstand;           // Position für das nächste Zeichen berechnen
        str_p++;                                                // Zeichen-Zeiger auf das nächste Zeichen richten
    }
}
 1e6:	9e ef       	ldi	r25, 0xFE	; 254
 1e8:	98 0f       	add	r25, r24
 1ea:	94 30       	cpi	r25, 0x04	; 4
 1ec:	08 f0       	brcs	.+2      	; 0x1f0 <pinInitX4PortL+0xa>
 1ee:	40 c0       	rjmp	.+128    	; 0x270 <pinInitX4PortL+0x8a>
 1f0:	61 30       	cpi	r22, 0x01	; 1
 1f2:	99 f0       	breq	.+38     	; 0x21a <pinInitX4PortL+0x34>
 1f4:	18 f0       	brcs	.+6      	; 0x1fc <pinInitX4PortL+0x16>
 1f6:	62 30       	cpi	r22, 0x02	; 2
 1f8:	31 f1       	breq	.+76     	; 0x246 <pinInitX4PortL+0x60>
 1fa:	08 95       	ret
 1fc:	ea e0       	ldi	r30, 0x0A	; 10
 1fe:	f1 e0       	ldi	r31, 0x01	; 1
 200:	40 81       	ld	r20, Z
 202:	21 e0       	ldi	r18, 0x01	; 1
 204:	30 e0       	ldi	r19, 0x00	; 0
 206:	b9 01       	movw	r22, r18
 208:	02 c0       	rjmp	.+4      	; 0x20e <pinInitX4PortL+0x28>
 20a:	66 0f       	add	r22, r22
 20c:	77 1f       	adc	r23, r23
 20e:	8a 95       	dec	r24
 210:	e2 f7       	brpl	.-8      	; 0x20a <pinInitX4PortL+0x24>
 212:	cb 01       	movw	r24, r22
 214:	84 2b       	or	r24, r20
 216:	80 83       	st	Z, r24
 218:	08 95       	ret
 21a:	ea e0       	ldi	r30, 0x0A	; 10
 21c:	f1 e0       	ldi	r31, 0x01	; 1
 21e:	40 81       	ld	r20, Z
 220:	21 e0       	ldi	r18, 0x01	; 1
 222:	30 e0       	ldi	r19, 0x00	; 0
 224:	b9 01       	movw	r22, r18
 226:	02 c0       	rjmp	.+4      	; 0x22c <pinInitX4PortL+0x46>
 228:	66 0f       	add	r22, r22
 22a:	77 1f       	adc	r23, r23
 22c:	8a 95       	dec	r24
 22e:	e2 f7       	brpl	.-8      	; 0x228 <pinInitX4PortL+0x42>
 230:	cb 01       	movw	r24, r22
 232:	80 95       	com	r24
 234:	94 2f       	mov	r25, r20
 236:	98 23       	and	r25, r24
 238:	90 83       	st	Z, r25
 23a:	eb e0       	ldi	r30, 0x0B	; 11
 23c:	f1 e0       	ldi	r31, 0x01	; 1
 23e:	90 81       	ld	r25, Z
 240:	89 23       	and	r24, r25
 242:	80 83       	st	Z, r24
 244:	08 95       	ret
 246:	ea e0       	ldi	r30, 0x0A	; 10
 248:	f1 e0       	ldi	r31, 0x01	; 1
 24a:	40 81       	ld	r20, Z
 24c:	21 e0       	ldi	r18, 0x01	; 1
 24e:	30 e0       	ldi	r19, 0x00	; 0
 250:	b9 01       	movw	r22, r18
 252:	02 c0       	rjmp	.+4      	; 0x258 <pinInitX4PortL+0x72>
 254:	66 0f       	add	r22, r22
 256:	77 1f       	adc	r23, r23
 258:	8a 95       	dec	r24
 25a:	e2 f7       	brpl	.-8      	; 0x254 <pinInitX4PortL+0x6e>
 25c:	cb 01       	movw	r24, r22
 25e:	96 2f       	mov	r25, r22
 260:	90 95       	com	r25
 262:	94 23       	and	r25, r20
 264:	90 83       	st	Z, r25
 266:	eb e0       	ldi	r30, 0x0B	; 11
 268:	f1 e0       	ldi	r31, 0x01	; 1
 26a:	90 81       	ld	r25, Z
 26c:	89 2b       	or	r24, r25
 26e:	80 83       	st	Z, r24
 270:	08 95       	ret

00000272 <pinWriteX4PortL>:
 272:	9e ef       	ldi	r25, 0xFE	; 254
 274:	98 0f       	add	r25, r24
 276:	94 30       	cpi	r25, 0x04	; 4
 278:	00 f5       	brcc	.+64     	; 0x2ba <pinWriteX4PortL+0x48>
 27a:	66 23       	and	r22, r22
 27c:	79 f0       	breq	.+30     	; 0x29c <pinWriteX4PortL+0x2a>
 27e:	eb e0       	ldi	r30, 0x0B	; 11
 280:	f1 e0       	ldi	r31, 0x01	; 1
 282:	40 81       	ld	r20, Z
 284:	21 e0       	ldi	r18, 0x01	; 1
 286:	30 e0       	ldi	r19, 0x00	; 0
 288:	b9 01       	movw	r22, r18
 28a:	02 c0       	rjmp	.+4      	; 0x290 <pinWriteX4PortL+0x1e>
 28c:	66 0f       	add	r22, r22
 28e:	77 1f       	adc	r23, r23
 290:	8a 95       	dec	r24
 292:	e2 f7       	brpl	.-8      	; 0x28c <pinWriteX4PortL+0x1a>
 294:	cb 01       	movw	r24, r22
 296:	84 2b       	or	r24, r20
 298:	80 83       	st	Z, r24
 29a:	08 95       	ret
 29c:	eb e0       	ldi	r30, 0x0B	; 11
 29e:	f1 e0       	ldi	r31, 0x01	; 1
 2a0:	40 81       	ld	r20, Z
 2a2:	21 e0       	ldi	r18, 0x01	; 1
 2a4:	30 e0       	ldi	r19, 0x00	; 0
 2a6:	b9 01       	movw	r22, r18
 2a8:	02 c0       	rjmp	.+4      	; 0x2ae <pinWriteX4PortL+0x3c>
 2aa:	66 0f       	add	r22, r22
 2ac:	77 1f       	adc	r23, r23
 2ae:	8a 95       	dec	r24
 2b0:	e2 f7       	brpl	.-8      	; 0x2aa <pinWriteX4PortL+0x38>
 2b2:	cb 01       	movw	r24, r22
 2b4:	80 95       	com	r24
 2b6:	84 23       	and	r24, r20
 2b8:	80 83       	st	Z, r24
 2ba:	08 95       	ret

000002bc <ledWriteAll>:
 2bc:	82 b9       	out	0x02, r24	; 2
 2be:	95 b9       	out	0x05, r25	; 5
 2c0:	08 95       	ret

000002c2 <startSystemTimeMs>:
 2c2:	83 e0       	ldi	r24, 0x03	; 3
 2c4:	84 bd       	out	0x24, r24	; 36
 2c6:	8b e0       	ldi	r24, 0x0B	; 11
 2c8:	85 bd       	out	0x25, r24	; 37
 2ca:	81 e0       	ldi	r24, 0x01	; 1
 2cc:	80 93 6e 00 	sts	0x006E, r24	; 0x80006e <__TEXT_REGION_LENGTH__+0x70006e>
 2d0:	89 ef       	ldi	r24, 0xF9	; 249
 2d2:	87 bd       	out	0x27, r24	; 39
 2d4:	08 95       	ret

000002d6 <initAdc>:
 2d6:	11 ba       	out	0x11, r1	; 17
 2d8:	10 ba       	out	0x10, r1	; 16
 2da:	10 92 08 01 	sts	0x0108, r1	; 0x800108 <__TEXT_REGION_LENGTH__+0x700108>
 2de:	10 92 07 01 	sts	0x0107, r1	; 0x800107 <__TEXT_REGION_LENGTH__+0x700107>
 2e2:	80 e4       	ldi	r24, 0x40	; 64
 2e4:	80 93 7c 00 	sts	0x007C, r24	; 0x80007c <__TEXT_REGION_LENGTH__+0x70007c>
 2e8:	8f e0       	ldi	r24, 0x0F	; 15
 2ea:	80 93 7e 00 	sts	0x007E, r24	; 0x80007e <__TEXT_REGION_LENGTH__+0x70007e>
 2ee:	8f ef       	ldi	r24, 0xFF	; 255
 2f0:	80 93 7d 00 	sts	0x007D, r24	; 0x80007d <__TEXT_REGION_LENGTH__+0x70007d>
 2f4:	ea e7       	ldi	r30, 0x7A	; 122
 2f6:	f0 e0       	ldi	r31, 0x00	; 0
 2f8:	87 ea       	ldi	r24, 0xA7	; 167
 2fa:	80 83       	st	Z, r24
 2fc:	10 92 7b 00 	sts	0x007B, r1	; 0x80007b <__TEXT_REGION_LENGTH__+0x70007b>
 300:	80 81       	ld	r24, Z
 302:	80 64       	ori	r24, 0x40	; 64
 304:	80 83       	st	Z, r24
 306:	80 81       	ld	r24, Z
 308:	84 ff       	sbrs	r24, 4
 30a:	fd cf       	rjmp	.-6      	; 0x306 <initAdc+0x30>
 30c:	ea e7       	ldi	r30, 0x7A	; 122
 30e:	f0 e0       	ldi	r31, 0x00	; 0
 310:	80 81       	ld	r24, Z
 312:	8f 7e       	andi	r24, 0xEF	; 239
 314:	80 83       	st	Z, r24
 316:	08 95       	ret

00000318 <adcRead>:
 318:	90 e4       	ldi	r25, 0x40	; 64
 31a:	90 93 7c 00 	sts	0x007C, r25	; 0x80007c <__TEXT_REGION_LENGTH__+0x70007c>
 31e:	88 30       	cpi	r24, 0x08	; 8
 320:	60 f0       	brcs	.+24     	; 0x33a <adcRead+0x22>
 322:	ec e7       	ldi	r30, 0x7C	; 124
 324:	f0 e0       	ldi	r31, 0x00	; 0
 326:	90 81       	ld	r25, Z
 328:	88 50       	subi	r24, 0x08	; 8
 32a:	89 2b       	or	r24, r25
 32c:	80 83       	st	Z, r24
 32e:	eb e7       	ldi	r30, 0x7B	; 123
 330:	f0 e0       	ldi	r31, 0x00	; 0
 332:	80 81       	ld	r24, Z
 334:	88 61       	ori	r24, 0x18	; 24
 336:	80 83       	st	Z, r24
 338:	0a c0       	rjmp	.+20     	; 0x34e <adcRead+0x36>
 33a:	ec e7       	ldi	r30, 0x7C	; 124
 33c:	f0 e0       	ldi	r31, 0x00	; 0
 33e:	90 81       	ld	r25, Z
 340:	89 2b       	or	r24, r25
 342:	80 83       	st	Z, r24
 344:	eb e7       	ldi	r30, 0x7B	; 123
 346:	f0 e0       	ldi	r31, 0x00	; 0
 348:	80 81       	ld	r24, Z
 34a:	87 7e       	andi	r24, 0xE7	; 231
 34c:	80 83       	st	Z, r24
 34e:	ea e7       	ldi	r30, 0x7A	; 122
 350:	f0 e0       	ldi	r31, 0x00	; 0
 352:	80 81       	ld	r24, Z
 354:	80 64       	ori	r24, 0x40	; 64
 356:	80 83       	st	Z, r24
 358:	80 81       	ld	r24, Z
 35a:	84 ff       	sbrs	r24, 4
 35c:	fd cf       	rjmp	.-6      	; 0x358 <adcRead+0x40>
 35e:	8f ea       	ldi	r24, 0xAF	; 175
 360:	94 e0       	ldi	r25, 0x04	; 4
 362:	01 97       	sbiw	r24, 0x01	; 1
 364:	f1 f7       	brne	.-4      	; 0x362 <adcRead+0x4a>
 366:	00 c0       	rjmp	.+0      	; 0x368 <adcRead+0x50>
 368:	00 00       	nop
 36a:	80 91 78 00 	lds	r24, 0x0078	; 0x800078 <__TEXT_REGION_LENGTH__+0x700078>
 36e:	20 91 79 00 	lds	r18, 0x0079	; 0x800079 <__TEXT_REGION_LENGTH__+0x700079>
 372:	ea e7       	ldi	r30, 0x7A	; 122
 374:	f0 e0       	ldi	r31, 0x00	; 0
 376:	90 81       	ld	r25, Z
 378:	9f 7e       	andi	r25, 0xEF	; 239
 37a:	90 83       	st	Z, r25
 37c:	90 e0       	ldi	r25, 0x00	; 0
 37e:	92 2b       	or	r25, r18
 380:	08 95       	ret

00000382 <rgbWrite>:
 382:	2f ef       	ldi	r18, 0xFF	; 255
 384:	33 e0       	ldi	r19, 0x03	; 3
 386:	f9 01       	movw	r30, r18
 388:	e8 1b       	sub	r30, r24
 38a:	f9 0b       	sbc	r31, r25
 38c:	c9 01       	movw	r24, r18
 38e:	86 1b       	sub	r24, r22
 390:	97 0b       	sbc	r25, r23
 392:	24 1b       	sub	r18, r20
 394:	35 0b       	sbc	r19, r21
 396:	f0 93 a9 00 	sts	0x00A9, r31	; 0x8000a9 <__TEXT_REGION_LENGTH__+0x7000a9>
 39a:	e0 93 a8 00 	sts	0x00A8, r30	; 0x8000a8 <__TEXT_REGION_LENGTH__+0x7000a8>
 39e:	90 93 ab 00 	sts	0x00AB, r25	; 0x8000ab <__TEXT_REGION_LENGTH__+0x7000ab>
 3a2:	80 93 aa 00 	sts	0x00AA, r24	; 0x8000aa <__TEXT_REGION_LENGTH__+0x7000aa>
 3a6:	30 93 ad 00 	sts	0x00AD, r19	; 0x8000ad <__TEXT_REGION_LENGTH__+0x7000ad>
 3aa:	20 93 ac 00 	sts	0x00AC, r18	; 0x8000ac <__TEXT_REGION_LENGTH__+0x7000ac>
 3ae:	08 95       	ret

000003b0 <initRgb>:
 3b0:	8e ef       	ldi	r24, 0xFE	; 254
 3b2:	80 93 a0 00 	sts	0x00A0, r24	; 0x8000a0 <__TEXT_REGION_LENGTH__+0x7000a0>
 3b6:	8b e1       	ldi	r24, 0x1B	; 27
 3b8:	80 93 a1 00 	sts	0x00A1, r24	; 0x8000a1 <__TEXT_REGION_LENGTH__+0x7000a1>
 3bc:	83 e0       	ldi	r24, 0x03	; 3
 3be:	80 93 a7 00 	sts	0x00A7, r24	; 0x8000a7 <__TEXT_REGION_LENGTH__+0x7000a7>
 3c2:	8f ef       	ldi	r24, 0xFF	; 255
 3c4:	80 93 a6 00 	sts	0x00A6, r24	; 0x8000a6 <__TEXT_REGION_LENGTH__+0x7000a6>
 3c8:	40 e0       	ldi	r20, 0x00	; 0
 3ca:	50 e0       	ldi	r21, 0x00	; 0
 3cc:	60 e0       	ldi	r22, 0x00	; 0
 3ce:	70 e0       	ldi	r23, 0x00	; 0
 3d0:	80 e0       	ldi	r24, 0x00	; 0
 3d2:	90 e0       	ldi	r25, 0x00	; 0
 3d4:	d6 cf       	rjmp	.-84     	; 0x382 <rgbWrite>
 3d6:	08 95       	ret

000003d8 <lcdSid>:
 3d8:	88 23       	and	r24, r24
 3da:	11 f0       	breq	.+4      	; 0x3e0 <lcdSid+0x8>
 3dc:	a0 9a       	sbi	0x14, 0	; 20
 3de:	08 95       	ret
 3e0:	a0 98       	cbi	0x14, 0	; 20
 3e2:	08 95       	ret

000003e4 <lcdSclk>:
 3e4:	88 23       	and	r24, r24
 3e6:	11 f0       	breq	.+4      	; 0x3ec <lcdSclk+0x8>
 3e8:	a1 9a       	sbi	0x14, 1	; 20
 3ea:	08 95       	ret
 3ec:	a1 98       	cbi	0x14, 1	; 20
 3ee:	08 95       	ret

000003f0 <lcdLight>:
 3f0:	81 11       	cpse	r24, r1
 3f2:	04 c0       	rjmp	.+8      	; 0x3fc <lcdLight+0xc>
 3f4:	84 b5       	in	r24, 0x24	; 36
 3f6:	8f 7d       	andi	r24, 0xDF	; 223
 3f8:	84 bd       	out	0x24, r24	; 36
 3fa:	08 95       	ret
 3fc:	94 b5       	in	r25, 0x24	; 36
 3fe:	90 62       	ori	r25, 0x20	; 32
 400:	94 bd       	out	0x24, r25	; 36
 402:	88 bd       	out	0x28, r24	; 40
 404:	08 95       	ret

00000406 <writeLcdF>:
 406:	ef 92       	push	r14
 408:	ff 92       	push	r15
 40a:	0f 93       	push	r16
 40c:	1f 93       	push	r17
 40e:	cf 93       	push	r28
 410:	df 93       	push	r29
 412:	7c 01       	movw	r14, r24
 414:	eb 01       	movw	r28, r22
 416:	81 e0       	ldi	r24, 0x01	; 1
 418:	df df       	rcall	.-66     	; 0x3d8 <lcdSid>
 41a:	05 e0       	ldi	r16, 0x05	; 5
 41c:	10 e0       	ldi	r17, 0x00	; 0
 41e:	80 e0       	ldi	r24, 0x00	; 0
 420:	e1 df       	rcall	.-62     	; 0x3e4 <lcdSclk>
 422:	81 e0       	ldi	r24, 0x01	; 1
 424:	df df       	rcall	.-66     	; 0x3e4 <lcdSclk>
 426:	01 50       	subi	r16, 0x01	; 1
 428:	11 09       	sbc	r17, r1
 42a:	c9 f7       	brne	.-14     	; 0x41e <writeLcdF+0x18>
 42c:	80 e0       	ldi	r24, 0x00	; 0
 42e:	d4 df       	rcall	.-88     	; 0x3d8 <lcdSid>
 430:	80 e0       	ldi	r24, 0x00	; 0
 432:	d8 df       	rcall	.-80     	; 0x3e4 <lcdSclk>
 434:	81 e0       	ldi	r24, 0x01	; 1
 436:	d6 df       	rcall	.-84     	; 0x3e4 <lcdSclk>
 438:	83 e4       	ldi	r24, 0x43	; 67
 43a:	e8 16       	cp	r14, r24
 43c:	f1 04       	cpc	r15, r1
 43e:	19 f4       	brne	.+6      	; 0x446 <writeLcdF+0x40>
 440:	80 e0       	ldi	r24, 0x00	; 0
 442:	ca df       	rcall	.-108    	; 0x3d8 <lcdSid>
 444:	02 c0       	rjmp	.+4      	; 0x44a <writeLcdF+0x44>
 446:	81 e0       	ldi	r24, 0x01	; 1
 448:	c7 df       	rcall	.-114    	; 0x3d8 <lcdSid>
 44a:	80 e0       	ldi	r24, 0x00	; 0
 44c:	cb df       	rcall	.-106    	; 0x3e4 <lcdSclk>
 44e:	81 e0       	ldi	r24, 0x01	; 1
 450:	c9 df       	rcall	.-110    	; 0x3e4 <lcdSclk>
 452:	80 e0       	ldi	r24, 0x00	; 0
 454:	c1 df       	rcall	.-126    	; 0x3d8 <lcdSid>
 456:	80 e0       	ldi	r24, 0x00	; 0
 458:	c5 df       	rcall	.-118    	; 0x3e4 <lcdSclk>
 45a:	81 e0       	ldi	r24, 0x01	; 1
 45c:	c3 df       	rcall	.-122    	; 0x3e4 <lcdSclk>
 45e:	04 e0       	ldi	r16, 0x04	; 4
 460:	10 e0       	ldi	r17, 0x00	; 0
 462:	80 e0       	ldi	r24, 0x00	; 0
 464:	bf df       	rcall	.-130    	; 0x3e4 <lcdSclk>
 466:	c0 ff       	sbrs	r28, 0
 468:	03 c0       	rjmp	.+6      	; 0x470 <writeLcdF+0x6a>
 46a:	81 e0       	ldi	r24, 0x01	; 1
 46c:	b5 df       	rcall	.-150    	; 0x3d8 <lcdSid>
 46e:	02 c0       	rjmp	.+4      	; 0x474 <writeLcdF+0x6e>
 470:	80 e0       	ldi	r24, 0x00	; 0
 472:	b2 df       	rcall	.-156    	; 0x3d8 <lcdSid>
 474:	d6 95       	lsr	r29
 476:	c7 95       	ror	r28
 478:	80 e0       	ldi	r24, 0x00	; 0
 47a:	b4 df       	rcall	.-152    	; 0x3e4 <lcdSclk>
 47c:	81 e0       	ldi	r24, 0x01	; 1
 47e:	b2 df       	rcall	.-156    	; 0x3e4 <lcdSclk>
 480:	01 50       	subi	r16, 0x01	; 1
 482:	11 09       	sbc	r17, r1
 484:	71 f7       	brne	.-36     	; 0x462 <writeLcdF+0x5c>
 486:	80 e0       	ldi	r24, 0x00	; 0
 488:	a7 df       	rcall	.-178    	; 0x3d8 <lcdSid>
 48a:	04 e0       	ldi	r16, 0x04	; 4
 48c:	10 e0       	ldi	r17, 0x00	; 0
 48e:	80 e0       	ldi	r24, 0x00	; 0
 490:	a9 df       	rcall	.-174    	; 0x3e4 <lcdSclk>
 492:	81 e0       	ldi	r24, 0x01	; 1
 494:	a7 df       	rcall	.-178    	; 0x3e4 <lcdSclk>
 496:	01 50       	subi	r16, 0x01	; 1
 498:	11 09       	sbc	r17, r1
 49a:	c9 f7       	brne	.-14     	; 0x48e <writeLcdF+0x88>
 49c:	04 e0       	ldi	r16, 0x04	; 4
 49e:	10 e0       	ldi	r17, 0x00	; 0
 4a0:	80 e0       	ldi	r24, 0x00	; 0
 4a2:	a0 df       	rcall	.-192    	; 0x3e4 <lcdSclk>
 4a4:	c0 ff       	sbrs	r28, 0
 4a6:	03 c0       	rjmp	.+6      	; 0x4ae <writeLcdF+0xa8>
 4a8:	81 e0       	ldi	r24, 0x01	; 1
 4aa:	96 df       	rcall	.-212    	; 0x3d8 <lcdSid>
 4ac:	02 c0       	rjmp	.+4      	; 0x4b2 <writeLcdF+0xac>
 4ae:	80 e0       	ldi	r24, 0x00	; 0
 4b0:	93 df       	rcall	.-218    	; 0x3d8 <lcdSid>
 4b2:	d6 95       	lsr	r29
 4b4:	c7 95       	ror	r28
 4b6:	80 e0       	ldi	r24, 0x00	; 0
 4b8:	95 df       	rcall	.-214    	; 0x3e4 <lcdSclk>
 4ba:	81 e0       	ldi	r24, 0x01	; 1
 4bc:	93 df       	rcall	.-218    	; 0x3e4 <lcdSclk>
 4be:	01 50       	subi	r16, 0x01	; 1
 4c0:	11 09       	sbc	r17, r1
 4c2:	71 f7       	brne	.-36     	; 0x4a0 <writeLcdF+0x9a>
 4c4:	80 e0       	ldi	r24, 0x00	; 0
 4c6:	88 df       	rcall	.-240    	; 0x3d8 <lcdSid>
 4c8:	c4 e0       	ldi	r28, 0x04	; 4
 4ca:	d0 e0       	ldi	r29, 0x00	; 0
 4cc:	80 e0       	ldi	r24, 0x00	; 0
 4ce:	8a df       	rcall	.-236    	; 0x3e4 <lcdSclk>
 4d0:	81 e0       	ldi	r24, 0x01	; 1
 4d2:	88 df       	rcall	.-240    	; 0x3e4 <lcdSclk>
 4d4:	21 97       	sbiw	r28, 0x01	; 1
 4d6:	d1 f7       	brne	.-12     	; 0x4cc <writeLcdF+0xc6>
 4d8:	81 e0       	ldi	r24, 0x01	; 1
 4da:	7e df       	rcall	.-260    	; 0x3d8 <lcdSid>
 4dc:	87 ec       	ldi	r24, 0xC7	; 199
 4de:	90 e0       	ldi	r25, 0x00	; 0
 4e0:	01 97       	sbiw	r24, 0x01	; 1
 4e2:	f1 f7       	brne	.-4      	; 0x4e0 <writeLcdF+0xda>
 4e4:	00 c0       	rjmp	.+0      	; 0x4e6 <writeLcdF+0xe0>
 4e6:	00 00       	nop
 4e8:	df 91       	pop	r29
 4ea:	cf 91       	pop	r28
 4ec:	1f 91       	pop	r17
 4ee:	0f 91       	pop	r16
 4f0:	ff 90       	pop	r15
 4f2:	ef 90       	pop	r14
 4f4:	08 95       	ret

000004f6 <lcdWriteText>:
 4f6:	1f 93       	push	r17
 4f8:	cf 93       	push	r28
 4fa:	df 93       	push	r29
 4fc:	cd b7       	in	r28, 0x3d	; 61
 4fe:	de b7       	in	r29, 0x3e	; 62
 500:	65 97       	sbiw	r28, 0x15	; 21
 502:	0f b6       	in	r0, 0x3f	; 63
 504:	f8 94       	cli
 506:	de bf       	out	0x3e, r29	; 62
 508:	0f be       	out	0x3f, r0	; 63
 50a:	cd bf       	out	0x3d, r28	; 61
 50c:	9e 01       	movw	r18, r28
 50e:	20 5e       	subi	r18, 0xE0	; 224
 510:	3f 4f       	sbci	r19, 0xFF	; 255
 512:	4e 8d       	ldd	r20, Y+30	; 0x1e
 514:	5f 8d       	ldd	r21, Y+31	; 0x1f
 516:	65 e1       	ldi	r22, 0x15	; 21
 518:	70 e0       	ldi	r23, 0x00	; 0
 51a:	ce 01       	movw	r24, r28
 51c:	01 96       	adiw	r24, 0x01	; 1
 51e:	6b d2       	rcall	.+1238   	; 0x9f6 <vsnprintf>
 520:	6d 8d       	ldd	r22, Y+29	; 0x1d
 522:	8c 8d       	ldd	r24, Y+28	; 0x1c
 524:	90 e2       	ldi	r25, 0x20	; 32
 526:	89 9f       	mul	r24, r25
 528:	60 0d       	add	r22, r0
 52a:	11 24       	eor	r1, r1
 52c:	60 68       	ori	r22, 0x80	; 128
 52e:	70 e0       	ldi	r23, 0x00	; 0
 530:	83 e4       	ldi	r24, 0x43	; 67
 532:	90 e0       	ldi	r25, 0x00	; 0
 534:	68 df       	rcall	.-304    	; 0x406 <writeLcdF>
 536:	69 81       	ldd	r22, Y+1	; 0x01
 538:	66 23       	and	r22, r22
 53a:	79 f0       	breq	.+30     	; 0x55a <lcdWriteText+0x64>
 53c:	10 e0       	ldi	r17, 0x00	; 0
 53e:	1f 5f       	subi	r17, 0xFF	; 255
 540:	70 e0       	ldi	r23, 0x00	; 0
 542:	84 e4       	ldi	r24, 0x44	; 68
 544:	90 e0       	ldi	r25, 0x00	; 0
 546:	5f df       	rcall	.-322    	; 0x406 <writeLcdF>
 548:	e1 e0       	ldi	r30, 0x01	; 1
 54a:	f0 e0       	ldi	r31, 0x00	; 0
 54c:	ec 0f       	add	r30, r28
 54e:	fd 1f       	adc	r31, r29
 550:	e1 0f       	add	r30, r17
 552:	f1 1d       	adc	r31, r1
 554:	60 81       	ld	r22, Z
 556:	61 11       	cpse	r22, r1
 558:	f2 cf       	rjmp	.-28     	; 0x53e <lcdWriteText+0x48>
 55a:	65 96       	adiw	r28, 0x15	; 21
 55c:	0f b6       	in	r0, 0x3f	; 63
 55e:	f8 94       	cli
 560:	de bf       	out	0x3e, r29	; 62
 562:	0f be       	out	0x3f, r0	; 63
 564:	cd bf       	out	0x3d, r28	; 61
 566:	df 91       	pop	r29
 568:	cf 91       	pop	r28
 56a:	1f 91       	pop	r17
 56c:	08 95       	ret

0000056e <lcdClear>:
 56e:	61 e0       	ldi	r22, 0x01	; 1
 570:	70 e0       	ldi	r23, 0x00	; 0
 572:	83 e4       	ldi	r24, 0x43	; 67
 574:	90 e0       	ldi	r25, 0x00	; 0
 576:	47 df       	rcall	.-370    	; 0x406 <writeLcdF>
 578:	8f e3       	ldi	r24, 0x3F	; 63
 57a:	9f e1       	ldi	r25, 0x1F	; 31
 57c:	01 97       	sbiw	r24, 0x01	; 1
 57e:	f1 f7       	brne	.-4      	; 0x57c <lcdClear+0xe>
 580:	00 c0       	rjmp	.+0      	; 0x582 <lcdClear+0x14>
 582:	00 00       	nop
 584:	8a e4       	ldi	r24, 0x4A	; 74
 586:	92 e0       	ldi	r25, 0x02	; 2
 588:	9f 93       	push	r25
 58a:	8f 93       	push	r24
 58c:	1f 92       	push	r1
 58e:	1f 92       	push	r1
 590:	b2 df       	rcall	.-156    	; 0x4f6 <lcdWriteText>
 592:	0f 90       	pop	r0
 594:	0f 90       	pop	r0
 596:	0f 90       	pop	r0
 598:	0f 90       	pop	r0
 59a:	08 95       	ret

0000059c <initLcd>:
 59c:	81 e0       	ldi	r24, 0x01	; 1
 59e:	22 df       	rcall	.-444    	; 0x3e4 <lcdSclk>
 5a0:	80 e0       	ldi	r24, 0x00	; 0
 5a2:	1a df       	rcall	.-460    	; 0x3d8 <lcdSid>
 5a4:	64 e3       	ldi	r22, 0x34	; 52
 5a6:	70 e0       	ldi	r23, 0x00	; 0
 5a8:	83 e4       	ldi	r24, 0x43	; 67
 5aa:	90 e0       	ldi	r25, 0x00	; 0
 5ac:	2c df       	rcall	.-424    	; 0x406 <writeLcdF>
 5ae:	69 e0       	ldi	r22, 0x09	; 9
 5b0:	70 e0       	ldi	r23, 0x00	; 0
 5b2:	83 e4       	ldi	r24, 0x43	; 67
 5b4:	90 e0       	ldi	r25, 0x00	; 0
 5b6:	27 df       	rcall	.-434    	; 0x406 <writeLcdF>
 5b8:	60 e3       	ldi	r22, 0x30	; 48
 5ba:	70 e0       	ldi	r23, 0x00	; 0
 5bc:	83 e4       	ldi	r24, 0x43	; 67
 5be:	90 e0       	ldi	r25, 0x00	; 0
 5c0:	22 df       	rcall	.-444    	; 0x406 <writeLcdF>
 5c2:	6c e0       	ldi	r22, 0x0C	; 12
 5c4:	70 e0       	ldi	r23, 0x00	; 0
 5c6:	83 e4       	ldi	r24, 0x43	; 67
 5c8:	90 e0       	ldi	r25, 0x00	; 0
 5ca:	1d df       	rcall	.-454    	; 0x406 <writeLcdF>
 5cc:	d0 df       	rcall	.-96     	; 0x56e <lcdClear>
 5ce:	67 e0       	ldi	r22, 0x07	; 7
 5d0:	70 e0       	ldi	r23, 0x00	; 0
 5d2:	83 e4       	ldi	r24, 0x43	; 67
 5d4:	90 e0       	ldi	r25, 0x00	; 0
 5d6:	17 df       	rcall	.-466    	; 0x406 <writeLcdF>
 5d8:	80 e0       	ldi	r24, 0x00	; 0
 5da:	0a cf       	rjmp	.-492    	; 0x3f0 <lcdLight>
 5dc:	08 95       	ret

000005de <initBoard>:
 5de:	4f 92       	push	r4
 5e0:	5f 92       	push	r5
 5e2:	6f 92       	push	r6
 5e4:	7f 92       	push	r7
 5e6:	8f 92       	push	r8
 5e8:	9f 92       	push	r9
 5ea:	af 92       	push	r10
 5ec:	bf 92       	push	r11
 5ee:	cf 92       	push	r12
 5f0:	df 92       	push	r13
 5f2:	ef 92       	push	r14
 5f4:	ff 92       	push	r15
 5f6:	0f 93       	push	r16
 5f8:	1f 93       	push	r17
 5fa:	cf 93       	push	r28
 5fc:	df 93       	push	r29
 5fe:	c8 2f       	mov	r28, r24
 600:	85 b7       	in	r24, 0x35	; 53
 602:	85 bf       	out	0x35, r24	; 53
 604:	12 b8       	out	0x02, r1	; 2
 606:	8f ef       	ldi	r24, 0xFF	; 255
 608:	81 b9       	out	0x01, r24	; 1
 60a:	15 b8       	out	0x05, r1	; 5
 60c:	84 b9       	out	0x04, r24	; 4
 60e:	88 b9       	out	0x08, r24	; 8
 610:	17 b8       	out	0x07, r1	; 7
 612:	8b b9       	out	0x0b, r24	; 11
 614:	1a b8       	out	0x0a, r1	; 10
 616:	8e b9       	out	0x0e, r24	; 14
 618:	1d b8       	out	0x0d, r1	; 13
 61a:	72 98       	cbi	0x0e, 2	; 14
 61c:	11 ba       	out	0x11, r1	; 17
 61e:	10 ba       	out	0x10, r1	; 16
 620:	94 e0       	ldi	r25, 0x04	; 4
 622:	94 bb       	out	0x14, r25	; 20
 624:	93 b3       	in	r25, 0x13	; 19
 626:	93 60       	ori	r25, 0x03	; 3
 628:	93 bb       	out	0x13, r25	; 19
 62a:	9d 9a       	sbi	0x13, 5	; 19
 62c:	97 ec       	ldi	r25, 0xC7	; 199
 62e:	90 93 02 01 	sts	0x0102, r25	; 0x800102 <__TEXT_REGION_LENGTH__+0x700102>
 632:	98 e3       	ldi	r25, 0x38	; 56
 634:	90 93 01 01 	sts	0x0101, r25	; 0x800101 <__TEXT_REGION_LENGTH__+0x700101>
 638:	10 92 05 01 	sts	0x0105, r1	; 0x800105 <__TEXT_REGION_LENGTH__+0x700105>
 63c:	80 93 04 01 	sts	0x0104, r24	; 0x800104 <__TEXT_REGION_LENGTH__+0x700104>
 640:	10 92 08 01 	sts	0x0108, r1	; 0x800108 <__TEXT_REGION_LENGTH__+0x700108>
 644:	10 92 07 01 	sts	0x0107, r1	; 0x800107 <__TEXT_REGION_LENGTH__+0x700107>
 648:	8c e3       	ldi	r24, 0x3C	; 60
 64a:	80 93 0b 01 	sts	0x010B, r24	; 0x80010b <__TEXT_REGION_LENGTH__+0x70010b>
 64e:	10 92 0a 01 	sts	0x010A, r1	; 0x80010a <__TEXT_REGION_LENGTH__+0x70010a>
 652:	78 94       	sei
 654:	36 de       	rcall	.-916    	; 0x2c2 <startSystemTimeMs>
 656:	a2 df       	rcall	.-188    	; 0x59c <initLcd>
 658:	3e de       	rcall	.-900    	; 0x2d6 <initAdc>
 65a:	aa de       	rcall	.-684    	; 0x3b0 <initRgb>
 65c:	cc 23       	and	r28, r28
 65e:	09 f4       	brne	.+2      	; 0x662 <initBoard+0x84>
 660:	b8 c0       	rjmp	.+368    	; 0x7d2 <initBoard+0x1f4>
 662:	8f ef       	ldi	r24, 0xFF	; 255
 664:	c5 de       	rcall	.-630    	; 0x3f0 <lcdLight>
 666:	40 e0       	ldi	r20, 0x00	; 0
 668:	50 e0       	ldi	r21, 0x00	; 0
 66a:	6f ef       	ldi	r22, 0xFF	; 255
 66c:	73 e0       	ldi	r23, 0x03	; 3
 66e:	80 e0       	ldi	r24, 0x00	; 0
 670:	90 e0       	ldi	r25, 0x00	; 0
 672:	87 de       	rcall	.-754    	; 0x382 <rgbWrite>
 674:	87 e3       	ldi	r24, 0x37	; 55
 676:	92 e0       	ldi	r25, 0x02	; 2
 678:	9f 93       	push	r25
 67a:	8f 93       	push	r24
 67c:	1f 92       	push	r1
 67e:	1f 92       	push	r1
 680:	3a df       	rcall	.-396    	; 0x4f6 <lcdWriteText>
 682:	8c e4       	ldi	r24, 0x4C	; 76
 684:	92 e0       	ldi	r25, 0x02	; 2
 686:	9f 93       	push	r25
 688:	8f 93       	push	r24
 68a:	1f 92       	push	r1
 68c:	81 e0       	ldi	r24, 0x01	; 1
 68e:	8f 93       	push	r24
 690:	32 df       	rcall	.-412    	; 0x4f6 <lcdWriteText>
 692:	82 e2       	ldi	r24, 0x22	; 34
 694:	92 e0       	ldi	r25, 0x02	; 2
 696:	9f 93       	push	r25
 698:	8f 93       	push	r24
 69a:	1f 92       	push	r1
 69c:	82 e0       	ldi	r24, 0x02	; 2
 69e:	8f 93       	push	r24
 6a0:	2a df       	rcall	.-428    	; 0x4f6 <lcdWriteText>
 6a2:	81 e6       	ldi	r24, 0x61	; 97
 6a4:	92 e0       	ldi	r25, 0x02	; 2
 6a6:	9f 93       	push	r25
 6a8:	8f 93       	push	r24
 6aa:	1f 92       	push	r1
 6ac:	83 e0       	ldi	r24, 0x03	; 3
 6ae:	8f 93       	push	r24
 6b0:	22 df       	rcall	.-444    	; 0x4f6 <lcdWriteText>
 6b2:	8d b7       	in	r24, 0x3d	; 61
 6b4:	9e b7       	in	r25, 0x3e	; 62
 6b6:	40 96       	adiw	r24, 0x10	; 16
 6b8:	0f b6       	in	r0, 0x3f	; 63
 6ba:	f8 94       	cli
 6bc:	9e bf       	out	0x3e, r25	; 62
 6be:	0f be       	out	0x3f, r0	; 63
 6c0:	8d bf       	out	0x3d, r24	; 61
 6c2:	88 24       	eor	r8, r8
 6c4:	83 94       	inc	r8
 6c6:	c0 e0       	ldi	r28, 0x00	; 0
 6c8:	71 2c       	mov	r7, r1
 6ca:	99 24       	eor	r9, r9
 6cc:	93 94       	inc	r9
 6ce:	d0 e0       	ldi	r29, 0x00	; 0
 6d0:	cc 24       	eor	r12, r12
 6d2:	c3 94       	inc	r12
 6d4:	d1 2c       	mov	r13, r1
 6d6:	e1 2c       	mov	r14, r1
 6d8:	68 94       	set
 6da:	ff 24       	eor	r15, r15
 6dc:	f7 f8       	bld	r15, 7
 6de:	66 24       	eor	r6, r6
 6e0:	63 94       	inc	r6
 6e2:	51 2c       	mov	r5, r1
 6e4:	09 e0       	ldi	r16, 0x09	; 9
 6e6:	11 e0       	ldi	r17, 0x01	; 1
 6e8:	0f 2e       	mov	r0, r31
 6ea:	f6 e7       	ldi	r31, 0x76	; 118
 6ec:	af 2e       	mov	r10, r31
 6ee:	f2 e0       	ldi	r31, 0x02	; 2
 6f0:	bf 2e       	mov	r11, r31
 6f2:	f0 2d       	mov	r31, r0
 6f4:	0f 2e       	mov	r0, r31
 6f6:	f3 e0       	ldi	r31, 0x03	; 3
 6f8:	4f 2e       	mov	r4, r31
 6fa:	f0 2d       	mov	r31, r0
 6fc:	99 20       	and	r9, r9
 6fe:	49 f0       	breq	.+18     	; 0x712 <initBoard+0x134>
 700:	c7 01       	movw	r24, r14
 702:	0d 2e       	mov	r0, r29
 704:	02 c0       	rjmp	.+4      	; 0x70a <initBoard+0x12c>
 706:	96 95       	lsr	r25
 708:	87 95       	ror	r24
 70a:	0a 94       	dec	r0
 70c:	e2 f7       	brpl	.-8      	; 0x706 <initBoard+0x128>
 70e:	d6 dd       	rcall	.-1108   	; 0x2bc <ledWriteAll>
 710:	08 c0       	rjmp	.+16     	; 0x722 <initBoard+0x144>
 712:	c6 01       	movw	r24, r12
 714:	0d 2e       	mov	r0, r29
 716:	02 c0       	rjmp	.+4      	; 0x71c <initBoard+0x13e>
 718:	88 0f       	add	r24, r24
 71a:	99 1f       	adc	r25, r25
 71c:	0a 94       	dec	r0
 71e:	e2 f7       	brpl	.-8      	; 0x718 <initBoard+0x13a>
 720:	cd dd       	rcall	.-1126   	; 0x2bc <ledWriteAll>
 722:	df 5f       	subi	r29, 0xFF	; 255
 724:	d1 31       	cpi	r29, 0x11	; 17
 726:	28 f0       	brcs	.+10     	; 0x732 <initBoard+0x154>
 728:	86 2d       	mov	r24, r6
 72a:	91 10       	cpse	r9, r1
 72c:	85 2d       	mov	r24, r5
 72e:	98 2e       	mov	r9, r24
 730:	d0 e0       	ldi	r29, 0x00	; 0
 732:	88 20       	and	r8, r8
 734:	11 f0       	breq	.+4      	; 0x73a <initBoard+0x15c>
 736:	ce 5f       	subi	r28, 0xFE	; 254
 738:	01 c0       	rjmp	.+2      	; 0x73c <initBoard+0x15e>
 73a:	c2 50       	subi	r28, 0x02	; 2
 73c:	8c 2f       	mov	r24, r28
 73e:	58 de       	rcall	.-848    	; 0x3f0 <lcdLight>
 740:	ce 3f       	cpi	r28, 0xFE	; 254
 742:	21 f0       	breq	.+8      	; 0x74c <initBoard+0x16e>
 744:	c8 37       	cpi	r28, 0x78	; 120
 746:	19 f4       	brne	.+6      	; 0x74e <initBoard+0x170>
 748:	86 2c       	mov	r8, r6
 74a:	01 c0       	rjmp	.+2      	; 0x74e <initBoard+0x170>
 74c:	85 2c       	mov	r8, r5
 74e:	71 10       	cpse	r7, r1
 750:	3b c0       	rjmp	.+118    	; 0x7c8 <initBoard+0x1ea>
 752:	f8 01       	movw	r30, r16
 754:	80 81       	ld	r24, Z
 756:	83 7c       	andi	r24, 0xC3	; 195
 758:	91 f0       	breq	.+36     	; 0x77e <initBoard+0x1a0>
 75a:	40 e0       	ldi	r20, 0x00	; 0
 75c:	50 e0       	ldi	r21, 0x00	; 0
 75e:	66 e2       	ldi	r22, 0x26	; 38
 760:	72 e0       	ldi	r23, 0x02	; 2
 762:	8f ef       	ldi	r24, 0xFF	; 255
 764:	93 e0       	ldi	r25, 0x03	; 3
 766:	0d de       	rcall	.-998    	; 0x382 <rgbWrite>
 768:	bf 92       	push	r11
 76a:	af 92       	push	r10
 76c:	1f 92       	push	r1
 76e:	4f 92       	push	r4
 770:	c2 de       	rcall	.-636    	; 0x4f6 <lcdWriteText>
 772:	0f 90       	pop	r0
 774:	0f 90       	pop	r0
 776:	0f 90       	pop	r0
 778:	0f 90       	pop	r0
 77a:	76 2c       	mov	r7, r6
 77c:	25 c0       	rjmp	.+74     	; 0x7c8 <initBoard+0x1ea>
 77e:	8f ef       	ldi	r24, 0xFF	; 255
 780:	9c e7       	ldi	r25, 0x7C	; 124
 782:	01 97       	sbiw	r24, 0x01	; 1
 784:	f1 f7       	brne	.-4      	; 0x782 <initBoard+0x1a4>
 786:	00 c0       	rjmp	.+0      	; 0x788 <initBoard+0x1aa>
 788:	00 00       	nop
 78a:	b8 cf       	rjmp	.-144    	; 0x6fc <initBoard+0x11e>
 78c:	f0 de       	rcall	.-544    	; 0x56e <lcdClear>
 78e:	80 e0       	ldi	r24, 0x00	; 0
 790:	2f de       	rcall	.-930    	; 0x3f0 <lcdLight>
 792:	80 e0       	ldi	r24, 0x00	; 0
 794:	90 e0       	ldi	r25, 0x00	; 0
 796:	92 dd       	rcall	.-1244   	; 0x2bc <ledWriteAll>
 798:	40 e0       	ldi	r20, 0x00	; 0
 79a:	50 e0       	ldi	r21, 0x00	; 0
 79c:	60 e0       	ldi	r22, 0x00	; 0
 79e:	70 e0       	ldi	r23, 0x00	; 0
 7a0:	80 e0       	ldi	r24, 0x00	; 0
 7a2:	90 e0       	ldi	r25, 0x00	; 0
 7a4:	ee dd       	rcall	.-1060   	; 0x382 <rgbWrite>
 7a6:	10 92 93 02 	sts	0x0293, r1	; 0x800293 <systemTimeMs>
 7aa:	10 92 94 02 	sts	0x0294, r1	; 0x800294 <systemTimeMs+0x1>
 7ae:	10 92 95 02 	sts	0x0295, r1	; 0x800295 <systemTimeMs+0x2>
 7b2:	10 92 96 02 	sts	0x0296, r1	; 0x800296 <systemTimeMs+0x3>
 7b6:	10 92 97 02 	sts	0x0297, r1	; 0x800297 <systemTimeMs+0x4>
 7ba:	10 92 98 02 	sts	0x0298, r1	; 0x800298 <systemTimeMs+0x5>
 7be:	10 92 99 02 	sts	0x0299, r1	; 0x800299 <systemTimeMs+0x6>
 7c2:	10 92 9a 02 	sts	0x029A, r1	; 0x80029a <systemTimeMs+0x7>
 7c6:	05 c0       	rjmp	.+10     	; 0x7d2 <initBoard+0x1f4>
 7c8:	f8 01       	movw	r30, r16
 7ca:	80 81       	ld	r24, Z
 7cc:	83 7c       	andi	r24, 0xC3	; 195
 7ce:	b9 f6       	brne	.-82     	; 0x77e <initBoard+0x1a0>
 7d0:	dd cf       	rjmp	.-70     	; 0x78c <initBoard+0x1ae>
 7d2:	df 91       	pop	r29
 7d4:	cf 91       	pop	r28
 7d6:	1f 91       	pop	r17
 7d8:	0f 91       	pop	r16
 7da:	ff 90       	pop	r15
 7dc:	ef 90       	pop	r14
 7de:	df 90       	pop	r13
 7e0:	cf 90       	pop	r12
 7e2:	bf 90       	pop	r11
 7e4:	af 90       	pop	r10
 7e6:	9f 90       	pop	r9
 7e8:	8f 90       	pop	r8
 7ea:	7f 90       	pop	r7
 7ec:	6f 90       	pop	r6
 7ee:	5f 90       	pop	r5
 7f0:	4f 90       	pop	r4
 7f2:	08 95       	ret

000007f4 <matrixWriteNextLine>:




void matrixWriteNextLine(void)
{
 7f4:	cf 93       	push	r28
 7f6:	df 93       	push	r29
 7f8:	cd b7       	in	r28, 0x3d	; 61
 7fa:	de b7       	in	r29, 0x3e	; 62
 7fc:	28 97       	sbiw	r28, 0x08	; 8
 7fe:	0f b6       	in	r0, 0x3f	; 63
 800:	f8 94       	cli
 802:	de bf       	out	0x3e, r29	; 62
 804:	0f be       	out	0x3f, r0	; 63
 806:	cd bf       	out	0x3d, r28	; 61
    const  uint8_t Bit_Muster_Tab[8] = {1,2,4,8,16,32,64,128};
 808:	88 e0       	ldi	r24, 0x08	; 8
 80a:	e0 e0       	ldi	r30, 0x00	; 0
 80c:	f2 e0       	ldi	r31, 0x02	; 2
 80e:	de 01       	movw	r26, r28
 810:	11 96       	adiw	r26, 0x01	; 1
 812:	01 90       	ld	r0, Z+
 814:	0d 92       	st	X+, r0
 816:	8a 95       	dec	r24
 818:	e1 f7       	brne	.-8      	; 0x812 <matrixWriteNextLine+0x1e>
    static uint16_t Zeilen_Nr, Bit_Muster;
    uint8_t i;
    
    STROBE_0;                             // Daten des Scheiberegisters nicht ins Latch schreiben
 81a:	e5 e0       	ldi	r30, 0x05	; 5
 81c:	f1 e0       	ldi	r31, 0x01	; 1
 81e:	80 81       	ld	r24, Z
 820:	8f 7b       	andi	r24, 0xBF	; 191
 822:	80 83       	st	Z, r24

    Bit_Muster = Bit_Muster_Tab[Zeilen_Nr]; // Bitmuster aus Tabelle holen, um mit Daten in matrix[] zu vergleichen.
 824:	e0 91 90 02 	lds	r30, 0x0290	; 0x800290 <Zeilen_Nr.2731>
 828:	f0 91 91 02 	lds	r31, 0x0291	; 0x800291 <Zeilen_Nr.2731+0x1>
 82c:	81 e0       	ldi	r24, 0x01	; 1
 82e:	90 e0       	ldi	r25, 0x00	; 0
 830:	8c 0f       	add	r24, r28
 832:	9d 1f       	adc	r25, r29
 834:	e8 0f       	add	r30, r24
 836:	f9 1f       	adc	r31, r25
 838:	80 81       	ld	r24, Z
 83a:	90 e0       	ldi	r25, 0x00	; 0
 83c:	90 93 8f 02 	sts	0x028F, r25	; 0x80028f <__data_end+0x1>
 840:	80 93 8e 02 	sts	0x028E, r24	; 0x80028e <__data_end>
 844:	ac e0       	ldi	r26, 0x0C	; 12
 846:	b3 e0       	ldi	r27, 0x03	; 3
 848:	2c e9       	ldi	r18, 0x9C	; 156
 84a:	32 e0       	ldi	r19, 0x02	; 2
    {                                       // Vergleicht Bit-Muster der aktuellen Zeile mit Daten in matrix[]
        if((matrix[Anzahl_Spalten-1- i] & Bit_Muster) != 0)     // Ist in matrix[] das entsprechende Bit gesetzt?
        { DATA_Modul_1_ON;                    //   JA:   ==> Datenbit "1" ins Schieberegister schreiben
        }
        else
        { DATA_Modul_1_OFF;                   //   NEIN: ==> Datenbit "0" ins Schieberegister schreiben
 84c:	e5 e0       	ldi	r30, 0x05	; 5
 84e:	f1 e0       	ldi	r31, 0x01	; 1
    Bit_Muster = Bit_Muster_Tab[Zeilen_Nr]; // Bitmuster aus Tabelle holen, um mit Daten in matrix[] zu vergleichen.
    
    // Alle Bits seriell ins Schieberegister hineinschreiben
    for(i=0; i<Anzahl_Spalten; i++)         // Alle Spalten durchgehen und überpüfen, ob Bit gesetzt ist
    {                                       // Vergleicht Bit-Muster der aktuellen Zeile mit Daten in matrix[]
        if((matrix[Anzahl_Spalten-1- i] & Bit_Muster) != 0)     // Ist in matrix[] das entsprechende Bit gesetzt?
 850:	5e 91       	ld	r21, -X
 852:	4e 91       	ld	r20, -X
 854:	80 91 8e 02 	lds	r24, 0x028E	; 0x80028e <__data_end>
 858:	90 91 8f 02 	lds	r25, 0x028F	; 0x80028f <__data_end+0x1>
 85c:	84 23       	and	r24, r20
 85e:	95 23       	and	r25, r21
 860:	89 2b       	or	r24, r25
 862:	21 f0       	breq	.+8      	; 0x86c <matrixWriteNextLine+0x78>
        { DATA_Modul_1_ON;                    //   JA:   ==> Datenbit "1" ins Schieberegister schreiben
 864:	80 81       	ld	r24, Z
 866:	80 62       	ori	r24, 0x20	; 32
 868:	80 83       	st	Z, r24
 86a:	03 c0       	rjmp	.+6      	; 0x872 <matrixWriteNextLine+0x7e>
        }
        else
        { DATA_Modul_1_OFF;                   //   NEIN: ==> Datenbit "0" ins Schieberegister schreiben
 86c:	80 81       	ld	r24, Z
 86e:	8f 7d       	andi	r24, 0xDF	; 223
 870:	80 83       	st	Z, r24
        }
        CLOCK_1;
 872:	80 81       	ld	r24, Z
 874:	80 61       	ori	r24, 0x10	; 16
 876:	80 83       	st	Z, r24
        CLOCK_0;                            // Datenbit wird bei der negativen Flanke des Clock-Signals übernommen
 878:	80 81       	ld	r24, Z
 87a:	8f 7e       	andi	r24, 0xEF	; 239
 87c:	80 83       	st	Z, r24
    STROBE_0;                             // Daten des Scheiberegisters nicht ins Latch schreiben

    Bit_Muster = Bit_Muster_Tab[Zeilen_Nr]; // Bitmuster aus Tabelle holen, um mit Daten in matrix[] zu vergleichen.
    
    // Alle Bits seriell ins Schieberegister hineinschreiben
    for(i=0; i<Anzahl_Spalten; i++)         // Alle Spalten durchgehen und überpüfen, ob Bit gesetzt ist
 87e:	a2 17       	cp	r26, r18
 880:	b3 07       	cpc	r27, r19
 882:	31 f7       	brne	.-52     	; 0x850 <matrixWriteNextLine+0x5c>
        }
        CLOCK_1;
        CLOCK_0;                            // Datenbit wird bei der negativen Flanke des Clock-Signals übernommen
    }
    
    ENABLE_0;                                // +5V aller Zeilen abschalten
 884:	e5 e0       	ldi	r30, 0x05	; 5
 886:	f1 e0       	ldi	r31, 0x01	; 1
 888:	80 81       	ld	r24, Z
 88a:	87 7f       	andi	r24, 0xF7	; 247
 88c:	80 83       	st	Z, r24
    PORTJ &= ~0x07;
 88e:	80 81       	ld	r24, Z
 890:	88 7f       	andi	r24, 0xF8	; 248
 892:	80 83       	st	Z, r24
    PORTJ |= Zeilen_Nr;                     // gewünschte Zeile einstellen
 894:	90 81       	ld	r25, Z
 896:	80 91 90 02 	lds	r24, 0x0290	; 0x800290 <Zeilen_Nr.2731>
 89a:	89 2b       	or	r24, r25
 89c:	80 83       	st	Z, r24
    STROBE_1;                             // Daten ins Latch schreiben
 89e:	80 81       	ld	r24, Z
 8a0:	80 64       	ori	r24, 0x40	; 64
 8a2:	80 83       	st	Z, r24
    ENABLE_1;                             // +5V Speisung der eingestellten Zeile einschalten
 8a4:	80 81       	ld	r24, Z
 8a6:	88 60       	ori	r24, 0x08	; 8
 8a8:	80 83       	st	Z, r24

    // Die Zeilen werden nacheinander eingeschaltet --> zyklisch 0,1,2,3,4,5,6,7, 0,1,2,3, ...
    if (Zeilen_Nr < 7)
 8aa:	80 91 90 02 	lds	r24, 0x0290	; 0x800290 <Zeilen_Nr.2731>
 8ae:	90 91 91 02 	lds	r25, 0x0291	; 0x800291 <Zeilen_Nr.2731+0x1>
 8b2:	87 30       	cpi	r24, 0x07	; 7
 8b4:	91 05       	cpc	r25, r1
 8b6:	30 f4       	brcc	.+12     	; 0x8c4 <matrixWriteNextLine+0xd0>
    {
        Zeilen_Nr++;
 8b8:	01 96       	adiw	r24, 0x01	; 1
 8ba:	90 93 91 02 	sts	0x0291, r25	; 0x800291 <Zeilen_Nr.2731+0x1>
 8be:	80 93 90 02 	sts	0x0290, r24	; 0x800290 <Zeilen_Nr.2731>
 8c2:	07 c0       	rjmp	.+14     	; 0x8d2 <matrixWriteNextLine+0xde>
    }
    else
    {
        Zeilen_Nr = 0;
 8c4:	10 92 91 02 	sts	0x0291, r1	; 0x800291 <Zeilen_Nr.2731+0x1>
 8c8:	10 92 90 02 	sts	0x0290, r1	; 0x800290 <Zeilen_Nr.2731>
        writeTextFinished = 1;
 8cc:	81 e0       	ldi	r24, 0x01	; 1
 8ce:	80 93 92 02 	sts	0x0292, r24	; 0x800292 <writeTextFinished>
    }
    
 8d2:	28 96       	adiw	r28, 0x08	; 8
 8d4:	0f b6       	in	r0, 0x3f	; 63
 8d6:	f8 94       	cli
 8d8:	de bf       	out	0x3e, r29	; 62
 8da:	0f be       	out	0x3f, r0	; 63
 8dc:	cd bf       	out	0x3d, r28	; 61
 8de:	df 91       	pop	r29
 8e0:	cf 91       	pop	r28
 8e2:	08 95       	ret

000008e4 <__vector_23>:
//--------------------------------------------------------------------------------------------
// Timer 0 Overflow Interrupt ->  Wird alle 1ms aufgerufen
//--------------------------------------------------------------------------------------------

ISR(TIMER0_OVF_vect)
{
 8e4:	1f 92       	push	r1
 8e6:	0f 92       	push	r0
 8e8:	0f b6       	in	r0, 0x3f	; 63
 8ea:	0f 92       	push	r0
 8ec:	11 24       	eor	r1, r1
 8ee:	0b b6       	in	r0, 0x3b	; 59
 8f0:	0f 92       	push	r0
 8f2:	2f 93       	push	r18
 8f4:	3f 93       	push	r19
 8f6:	4f 93       	push	r20
 8f8:	5f 93       	push	r21
 8fa:	6f 93       	push	r22
 8fc:	7f 93       	push	r23
 8fe:	8f 93       	push	r24
 900:	9f 93       	push	r25
 902:	af 93       	push	r26
 904:	bf 93       	push	r27
 906:	ef 93       	push	r30
 908:	ff 93       	push	r31
    systemTimeMs += 1;
 90a:	20 91 93 02 	lds	r18, 0x0293	; 0x800293 <systemTimeMs>
 90e:	30 91 94 02 	lds	r19, 0x0294	; 0x800294 <systemTimeMs+0x1>
 912:	40 91 95 02 	lds	r20, 0x0295	; 0x800295 <systemTimeMs+0x2>
 916:	50 91 96 02 	lds	r21, 0x0296	; 0x800296 <systemTimeMs+0x3>
 91a:	60 91 97 02 	lds	r22, 0x0297	; 0x800297 <systemTimeMs+0x4>
 91e:	70 91 98 02 	lds	r23, 0x0298	; 0x800298 <systemTimeMs+0x5>
 922:	80 91 99 02 	lds	r24, 0x0299	; 0x800299 <systemTimeMs+0x6>
 926:	90 91 9a 02 	lds	r25, 0x029A	; 0x80029a <systemTimeMs+0x7>
 92a:	a1 e0       	ldi	r26, 0x01	; 1
 92c:	58 d0       	rcall	.+176    	; 0x9de <__adddi3_s8>
 92e:	20 93 93 02 	sts	0x0293, r18	; 0x800293 <systemTimeMs>
 932:	30 93 94 02 	sts	0x0294, r19	; 0x800294 <systemTimeMs+0x1>
 936:	40 93 95 02 	sts	0x0295, r20	; 0x800295 <systemTimeMs+0x2>
 93a:	50 93 96 02 	sts	0x0296, r21	; 0x800296 <systemTimeMs+0x3>
 93e:	60 93 97 02 	sts	0x0297, r22	; 0x800297 <systemTimeMs+0x4>
 942:	70 93 98 02 	sts	0x0298, r23	; 0x800298 <systemTimeMs+0x5>
 946:	80 93 99 02 	sts	0x0299, r24	; 0x800299 <systemTimeMs+0x6>
 94a:	90 93 9a 02 	sts	0x029A, r25	; 0x80029a <systemTimeMs+0x7>

    if(matrixRunning)matrixWriteNextLine();
 94e:	80 91 9b 02 	lds	r24, 0x029B	; 0x80029b <matrixRunning>
 952:	81 11       	cpse	r24, r1
 954:	4f df       	rcall	.-354    	; 0x7f4 <matrixWriteNextLine>
}
 956:	ff 91       	pop	r31
 958:	ef 91       	pop	r30
 95a:	bf 91       	pop	r27
 95c:	af 91       	pop	r26
 95e:	9f 91       	pop	r25
 960:	8f 91       	pop	r24
 962:	7f 91       	pop	r23
 964:	6f 91       	pop	r22
 966:	5f 91       	pop	r21
 968:	4f 91       	pop	r20
 96a:	3f 91       	pop	r19
 96c:	2f 91       	pop	r18
 96e:	0f 90       	pop	r0
 970:	0b be       	out	0x3b, r0	; 59
 972:	0f 90       	pop	r0
 974:	0f be       	out	0x3f, r0	; 63
 976:	0f 90       	pop	r0
 978:	1f 90       	pop	r1
 97a:	18 95       	reti

0000097c <__udivmodsi4>:
 97c:	a1 e2       	ldi	r26, 0x21	; 33
 97e:	1a 2e       	mov	r1, r26
 980:	aa 1b       	sub	r26, r26
 982:	bb 1b       	sub	r27, r27
 984:	fd 01       	movw	r30, r26
 986:	0d c0       	rjmp	.+26     	; 0x9a2 <__udivmodsi4_ep>

00000988 <__udivmodsi4_loop>:
 988:	aa 1f       	adc	r26, r26
 98a:	bb 1f       	adc	r27, r27
 98c:	ee 1f       	adc	r30, r30
 98e:	ff 1f       	adc	r31, r31
 990:	a2 17       	cp	r26, r18
 992:	b3 07       	cpc	r27, r19
 994:	e4 07       	cpc	r30, r20
 996:	f5 07       	cpc	r31, r21
 998:	20 f0       	brcs	.+8      	; 0x9a2 <__udivmodsi4_ep>
 99a:	a2 1b       	sub	r26, r18
 99c:	b3 0b       	sbc	r27, r19
 99e:	e4 0b       	sbc	r30, r20
 9a0:	f5 0b       	sbc	r31, r21

000009a2 <__udivmodsi4_ep>:
 9a2:	66 1f       	adc	r22, r22
 9a4:	77 1f       	adc	r23, r23
 9a6:	88 1f       	adc	r24, r24
 9a8:	99 1f       	adc	r25, r25
 9aa:	1a 94       	dec	r1
 9ac:	69 f7       	brne	.-38     	; 0x988 <__udivmodsi4_loop>
 9ae:	60 95       	com	r22
 9b0:	70 95       	com	r23
 9b2:	80 95       	com	r24
 9b4:	90 95       	com	r25
 9b6:	9b 01       	movw	r18, r22
 9b8:	ac 01       	movw	r20, r24
 9ba:	bd 01       	movw	r22, r26
 9bc:	cf 01       	movw	r24, r30
 9be:	08 95       	ret

000009c0 <__umulhisi3>:
 9c0:	a2 9f       	mul	r26, r18
 9c2:	b0 01       	movw	r22, r0
 9c4:	b3 9f       	mul	r27, r19
 9c6:	c0 01       	movw	r24, r0
 9c8:	a3 9f       	mul	r26, r19
 9ca:	70 0d       	add	r23, r0
 9cc:	81 1d       	adc	r24, r1
 9ce:	11 24       	eor	r1, r1
 9d0:	91 1d       	adc	r25, r1
 9d2:	b2 9f       	mul	r27, r18
 9d4:	70 0d       	add	r23, r0
 9d6:	81 1d       	adc	r24, r1
 9d8:	11 24       	eor	r1, r1
 9da:	91 1d       	adc	r25, r1
 9dc:	08 95       	ret

000009de <__adddi3_s8>:
 9de:	00 24       	eor	r0, r0
 9e0:	a7 fd       	sbrc	r26, 7
 9e2:	00 94       	com	r0
 9e4:	2a 0f       	add	r18, r26
 9e6:	30 1d       	adc	r19, r0
 9e8:	40 1d       	adc	r20, r0
 9ea:	50 1d       	adc	r21, r0
 9ec:	60 1d       	adc	r22, r0
 9ee:	70 1d       	adc	r23, r0
 9f0:	80 1d       	adc	r24, r0
 9f2:	90 1d       	adc	r25, r0
 9f4:	08 95       	ret

000009f6 <vsnprintf>:
 9f6:	0f 93       	push	r16
 9f8:	1f 93       	push	r17
 9fa:	cf 93       	push	r28
 9fc:	df 93       	push	r29
 9fe:	cd b7       	in	r28, 0x3d	; 61
 a00:	de b7       	in	r29, 0x3e	; 62
 a02:	2e 97       	sbiw	r28, 0x0e	; 14
 a04:	0f b6       	in	r0, 0x3f	; 63
 a06:	f8 94       	cli
 a08:	de bf       	out	0x3e, r29	; 62
 a0a:	0f be       	out	0x3f, r0	; 63
 a0c:	cd bf       	out	0x3d, r28	; 61
 a0e:	8c 01       	movw	r16, r24
 a10:	fa 01       	movw	r30, r20
 a12:	86 e0       	ldi	r24, 0x06	; 6
 a14:	8c 83       	std	Y+4, r24	; 0x04
 a16:	1a 83       	std	Y+2, r17	; 0x02
 a18:	09 83       	std	Y+1, r16	; 0x01
 a1a:	77 ff       	sbrs	r23, 7
 a1c:	02 c0       	rjmp	.+4      	; 0xa22 <vsnprintf+0x2c>
 a1e:	60 e0       	ldi	r22, 0x00	; 0
 a20:	70 e8       	ldi	r23, 0x80	; 128
 a22:	cb 01       	movw	r24, r22
 a24:	01 97       	sbiw	r24, 0x01	; 1
 a26:	9e 83       	std	Y+6, r25	; 0x06
 a28:	8d 83       	std	Y+5, r24	; 0x05
 a2a:	a9 01       	movw	r20, r18
 a2c:	bf 01       	movw	r22, r30
 a2e:	ce 01       	movw	r24, r28
 a30:	01 96       	adiw	r24, 0x01	; 1
 a32:	19 d0       	rcall	.+50     	; 0xa66 <vfprintf>
 a34:	4d 81       	ldd	r20, Y+5	; 0x05
 a36:	5e 81       	ldd	r21, Y+6	; 0x06
 a38:	57 fd       	sbrc	r21, 7
 a3a:	0a c0       	rjmp	.+20     	; 0xa50 <vsnprintf+0x5a>
 a3c:	2f 81       	ldd	r18, Y+7	; 0x07
 a3e:	38 85       	ldd	r19, Y+8	; 0x08
 a40:	42 17       	cp	r20, r18
 a42:	53 07       	cpc	r21, r19
 a44:	0c f4       	brge	.+2      	; 0xa48 <vsnprintf+0x52>
 a46:	9a 01       	movw	r18, r20
 a48:	f8 01       	movw	r30, r16
 a4a:	e2 0f       	add	r30, r18
 a4c:	f3 1f       	adc	r31, r19
 a4e:	10 82       	st	Z, r1
 a50:	2e 96       	adiw	r28, 0x0e	; 14
 a52:	0f b6       	in	r0, 0x3f	; 63
 a54:	f8 94       	cli
 a56:	de bf       	out	0x3e, r29	; 62
 a58:	0f be       	out	0x3f, r0	; 63
 a5a:	cd bf       	out	0x3d, r28	; 61
 a5c:	df 91       	pop	r29
 a5e:	cf 91       	pop	r28
 a60:	1f 91       	pop	r17
 a62:	0f 91       	pop	r16
 a64:	08 95       	ret

00000a66 <vfprintf>:
 a66:	2f 92       	push	r2
 a68:	3f 92       	push	r3
 a6a:	4f 92       	push	r4
 a6c:	5f 92       	push	r5
 a6e:	6f 92       	push	r6
 a70:	7f 92       	push	r7
 a72:	8f 92       	push	r8
 a74:	9f 92       	push	r9
 a76:	af 92       	push	r10
 a78:	bf 92       	push	r11
 a7a:	cf 92       	push	r12
 a7c:	df 92       	push	r13
 a7e:	ef 92       	push	r14
 a80:	ff 92       	push	r15
 a82:	0f 93       	push	r16
 a84:	1f 93       	push	r17
 a86:	cf 93       	push	r28
 a88:	df 93       	push	r29
 a8a:	cd b7       	in	r28, 0x3d	; 61
 a8c:	de b7       	in	r29, 0x3e	; 62
 a8e:	2b 97       	sbiw	r28, 0x0b	; 11
 a90:	0f b6       	in	r0, 0x3f	; 63
 a92:	f8 94       	cli
 a94:	de bf       	out	0x3e, r29	; 62
 a96:	0f be       	out	0x3f, r0	; 63
 a98:	cd bf       	out	0x3d, r28	; 61
 a9a:	6c 01       	movw	r12, r24
 a9c:	7b 01       	movw	r14, r22
 a9e:	8a 01       	movw	r16, r20
 aa0:	fc 01       	movw	r30, r24
 aa2:	17 82       	std	Z+7, r1	; 0x07
 aa4:	16 82       	std	Z+6, r1	; 0x06
 aa6:	83 81       	ldd	r24, Z+3	; 0x03
 aa8:	81 ff       	sbrs	r24, 1
 aaa:	bf c1       	rjmp	.+894    	; 0xe2a <vfprintf+0x3c4>
 aac:	ce 01       	movw	r24, r28
 aae:	01 96       	adiw	r24, 0x01	; 1
 ab0:	3c 01       	movw	r6, r24
 ab2:	f6 01       	movw	r30, r12
 ab4:	93 81       	ldd	r25, Z+3	; 0x03
 ab6:	f7 01       	movw	r30, r14
 ab8:	93 fd       	sbrc	r25, 3
 aba:	85 91       	lpm	r24, Z+
 abc:	93 ff       	sbrs	r25, 3
 abe:	81 91       	ld	r24, Z+
 ac0:	7f 01       	movw	r14, r30
 ac2:	88 23       	and	r24, r24
 ac4:	09 f4       	brne	.+2      	; 0xac8 <vfprintf+0x62>
 ac6:	ad c1       	rjmp	.+858    	; 0xe22 <vfprintf+0x3bc>
 ac8:	85 32       	cpi	r24, 0x25	; 37
 aca:	39 f4       	brne	.+14     	; 0xada <vfprintf+0x74>
 acc:	93 fd       	sbrc	r25, 3
 ace:	85 91       	lpm	r24, Z+
 ad0:	93 ff       	sbrs	r25, 3
 ad2:	81 91       	ld	r24, Z+
 ad4:	7f 01       	movw	r14, r30
 ad6:	85 32       	cpi	r24, 0x25	; 37
 ad8:	21 f4       	brne	.+8      	; 0xae2 <vfprintf+0x7c>
 ada:	b6 01       	movw	r22, r12
 adc:	90 e0       	ldi	r25, 0x00	; 0
 ade:	d6 d1       	rcall	.+940    	; 0xe8c <fputc>
 ae0:	e8 cf       	rjmp	.-48     	; 0xab2 <vfprintf+0x4c>
 ae2:	91 2c       	mov	r9, r1
 ae4:	21 2c       	mov	r2, r1
 ae6:	31 2c       	mov	r3, r1
 ae8:	ff e1       	ldi	r31, 0x1F	; 31
 aea:	f3 15       	cp	r31, r3
 aec:	d8 f0       	brcs	.+54     	; 0xb24 <vfprintf+0xbe>
 aee:	8b 32       	cpi	r24, 0x2B	; 43
 af0:	79 f0       	breq	.+30     	; 0xb10 <vfprintf+0xaa>
 af2:	38 f4       	brcc	.+14     	; 0xb02 <vfprintf+0x9c>
 af4:	80 32       	cpi	r24, 0x20	; 32
 af6:	79 f0       	breq	.+30     	; 0xb16 <vfprintf+0xb0>
 af8:	83 32       	cpi	r24, 0x23	; 35
 afa:	a1 f4       	brne	.+40     	; 0xb24 <vfprintf+0xbe>
 afc:	23 2d       	mov	r18, r3
 afe:	20 61       	ori	r18, 0x10	; 16
 b00:	1d c0       	rjmp	.+58     	; 0xb3c <vfprintf+0xd6>
 b02:	8d 32       	cpi	r24, 0x2D	; 45
 b04:	61 f0       	breq	.+24     	; 0xb1e <vfprintf+0xb8>
 b06:	80 33       	cpi	r24, 0x30	; 48
 b08:	69 f4       	brne	.+26     	; 0xb24 <vfprintf+0xbe>
 b0a:	23 2d       	mov	r18, r3
 b0c:	21 60       	ori	r18, 0x01	; 1
 b0e:	16 c0       	rjmp	.+44     	; 0xb3c <vfprintf+0xd6>
 b10:	83 2d       	mov	r24, r3
 b12:	82 60       	ori	r24, 0x02	; 2
 b14:	38 2e       	mov	r3, r24
 b16:	e3 2d       	mov	r30, r3
 b18:	e4 60       	ori	r30, 0x04	; 4
 b1a:	3e 2e       	mov	r3, r30
 b1c:	2a c0       	rjmp	.+84     	; 0xb72 <vfprintf+0x10c>
 b1e:	f3 2d       	mov	r31, r3
 b20:	f8 60       	ori	r31, 0x08	; 8
 b22:	1d c0       	rjmp	.+58     	; 0xb5e <vfprintf+0xf8>
 b24:	37 fc       	sbrc	r3, 7
 b26:	2d c0       	rjmp	.+90     	; 0xb82 <vfprintf+0x11c>
 b28:	20 ed       	ldi	r18, 0xD0	; 208
 b2a:	28 0f       	add	r18, r24
 b2c:	2a 30       	cpi	r18, 0x0A	; 10
 b2e:	40 f0       	brcs	.+16     	; 0xb40 <vfprintf+0xda>
 b30:	8e 32       	cpi	r24, 0x2E	; 46
 b32:	b9 f4       	brne	.+46     	; 0xb62 <vfprintf+0xfc>
 b34:	36 fc       	sbrc	r3, 6
 b36:	75 c1       	rjmp	.+746    	; 0xe22 <vfprintf+0x3bc>
 b38:	23 2d       	mov	r18, r3
 b3a:	20 64       	ori	r18, 0x40	; 64
 b3c:	32 2e       	mov	r3, r18
 b3e:	19 c0       	rjmp	.+50     	; 0xb72 <vfprintf+0x10c>
 b40:	36 fe       	sbrs	r3, 6
 b42:	06 c0       	rjmp	.+12     	; 0xb50 <vfprintf+0xea>
 b44:	8a e0       	ldi	r24, 0x0A	; 10
 b46:	98 9e       	mul	r9, r24
 b48:	20 0d       	add	r18, r0
 b4a:	11 24       	eor	r1, r1
 b4c:	92 2e       	mov	r9, r18
 b4e:	11 c0       	rjmp	.+34     	; 0xb72 <vfprintf+0x10c>
 b50:	ea e0       	ldi	r30, 0x0A	; 10
 b52:	2e 9e       	mul	r2, r30
 b54:	20 0d       	add	r18, r0
 b56:	11 24       	eor	r1, r1
 b58:	22 2e       	mov	r2, r18
 b5a:	f3 2d       	mov	r31, r3
 b5c:	f0 62       	ori	r31, 0x20	; 32
 b5e:	3f 2e       	mov	r3, r31
 b60:	08 c0       	rjmp	.+16     	; 0xb72 <vfprintf+0x10c>
 b62:	8c 36       	cpi	r24, 0x6C	; 108
 b64:	21 f4       	brne	.+8      	; 0xb6e <vfprintf+0x108>
 b66:	83 2d       	mov	r24, r3
 b68:	80 68       	ori	r24, 0x80	; 128
 b6a:	38 2e       	mov	r3, r24
 b6c:	02 c0       	rjmp	.+4      	; 0xb72 <vfprintf+0x10c>
 b6e:	88 36       	cpi	r24, 0x68	; 104
 b70:	41 f4       	brne	.+16     	; 0xb82 <vfprintf+0x11c>
 b72:	f7 01       	movw	r30, r14
 b74:	93 fd       	sbrc	r25, 3
 b76:	85 91       	lpm	r24, Z+
 b78:	93 ff       	sbrs	r25, 3
 b7a:	81 91       	ld	r24, Z+
 b7c:	7f 01       	movw	r14, r30
 b7e:	81 11       	cpse	r24, r1
 b80:	b3 cf       	rjmp	.-154    	; 0xae8 <vfprintf+0x82>
 b82:	98 2f       	mov	r25, r24
 b84:	9f 7d       	andi	r25, 0xDF	; 223
 b86:	95 54       	subi	r25, 0x45	; 69
 b88:	93 30       	cpi	r25, 0x03	; 3
 b8a:	28 f4       	brcc	.+10     	; 0xb96 <vfprintf+0x130>
 b8c:	0c 5f       	subi	r16, 0xFC	; 252
 b8e:	1f 4f       	sbci	r17, 0xFF	; 255
 b90:	9f e3       	ldi	r25, 0x3F	; 63
 b92:	99 83       	std	Y+1, r25	; 0x01
 b94:	0d c0       	rjmp	.+26     	; 0xbb0 <vfprintf+0x14a>
 b96:	83 36       	cpi	r24, 0x63	; 99
 b98:	31 f0       	breq	.+12     	; 0xba6 <vfprintf+0x140>
 b9a:	83 37       	cpi	r24, 0x73	; 115
 b9c:	71 f0       	breq	.+28     	; 0xbba <vfprintf+0x154>
 b9e:	83 35       	cpi	r24, 0x53	; 83
 ba0:	09 f0       	breq	.+2      	; 0xba4 <vfprintf+0x13e>
 ba2:	55 c0       	rjmp	.+170    	; 0xc4e <vfprintf+0x1e8>
 ba4:	20 c0       	rjmp	.+64     	; 0xbe6 <vfprintf+0x180>
 ba6:	f8 01       	movw	r30, r16
 ba8:	80 81       	ld	r24, Z
 baa:	89 83       	std	Y+1, r24	; 0x01
 bac:	0e 5f       	subi	r16, 0xFE	; 254
 bae:	1f 4f       	sbci	r17, 0xFF	; 255
 bb0:	88 24       	eor	r8, r8
 bb2:	83 94       	inc	r8
 bb4:	91 2c       	mov	r9, r1
 bb6:	53 01       	movw	r10, r6
 bb8:	12 c0       	rjmp	.+36     	; 0xbde <vfprintf+0x178>
 bba:	28 01       	movw	r4, r16
 bbc:	f2 e0       	ldi	r31, 0x02	; 2
 bbe:	4f 0e       	add	r4, r31
 bc0:	51 1c       	adc	r5, r1
 bc2:	f8 01       	movw	r30, r16
 bc4:	a0 80       	ld	r10, Z
 bc6:	b1 80       	ldd	r11, Z+1	; 0x01
 bc8:	36 fe       	sbrs	r3, 6
 bca:	03 c0       	rjmp	.+6      	; 0xbd2 <vfprintf+0x16c>
 bcc:	69 2d       	mov	r22, r9
 bce:	70 e0       	ldi	r23, 0x00	; 0
 bd0:	02 c0       	rjmp	.+4      	; 0xbd6 <vfprintf+0x170>
 bd2:	6f ef       	ldi	r22, 0xFF	; 255
 bd4:	7f ef       	ldi	r23, 0xFF	; 255
 bd6:	c5 01       	movw	r24, r10
 bd8:	4e d1       	rcall	.+668    	; 0xe76 <strnlen>
 bda:	4c 01       	movw	r8, r24
 bdc:	82 01       	movw	r16, r4
 bde:	f3 2d       	mov	r31, r3
 be0:	ff 77       	andi	r31, 0x7F	; 127
 be2:	3f 2e       	mov	r3, r31
 be4:	15 c0       	rjmp	.+42     	; 0xc10 <vfprintf+0x1aa>
 be6:	28 01       	movw	r4, r16
 be8:	22 e0       	ldi	r18, 0x02	; 2
 bea:	42 0e       	add	r4, r18
 bec:	51 1c       	adc	r5, r1
 bee:	f8 01       	movw	r30, r16
 bf0:	a0 80       	ld	r10, Z
 bf2:	b1 80       	ldd	r11, Z+1	; 0x01
 bf4:	36 fe       	sbrs	r3, 6
 bf6:	03 c0       	rjmp	.+6      	; 0xbfe <vfprintf+0x198>
 bf8:	69 2d       	mov	r22, r9
 bfa:	70 e0       	ldi	r23, 0x00	; 0
 bfc:	02 c0       	rjmp	.+4      	; 0xc02 <vfprintf+0x19c>
 bfe:	6f ef       	ldi	r22, 0xFF	; 255
 c00:	7f ef       	ldi	r23, 0xFF	; 255
 c02:	c5 01       	movw	r24, r10
 c04:	2d d1       	rcall	.+602    	; 0xe60 <strnlen_P>
 c06:	4c 01       	movw	r8, r24
 c08:	f3 2d       	mov	r31, r3
 c0a:	f0 68       	ori	r31, 0x80	; 128
 c0c:	3f 2e       	mov	r3, r31
 c0e:	82 01       	movw	r16, r4
 c10:	33 fc       	sbrc	r3, 3
 c12:	19 c0       	rjmp	.+50     	; 0xc46 <vfprintf+0x1e0>
 c14:	82 2d       	mov	r24, r2
 c16:	90 e0       	ldi	r25, 0x00	; 0
 c18:	88 16       	cp	r8, r24
 c1a:	99 06       	cpc	r9, r25
 c1c:	a0 f4       	brcc	.+40     	; 0xc46 <vfprintf+0x1e0>
 c1e:	b6 01       	movw	r22, r12
 c20:	80 e2       	ldi	r24, 0x20	; 32
 c22:	90 e0       	ldi	r25, 0x00	; 0
 c24:	33 d1       	rcall	.+614    	; 0xe8c <fputc>
 c26:	2a 94       	dec	r2
 c28:	f5 cf       	rjmp	.-22     	; 0xc14 <vfprintf+0x1ae>
 c2a:	f5 01       	movw	r30, r10
 c2c:	37 fc       	sbrc	r3, 7
 c2e:	85 91       	lpm	r24, Z+
 c30:	37 fe       	sbrs	r3, 7
 c32:	81 91       	ld	r24, Z+
 c34:	5f 01       	movw	r10, r30
 c36:	b6 01       	movw	r22, r12
 c38:	90 e0       	ldi	r25, 0x00	; 0
 c3a:	28 d1       	rcall	.+592    	; 0xe8c <fputc>
 c3c:	21 10       	cpse	r2, r1
 c3e:	2a 94       	dec	r2
 c40:	21 e0       	ldi	r18, 0x01	; 1
 c42:	82 1a       	sub	r8, r18
 c44:	91 08       	sbc	r9, r1
 c46:	81 14       	cp	r8, r1
 c48:	91 04       	cpc	r9, r1
 c4a:	79 f7       	brne	.-34     	; 0xc2a <vfprintf+0x1c4>
 c4c:	e1 c0       	rjmp	.+450    	; 0xe10 <vfprintf+0x3aa>
 c4e:	84 36       	cpi	r24, 0x64	; 100
 c50:	11 f0       	breq	.+4      	; 0xc56 <vfprintf+0x1f0>
 c52:	89 36       	cpi	r24, 0x69	; 105
 c54:	39 f5       	brne	.+78     	; 0xca4 <vfprintf+0x23e>
 c56:	f8 01       	movw	r30, r16
 c58:	37 fe       	sbrs	r3, 7
 c5a:	07 c0       	rjmp	.+14     	; 0xc6a <vfprintf+0x204>
 c5c:	60 81       	ld	r22, Z
 c5e:	71 81       	ldd	r23, Z+1	; 0x01
 c60:	82 81       	ldd	r24, Z+2	; 0x02
 c62:	93 81       	ldd	r25, Z+3	; 0x03
 c64:	0c 5f       	subi	r16, 0xFC	; 252
 c66:	1f 4f       	sbci	r17, 0xFF	; 255
 c68:	08 c0       	rjmp	.+16     	; 0xc7a <vfprintf+0x214>
 c6a:	60 81       	ld	r22, Z
 c6c:	71 81       	ldd	r23, Z+1	; 0x01
 c6e:	07 2e       	mov	r0, r23
 c70:	00 0c       	add	r0, r0
 c72:	88 0b       	sbc	r24, r24
 c74:	99 0b       	sbc	r25, r25
 c76:	0e 5f       	subi	r16, 0xFE	; 254
 c78:	1f 4f       	sbci	r17, 0xFF	; 255
 c7a:	f3 2d       	mov	r31, r3
 c7c:	ff 76       	andi	r31, 0x6F	; 111
 c7e:	3f 2e       	mov	r3, r31
 c80:	97 ff       	sbrs	r25, 7
 c82:	09 c0       	rjmp	.+18     	; 0xc96 <vfprintf+0x230>
 c84:	90 95       	com	r25
 c86:	80 95       	com	r24
 c88:	70 95       	com	r23
 c8a:	61 95       	neg	r22
 c8c:	7f 4f       	sbci	r23, 0xFF	; 255
 c8e:	8f 4f       	sbci	r24, 0xFF	; 255
 c90:	9f 4f       	sbci	r25, 0xFF	; 255
 c92:	f0 68       	ori	r31, 0x80	; 128
 c94:	3f 2e       	mov	r3, r31
 c96:	2a e0       	ldi	r18, 0x0A	; 10
 c98:	30 e0       	ldi	r19, 0x00	; 0
 c9a:	a3 01       	movw	r20, r6
 c9c:	33 d1       	rcall	.+614    	; 0xf04 <__ultoa_invert>
 c9e:	88 2e       	mov	r8, r24
 ca0:	86 18       	sub	r8, r6
 ca2:	44 c0       	rjmp	.+136    	; 0xd2c <vfprintf+0x2c6>
 ca4:	85 37       	cpi	r24, 0x75	; 117
 ca6:	31 f4       	brne	.+12     	; 0xcb4 <vfprintf+0x24e>
 ca8:	23 2d       	mov	r18, r3
 caa:	2f 7e       	andi	r18, 0xEF	; 239
 cac:	b2 2e       	mov	r11, r18
 cae:	2a e0       	ldi	r18, 0x0A	; 10
 cb0:	30 e0       	ldi	r19, 0x00	; 0
 cb2:	25 c0       	rjmp	.+74     	; 0xcfe <vfprintf+0x298>
 cb4:	93 2d       	mov	r25, r3
 cb6:	99 7f       	andi	r25, 0xF9	; 249
 cb8:	b9 2e       	mov	r11, r25
 cba:	8f 36       	cpi	r24, 0x6F	; 111
 cbc:	c1 f0       	breq	.+48     	; 0xcee <vfprintf+0x288>
 cbe:	18 f4       	brcc	.+6      	; 0xcc6 <vfprintf+0x260>
 cc0:	88 35       	cpi	r24, 0x58	; 88
 cc2:	79 f0       	breq	.+30     	; 0xce2 <vfprintf+0x27c>
 cc4:	ae c0       	rjmp	.+348    	; 0xe22 <vfprintf+0x3bc>
 cc6:	80 37       	cpi	r24, 0x70	; 112
 cc8:	19 f0       	breq	.+6      	; 0xcd0 <vfprintf+0x26a>
 cca:	88 37       	cpi	r24, 0x78	; 120
 ccc:	21 f0       	breq	.+8      	; 0xcd6 <vfprintf+0x270>
 cce:	a9 c0       	rjmp	.+338    	; 0xe22 <vfprintf+0x3bc>
 cd0:	e9 2f       	mov	r30, r25
 cd2:	e0 61       	ori	r30, 0x10	; 16
 cd4:	be 2e       	mov	r11, r30
 cd6:	b4 fe       	sbrs	r11, 4
 cd8:	0d c0       	rjmp	.+26     	; 0xcf4 <vfprintf+0x28e>
 cda:	fb 2d       	mov	r31, r11
 cdc:	f4 60       	ori	r31, 0x04	; 4
 cde:	bf 2e       	mov	r11, r31
 ce0:	09 c0       	rjmp	.+18     	; 0xcf4 <vfprintf+0x28e>
 ce2:	34 fe       	sbrs	r3, 4
 ce4:	0a c0       	rjmp	.+20     	; 0xcfa <vfprintf+0x294>
 ce6:	29 2f       	mov	r18, r25
 ce8:	26 60       	ori	r18, 0x06	; 6
 cea:	b2 2e       	mov	r11, r18
 cec:	06 c0       	rjmp	.+12     	; 0xcfa <vfprintf+0x294>
 cee:	28 e0       	ldi	r18, 0x08	; 8
 cf0:	30 e0       	ldi	r19, 0x00	; 0
 cf2:	05 c0       	rjmp	.+10     	; 0xcfe <vfprintf+0x298>
 cf4:	20 e1       	ldi	r18, 0x10	; 16
 cf6:	30 e0       	ldi	r19, 0x00	; 0
 cf8:	02 c0       	rjmp	.+4      	; 0xcfe <vfprintf+0x298>
 cfa:	20 e1       	ldi	r18, 0x10	; 16
 cfc:	32 e0       	ldi	r19, 0x02	; 2
 cfe:	f8 01       	movw	r30, r16
 d00:	b7 fe       	sbrs	r11, 7
 d02:	07 c0       	rjmp	.+14     	; 0xd12 <vfprintf+0x2ac>
 d04:	60 81       	ld	r22, Z
 d06:	71 81       	ldd	r23, Z+1	; 0x01
 d08:	82 81       	ldd	r24, Z+2	; 0x02
 d0a:	93 81       	ldd	r25, Z+3	; 0x03
 d0c:	0c 5f       	subi	r16, 0xFC	; 252
 d0e:	1f 4f       	sbci	r17, 0xFF	; 255
 d10:	06 c0       	rjmp	.+12     	; 0xd1e <vfprintf+0x2b8>
 d12:	60 81       	ld	r22, Z
 d14:	71 81       	ldd	r23, Z+1	; 0x01
 d16:	80 e0       	ldi	r24, 0x00	; 0
 d18:	90 e0       	ldi	r25, 0x00	; 0
 d1a:	0e 5f       	subi	r16, 0xFE	; 254
 d1c:	1f 4f       	sbci	r17, 0xFF	; 255
 d1e:	a3 01       	movw	r20, r6
 d20:	f1 d0       	rcall	.+482    	; 0xf04 <__ultoa_invert>
 d22:	88 2e       	mov	r8, r24
 d24:	86 18       	sub	r8, r6
 d26:	fb 2d       	mov	r31, r11
 d28:	ff 77       	andi	r31, 0x7F	; 127
 d2a:	3f 2e       	mov	r3, r31
 d2c:	36 fe       	sbrs	r3, 6
 d2e:	0d c0       	rjmp	.+26     	; 0xd4a <vfprintf+0x2e4>
 d30:	23 2d       	mov	r18, r3
 d32:	2e 7f       	andi	r18, 0xFE	; 254
 d34:	a2 2e       	mov	r10, r18
 d36:	89 14       	cp	r8, r9
 d38:	58 f4       	brcc	.+22     	; 0xd50 <vfprintf+0x2ea>
 d3a:	34 fe       	sbrs	r3, 4
 d3c:	0b c0       	rjmp	.+22     	; 0xd54 <vfprintf+0x2ee>
 d3e:	32 fc       	sbrc	r3, 2
 d40:	09 c0       	rjmp	.+18     	; 0xd54 <vfprintf+0x2ee>
 d42:	83 2d       	mov	r24, r3
 d44:	8e 7e       	andi	r24, 0xEE	; 238
 d46:	a8 2e       	mov	r10, r24
 d48:	05 c0       	rjmp	.+10     	; 0xd54 <vfprintf+0x2ee>
 d4a:	b8 2c       	mov	r11, r8
 d4c:	a3 2c       	mov	r10, r3
 d4e:	03 c0       	rjmp	.+6      	; 0xd56 <vfprintf+0x2f0>
 d50:	b8 2c       	mov	r11, r8
 d52:	01 c0       	rjmp	.+2      	; 0xd56 <vfprintf+0x2f0>
 d54:	b9 2c       	mov	r11, r9
 d56:	a4 fe       	sbrs	r10, 4
 d58:	0f c0       	rjmp	.+30     	; 0xd78 <vfprintf+0x312>
 d5a:	fe 01       	movw	r30, r28
 d5c:	e8 0d       	add	r30, r8
 d5e:	f1 1d       	adc	r31, r1
 d60:	80 81       	ld	r24, Z
 d62:	80 33       	cpi	r24, 0x30	; 48
 d64:	21 f4       	brne	.+8      	; 0xd6e <vfprintf+0x308>
 d66:	9a 2d       	mov	r25, r10
 d68:	99 7e       	andi	r25, 0xE9	; 233
 d6a:	a9 2e       	mov	r10, r25
 d6c:	09 c0       	rjmp	.+18     	; 0xd80 <vfprintf+0x31a>
 d6e:	a2 fe       	sbrs	r10, 2
 d70:	06 c0       	rjmp	.+12     	; 0xd7e <vfprintf+0x318>
 d72:	b3 94       	inc	r11
 d74:	b3 94       	inc	r11
 d76:	04 c0       	rjmp	.+8      	; 0xd80 <vfprintf+0x31a>
 d78:	8a 2d       	mov	r24, r10
 d7a:	86 78       	andi	r24, 0x86	; 134
 d7c:	09 f0       	breq	.+2      	; 0xd80 <vfprintf+0x31a>
 d7e:	b3 94       	inc	r11
 d80:	a3 fc       	sbrc	r10, 3
 d82:	10 c0       	rjmp	.+32     	; 0xda4 <vfprintf+0x33e>
 d84:	a0 fe       	sbrs	r10, 0
 d86:	06 c0       	rjmp	.+12     	; 0xd94 <vfprintf+0x32e>
 d88:	b2 14       	cp	r11, r2
 d8a:	80 f4       	brcc	.+32     	; 0xdac <vfprintf+0x346>
 d8c:	28 0c       	add	r2, r8
 d8e:	92 2c       	mov	r9, r2
 d90:	9b 18       	sub	r9, r11
 d92:	0d c0       	rjmp	.+26     	; 0xdae <vfprintf+0x348>
 d94:	b2 14       	cp	r11, r2
 d96:	58 f4       	brcc	.+22     	; 0xdae <vfprintf+0x348>
 d98:	b6 01       	movw	r22, r12
 d9a:	80 e2       	ldi	r24, 0x20	; 32
 d9c:	90 e0       	ldi	r25, 0x00	; 0
 d9e:	76 d0       	rcall	.+236    	; 0xe8c <fputc>
 da0:	b3 94       	inc	r11
 da2:	f8 cf       	rjmp	.-16     	; 0xd94 <vfprintf+0x32e>
 da4:	b2 14       	cp	r11, r2
 da6:	18 f4       	brcc	.+6      	; 0xdae <vfprintf+0x348>
 da8:	2b 18       	sub	r2, r11
 daa:	02 c0       	rjmp	.+4      	; 0xdb0 <vfprintf+0x34a>
 dac:	98 2c       	mov	r9, r8
 dae:	21 2c       	mov	r2, r1
 db0:	a4 fe       	sbrs	r10, 4
 db2:	0f c0       	rjmp	.+30     	; 0xdd2 <vfprintf+0x36c>
 db4:	b6 01       	movw	r22, r12
 db6:	80 e3       	ldi	r24, 0x30	; 48
 db8:	90 e0       	ldi	r25, 0x00	; 0
 dba:	68 d0       	rcall	.+208    	; 0xe8c <fputc>
 dbc:	a2 fe       	sbrs	r10, 2
 dbe:	16 c0       	rjmp	.+44     	; 0xdec <vfprintf+0x386>
 dc0:	a1 fc       	sbrc	r10, 1
 dc2:	03 c0       	rjmp	.+6      	; 0xdca <vfprintf+0x364>
 dc4:	88 e7       	ldi	r24, 0x78	; 120
 dc6:	90 e0       	ldi	r25, 0x00	; 0
 dc8:	02 c0       	rjmp	.+4      	; 0xdce <vfprintf+0x368>
 dca:	88 e5       	ldi	r24, 0x58	; 88
 dcc:	90 e0       	ldi	r25, 0x00	; 0
 dce:	b6 01       	movw	r22, r12
 dd0:	0c c0       	rjmp	.+24     	; 0xdea <vfprintf+0x384>
 dd2:	8a 2d       	mov	r24, r10
 dd4:	86 78       	andi	r24, 0x86	; 134
 dd6:	51 f0       	breq	.+20     	; 0xdec <vfprintf+0x386>
 dd8:	a1 fe       	sbrs	r10, 1
 dda:	02 c0       	rjmp	.+4      	; 0xde0 <vfprintf+0x37a>
 ddc:	8b e2       	ldi	r24, 0x2B	; 43
 dde:	01 c0       	rjmp	.+2      	; 0xde2 <vfprintf+0x37c>
 de0:	80 e2       	ldi	r24, 0x20	; 32
 de2:	a7 fc       	sbrc	r10, 7
 de4:	8d e2       	ldi	r24, 0x2D	; 45
 de6:	b6 01       	movw	r22, r12
 de8:	90 e0       	ldi	r25, 0x00	; 0
 dea:	50 d0       	rcall	.+160    	; 0xe8c <fputc>
 dec:	89 14       	cp	r8, r9
 dee:	30 f4       	brcc	.+12     	; 0xdfc <vfprintf+0x396>
 df0:	b6 01       	movw	r22, r12
 df2:	80 e3       	ldi	r24, 0x30	; 48
 df4:	90 e0       	ldi	r25, 0x00	; 0
 df6:	4a d0       	rcall	.+148    	; 0xe8c <fputc>
 df8:	9a 94       	dec	r9
 dfa:	f8 cf       	rjmp	.-16     	; 0xdec <vfprintf+0x386>
 dfc:	8a 94       	dec	r8
 dfe:	f3 01       	movw	r30, r6
 e00:	e8 0d       	add	r30, r8
 e02:	f1 1d       	adc	r31, r1
 e04:	80 81       	ld	r24, Z
 e06:	b6 01       	movw	r22, r12
 e08:	90 e0       	ldi	r25, 0x00	; 0
 e0a:	40 d0       	rcall	.+128    	; 0xe8c <fputc>
 e0c:	81 10       	cpse	r8, r1
 e0e:	f6 cf       	rjmp	.-20     	; 0xdfc <vfprintf+0x396>
 e10:	22 20       	and	r2, r2
 e12:	09 f4       	brne	.+2      	; 0xe16 <vfprintf+0x3b0>
 e14:	4e ce       	rjmp	.-868    	; 0xab2 <vfprintf+0x4c>
 e16:	b6 01       	movw	r22, r12
 e18:	80 e2       	ldi	r24, 0x20	; 32
 e1a:	90 e0       	ldi	r25, 0x00	; 0
 e1c:	37 d0       	rcall	.+110    	; 0xe8c <fputc>
 e1e:	2a 94       	dec	r2
 e20:	f7 cf       	rjmp	.-18     	; 0xe10 <vfprintf+0x3aa>
 e22:	f6 01       	movw	r30, r12
 e24:	86 81       	ldd	r24, Z+6	; 0x06
 e26:	97 81       	ldd	r25, Z+7	; 0x07
 e28:	02 c0       	rjmp	.+4      	; 0xe2e <vfprintf+0x3c8>
 e2a:	8f ef       	ldi	r24, 0xFF	; 255
 e2c:	9f ef       	ldi	r25, 0xFF	; 255
 e2e:	2b 96       	adiw	r28, 0x0b	; 11
 e30:	0f b6       	in	r0, 0x3f	; 63
 e32:	f8 94       	cli
 e34:	de bf       	out	0x3e, r29	; 62
 e36:	0f be       	out	0x3f, r0	; 63
 e38:	cd bf       	out	0x3d, r28	; 61
 e3a:	df 91       	pop	r29
 e3c:	cf 91       	pop	r28
 e3e:	1f 91       	pop	r17
 e40:	0f 91       	pop	r16
 e42:	ff 90       	pop	r15
 e44:	ef 90       	pop	r14
 e46:	df 90       	pop	r13
 e48:	cf 90       	pop	r12
 e4a:	bf 90       	pop	r11
 e4c:	af 90       	pop	r10
 e4e:	9f 90       	pop	r9
 e50:	8f 90       	pop	r8
 e52:	7f 90       	pop	r7
 e54:	6f 90       	pop	r6
 e56:	5f 90       	pop	r5
 e58:	4f 90       	pop	r4
 e5a:	3f 90       	pop	r3
 e5c:	2f 90       	pop	r2
 e5e:	08 95       	ret

00000e60 <strnlen_P>:
 e60:	fc 01       	movw	r30, r24
 e62:	05 90       	lpm	r0, Z+
 e64:	61 50       	subi	r22, 0x01	; 1
 e66:	70 40       	sbci	r23, 0x00	; 0
 e68:	01 10       	cpse	r0, r1
 e6a:	d8 f7       	brcc	.-10     	; 0xe62 <strnlen_P+0x2>
 e6c:	80 95       	com	r24
 e6e:	90 95       	com	r25
 e70:	8e 0f       	add	r24, r30
 e72:	9f 1f       	adc	r25, r31
 e74:	08 95       	ret

00000e76 <strnlen>:
 e76:	fc 01       	movw	r30, r24
 e78:	61 50       	subi	r22, 0x01	; 1
 e7a:	70 40       	sbci	r23, 0x00	; 0
 e7c:	01 90       	ld	r0, Z+
 e7e:	01 10       	cpse	r0, r1
 e80:	d8 f7       	brcc	.-10     	; 0xe78 <strnlen+0x2>
 e82:	80 95       	com	r24
 e84:	90 95       	com	r25
 e86:	8e 0f       	add	r24, r30
 e88:	9f 1f       	adc	r25, r31
 e8a:	08 95       	ret

00000e8c <fputc>:
 e8c:	0f 93       	push	r16
 e8e:	1f 93       	push	r17
 e90:	cf 93       	push	r28
 e92:	df 93       	push	r29
 e94:	fb 01       	movw	r30, r22
 e96:	23 81       	ldd	r18, Z+3	; 0x03
 e98:	21 fd       	sbrc	r18, 1
 e9a:	03 c0       	rjmp	.+6      	; 0xea2 <fputc+0x16>
 e9c:	8f ef       	ldi	r24, 0xFF	; 255
 e9e:	9f ef       	ldi	r25, 0xFF	; 255
 ea0:	2c c0       	rjmp	.+88     	; 0xefa <fputc+0x6e>
 ea2:	22 ff       	sbrs	r18, 2
 ea4:	16 c0       	rjmp	.+44     	; 0xed2 <fputc+0x46>
 ea6:	46 81       	ldd	r20, Z+6	; 0x06
 ea8:	57 81       	ldd	r21, Z+7	; 0x07
 eaa:	24 81       	ldd	r18, Z+4	; 0x04
 eac:	35 81       	ldd	r19, Z+5	; 0x05
 eae:	42 17       	cp	r20, r18
 eb0:	53 07       	cpc	r21, r19
 eb2:	44 f4       	brge	.+16     	; 0xec4 <fputc+0x38>
 eb4:	a0 81       	ld	r26, Z
 eb6:	b1 81       	ldd	r27, Z+1	; 0x01
 eb8:	9d 01       	movw	r18, r26
 eba:	2f 5f       	subi	r18, 0xFF	; 255
 ebc:	3f 4f       	sbci	r19, 0xFF	; 255
 ebe:	31 83       	std	Z+1, r19	; 0x01
 ec0:	20 83       	st	Z, r18
 ec2:	8c 93       	st	X, r24
 ec4:	26 81       	ldd	r18, Z+6	; 0x06
 ec6:	37 81       	ldd	r19, Z+7	; 0x07
 ec8:	2f 5f       	subi	r18, 0xFF	; 255
 eca:	3f 4f       	sbci	r19, 0xFF	; 255
 ecc:	37 83       	std	Z+7, r19	; 0x07
 ece:	26 83       	std	Z+6, r18	; 0x06
 ed0:	14 c0       	rjmp	.+40     	; 0xefa <fputc+0x6e>
 ed2:	8b 01       	movw	r16, r22
 ed4:	ec 01       	movw	r28, r24
 ed6:	fb 01       	movw	r30, r22
 ed8:	00 84       	ldd	r0, Z+8	; 0x08
 eda:	f1 85       	ldd	r31, Z+9	; 0x09
 edc:	e0 2d       	mov	r30, r0
 ede:	19 95       	eicall
 ee0:	89 2b       	or	r24, r25
 ee2:	e1 f6       	brne	.-72     	; 0xe9c <fputc+0x10>
 ee4:	d8 01       	movw	r26, r16
 ee6:	16 96       	adiw	r26, 0x06	; 6
 ee8:	8d 91       	ld	r24, X+
 eea:	9c 91       	ld	r25, X
 eec:	17 97       	sbiw	r26, 0x07	; 7
 eee:	01 96       	adiw	r24, 0x01	; 1
 ef0:	17 96       	adiw	r26, 0x07	; 7
 ef2:	9c 93       	st	X, r25
 ef4:	8e 93       	st	-X, r24
 ef6:	16 97       	sbiw	r26, 0x06	; 6
 ef8:	ce 01       	movw	r24, r28
 efa:	df 91       	pop	r29
 efc:	cf 91       	pop	r28
 efe:	1f 91       	pop	r17
 f00:	0f 91       	pop	r16
 f02:	08 95       	ret

00000f04 <__ultoa_invert>:
 f04:	fa 01       	movw	r30, r20
 f06:	aa 27       	eor	r26, r26
 f08:	28 30       	cpi	r18, 0x08	; 8
 f0a:	51 f1       	breq	.+84     	; 0xf60 <__ultoa_invert+0x5c>
 f0c:	20 31       	cpi	r18, 0x10	; 16
 f0e:	81 f1       	breq	.+96     	; 0xf70 <__ultoa_invert+0x6c>
 f10:	e8 94       	clt
 f12:	6f 93       	push	r22
 f14:	6e 7f       	andi	r22, 0xFE	; 254
 f16:	6e 5f       	subi	r22, 0xFE	; 254
 f18:	7f 4f       	sbci	r23, 0xFF	; 255
 f1a:	8f 4f       	sbci	r24, 0xFF	; 255
 f1c:	9f 4f       	sbci	r25, 0xFF	; 255
 f1e:	af 4f       	sbci	r26, 0xFF	; 255
 f20:	b1 e0       	ldi	r27, 0x01	; 1
 f22:	3e d0       	rcall	.+124    	; 0xfa0 <__ultoa_invert+0x9c>
 f24:	b4 e0       	ldi	r27, 0x04	; 4
 f26:	3c d0       	rcall	.+120    	; 0xfa0 <__ultoa_invert+0x9c>
 f28:	67 0f       	add	r22, r23
 f2a:	78 1f       	adc	r23, r24
 f2c:	89 1f       	adc	r24, r25
 f2e:	9a 1f       	adc	r25, r26
 f30:	a1 1d       	adc	r26, r1
 f32:	68 0f       	add	r22, r24
 f34:	79 1f       	adc	r23, r25
 f36:	8a 1f       	adc	r24, r26
 f38:	91 1d       	adc	r25, r1
 f3a:	a1 1d       	adc	r26, r1
 f3c:	6a 0f       	add	r22, r26
 f3e:	71 1d       	adc	r23, r1
 f40:	81 1d       	adc	r24, r1
 f42:	91 1d       	adc	r25, r1
 f44:	a1 1d       	adc	r26, r1
 f46:	20 d0       	rcall	.+64     	; 0xf88 <__ultoa_invert+0x84>
 f48:	09 f4       	brne	.+2      	; 0xf4c <__ultoa_invert+0x48>
 f4a:	68 94       	set
 f4c:	3f 91       	pop	r19
 f4e:	2a e0       	ldi	r18, 0x0A	; 10
 f50:	26 9f       	mul	r18, r22
 f52:	11 24       	eor	r1, r1
 f54:	30 19       	sub	r19, r0
 f56:	30 5d       	subi	r19, 0xD0	; 208
 f58:	31 93       	st	Z+, r19
 f5a:	de f6       	brtc	.-74     	; 0xf12 <__ultoa_invert+0xe>
 f5c:	cf 01       	movw	r24, r30
 f5e:	08 95       	ret
 f60:	46 2f       	mov	r20, r22
 f62:	47 70       	andi	r20, 0x07	; 7
 f64:	40 5d       	subi	r20, 0xD0	; 208
 f66:	41 93       	st	Z+, r20
 f68:	b3 e0       	ldi	r27, 0x03	; 3
 f6a:	0f d0       	rcall	.+30     	; 0xf8a <__ultoa_invert+0x86>
 f6c:	c9 f7       	brne	.-14     	; 0xf60 <__ultoa_invert+0x5c>
 f6e:	f6 cf       	rjmp	.-20     	; 0xf5c <__ultoa_invert+0x58>
 f70:	46 2f       	mov	r20, r22
 f72:	4f 70       	andi	r20, 0x0F	; 15
 f74:	40 5d       	subi	r20, 0xD0	; 208
 f76:	4a 33       	cpi	r20, 0x3A	; 58
 f78:	18 f0       	brcs	.+6      	; 0xf80 <__ultoa_invert+0x7c>
 f7a:	49 5d       	subi	r20, 0xD9	; 217
 f7c:	31 fd       	sbrc	r19, 1
 f7e:	40 52       	subi	r20, 0x20	; 32
 f80:	41 93       	st	Z+, r20
 f82:	02 d0       	rcall	.+4      	; 0xf88 <__ultoa_invert+0x84>
 f84:	a9 f7       	brne	.-22     	; 0xf70 <__ultoa_invert+0x6c>
 f86:	ea cf       	rjmp	.-44     	; 0xf5c <__ultoa_invert+0x58>
 f88:	b4 e0       	ldi	r27, 0x04	; 4
 f8a:	a6 95       	lsr	r26
 f8c:	97 95       	ror	r25
 f8e:	87 95       	ror	r24
 f90:	77 95       	ror	r23
 f92:	67 95       	ror	r22
 f94:	ba 95       	dec	r27
 f96:	c9 f7       	brne	.-14     	; 0xf8a <__ultoa_invert+0x86>
 f98:	00 97       	sbiw	r24, 0x00	; 0
 f9a:	61 05       	cpc	r22, r1
 f9c:	71 05       	cpc	r23, r1
 f9e:	08 95       	ret
 fa0:	9b 01       	movw	r18, r22
 fa2:	ac 01       	movw	r20, r24
 fa4:	0a 2e       	mov	r0, r26
 fa6:	06 94       	lsr	r0
 fa8:	57 95       	ror	r21
 faa:	47 95       	ror	r20
 fac:	37 95       	ror	r19
 fae:	27 95       	ror	r18
 fb0:	ba 95       	dec	r27
 fb2:	c9 f7       	brne	.-14     	; 0xfa6 <__ultoa_invert+0xa2>
 fb4:	62 0f       	add	r22, r18
 fb6:	73 1f       	adc	r23, r19
 fb8:	84 1f       	adc	r24, r20
 fba:	95 1f       	adc	r25, r21
 fbc:	a0 1d       	adc	r26, r0
 fbe:	08 95       	ret

00000fc0 <_exit>:
 fc0:	f8 94       	cli

00000fc2 <__stop_program>:
 fc2:	ff cf       	rjmp	.-2      	; 0xfc2 <__stop_program>
