
uCBoardBeispiele.elf:     file format elf32-avr

Sections:
Idx Name          Size      VMA       LMA       File off  Algn
  0 .data         0000007e  00800200  000013d4  00001468  2**0
                  CONTENTS, ALLOC, LOAD, DATA
  1 .text         000013d4  00000000  00000000  00000094  2**1
                  CONTENTS, ALLOC, LOAD, READONLY, CODE
  2 .bss          000000c8  0080027e  0080027e  000014e6  2**0
                  ALLOC
  3 .comment      0000005c  00000000  00000000  000014e6  2**0
                  CONTENTS, READONLY
  4 .note.gnu.avr.deviceinfo 00000040  00000000  00000000  00001544  2**2
                  CONTENTS, READONLY
  5 .debug_aranges 000001e8  00000000  00000000  00001584  2**0
                  CONTENTS, READONLY, DEBUGGING
  6 .debug_info   000024fa  00000000  00000000  0000176c  2**0
                  CONTENTS, READONLY, DEBUGGING
  7 .debug_abbrev 00000faf  00000000  00000000  00003c66  2**0
                  CONTENTS, READONLY, DEBUGGING
  8 .debug_line   000013f7  00000000  00000000  00004c15  2**0
                  CONTENTS, READONLY, DEBUGGING
  9 .debug_frame  00000690  00000000  00000000  0000600c  2**2
                  CONTENTS, READONLY, DEBUGGING
 10 .debug_str    00000cf6  00000000  00000000  0000669c  2**0
                  CONTENTS, READONLY, DEBUGGING
 11 .debug_loc    00001a8e  00000000  00000000  00007392  2**0
                  CONTENTS, READONLY, DEBUGGING
 12 .debug_ranges 00000218  00000000  00000000  00008e20  2**0
                  CONTENTS, READONLY, DEBUGGING

Disassembly of section .text:

00000000 <__vectors>:
       0:	71 c0       	rjmp	.+226    	; 0xe4 <__ctors_end>
       2:	00 00       	nop
       4:	8f c0       	rjmp	.+286    	; 0x124 <__bad_interrupt>
       6:	00 00       	nop
       8:	8d c0       	rjmp	.+282    	; 0x124 <__bad_interrupt>
       a:	00 00       	nop
       c:	8b c0       	rjmp	.+278    	; 0x124 <__bad_interrupt>
       e:	00 00       	nop
      10:	89 c0       	rjmp	.+274    	; 0x124 <__bad_interrupt>
      12:	00 00       	nop
      14:	87 c0       	rjmp	.+270    	; 0x124 <__bad_interrupt>
      16:	00 00       	nop
      18:	85 c0       	rjmp	.+266    	; 0x124 <__bad_interrupt>
      1a:	00 00       	nop
      1c:	83 c0       	rjmp	.+262    	; 0x124 <__bad_interrupt>
      1e:	00 00       	nop
      20:	81 c0       	rjmp	.+258    	; 0x124 <__bad_interrupt>
      22:	00 00       	nop
      24:	7f c0       	rjmp	.+254    	; 0x124 <__bad_interrupt>
      26:	00 00       	nop
      28:	7d c0       	rjmp	.+250    	; 0x124 <__bad_interrupt>
      2a:	00 00       	nop
      2c:	7b c0       	rjmp	.+246    	; 0x124 <__bad_interrupt>
      2e:	00 00       	nop
      30:	79 c0       	rjmp	.+242    	; 0x124 <__bad_interrupt>
      32:	00 00       	nop
      34:	77 c0       	rjmp	.+238    	; 0x124 <__bad_interrupt>
      36:	00 00       	nop
      38:	75 c0       	rjmp	.+234    	; 0x124 <__bad_interrupt>
      3a:	00 00       	nop
      3c:	73 c0       	rjmp	.+230    	; 0x124 <__bad_interrupt>
      3e:	00 00       	nop
      40:	71 c0       	rjmp	.+226    	; 0x124 <__bad_interrupt>
      42:	00 00       	nop
      44:	6f c0       	rjmp	.+222    	; 0x124 <__bad_interrupt>
      46:	00 00       	nop
      48:	6d c0       	rjmp	.+218    	; 0x124 <__bad_interrupt>
      4a:	00 00       	nop
      4c:	6b c0       	rjmp	.+214    	; 0x124 <__bad_interrupt>
      4e:	00 00       	nop
      50:	69 c0       	rjmp	.+210    	; 0x124 <__bad_interrupt>
      52:	00 00       	nop
      54:	67 c0       	rjmp	.+206    	; 0x124 <__bad_interrupt>
      56:	00 00       	nop
      58:	65 c0       	rjmp	.+202    	; 0x124 <__bad_interrupt>
      5a:	00 00       	nop
      5c:	e4 c5       	rjmp	.+3016   	; 0xc26 <__vector_23>
      5e:	00 00       	nop
      60:	61 c0       	rjmp	.+194    	; 0x124 <__bad_interrupt>
      62:	00 00       	nop
      64:	5f c0       	rjmp	.+190    	; 0x124 <__bad_interrupt>
      66:	00 00       	nop
      68:	5d c0       	rjmp	.+186    	; 0x124 <__bad_interrupt>
      6a:	00 00       	nop
      6c:	5b c0       	rjmp	.+182    	; 0x124 <__bad_interrupt>
      6e:	00 00       	nop
      70:	59 c0       	rjmp	.+178    	; 0x124 <__bad_interrupt>
      72:	00 00       	nop
      74:	57 c0       	rjmp	.+174    	; 0x124 <__bad_interrupt>
      76:	00 00       	nop
      78:	55 c0       	rjmp	.+170    	; 0x124 <__bad_interrupt>
      7a:	00 00       	nop
      7c:	53 c0       	rjmp	.+166    	; 0x124 <__bad_interrupt>
      7e:	00 00       	nop
      80:	51 c0       	rjmp	.+162    	; 0x124 <__bad_interrupt>
      82:	00 00       	nop
      84:	4f c0       	rjmp	.+158    	; 0x124 <__bad_interrupt>
      86:	00 00       	nop
      88:	4d c0       	rjmp	.+154    	; 0x124 <__bad_interrupt>
      8a:	00 00       	nop
      8c:	4b c0       	rjmp	.+150    	; 0x124 <__bad_interrupt>
      8e:	00 00       	nop
      90:	49 c0       	rjmp	.+146    	; 0x124 <__bad_interrupt>
      92:	00 00       	nop
      94:	47 c0       	rjmp	.+142    	; 0x124 <__bad_interrupt>
      96:	00 00       	nop
      98:	45 c0       	rjmp	.+138    	; 0x124 <__bad_interrupt>
      9a:	00 00       	nop
      9c:	43 c0       	rjmp	.+134    	; 0x124 <__bad_interrupt>
      9e:	00 00       	nop
      a0:	41 c0       	rjmp	.+130    	; 0x124 <__bad_interrupt>
      a2:	00 00       	nop
      a4:	3f c0       	rjmp	.+126    	; 0x124 <__bad_interrupt>
      a6:	00 00       	nop
      a8:	3d c0       	rjmp	.+122    	; 0x124 <__bad_interrupt>
      aa:	00 00       	nop
      ac:	3b c0       	rjmp	.+118    	; 0x124 <__bad_interrupt>
      ae:	00 00       	nop
      b0:	39 c0       	rjmp	.+114    	; 0x124 <__bad_interrupt>
      b2:	00 00       	nop
      b4:	37 c0       	rjmp	.+110    	; 0x124 <__bad_interrupt>
      b6:	00 00       	nop
      b8:	35 c0       	rjmp	.+106    	; 0x124 <__bad_interrupt>
      ba:	00 00       	nop
      bc:	33 c0       	rjmp	.+102    	; 0x124 <__bad_interrupt>
      be:	00 00       	nop
      c0:	31 c0       	rjmp	.+98     	; 0x124 <__bad_interrupt>
      c2:	00 00       	nop
      c4:	2f c0       	rjmp	.+94     	; 0x124 <__bad_interrupt>
      c6:	00 00       	nop
      c8:	2d c0       	rjmp	.+90     	; 0x124 <__bad_interrupt>
      ca:	00 00       	nop
      cc:	2b c0       	rjmp	.+86     	; 0x124 <__bad_interrupt>
      ce:	00 00       	nop
      d0:	29 c0       	rjmp	.+82     	; 0x124 <__bad_interrupt>
      d2:	00 00       	nop
      d4:	27 c0       	rjmp	.+78     	; 0x124 <__bad_interrupt>
      d6:	00 00       	nop
      d8:	25 c0       	rjmp	.+74     	; 0x124 <__bad_interrupt>
      da:	00 00       	nop
      dc:	23 c0       	rjmp	.+70     	; 0x124 <__bad_interrupt>
      de:	00 00       	nop
      e0:	21 c0       	rjmp	.+66     	; 0x124 <__bad_interrupt>
	...

000000e4 <__ctors_end>:
      e4:	11 24       	eor	r1, r1
      e6:	1f be       	out	0x3f, r1	; 63
      e8:	cf ef       	ldi	r28, 0xFF	; 255
      ea:	d1 e2       	ldi	r29, 0x21	; 33
      ec:	de bf       	out	0x3e, r29	; 62
      ee:	cd bf       	out	0x3d, r28	; 61
      f0:	00 e0       	ldi	r16, 0x00	; 0
      f2:	0c bf       	out	0x3c, r16	; 60

000000f4 <__do_copy_data>:
      f4:	12 e0       	ldi	r17, 0x02	; 2
      f6:	a0 e0       	ldi	r26, 0x00	; 0
      f8:	b2 e0       	ldi	r27, 0x02	; 2
      fa:	e4 ed       	ldi	r30, 0xD4	; 212
      fc:	f3 e1       	ldi	r31, 0x13	; 19
      fe:	00 e0       	ldi	r16, 0x00	; 0
     100:	0b bf       	out	0x3b, r16	; 59
     102:	02 c0       	rjmp	.+4      	; 0x108 <__do_copy_data+0x14>
     104:	07 90       	elpm	r0, Z+
     106:	0d 92       	st	X+, r0
     108:	ae 37       	cpi	r26, 0x7E	; 126
     10a:	b1 07       	cpc	r27, r17
     10c:	d9 f7       	brne	.-10     	; 0x104 <__do_copy_data+0x10>

0000010e <__do_clear_bss>:
     10e:	23 e0       	ldi	r18, 0x03	; 3
     110:	ae e7       	ldi	r26, 0x7E	; 126
     112:	b2 e0       	ldi	r27, 0x02	; 2
     114:	01 c0       	rjmp	.+2      	; 0x118 <.do_clear_bss_start>

00000116 <.do_clear_bss_loop>:
     116:	1d 92       	st	X+, r1

00000118 <.do_clear_bss_start>:
     118:	a6 34       	cpi	r26, 0x46	; 70
     11a:	b2 07       	cpc	r27, r18
     11c:	e1 f7       	brne	.-8      	; 0x116 <.do_clear_bss_loop>
     11e:	03 d0       	rcall	.+6      	; 0x126 <main>
     120:	0c 94 e8 09 	jmp	0x13d0	; 0x13d0 <_exit>

00000124 <__bad_interrupt>:
     124:	6d cf       	rjmp	.-294    	; 0x0 <__vectors>

00000126 <main>:
int main(void)
{
    //Variablen
    
    //Initialisieren
    initBoard(1);
     126:	81 e0       	ldi	r24, 0x01	; 1
     128:	cd d2       	rcall	.+1434   	; 0x6c4 <initBoard>
    while(1)
    {
        //Eingabe------------------------------------------------------------------
        inSpannung_ADC = adcRead(ADC_08_POTI_1);
        inSpannung_ADC1 = adcRead(ADC_09_POTI_2);
        inSpannung_mV = (uint32_t)inSpannung_ADC * 5000 /1023;
     12a:	0f 2e       	mov	r0, r31
     12c:	88 24       	eor	r8, r8
     12e:	8a 94       	dec	r8
     130:	f3 e0       	ldi	r31, 0x03	; 3
     132:	9f 2e       	mov	r9, r31
     134:	a1 2c       	mov	r10, r1
     136:	b1 2c       	mov	r11, r1
     138:	f0 2d       	mov	r31, r0
        else
        {
            outQ1leit= 0xffff;
        }
        //Ausgabe------------------------------------------------------------------
        lcdLog("%u , %u", inSpannung_mV, inSpannung_mV1);
     13a:	ca e0       	ldi	r28, 0x0A	; 10
     13c:	d2 e0       	ldi	r29, 0x02	; 2
        ledWriteAll(outQ1leit);
     13e:	77 24       	eor	r7, r7
     140:	73 94       	inc	r7
     142:	61 2c       	mov	r6, r1
     144:	51 2c       	mov	r5, r1
     146:	41 2c       	mov	r4, r1
    uint16_t outQ1leit = 0;
    //Unendlichschlaufe
    while(1)
    {
        //Eingabe------------------------------------------------------------------
        inSpannung_ADC = adcRead(ADC_08_POTI_1);
     148:	88 e0       	ldi	r24, 0x08	; 8
     14a:	61 d0       	rcall	.+194    	; 0x20e <adcRead>
     14c:	8c 01       	movw	r16, r24
        inSpannung_ADC1 = adcRead(ADC_09_POTI_2);
     14e:	89 e0       	ldi	r24, 0x09	; 9
     150:	5e d0       	rcall	.+188    	; 0x20e <adcRead>
     152:	7c 01       	movw	r14, r24
     154:	98 01       	movw	r18, r16
        inSpannung_mV = (uint32_t)inSpannung_ADC * 5000 /1023;
     156:	a8 e8       	ldi	r26, 0x88	; 136
     158:	b3 e1       	ldi	r27, 0x13	; 19
     15a:	d3 d5       	rcall	.+2982   	; 0xd02 <__umulhisi3>
     15c:	a5 01       	movw	r20, r10
     15e:	94 01       	movw	r18, r8
     160:	ae d5       	rcall	.+2908   	; 0xcbe <__udivmodsi4>
     162:	d2 2e       	mov	r13, r18
     164:	c3 2e       	mov	r12, r19
     166:	82 2f       	mov	r24, r18
     168:	93 2f       	mov	r25, r19
     16a:	8c 01       	movw	r16, r24
     16c:	97 01       	movw	r18, r14
        inSpannung_mV1 = (uint32_t)inSpannung_ADC1 * 5000 /1023;
     16e:	a8 e8       	ldi	r26, 0x88	; 136
     170:	b3 e1       	ldi	r27, 0x13	; 19
     172:	c7 d5       	rcall	.+2958   	; 0xd02 <__umulhisi3>
     174:	a5 01       	movw	r20, r10
     176:	94 01       	movw	r18, r8
     178:	a2 d5       	rcall	.+2884   	; 0xcbe <__udivmodsi4>
     17a:	82 2f       	mov	r24, r18
     17c:	93 2f       	mov	r25, r19
     17e:	7c 01       	movw	r14, r24
     180:	3f 93       	push	r19
     182:	2f 93       	push	r18
        else
        {
            outQ1leit= 0xffff;
        }
        //Ausgabe------------------------------------------------------------------
        lcdLog("%u , %u", inSpannung_mV, inSpannung_mV1);
     184:	cf 92       	push	r12
     186:	df 92       	push	r13
     188:	df 93       	push	r29
     18a:	cf 93       	push	r28
     18c:	a6 d3       	rcall	.+1868   	; 0x8da <lcdLog>
     18e:	87 2d       	mov	r24, r7
     190:	96 2d       	mov	r25, r6
     192:	0e 15       	cp	r16, r14
        ledWriteAll(outQ1leit);
     194:	1f 05       	cpc	r17, r15
     196:	10 f0       	brcs	.+4      	; 0x19c <main+0x76>
     198:	85 2d       	mov	r24, r5
     19a:	94 2d       	mov	r25, r4
     19c:	91 95       	neg	r25
     19e:	81 95       	neg	r24
     1a0:	91 09       	sbc	r25, r1
     1a2:	07 d0       	rcall	.+14     	; 0x1b2 <ledWriteAll>
     1a4:	0f 90       	pop	r0
     1a6:	0f 90       	pop	r0
     1a8:	0f 90       	pop	r0
     1aa:	0f 90       	pop	r0
     1ac:	0f 90       	pop	r0
     1ae:	0f 90       	pop	r0
     1b0:	cb cf       	rjmp	.-106    	; 0x148 <main+0x22>

000001b2 <ledWriteAll>:
     1b2:	82 b9       	out	0x02, r24	; 2
     1b4:	95 b9       	out	0x05, r25	; 5
     1b6:	08 95       	ret

000001b8 <startSystemTimeMs>:
            }
        }
        matrix_buffer_pos += breite + Zeichenabstand;           // Position für das nächste Zeichen berechnen
        str_p++;                                                // Zeichen-Zeiger auf das nächste Zeichen richten
    }
}
     1b8:	83 e0       	ldi	r24, 0x03	; 3
     1ba:	84 bd       	out	0x24, r24	; 36
     1bc:	8b e0       	ldi	r24, 0x0B	; 11
     1be:	85 bd       	out	0x25, r24	; 37
     1c0:	81 e0       	ldi	r24, 0x01	; 1
     1c2:	80 93 6e 00 	sts	0x006E, r24	; 0x80006e <__TEXT_REGION_LENGTH__+0x70006e>
     1c6:	89 ef       	ldi	r24, 0xF9	; 249
     1c8:	87 bd       	out	0x27, r24	; 39
     1ca:	08 95       	ret

000001cc <initAdc>:
     1cc:	11 ba       	out	0x11, r1	; 17
     1ce:	10 ba       	out	0x10, r1	; 16
     1d0:	10 92 08 01 	sts	0x0108, r1	; 0x800108 <__TEXT_REGION_LENGTH__+0x700108>
     1d4:	10 92 07 01 	sts	0x0107, r1	; 0x800107 <__TEXT_REGION_LENGTH__+0x700107>
     1d8:	80 e4       	ldi	r24, 0x40	; 64
     1da:	80 93 7c 00 	sts	0x007C, r24	; 0x80007c <__TEXT_REGION_LENGTH__+0x70007c>
     1de:	8f e0       	ldi	r24, 0x0F	; 15
     1e0:	80 93 7e 00 	sts	0x007E, r24	; 0x80007e <__TEXT_REGION_LENGTH__+0x70007e>
     1e4:	8f ef       	ldi	r24, 0xFF	; 255
     1e6:	80 93 7d 00 	sts	0x007D, r24	; 0x80007d <__TEXT_REGION_LENGTH__+0x70007d>
     1ea:	ea e7       	ldi	r30, 0x7A	; 122
     1ec:	f0 e0       	ldi	r31, 0x00	; 0
     1ee:	87 ea       	ldi	r24, 0xA7	; 167
     1f0:	80 83       	st	Z, r24
     1f2:	10 92 7b 00 	sts	0x007B, r1	; 0x80007b <__TEXT_REGION_LENGTH__+0x70007b>
     1f6:	80 81       	ld	r24, Z
     1f8:	80 64       	ori	r24, 0x40	; 64
     1fa:	80 83       	st	Z, r24
     1fc:	80 81       	ld	r24, Z
     1fe:	84 ff       	sbrs	r24, 4
     200:	fd cf       	rjmp	.-6      	; 0x1fc <initAdc+0x30>
     202:	ea e7       	ldi	r30, 0x7A	; 122
     204:	f0 e0       	ldi	r31, 0x00	; 0
     206:	80 81       	ld	r24, Z
     208:	8f 7e       	andi	r24, 0xEF	; 239
     20a:	80 83       	st	Z, r24
     20c:	08 95       	ret

0000020e <adcRead>:
     20e:	90 e4       	ldi	r25, 0x40	; 64
     210:	90 93 7c 00 	sts	0x007C, r25	; 0x80007c <__TEXT_REGION_LENGTH__+0x70007c>
     214:	88 30       	cpi	r24, 0x08	; 8
     216:	60 f0       	brcs	.+24     	; 0x230 <adcRead+0x22>
     218:	ec e7       	ldi	r30, 0x7C	; 124
     21a:	f0 e0       	ldi	r31, 0x00	; 0
     21c:	90 81       	ld	r25, Z
     21e:	88 50       	subi	r24, 0x08	; 8
     220:	89 2b       	or	r24, r25
     222:	80 83       	st	Z, r24
     224:	eb e7       	ldi	r30, 0x7B	; 123
     226:	f0 e0       	ldi	r31, 0x00	; 0
     228:	80 81       	ld	r24, Z
     22a:	88 61       	ori	r24, 0x18	; 24
     22c:	80 83       	st	Z, r24
     22e:	0a c0       	rjmp	.+20     	; 0x244 <adcRead+0x36>
     230:	ec e7       	ldi	r30, 0x7C	; 124
     232:	f0 e0       	ldi	r31, 0x00	; 0
     234:	90 81       	ld	r25, Z
     236:	89 2b       	or	r24, r25
     238:	80 83       	st	Z, r24
     23a:	eb e7       	ldi	r30, 0x7B	; 123
     23c:	f0 e0       	ldi	r31, 0x00	; 0
     23e:	80 81       	ld	r24, Z
     240:	87 7e       	andi	r24, 0xE7	; 231
     242:	80 83       	st	Z, r24
     244:	ea e7       	ldi	r30, 0x7A	; 122
     246:	f0 e0       	ldi	r31, 0x00	; 0
     248:	80 81       	ld	r24, Z
     24a:	80 64       	ori	r24, 0x40	; 64
     24c:	80 83       	st	Z, r24
     24e:	80 81       	ld	r24, Z
     250:	84 ff       	sbrs	r24, 4
     252:	fd cf       	rjmp	.-6      	; 0x24e <adcRead+0x40>
     254:	8f ea       	ldi	r24, 0xAF	; 175
     256:	94 e0       	ldi	r25, 0x04	; 4
     258:	01 97       	sbiw	r24, 0x01	; 1
     25a:	f1 f7       	brne	.-4      	; 0x258 <adcRead+0x4a>
     25c:	00 c0       	rjmp	.+0      	; 0x25e <adcRead+0x50>
     25e:	00 00       	nop
     260:	80 91 78 00 	lds	r24, 0x0078	; 0x800078 <__TEXT_REGION_LENGTH__+0x700078>
     264:	20 91 79 00 	lds	r18, 0x0079	; 0x800079 <__TEXT_REGION_LENGTH__+0x700079>
     268:	ea e7       	ldi	r30, 0x7A	; 122
     26a:	f0 e0       	ldi	r31, 0x00	; 0
     26c:	90 81       	ld	r25, Z
     26e:	9f 7e       	andi	r25, 0xEF	; 239
     270:	90 83       	st	Z, r25
     272:	90 e0       	ldi	r25, 0x00	; 0
     274:	92 2b       	or	r25, r18
     276:	08 95       	ret

00000278 <rgbWrite>:
     278:	2f ef       	ldi	r18, 0xFF	; 255
     27a:	33 e0       	ldi	r19, 0x03	; 3
     27c:	f9 01       	movw	r30, r18
     27e:	e8 1b       	sub	r30, r24
     280:	f9 0b       	sbc	r31, r25
     282:	c9 01       	movw	r24, r18
     284:	86 1b       	sub	r24, r22
     286:	97 0b       	sbc	r25, r23
     288:	24 1b       	sub	r18, r20
     28a:	35 0b       	sbc	r19, r21
     28c:	f0 93 a9 00 	sts	0x00A9, r31	; 0x8000a9 <__TEXT_REGION_LENGTH__+0x7000a9>
     290:	e0 93 a8 00 	sts	0x00A8, r30	; 0x8000a8 <__TEXT_REGION_LENGTH__+0x7000a8>
     294:	90 93 ab 00 	sts	0x00AB, r25	; 0x8000ab <__TEXT_REGION_LENGTH__+0x7000ab>
     298:	80 93 aa 00 	sts	0x00AA, r24	; 0x8000aa <__TEXT_REGION_LENGTH__+0x7000aa>
     29c:	30 93 ad 00 	sts	0x00AD, r19	; 0x8000ad <__TEXT_REGION_LENGTH__+0x7000ad>
     2a0:	20 93 ac 00 	sts	0x00AC, r18	; 0x8000ac <__TEXT_REGION_LENGTH__+0x7000ac>
     2a4:	08 95       	ret

000002a6 <initRgb>:
     2a6:	8e ef       	ldi	r24, 0xFE	; 254
     2a8:	80 93 a0 00 	sts	0x00A0, r24	; 0x8000a0 <__TEXT_REGION_LENGTH__+0x7000a0>
     2ac:	8b e1       	ldi	r24, 0x1B	; 27
     2ae:	80 93 a1 00 	sts	0x00A1, r24	; 0x8000a1 <__TEXT_REGION_LENGTH__+0x7000a1>
     2b2:	83 e0       	ldi	r24, 0x03	; 3
     2b4:	80 93 a7 00 	sts	0x00A7, r24	; 0x8000a7 <__TEXT_REGION_LENGTH__+0x7000a7>
     2b8:	8f ef       	ldi	r24, 0xFF	; 255
     2ba:	80 93 a6 00 	sts	0x00A6, r24	; 0x8000a6 <__TEXT_REGION_LENGTH__+0x7000a6>
     2be:	40 e0       	ldi	r20, 0x00	; 0
     2c0:	50 e0       	ldi	r21, 0x00	; 0
     2c2:	60 e0       	ldi	r22, 0x00	; 0
     2c4:	70 e0       	ldi	r23, 0x00	; 0
     2c6:	80 e0       	ldi	r24, 0x00	; 0
     2c8:	90 e0       	ldi	r25, 0x00	; 0
     2ca:	d6 cf       	rjmp	.-84     	; 0x278 <rgbWrite>
     2cc:	08 95       	ret

000002ce <lcdSid>:
     2ce:	88 23       	and	r24, r24
     2d0:	11 f0       	breq	.+4      	; 0x2d6 <lcdSid+0x8>
     2d2:	a0 9a       	sbi	0x14, 0	; 20
     2d4:	08 95       	ret
     2d6:	a0 98       	cbi	0x14, 0	; 20
     2d8:	08 95       	ret

000002da <lcdSclk>:
     2da:	88 23       	and	r24, r24
     2dc:	11 f0       	breq	.+4      	; 0x2e2 <lcdSclk+0x8>
     2de:	a1 9a       	sbi	0x14, 1	; 20
     2e0:	08 95       	ret
     2e2:	a1 98       	cbi	0x14, 1	; 20
     2e4:	08 95       	ret

000002e6 <lcdLight>:
     2e6:	81 11       	cpse	r24, r1
     2e8:	04 c0       	rjmp	.+8      	; 0x2f2 <lcdLight+0xc>
     2ea:	84 b5       	in	r24, 0x24	; 36
     2ec:	8f 7d       	andi	r24, 0xDF	; 223
     2ee:	84 bd       	out	0x24, r24	; 36
     2f0:	08 95       	ret
     2f2:	94 b5       	in	r25, 0x24	; 36
     2f4:	90 62       	ori	r25, 0x20	; 32
     2f6:	94 bd       	out	0x24, r25	; 36
     2f8:	88 bd       	out	0x28, r24	; 40
     2fa:	08 95       	ret

000002fc <writeLcdF>:
     2fc:	ef 92       	push	r14
     2fe:	ff 92       	push	r15
     300:	0f 93       	push	r16
     302:	1f 93       	push	r17
     304:	cf 93       	push	r28
     306:	df 93       	push	r29
     308:	7c 01       	movw	r14, r24
     30a:	eb 01       	movw	r28, r22
     30c:	81 e0       	ldi	r24, 0x01	; 1
     30e:	df df       	rcall	.-66     	; 0x2ce <lcdSid>
     310:	05 e0       	ldi	r16, 0x05	; 5
     312:	10 e0       	ldi	r17, 0x00	; 0
     314:	80 e0       	ldi	r24, 0x00	; 0
     316:	e1 df       	rcall	.-62     	; 0x2da <lcdSclk>
     318:	81 e0       	ldi	r24, 0x01	; 1
     31a:	df df       	rcall	.-66     	; 0x2da <lcdSclk>
     31c:	01 50       	subi	r16, 0x01	; 1
     31e:	11 09       	sbc	r17, r1
     320:	c9 f7       	brne	.-14     	; 0x314 <writeLcdF+0x18>
     322:	80 e0       	ldi	r24, 0x00	; 0
     324:	d4 df       	rcall	.-88     	; 0x2ce <lcdSid>
     326:	80 e0       	ldi	r24, 0x00	; 0
     328:	d8 df       	rcall	.-80     	; 0x2da <lcdSclk>
     32a:	81 e0       	ldi	r24, 0x01	; 1
     32c:	d6 df       	rcall	.-84     	; 0x2da <lcdSclk>
     32e:	83 e4       	ldi	r24, 0x43	; 67
     330:	e8 16       	cp	r14, r24
     332:	f1 04       	cpc	r15, r1
     334:	19 f4       	brne	.+6      	; 0x33c <writeLcdF+0x40>
     336:	80 e0       	ldi	r24, 0x00	; 0
     338:	ca df       	rcall	.-108    	; 0x2ce <lcdSid>
     33a:	02 c0       	rjmp	.+4      	; 0x340 <writeLcdF+0x44>
     33c:	81 e0       	ldi	r24, 0x01	; 1
     33e:	c7 df       	rcall	.-114    	; 0x2ce <lcdSid>
     340:	80 e0       	ldi	r24, 0x00	; 0
     342:	cb df       	rcall	.-106    	; 0x2da <lcdSclk>
     344:	81 e0       	ldi	r24, 0x01	; 1
     346:	c9 df       	rcall	.-110    	; 0x2da <lcdSclk>
     348:	80 e0       	ldi	r24, 0x00	; 0
     34a:	c1 df       	rcall	.-126    	; 0x2ce <lcdSid>
     34c:	80 e0       	ldi	r24, 0x00	; 0
     34e:	c5 df       	rcall	.-118    	; 0x2da <lcdSclk>
     350:	81 e0       	ldi	r24, 0x01	; 1
     352:	c3 df       	rcall	.-122    	; 0x2da <lcdSclk>
     354:	04 e0       	ldi	r16, 0x04	; 4
     356:	10 e0       	ldi	r17, 0x00	; 0
     358:	80 e0       	ldi	r24, 0x00	; 0
     35a:	bf df       	rcall	.-130    	; 0x2da <lcdSclk>
     35c:	c0 ff       	sbrs	r28, 0
     35e:	03 c0       	rjmp	.+6      	; 0x366 <writeLcdF+0x6a>
     360:	81 e0       	ldi	r24, 0x01	; 1
     362:	b5 df       	rcall	.-150    	; 0x2ce <lcdSid>
     364:	02 c0       	rjmp	.+4      	; 0x36a <writeLcdF+0x6e>
     366:	80 e0       	ldi	r24, 0x00	; 0
     368:	b2 df       	rcall	.-156    	; 0x2ce <lcdSid>
     36a:	d6 95       	lsr	r29
     36c:	c7 95       	ror	r28
     36e:	80 e0       	ldi	r24, 0x00	; 0
     370:	b4 df       	rcall	.-152    	; 0x2da <lcdSclk>
     372:	81 e0       	ldi	r24, 0x01	; 1
     374:	b2 df       	rcall	.-156    	; 0x2da <lcdSclk>
     376:	01 50       	subi	r16, 0x01	; 1
     378:	11 09       	sbc	r17, r1
     37a:	71 f7       	brne	.-36     	; 0x358 <writeLcdF+0x5c>
     37c:	80 e0       	ldi	r24, 0x00	; 0
     37e:	a7 df       	rcall	.-178    	; 0x2ce <lcdSid>
     380:	04 e0       	ldi	r16, 0x04	; 4
     382:	10 e0       	ldi	r17, 0x00	; 0
     384:	80 e0       	ldi	r24, 0x00	; 0
     386:	a9 df       	rcall	.-174    	; 0x2da <lcdSclk>
     388:	81 e0       	ldi	r24, 0x01	; 1
     38a:	a7 df       	rcall	.-178    	; 0x2da <lcdSclk>
     38c:	01 50       	subi	r16, 0x01	; 1
     38e:	11 09       	sbc	r17, r1
     390:	c9 f7       	brne	.-14     	; 0x384 <writeLcdF+0x88>
     392:	04 e0       	ldi	r16, 0x04	; 4
     394:	10 e0       	ldi	r17, 0x00	; 0
     396:	80 e0       	ldi	r24, 0x00	; 0
     398:	a0 df       	rcall	.-192    	; 0x2da <lcdSclk>
     39a:	c0 ff       	sbrs	r28, 0
     39c:	03 c0       	rjmp	.+6      	; 0x3a4 <writeLcdF+0xa8>
     39e:	81 e0       	ldi	r24, 0x01	; 1
     3a0:	96 df       	rcall	.-212    	; 0x2ce <lcdSid>
     3a2:	02 c0       	rjmp	.+4      	; 0x3a8 <writeLcdF+0xac>
     3a4:	80 e0       	ldi	r24, 0x00	; 0
     3a6:	93 df       	rcall	.-218    	; 0x2ce <lcdSid>
     3a8:	d6 95       	lsr	r29
     3aa:	c7 95       	ror	r28
     3ac:	80 e0       	ldi	r24, 0x00	; 0
     3ae:	95 df       	rcall	.-214    	; 0x2da <lcdSclk>
     3b0:	81 e0       	ldi	r24, 0x01	; 1
     3b2:	93 df       	rcall	.-218    	; 0x2da <lcdSclk>
     3b4:	01 50       	subi	r16, 0x01	; 1
     3b6:	11 09       	sbc	r17, r1
     3b8:	71 f7       	brne	.-36     	; 0x396 <writeLcdF+0x9a>
     3ba:	80 e0       	ldi	r24, 0x00	; 0
     3bc:	88 df       	rcall	.-240    	; 0x2ce <lcdSid>
     3be:	c4 e0       	ldi	r28, 0x04	; 4
     3c0:	d0 e0       	ldi	r29, 0x00	; 0
     3c2:	80 e0       	ldi	r24, 0x00	; 0
     3c4:	8a df       	rcall	.-236    	; 0x2da <lcdSclk>
     3c6:	81 e0       	ldi	r24, 0x01	; 1
     3c8:	88 df       	rcall	.-240    	; 0x2da <lcdSclk>
     3ca:	21 97       	sbiw	r28, 0x01	; 1
     3cc:	d1 f7       	brne	.-12     	; 0x3c2 <writeLcdF+0xc6>
     3ce:	81 e0       	ldi	r24, 0x01	; 1
     3d0:	7e df       	rcall	.-260    	; 0x2ce <lcdSid>
     3d2:	87 ec       	ldi	r24, 0xC7	; 199
     3d4:	90 e0       	ldi	r25, 0x00	; 0
     3d6:	01 97       	sbiw	r24, 0x01	; 1
     3d8:	f1 f7       	brne	.-4      	; 0x3d6 <writeLcdF+0xda>
     3da:	00 c0       	rjmp	.+0      	; 0x3dc <writeLcdF+0xe0>
     3dc:	00 00       	nop
     3de:	df 91       	pop	r29
     3e0:	cf 91       	pop	r28
     3e2:	1f 91       	pop	r17
     3e4:	0f 91       	pop	r16
     3e6:	ff 90       	pop	r15
     3e8:	ef 90       	pop	r14
     3ea:	08 95       	ret

000003ec <lcdWriteText>:
     3ec:	1f 93       	push	r17
     3ee:	cf 93       	push	r28
     3f0:	df 93       	push	r29
     3f2:	cd b7       	in	r28, 0x3d	; 61
     3f4:	de b7       	in	r29, 0x3e	; 62
     3f6:	65 97       	sbiw	r28, 0x15	; 21
     3f8:	0f b6       	in	r0, 0x3f	; 63
     3fa:	f8 94       	cli
     3fc:	de bf       	out	0x3e, r29	; 62
     3fe:	0f be       	out	0x3f, r0	; 63
     400:	cd bf       	out	0x3d, r28	; 61
     402:	9e 01       	movw	r18, r28
     404:	20 5e       	subi	r18, 0xE0	; 224
     406:	3f 4f       	sbci	r19, 0xFF	; 255
     408:	4e 8d       	ldd	r20, Y+30	; 0x1e
     40a:	5f 8d       	ldd	r21, Y+31	; 0x1f
     40c:	65 e1       	ldi	r22, 0x15	; 21
     40e:	70 e0       	ldi	r23, 0x00	; 0
     410:	ce 01       	movw	r24, r28
     412:	01 96       	adiw	r24, 0x01	; 1
     414:	f8 d4       	rcall	.+2544   	; 0xe06 <vsnprintf>
     416:	6d 8d       	ldd	r22, Y+29	; 0x1d
     418:	8c 8d       	ldd	r24, Y+28	; 0x1c
     41a:	90 e2       	ldi	r25, 0x20	; 32
     41c:	89 9f       	mul	r24, r25
     41e:	60 0d       	add	r22, r0
     420:	11 24       	eor	r1, r1
     422:	60 68       	ori	r22, 0x80	; 128
     424:	70 e0       	ldi	r23, 0x00	; 0
     426:	83 e4       	ldi	r24, 0x43	; 67
     428:	90 e0       	ldi	r25, 0x00	; 0
     42a:	68 df       	rcall	.-304    	; 0x2fc <writeLcdF>
     42c:	69 81       	ldd	r22, Y+1	; 0x01
     42e:	66 23       	and	r22, r22
     430:	79 f0       	breq	.+30     	; 0x450 <__LOCK_REGION_LENGTH__+0x50>
     432:	10 e0       	ldi	r17, 0x00	; 0
     434:	1f 5f       	subi	r17, 0xFF	; 255
     436:	70 e0       	ldi	r23, 0x00	; 0
     438:	84 e4       	ldi	r24, 0x44	; 68
     43a:	90 e0       	ldi	r25, 0x00	; 0
     43c:	5f df       	rcall	.-322    	; 0x2fc <writeLcdF>
     43e:	e1 e0       	ldi	r30, 0x01	; 1
     440:	f0 e0       	ldi	r31, 0x00	; 0
     442:	ec 0f       	add	r30, r28
     444:	fd 1f       	adc	r31, r29
     446:	e1 0f       	add	r30, r17
     448:	f1 1d       	adc	r31, r1
     44a:	60 81       	ld	r22, Z
     44c:	61 11       	cpse	r22, r1
     44e:	f2 cf       	rjmp	.-28     	; 0x434 <__LOCK_REGION_LENGTH__+0x34>
     450:	65 96       	adiw	r28, 0x15	; 21
     452:	0f b6       	in	r0, 0x3f	; 63
     454:	f8 94       	cli
     456:	de bf       	out	0x3e, r29	; 62
     458:	0f be       	out	0x3f, r0	; 63
     45a:	cd bf       	out	0x3d, r28	; 61
     45c:	df 91       	pop	r29
     45e:	cf 91       	pop	r28
     460:	1f 91       	pop	r17
     462:	08 95       	ret

00000464 <lcdWriteZahl>:
     464:	2f 92       	push	r2
     466:	3f 92       	push	r3
     468:	4f 92       	push	r4
     46a:	5f 92       	push	r5
     46c:	6f 92       	push	r6
     46e:	7f 92       	push	r7
     470:	8f 92       	push	r8
     472:	9f 92       	push	r9
     474:	af 92       	push	r10
     476:	bf 92       	push	r11
     478:	cf 92       	push	r12
     47a:	df 92       	push	r13
     47c:	ef 92       	push	r14
     47e:	ff 92       	push	r15
     480:	0f 93       	push	r16
     482:	1f 93       	push	r17
     484:	cf 93       	push	r28
     486:	df 93       	push	r29
     488:	cd b7       	in	r28, 0x3d	; 61
     48a:	de b7       	in	r29, 0x3e	; 62
     48c:	e3 97       	sbiw	r28, 0x33	; 51
     48e:	0f b6       	in	r0, 0x3f	; 63
     490:	f8 94       	cli
     492:	de bf       	out	0x3e, r29	; 62
     494:	0f be       	out	0x3f, r0	; 63
     496:	cd bf       	out	0x3d, r28	; 61
     498:	8a ab       	std	Y+50, r24	; 0x32
     49a:	6b ab       	std	Y+51, r22	; 0x33
     49c:	ed a6       	std	Y+45, r14	; 0x2d
     49e:	fe a6       	std	Y+46, r15	; 0x2e
     4a0:	70 2e       	mov	r7, r16
     4a2:	61 2e       	mov	r6, r17
     4a4:	52 2e       	mov	r5, r18
     4a6:	43 2e       	mov	r4, r19
     4a8:	cf a6       	std	Y+47, r12	; 0x2f
     4aa:	a8 aa       	std	Y+48, r10	; 0x30
     4ac:	8c 2d       	mov	r24, r12
     4ae:	8a 0d       	add	r24, r10
     4b0:	89 ab       	std	Y+49, r24	; 0x31
     4b2:	85 31       	cpi	r24, 0x15	; 21
     4b4:	70 f0       	brcs	.+28     	; 0x4d2 <lcdWriteZahl+0x6e>
     4b6:	82 e1       	ldi	r24, 0x12	; 18
     4b8:	92 e0       	ldi	r25, 0x02	; 2
     4ba:	9f 93       	push	r25
     4bc:	8f 93       	push	r24
     4be:	9b a9       	ldd	r25, Y+51	; 0x33
     4c0:	9f 93       	push	r25
     4c2:	ea a9       	ldd	r30, Y+50	; 0x32
     4c4:	ef 93       	push	r30
     4c6:	92 df       	rcall	.-220    	; 0x3ec <lcdWriteText>
     4c8:	0f 90       	pop	r0
     4ca:	0f 90       	pop	r0
     4cc:	0f 90       	pop	r0
     4ce:	0f 90       	pop	r0
     4d0:	a8 c0       	rjmp	.+336    	; 0x622 <lcdWriteZahl+0x1be>
     4d2:	4e 01       	movw	r8, r28
     4d4:	f5 e1       	ldi	r31, 0x15	; 21
     4d6:	8f 0e       	add	r8, r31
     4d8:	91 1c       	adc	r9, r1
     4da:	ce 01       	movw	r24, r28
     4dc:	01 96       	adiw	r24, 0x01	; 1
     4de:	9c a7       	std	Y+44, r25	; 0x2c
     4e0:	8b a7       	std	Y+43, r24	; 0x2b
     4e2:	24 2e       	mov	r2, r20
     4e4:	35 2e       	mov	r3, r21
     4e6:	0f 2e       	mov	r0, r31
     4e8:	fa e0       	ldi	r31, 0x0A	; 10
     4ea:	af 2e       	mov	r10, r31
     4ec:	f0 2d       	mov	r31, r0
     4ee:	b1 2c       	mov	r11, r1
     4f0:	c1 2c       	mov	r12, r1
     4f2:	d1 2c       	mov	r13, r1
     4f4:	e1 2c       	mov	r14, r1
     4f6:	f1 2c       	mov	r15, r1
     4f8:	00 e0       	ldi	r16, 0x00	; 0
     4fa:	10 e0       	ldi	r17, 0x00	; 0
     4fc:	2d a5       	ldd	r18, Y+45	; 0x2d
     4fe:	3e a5       	ldd	r19, Y+46	; 0x2e
     500:	47 2d       	mov	r20, r7
     502:	56 2d       	mov	r21, r6
     504:	65 2d       	mov	r22, r5
     506:	74 2d       	mov	r23, r4
     508:	82 2d       	mov	r24, r2
     50a:	93 2d       	mov	r25, r3
     50c:	09 d4       	rcall	.+2066   	; 0xd20 <__umoddi3>
     50e:	20 5d       	subi	r18, 0xD0	; 208
     510:	f4 01       	movw	r30, r8
     512:	22 93       	st	-Z, r18
     514:	4f 01       	movw	r8, r30
     516:	2d a5       	ldd	r18, Y+45	; 0x2d
     518:	3e a5       	ldd	r19, Y+46	; 0x2e
     51a:	47 2d       	mov	r20, r7
     51c:	56 2d       	mov	r21, r6
     51e:	65 2d       	mov	r22, r5
     520:	74 2d       	mov	r23, r4
     522:	82 2d       	mov	r24, r2
     524:	93 2d       	mov	r25, r3
     526:	fe d3       	rcall	.+2044   	; 0xd24 <__udivdi3>
     528:	2d a7       	std	Y+45, r18	; 0x2d
     52a:	3e a7       	std	Y+46, r19	; 0x2e
     52c:	74 2e       	mov	r7, r20
     52e:	65 2e       	mov	r6, r21
     530:	56 2e       	mov	r5, r22
     532:	47 2e       	mov	r4, r23
     534:	28 2e       	mov	r2, r24
     536:	39 2e       	mov	r3, r25
     538:	8b a5       	ldd	r24, Y+43	; 0x2b
     53a:	9c a5       	ldd	r25, Y+44	; 0x2c
     53c:	88 15       	cp	r24, r8
     53e:	99 05       	cpc	r25, r9
     540:	91 f6       	brne	.-92     	; 0x4e6 <lcdWriteZahl+0x82>
     542:	84 e1       	ldi	r24, 0x14	; 20
     544:	99 a9       	ldd	r25, Y+49	; 0x31
     546:	89 1b       	sub	r24, r25
     548:	ef a5       	ldd	r30, Y+47	; 0x2f
     54a:	ee 23       	and	r30, r30
     54c:	89 f0       	breq	.+34     	; 0x570 <lcdWriteZahl+0x10c>
     54e:	fe 01       	movw	r30, r28
     550:	75 96       	adiw	r30, 0x15	; 21
     552:	2f a5       	ldd	r18, Y+47	; 0x2f
     554:	28 0f       	add	r18, r24
     556:	a1 e0       	ldi	r26, 0x01	; 1
     558:	b0 e0       	ldi	r27, 0x00	; 0
     55a:	ac 0f       	add	r26, r28
     55c:	bd 1f       	adc	r27, r29
     55e:	a8 0f       	add	r26, r24
     560:	b1 1d       	adc	r27, r1
     562:	9c 91       	ld	r25, X
     564:	91 93       	st	Z+, r25
     566:	8f 5f       	subi	r24, 0xFF	; 255
     568:	82 13       	cpse	r24, r18
     56a:	f5 cf       	rjmp	.-22     	; 0x556 <lcdWriteZahl+0xf2>
     56c:	3f a5       	ldd	r19, Y+47	; 0x2f
     56e:	02 c0       	rjmp	.+4      	; 0x574 <lcdWriteZahl+0x110>
     570:	28 2f       	mov	r18, r24
     572:	3f a5       	ldd	r19, Y+47	; 0x2f
     574:	f8 a9       	ldd	r31, Y+48	; 0x30
     576:	ff 23       	and	r31, r31
     578:	f1 f0       	breq	.+60     	; 0x5b6 <lcdWriteZahl+0x152>
     57a:	fe 01       	movw	r30, r28
     57c:	e3 0f       	add	r30, r19
     57e:	f1 1d       	adc	r31, r1
     580:	8e e2       	ldi	r24, 0x2E	; 46
     582:	85 8b       	std	Z+21, r24	; 0x15
     584:	91 e0       	ldi	r25, 0x01	; 1
     586:	93 0f       	add	r25, r19
     588:	38 a9       	ldd	r19, Y+48	; 0x30
     58a:	39 0f       	add	r19, r25
     58c:	89 2f       	mov	r24, r25
     58e:	29 1b       	sub	r18, r25
     590:	e5 e1       	ldi	r30, 0x15	; 21
     592:	f0 e0       	ldi	r31, 0x00	; 0
     594:	ec 0f       	add	r30, r28
     596:	fd 1f       	adc	r31, r29
     598:	e8 0f       	add	r30, r24
     59a:	f1 1d       	adc	r31, r1
     59c:	92 2f       	mov	r25, r18
     59e:	98 0f       	add	r25, r24
     5a0:	a1 e0       	ldi	r26, 0x01	; 1
     5a2:	b0 e0       	ldi	r27, 0x00	; 0
     5a4:	ac 0f       	add	r26, r28
     5a6:	bd 1f       	adc	r27, r29
     5a8:	a9 0f       	add	r26, r25
     5aa:	b1 1d       	adc	r27, r1
     5ac:	9c 91       	ld	r25, X
     5ae:	90 83       	st	Z, r25
     5b0:	8f 5f       	subi	r24, 0xFF	; 255
     5b2:	38 13       	cpse	r19, r24
     5b4:	ed cf       	rjmp	.-38     	; 0x590 <lcdWriteZahl+0x12c>
     5b6:	fe 01       	movw	r30, r28
     5b8:	e3 0f       	add	r30, r19
     5ba:	f1 1d       	adc	r31, r1
     5bc:	15 8a       	std	Z+21, r1	; 0x15
     5be:	8d 89       	ldd	r24, Y+21	; 0x15
     5c0:	80 33       	cpi	r24, 0x30	; 48
     5c2:	11 f5       	brne	.+68     	; 0x608 <lcdWriteZahl+0x1a4>
     5c4:	8f a5       	ldd	r24, Y+47	; 0x2f
     5c6:	48 2f       	mov	r20, r24
     5c8:	50 e0       	ldi	r21, 0x00	; 0
     5ca:	41 50       	subi	r20, 0x01	; 1
     5cc:	51 09       	sbc	r21, r1
     5ce:	14 16       	cp	r1, r20
     5d0:	15 06       	cpc	r1, r21
     5d2:	d4 f4       	brge	.+52     	; 0x608 <lcdWriteZahl+0x1a4>
     5d4:	80 e0       	ldi	r24, 0x00	; 0
     5d6:	90 e0       	ldi	r25, 0x00	; 0
     5d8:	20 e0       	ldi	r18, 0x00	; 0
     5da:	60 e2       	ldi	r22, 0x20	; 32
     5dc:	2f 5f       	subi	r18, 0xFF	; 255
     5de:	e5 e1       	ldi	r30, 0x15	; 21
     5e0:	f0 e0       	ldi	r31, 0x00	; 0
     5e2:	ec 0f       	add	r30, r28
     5e4:	fd 1f       	adc	r31, r29
     5e6:	e8 0f       	add	r30, r24
     5e8:	f9 1f       	adc	r31, r25
     5ea:	60 83       	st	Z, r22
     5ec:	82 2f       	mov	r24, r18
     5ee:	90 e0       	ldi	r25, 0x00	; 0
     5f0:	e5 e1       	ldi	r30, 0x15	; 21
     5f2:	f0 e0       	ldi	r31, 0x00	; 0
     5f4:	ec 0f       	add	r30, r28
     5f6:	fd 1f       	adc	r31, r29
     5f8:	e8 0f       	add	r30, r24
     5fa:	f9 1f       	adc	r31, r25
     5fc:	30 81       	ld	r19, Z
     5fe:	30 33       	cpi	r19, 0x30	; 48
     600:	19 f4       	brne	.+6      	; 0x608 <lcdWriteZahl+0x1a4>
     602:	84 17       	cp	r24, r20
     604:	95 07       	cpc	r25, r21
     606:	54 f3       	brlt	.-44     	; 0x5dc <lcdWriteZahl+0x178>
     608:	ce 01       	movw	r24, r28
     60a:	45 96       	adiw	r24, 0x15	; 21
     60c:	9f 93       	push	r25
     60e:	8f 93       	push	r24
     610:	9b a9       	ldd	r25, Y+51	; 0x33
     612:	9f 93       	push	r25
     614:	ea a9       	ldd	r30, Y+50	; 0x32
     616:	ef 93       	push	r30
     618:	e9 de       	rcall	.-558    	; 0x3ec <lcdWriteText>
     61a:	0f 90       	pop	r0
     61c:	0f 90       	pop	r0
     61e:	0f 90       	pop	r0
     620:	0f 90       	pop	r0
     622:	e3 96       	adiw	r28, 0x33	; 51
     624:	0f b6       	in	r0, 0x3f	; 63
     626:	f8 94       	cli
     628:	de bf       	out	0x3e, r29	; 62
     62a:	0f be       	out	0x3f, r0	; 63
     62c:	cd bf       	out	0x3d, r28	; 61
     62e:	df 91       	pop	r29
     630:	cf 91       	pop	r28
     632:	1f 91       	pop	r17
     634:	0f 91       	pop	r16
     636:	ff 90       	pop	r15
     638:	ef 90       	pop	r14
     63a:	df 90       	pop	r13
     63c:	cf 90       	pop	r12
     63e:	bf 90       	pop	r11
     640:	af 90       	pop	r10
     642:	9f 90       	pop	r9
     644:	8f 90       	pop	r8
     646:	7f 90       	pop	r7
     648:	6f 90       	pop	r6
     64a:	5f 90       	pop	r5
     64c:	4f 90       	pop	r4
     64e:	3f 90       	pop	r3
     650:	2f 90       	pop	r2
     652:	08 95       	ret

00000654 <lcdClear>:
     654:	61 e0       	ldi	r22, 0x01	; 1
     656:	70 e0       	ldi	r23, 0x00	; 0
     658:	83 e4       	ldi	r24, 0x43	; 67
     65a:	90 e0       	ldi	r25, 0x00	; 0
     65c:	4f de       	rcall	.-866    	; 0x2fc <writeLcdF>
     65e:	8f e3       	ldi	r24, 0x3F	; 63
     660:	9f e1       	ldi	r25, 0x1F	; 31
     662:	01 97       	sbiw	r24, 0x01	; 1
     664:	f1 f7       	brne	.-4      	; 0x662 <lcdClear+0xe>
     666:	00 c0       	rjmp	.+0      	; 0x668 <lcdClear+0x14>
     668:	00 00       	nop
     66a:	8a e3       	ldi	r24, 0x3A	; 58
     66c:	92 e0       	ldi	r25, 0x02	; 2
     66e:	9f 93       	push	r25
     670:	8f 93       	push	r24
     672:	1f 92       	push	r1
     674:	1f 92       	push	r1
     676:	ba de       	rcall	.-652    	; 0x3ec <lcdWriteText>
     678:	0f 90       	pop	r0
     67a:	0f 90       	pop	r0
     67c:	0f 90       	pop	r0
     67e:	0f 90       	pop	r0
     680:	08 95       	ret

00000682 <initLcd>:
     682:	81 e0       	ldi	r24, 0x01	; 1
     684:	2a de       	rcall	.-940    	; 0x2da <lcdSclk>
     686:	80 e0       	ldi	r24, 0x00	; 0
     688:	22 de       	rcall	.-956    	; 0x2ce <lcdSid>
     68a:	64 e3       	ldi	r22, 0x34	; 52
     68c:	70 e0       	ldi	r23, 0x00	; 0
     68e:	83 e4       	ldi	r24, 0x43	; 67
     690:	90 e0       	ldi	r25, 0x00	; 0
     692:	34 de       	rcall	.-920    	; 0x2fc <writeLcdF>
     694:	69 e0       	ldi	r22, 0x09	; 9
     696:	70 e0       	ldi	r23, 0x00	; 0
     698:	83 e4       	ldi	r24, 0x43	; 67
     69a:	90 e0       	ldi	r25, 0x00	; 0
     69c:	2f de       	rcall	.-930    	; 0x2fc <writeLcdF>
     69e:	60 e3       	ldi	r22, 0x30	; 48
     6a0:	70 e0       	ldi	r23, 0x00	; 0
     6a2:	83 e4       	ldi	r24, 0x43	; 67
     6a4:	90 e0       	ldi	r25, 0x00	; 0
     6a6:	2a de       	rcall	.-940    	; 0x2fc <writeLcdF>
     6a8:	6c e0       	ldi	r22, 0x0C	; 12
     6aa:	70 e0       	ldi	r23, 0x00	; 0
     6ac:	83 e4       	ldi	r24, 0x43	; 67
     6ae:	90 e0       	ldi	r25, 0x00	; 0
     6b0:	25 de       	rcall	.-950    	; 0x2fc <writeLcdF>
     6b2:	d0 df       	rcall	.-96     	; 0x654 <lcdClear>
     6b4:	67 e0       	ldi	r22, 0x07	; 7
     6b6:	70 e0       	ldi	r23, 0x00	; 0
     6b8:	83 e4       	ldi	r24, 0x43	; 67
     6ba:	90 e0       	ldi	r25, 0x00	; 0
     6bc:	1f de       	rcall	.-962    	; 0x2fc <writeLcdF>
     6be:	80 e0       	ldi	r24, 0x00	; 0
     6c0:	12 ce       	rjmp	.-988    	; 0x2e6 <lcdLight>
     6c2:	08 95       	ret

000006c4 <initBoard>:
     6c4:	4f 92       	push	r4
     6c6:	5f 92       	push	r5
     6c8:	6f 92       	push	r6
     6ca:	7f 92       	push	r7
     6cc:	8f 92       	push	r8
     6ce:	9f 92       	push	r9
     6d0:	af 92       	push	r10
     6d2:	bf 92       	push	r11
     6d4:	cf 92       	push	r12
     6d6:	df 92       	push	r13
     6d8:	ef 92       	push	r14
     6da:	ff 92       	push	r15
     6dc:	0f 93       	push	r16
     6de:	1f 93       	push	r17
     6e0:	cf 93       	push	r28
     6e2:	df 93       	push	r29
     6e4:	c8 2f       	mov	r28, r24
     6e6:	85 b7       	in	r24, 0x35	; 53
     6e8:	85 bf       	out	0x35, r24	; 53
     6ea:	12 b8       	out	0x02, r1	; 2
     6ec:	8f ef       	ldi	r24, 0xFF	; 255
     6ee:	81 b9       	out	0x01, r24	; 1
     6f0:	15 b8       	out	0x05, r1	; 5
     6f2:	84 b9       	out	0x04, r24	; 4
     6f4:	88 b9       	out	0x08, r24	; 8
     6f6:	17 b8       	out	0x07, r1	; 7
     6f8:	8b b9       	out	0x0b, r24	; 11
     6fa:	1a b8       	out	0x0a, r1	; 10
     6fc:	8e b9       	out	0x0e, r24	; 14
     6fe:	1d b8       	out	0x0d, r1	; 13
     700:	72 98       	cbi	0x0e, 2	; 14
     702:	11 ba       	out	0x11, r1	; 17
     704:	10 ba       	out	0x10, r1	; 16
     706:	94 e0       	ldi	r25, 0x04	; 4
     708:	94 bb       	out	0x14, r25	; 20
     70a:	93 b3       	in	r25, 0x13	; 19
     70c:	93 60       	ori	r25, 0x03	; 3
     70e:	93 bb       	out	0x13, r25	; 19
     710:	9d 9a       	sbi	0x13, 5	; 19
     712:	97 ec       	ldi	r25, 0xC7	; 199
     714:	90 93 02 01 	sts	0x0102, r25	; 0x800102 <__TEXT_REGION_LENGTH__+0x700102>
     718:	98 e3       	ldi	r25, 0x38	; 56
     71a:	90 93 01 01 	sts	0x0101, r25	; 0x800101 <__TEXT_REGION_LENGTH__+0x700101>
     71e:	10 92 05 01 	sts	0x0105, r1	; 0x800105 <__TEXT_REGION_LENGTH__+0x700105>
     722:	80 93 04 01 	sts	0x0104, r24	; 0x800104 <__TEXT_REGION_LENGTH__+0x700104>
     726:	10 92 08 01 	sts	0x0108, r1	; 0x800108 <__TEXT_REGION_LENGTH__+0x700108>
     72a:	10 92 07 01 	sts	0x0107, r1	; 0x800107 <__TEXT_REGION_LENGTH__+0x700107>
     72e:	8c e3       	ldi	r24, 0x3C	; 60
     730:	80 93 0b 01 	sts	0x010B, r24	; 0x80010b <__TEXT_REGION_LENGTH__+0x70010b>
     734:	10 92 0a 01 	sts	0x010A, r1	; 0x80010a <__TEXT_REGION_LENGTH__+0x70010a>
     738:	78 94       	sei
     73a:	3e dd       	rcall	.-1412   	; 0x1b8 <startSystemTimeMs>
     73c:	a2 df       	rcall	.-188    	; 0x682 <initLcd>
     73e:	46 dd       	rcall	.-1396   	; 0x1cc <initAdc>
     740:	b2 dd       	rcall	.-1180   	; 0x2a6 <initRgb>
     742:	cc 23       	and	r28, r28
     744:	09 f4       	brne	.+2      	; 0x748 <initBoard+0x84>
     746:	b8 c0       	rjmp	.+368    	; 0x8b8 <initBoard+0x1f4>
     748:	8f ef       	ldi	r24, 0xFF	; 255
     74a:	cd dd       	rcall	.-1126   	; 0x2e6 <lcdLight>
     74c:	40 e0       	ldi	r20, 0x00	; 0
     74e:	50 e0       	ldi	r21, 0x00	; 0
     750:	6f ef       	ldi	r22, 0xFF	; 255
     752:	73 e0       	ldi	r23, 0x03	; 3
     754:	80 e0       	ldi	r24, 0x00	; 0
     756:	90 e0       	ldi	r25, 0x00	; 0
     758:	8f dd       	rcall	.-1250   	; 0x278 <rgbWrite>
     75a:	87 e2       	ldi	r24, 0x27	; 39
     75c:	92 e0       	ldi	r25, 0x02	; 2
     75e:	9f 93       	push	r25
     760:	8f 93       	push	r24
     762:	1f 92       	push	r1
     764:	1f 92       	push	r1
     766:	42 de       	rcall	.-892    	; 0x3ec <lcdWriteText>
     768:	8c e3       	ldi	r24, 0x3C	; 60
     76a:	92 e0       	ldi	r25, 0x02	; 2
     76c:	9f 93       	push	r25
     76e:	8f 93       	push	r24
     770:	1f 92       	push	r1
     772:	81 e0       	ldi	r24, 0x01	; 1
     774:	8f 93       	push	r24
     776:	3a de       	rcall	.-908    	; 0x3ec <lcdWriteText>
     778:	82 e1       	ldi	r24, 0x12	; 18
     77a:	92 e0       	ldi	r25, 0x02	; 2
     77c:	9f 93       	push	r25
     77e:	8f 93       	push	r24
     780:	1f 92       	push	r1
     782:	82 e0       	ldi	r24, 0x02	; 2
     784:	8f 93       	push	r24
     786:	32 de       	rcall	.-924    	; 0x3ec <lcdWriteText>
     788:	81 e5       	ldi	r24, 0x51	; 81
     78a:	92 e0       	ldi	r25, 0x02	; 2
     78c:	9f 93       	push	r25
     78e:	8f 93       	push	r24
     790:	1f 92       	push	r1
     792:	83 e0       	ldi	r24, 0x03	; 3
     794:	8f 93       	push	r24
     796:	2a de       	rcall	.-940    	; 0x3ec <lcdWriteText>
     798:	8d b7       	in	r24, 0x3d	; 61
     79a:	9e b7       	in	r25, 0x3e	; 62
     79c:	40 96       	adiw	r24, 0x10	; 16
     79e:	0f b6       	in	r0, 0x3f	; 63
     7a0:	f8 94       	cli
     7a2:	9e bf       	out	0x3e, r25	; 62
     7a4:	0f be       	out	0x3f, r0	; 63
     7a6:	8d bf       	out	0x3d, r24	; 61
     7a8:	88 24       	eor	r8, r8
     7aa:	83 94       	inc	r8
     7ac:	c0 e0       	ldi	r28, 0x00	; 0
     7ae:	71 2c       	mov	r7, r1
     7b0:	99 24       	eor	r9, r9
     7b2:	93 94       	inc	r9
     7b4:	d0 e0       	ldi	r29, 0x00	; 0
     7b6:	cc 24       	eor	r12, r12
     7b8:	c3 94       	inc	r12
     7ba:	d1 2c       	mov	r13, r1
     7bc:	e1 2c       	mov	r14, r1
     7be:	68 94       	set
     7c0:	ff 24       	eor	r15, r15
     7c2:	f7 f8       	bld	r15, 7
     7c4:	66 24       	eor	r6, r6
     7c6:	63 94       	inc	r6
     7c8:	51 2c       	mov	r5, r1
     7ca:	09 e0       	ldi	r16, 0x09	; 9
     7cc:	11 e0       	ldi	r17, 0x01	; 1
     7ce:	0f 2e       	mov	r0, r31
     7d0:	f6 e6       	ldi	r31, 0x66	; 102
     7d2:	af 2e       	mov	r10, r31
     7d4:	f2 e0       	ldi	r31, 0x02	; 2
     7d6:	bf 2e       	mov	r11, r31
     7d8:	f0 2d       	mov	r31, r0
     7da:	0f 2e       	mov	r0, r31
     7dc:	f3 e0       	ldi	r31, 0x03	; 3
     7de:	4f 2e       	mov	r4, r31
     7e0:	f0 2d       	mov	r31, r0
     7e2:	99 20       	and	r9, r9
     7e4:	49 f0       	breq	.+18     	; 0x7f8 <initBoard+0x134>
     7e6:	c7 01       	movw	r24, r14
     7e8:	0d 2e       	mov	r0, r29
     7ea:	02 c0       	rjmp	.+4      	; 0x7f0 <initBoard+0x12c>
     7ec:	96 95       	lsr	r25
     7ee:	87 95       	ror	r24
     7f0:	0a 94       	dec	r0
     7f2:	e2 f7       	brpl	.-8      	; 0x7ec <initBoard+0x128>
     7f4:	de dc       	rcall	.-1604   	; 0x1b2 <ledWriteAll>
     7f6:	08 c0       	rjmp	.+16     	; 0x808 <initBoard+0x144>
     7f8:	c6 01       	movw	r24, r12
     7fa:	0d 2e       	mov	r0, r29
     7fc:	02 c0       	rjmp	.+4      	; 0x802 <initBoard+0x13e>
     7fe:	88 0f       	add	r24, r24
     800:	99 1f       	adc	r25, r25
     802:	0a 94       	dec	r0
     804:	e2 f7       	brpl	.-8      	; 0x7fe <initBoard+0x13a>
     806:	d5 dc       	rcall	.-1622   	; 0x1b2 <ledWriteAll>
     808:	df 5f       	subi	r29, 0xFF	; 255
     80a:	d1 31       	cpi	r29, 0x11	; 17
     80c:	28 f0       	brcs	.+10     	; 0x818 <initBoard+0x154>
     80e:	86 2d       	mov	r24, r6
     810:	91 10       	cpse	r9, r1
     812:	85 2d       	mov	r24, r5
     814:	98 2e       	mov	r9, r24
     816:	d0 e0       	ldi	r29, 0x00	; 0
     818:	88 20       	and	r8, r8
     81a:	11 f0       	breq	.+4      	; 0x820 <initBoard+0x15c>
     81c:	ce 5f       	subi	r28, 0xFE	; 254
     81e:	01 c0       	rjmp	.+2      	; 0x822 <initBoard+0x15e>
     820:	c2 50       	subi	r28, 0x02	; 2
     822:	8c 2f       	mov	r24, r28
     824:	60 dd       	rcall	.-1344   	; 0x2e6 <lcdLight>
     826:	ce 3f       	cpi	r28, 0xFE	; 254
     828:	21 f0       	breq	.+8      	; 0x832 <initBoard+0x16e>
     82a:	c8 37       	cpi	r28, 0x78	; 120
     82c:	19 f4       	brne	.+6      	; 0x834 <initBoard+0x170>
     82e:	86 2c       	mov	r8, r6
     830:	01 c0       	rjmp	.+2      	; 0x834 <initBoard+0x170>
     832:	85 2c       	mov	r8, r5
     834:	71 10       	cpse	r7, r1
     836:	3b c0       	rjmp	.+118    	; 0x8ae <initBoard+0x1ea>
     838:	f8 01       	movw	r30, r16
     83a:	80 81       	ld	r24, Z
     83c:	83 7c       	andi	r24, 0xC3	; 195
     83e:	91 f0       	breq	.+36     	; 0x864 <initBoard+0x1a0>
     840:	40 e0       	ldi	r20, 0x00	; 0
     842:	50 e0       	ldi	r21, 0x00	; 0
     844:	66 e2       	ldi	r22, 0x26	; 38
     846:	72 e0       	ldi	r23, 0x02	; 2
     848:	8f ef       	ldi	r24, 0xFF	; 255
     84a:	93 e0       	ldi	r25, 0x03	; 3
     84c:	15 dd       	rcall	.-1494   	; 0x278 <rgbWrite>
     84e:	bf 92       	push	r11
     850:	af 92       	push	r10
     852:	1f 92       	push	r1
     854:	4f 92       	push	r4
     856:	ca dd       	rcall	.-1132   	; 0x3ec <lcdWriteText>
     858:	0f 90       	pop	r0
     85a:	0f 90       	pop	r0
     85c:	0f 90       	pop	r0
     85e:	0f 90       	pop	r0
     860:	76 2c       	mov	r7, r6
     862:	25 c0       	rjmp	.+74     	; 0x8ae <initBoard+0x1ea>
     864:	8f ef       	ldi	r24, 0xFF	; 255
     866:	9c e7       	ldi	r25, 0x7C	; 124
     868:	01 97       	sbiw	r24, 0x01	; 1
     86a:	f1 f7       	brne	.-4      	; 0x868 <initBoard+0x1a4>
     86c:	00 c0       	rjmp	.+0      	; 0x86e <initBoard+0x1aa>
     86e:	00 00       	nop
     870:	b8 cf       	rjmp	.-144    	; 0x7e2 <initBoard+0x11e>
     872:	f0 de       	rcall	.-544    	; 0x654 <lcdClear>
     874:	80 e0       	ldi	r24, 0x00	; 0
     876:	37 dd       	rcall	.-1426   	; 0x2e6 <lcdLight>
     878:	80 e0       	ldi	r24, 0x00	; 0
     87a:	90 e0       	ldi	r25, 0x00	; 0
     87c:	9a dc       	rcall	.-1740   	; 0x1b2 <ledWriteAll>
     87e:	40 e0       	ldi	r20, 0x00	; 0
     880:	50 e0       	ldi	r21, 0x00	; 0
     882:	60 e0       	ldi	r22, 0x00	; 0
     884:	70 e0       	ldi	r23, 0x00	; 0
     886:	80 e0       	ldi	r24, 0x00	; 0
     888:	90 e0       	ldi	r25, 0x00	; 0
     88a:	f6 dc       	rcall	.-1556   	; 0x278 <rgbWrite>
     88c:	10 92 cd 02 	sts	0x02CD, r1	; 0x8002cd <systemTimeMs>
     890:	10 92 ce 02 	sts	0x02CE, r1	; 0x8002ce <systemTimeMs+0x1>
     894:	10 92 cf 02 	sts	0x02CF, r1	; 0x8002cf <systemTimeMs+0x2>
     898:	10 92 d0 02 	sts	0x02D0, r1	; 0x8002d0 <systemTimeMs+0x3>
     89c:	10 92 d1 02 	sts	0x02D1, r1	; 0x8002d1 <systemTimeMs+0x4>
     8a0:	10 92 d2 02 	sts	0x02D2, r1	; 0x8002d2 <systemTimeMs+0x5>
     8a4:	10 92 d3 02 	sts	0x02D3, r1	; 0x8002d3 <systemTimeMs+0x6>
     8a8:	10 92 d4 02 	sts	0x02D4, r1	; 0x8002d4 <systemTimeMs+0x7>
     8ac:	05 c0       	rjmp	.+10     	; 0x8b8 <initBoard+0x1f4>
     8ae:	f8 01       	movw	r30, r16
     8b0:	80 81       	ld	r24, Z
     8b2:	83 7c       	andi	r24, 0xC3	; 195
     8b4:	b9 f6       	brne	.-82     	; 0x864 <initBoard+0x1a0>
     8b6:	dd cf       	rjmp	.-70     	; 0x872 <initBoard+0x1ae>
     8b8:	df 91       	pop	r29
     8ba:	cf 91       	pop	r28
     8bc:	1f 91       	pop	r17
     8be:	0f 91       	pop	r16
     8c0:	ff 90       	pop	r15
     8c2:	ef 90       	pop	r14
     8c4:	df 90       	pop	r13
     8c6:	cf 90       	pop	r12
     8c8:	bf 90       	pop	r11
     8ca:	af 90       	pop	r10
     8cc:	9f 90       	pop	r9
     8ce:	8f 90       	pop	r8
     8d0:	7f 90       	pop	r7
     8d2:	6f 90       	pop	r6
     8d4:	5f 90       	pop	r5
     8d6:	4f 90       	pop	r4
     8d8:	08 95       	ret

000008da <lcdLog>:
     8da:	6f 92       	push	r6
     8dc:	7f 92       	push	r7
     8de:	8f 92       	push	r8
     8e0:	9f 92       	push	r9
     8e2:	af 92       	push	r10
     8e4:	bf 92       	push	r11
     8e6:	cf 92       	push	r12
     8e8:	df 92       	push	r13
     8ea:	ef 92       	push	r14
     8ec:	ff 92       	push	r15
     8ee:	0f 93       	push	r16
     8f0:	1f 93       	push	r17
     8f2:	cf 93       	push	r28
     8f4:	df 93       	push	r29
     8f6:	cd b7       	in	r28, 0x3d	; 61
     8f8:	de b7       	in	r29, 0x3e	; 62
     8fa:	60 97       	sbiw	r28, 0x10	; 16
     8fc:	0f b6       	in	r0, 0x3f	; 63
     8fe:	f8 94       	cli
     900:	de bf       	out	0x3e, r29	; 62
     902:	0f be       	out	0x3f, r0	; 63
     904:	cd bf       	out	0x3d, r28	; 61
     906:	80 91 00 02 	lds	r24, 0x0200	; 0x800200 <__DATA_REGION_ORIGIN__>
     90a:	88 23       	and	r24, r24
     90c:	b1 f1       	breq	.+108    	; 0x97a <lcdLog+0xa0>
     90e:	a2 de       	rcall	.-700    	; 0x654 <lcdClear>
     910:	10 92 00 02 	sts	0x0200, r1	; 0x800200 <__DATA_REGION_ORIGIN__>
     914:	10 92 cb 02 	sts	0x02CB, r1	; 0x8002cb <nummer.2616+0x1>
     918:	10 92 ca 02 	sts	0x02CA, r1	; 0x8002ca <nummer.2616>
     91c:	0f 2e       	mov	r0, r31
     91e:	f2 ec       	ldi	r31, 0xC2	; 194
     920:	8f 2e       	mov	r8, r31
     922:	f2 e0       	ldi	r31, 0x02	; 2
     924:	9f 2e       	mov	r9, r31
     926:	f0 2d       	mov	r31, r0
     928:	02 e8       	ldi	r16, 0x82	; 130
     92a:	12 e0       	ldi	r17, 0x02	; 2
     92c:	a0 e0       	ldi	r26, 0x00	; 0
     92e:	b0 e0       	ldi	r27, 0x00	; 0
     930:	40 e2       	ldi	r20, 0x20	; 32
     932:	bd 01       	movw	r22, r26
     934:	f4 01       	movw	r30, r8
     936:	11 92       	st	Z+, r1
     938:	11 92       	st	Z+, r1
     93a:	4f 01       	movw	r8, r30
     93c:	f8 01       	movw	r30, r16
     93e:	41 93       	st	Z+, r20
     940:	81 e0       	ldi	r24, 0x01	; 1
     942:	90 e0       	ldi	r25, 0x00	; 0
     944:	13 c0       	rjmp	.+38     	; 0x96c <lcdLog+0x92>
     946:	62 95       	swap	r22
     948:	72 95       	swap	r23
     94a:	70 7f       	andi	r23, 0xF0	; 240
     94c:	76 27       	eor	r23, r22
     94e:	60 7f       	andi	r22, 0xF0	; 240
     950:	76 27       	eor	r23, r22
     952:	6e 57       	subi	r22, 0x7E	; 126
     954:	7d 4f       	sbci	r23, 0xFD	; 253
     956:	fb 01       	movw	r30, r22
     958:	e2 0f       	add	r30, r18
     95a:	f3 1f       	adc	r31, r19
     95c:	10 82       	st	Z, r1
     95e:	11 96       	adiw	r26, 0x01	; 1
     960:	00 5f       	subi	r16, 0xF0	; 240
     962:	1f 4f       	sbci	r17, 0xFF	; 255
     964:	a4 30       	cpi	r26, 0x04	; 4
     966:	b1 05       	cpc	r27, r1
     968:	21 f7       	brne	.-56     	; 0x932 <lcdLog+0x58>
     96a:	07 c0       	rjmp	.+14     	; 0x97a <lcdLog+0xa0>
     96c:	9c 01       	movw	r18, r24
     96e:	41 93       	st	Z+, r20
     970:	01 96       	adiw	r24, 0x01	; 1
     972:	80 31       	cpi	r24, 0x10	; 16
     974:	91 05       	cpc	r25, r1
     976:	d1 f7       	brne	.-12     	; 0x96c <lcdLog+0x92>
     978:	e6 cf       	rjmp	.-52     	; 0x946 <lcdLog+0x6c>
     97a:	80 91 ca 02 	lds	r24, 0x02CA	; 0x8002ca <nummer.2616>
     97e:	90 91 cb 02 	lds	r25, 0x02CB	; 0x8002cb <nummer.2616+0x1>
     982:	01 96       	adiw	r24, 0x01	; 1
     984:	90 93 cb 02 	sts	0x02CB, r25	; 0x8002cb <nummer.2616+0x1>
     988:	80 93 ca 02 	sts	0x02CA, r24	; 0x8002ca <nummer.2616>
     98c:	9e 01       	movw	r18, r28
     98e:	2c 5d       	subi	r18, 0xDC	; 220
     990:	3f 4f       	sbci	r19, 0xFF	; 255
     992:	4a a1       	ldd	r20, Y+34	; 0x22
     994:	5b a1       	ldd	r21, Y+35	; 0x23
     996:	60 e1       	ldi	r22, 0x10	; 16
     998:	70 e0       	ldi	r23, 0x00	; 0
     99a:	ce 01       	movw	r24, r28
     99c:	01 96       	adiw	r24, 0x01	; 1
     99e:	33 d2       	rcall	.+1126   	; 0xe06 <vsnprintf>
     9a0:	8e 01       	movw	r16, r28
     9a2:	0f 5f       	subi	r16, 0xFF	; 255
     9a4:	1f 4f       	sbci	r17, 0xFF	; 255
     9a6:	4e 01       	movw	r8, r28
     9a8:	f1 e1       	ldi	r31, 0x11	; 17
     9aa:	8f 0e       	add	r8, r31
     9ac:	91 1c       	adc	r9, r1
     9ae:	f8 01       	movw	r30, r16
     9b0:	90 e0       	ldi	r25, 0x00	; 0
     9b2:	30 e2       	ldi	r19, 0x20	; 32
     9b4:	21 e0       	ldi	r18, 0x01	; 1
     9b6:	df 01       	movw	r26, r30
     9b8:	80 81       	ld	r24, Z
     9ba:	88 23       	and	r24, r24
     9bc:	19 f0       	breq	.+6      	; 0x9c4 <lcdLog+0xea>
     9be:	99 23       	and	r25, r25
     9c0:	19 f0       	breq	.+6      	; 0x9c8 <lcdLog+0xee>
     9c2:	01 c0       	rjmp	.+2      	; 0x9c6 <lcdLog+0xec>
     9c4:	92 2f       	mov	r25, r18
     9c6:	3c 93       	st	X, r19
     9c8:	31 96       	adiw	r30, 0x01	; 1
     9ca:	e8 15       	cp	r30, r8
     9cc:	f9 05       	cpc	r31, r9
     9ce:	99 f7       	brne	.-26     	; 0x9b6 <lcdLog+0xdc>
     9d0:	18 8a       	std	Y+16, r1	; 0x10
     9d2:	62 e8       	ldi	r22, 0x82	; 130
     9d4:	72 e0       	ldi	r23, 0x02	; 2
     9d6:	ce 01       	movw	r24, r28
     9d8:	01 96       	adiw	r24, 0x01	; 1
     9da:	0c d2       	rcall	.+1048   	; 0xdf4 <strcmp>
     9dc:	88 23       	and	r24, r24
     9de:	09 f4       	brne	.+2      	; 0x9e2 <lcdLog+0x108>
     9e0:	7e c0       	rjmp	.+252    	; 0xade <lcdLog+0x204>
     9e2:	0f 2e       	mov	r0, r31
     9e4:	f8 ec       	ldi	r31, 0xC8	; 200
     9e6:	6f 2e       	mov	r6, r31
     9e8:	f2 e0       	ldi	r31, 0x02	; 2
     9ea:	7f 2e       	mov	r7, r31
     9ec:	f0 2d       	mov	r31, r0
     9ee:	62 eb       	ldi	r22, 0xB2	; 178
     9f0:	72 e0       	ldi	r23, 0x02	; 2
     9f2:	42 e8       	ldi	r20, 0x82	; 130
     9f4:	52 e0       	ldi	r21, 0x02	; 2
     9f6:	f3 01       	movw	r30, r6
     9f8:	92 91       	ld	r25, -Z
     9fa:	82 91       	ld	r24, -Z
     9fc:	3f 01       	movw	r6, r30
     9fe:	93 83       	std	Z+3, r25	; 0x03
     a00:	82 83       	std	Z+2, r24	; 0x02
     a02:	db 01       	movw	r26, r22
     a04:	50 97       	sbiw	r26, 0x10	; 16
     a06:	9b 01       	movw	r18, r22
     a08:	20 5f       	subi	r18, 0xF0	; 240
     a0a:	3f 4f       	sbci	r19, 0xFF	; 255
     a0c:	fb 01       	movw	r30, r22
     a0e:	8d 91       	ld	r24, X+
     a10:	81 93       	st	Z+, r24
     a12:	e2 17       	cp	r30, r18
     a14:	f3 07       	cpc	r31, r19
     a16:	d9 f7       	brne	.-10     	; 0xa0e <lcdLog+0x134>
     a18:	60 51       	subi	r22, 0x10	; 16
     a1a:	71 09       	sbc	r23, r1
     a1c:	64 17       	cp	r22, r20
     a1e:	75 07       	cpc	r23, r21
     a20:	51 f7       	brne	.-44     	; 0x9f6 <lcdLog+0x11c>
     a22:	f8 01       	movw	r30, r16
     a24:	81 91       	ld	r24, Z+
     a26:	8f 01       	movw	r16, r30
     a28:	fa 01       	movw	r30, r20
     a2a:	81 93       	st	Z+, r24
     a2c:	af 01       	movw	r20, r30
     a2e:	08 15       	cp	r16, r8
     a30:	19 05       	cpc	r17, r9
     a32:	b9 f7       	brne	.-18     	; 0xa22 <lcdLog+0x148>
     a34:	80 91 ca 02 	lds	r24, 0x02CA	; 0x8002ca <nummer.2616>
     a38:	90 91 cb 02 	lds	r25, 0x02CB	; 0x8002cb <nummer.2616+0x1>
     a3c:	90 93 c3 02 	sts	0x02C3, r25	; 0x8002c3 <lcdPrintNr.2614+0x1>
     a40:	80 93 c2 02 	sts	0x02C2, r24	; 0x8002c2 <lcdPrintNr.2614>
     a44:	80 91 01 02 	lds	r24, 0x0201	; 0x800201 <lcdLogZeilen>
     a48:	94 e0       	ldi	r25, 0x04	; 4
     a4a:	d9 2e       	mov	r13, r25
     a4c:	d8 1a       	sub	r13, r24
     a4e:	f3 e0       	ldi	r31, 0x03	; 3
     a50:	fd 15       	cp	r31, r13
     a52:	08 f4       	brcc	.+2      	; 0xa56 <lcdLog+0x17c>
     a54:	5b c0       	rjmp	.+182    	; 0xb0c <lcdLog+0x232>
     a56:	83 e0       	ldi	r24, 0x03	; 3
     a58:	b8 2e       	mov	r11, r24
     a5a:	bd 18       	sub	r11, r13
     a5c:	0f 2e       	mov	r0, r31
     a5e:	f5 e0       	ldi	r31, 0x05	; 5
     a60:	6f 2e       	mov	r6, r31
     a62:	f0 2d       	mov	r31, r0
     a64:	0f 2e       	mov	r0, r31
     a66:	fb e7       	ldi	r31, 0x7B	; 123
     a68:	8f 2e       	mov	r8, r31
     a6a:	f2 e0       	ldi	r31, 0x02	; 2
     a6c:	9f 2e       	mov	r9, r31
     a6e:	f0 2d       	mov	r31, r0
     a70:	68 94       	set
     a72:	77 24       	eor	r7, r7
     a74:	72 f8       	bld	r7, 2
     a76:	0b 2d       	mov	r16, r11
     a78:	10 e0       	ldi	r17, 0x00	; 0
     a7a:	c8 01       	movw	r24, r16
     a7c:	82 95       	swap	r24
     a7e:	92 95       	swap	r25
     a80:	90 7f       	andi	r25, 0xF0	; 240
     a82:	98 27       	eor	r25, r24
     a84:	80 7f       	andi	r24, 0xF0	; 240
     a86:	98 27       	eor	r25, r24
     a88:	8e 57       	subi	r24, 0x7E	; 126
     a8a:	9d 4f       	sbci	r25, 0xFD	; 253
     a8c:	9f 93       	push	r25
     a8e:	8f 93       	push	r24
     a90:	6f 92       	push	r6
     a92:	df 92       	push	r13
     a94:	ab dc       	rcall	.-1706   	; 0x3ec <lcdWriteText>
     a96:	9f 92       	push	r9
     a98:	8f 92       	push	r8
     a9a:	7f 92       	push	r7
     a9c:	df 92       	push	r13
     a9e:	a6 dc       	rcall	.-1716   	; 0x3ec <lcdWriteText>
     aa0:	00 0f       	add	r16, r16
     aa2:	11 1f       	adc	r17, r17
     aa4:	f8 01       	movw	r30, r16
     aa6:	ee 53       	subi	r30, 0x3E	; 62
     aa8:	fd 4f       	sbci	r31, 0xFD	; 253
     aaa:	00 81       	ld	r16, Z
     aac:	11 81       	ldd	r17, Z+1	; 0x01
     aae:	a1 2c       	mov	r10, r1
     ab0:	c7 2c       	mov	r12, r7
     ab2:	e0 2e       	mov	r14, r16
     ab4:	f1 2e       	mov	r15, r17
     ab6:	00 e0       	ldi	r16, 0x00	; 0
     ab8:	10 e0       	ldi	r17, 0x00	; 0
     aba:	20 e0       	ldi	r18, 0x00	; 0
     abc:	30 e0       	ldi	r19, 0x00	; 0
     abe:	40 e0       	ldi	r20, 0x00	; 0
     ac0:	50 e0       	ldi	r21, 0x00	; 0
     ac2:	60 e0       	ldi	r22, 0x00	; 0
     ac4:	8d 2d       	mov	r24, r13
     ac6:	ce dc       	rcall	.-1636   	; 0x464 <lcdWriteZahl>
     ac8:	d3 94       	inc	r13
     aca:	ba 94       	dec	r11
     acc:	0f b6       	in	r0, 0x3f	; 63
     ace:	f8 94       	cli
     ad0:	de bf       	out	0x3e, r29	; 62
     ad2:	0f be       	out	0x3f, r0	; 63
     ad4:	cd bf       	out	0x3d, r28	; 61
     ad6:	94 e0       	ldi	r25, 0x04	; 4
     ad8:	d9 12       	cpse	r13, r25
     ada:	cd cf       	rjmp	.-102    	; 0xa76 <lcdLog+0x19c>
     adc:	17 c0       	rjmp	.+46     	; 0xb0c <lcdLog+0x232>
     ade:	00 91 ca 02 	lds	r16, 0x02CA	; 0x8002ca <nummer.2616>
     ae2:	10 91 cb 02 	lds	r17, 0x02CB	; 0x8002cb <nummer.2616+0x1>
     ae6:	10 93 c3 02 	sts	0x02C3, r17	; 0x8002c3 <lcdPrintNr.2614+0x1>
     aea:	00 93 c2 02 	sts	0x02C2, r16	; 0x8002c2 <lcdPrintNr.2614>
     aee:	a1 2c       	mov	r10, r1
     af0:	68 94       	set
     af2:	cc 24       	eor	r12, r12
     af4:	c2 f8       	bld	r12, 2
     af6:	e0 2e       	mov	r14, r16
     af8:	f1 2e       	mov	r15, r17
     afa:	00 e0       	ldi	r16, 0x00	; 0
     afc:	10 e0       	ldi	r17, 0x00	; 0
     afe:	20 e0       	ldi	r18, 0x00	; 0
     b00:	30 e0       	ldi	r19, 0x00	; 0
     b02:	40 e0       	ldi	r20, 0x00	; 0
     b04:	50 e0       	ldi	r21, 0x00	; 0
     b06:	60 e0       	ldi	r22, 0x00	; 0
     b08:	83 e0       	ldi	r24, 0x03	; 3
     b0a:	ac dc       	rcall	.-1704   	; 0x464 <lcdWriteZahl>
     b0c:	60 96       	adiw	r28, 0x10	; 16
     b0e:	0f b6       	in	r0, 0x3f	; 63
     b10:	f8 94       	cli
     b12:	de bf       	out	0x3e, r29	; 62
     b14:	0f be       	out	0x3f, r0	; 63
     b16:	cd bf       	out	0x3d, r28	; 61
     b18:	df 91       	pop	r29
     b1a:	cf 91       	pop	r28
     b1c:	1f 91       	pop	r17
     b1e:	0f 91       	pop	r16
     b20:	ff 90       	pop	r15
     b22:	ef 90       	pop	r14
     b24:	df 90       	pop	r13
     b26:	cf 90       	pop	r12
     b28:	bf 90       	pop	r11
     b2a:	af 90       	pop	r10
     b2c:	9f 90       	pop	r9
     b2e:	8f 90       	pop	r8
     b30:	7f 90       	pop	r7
     b32:	6f 90       	pop	r6
     b34:	08 95       	ret

00000b36 <matrixWriteNextLine>:




void matrixWriteNextLine(void)
{
     b36:	cf 93       	push	r28
     b38:	df 93       	push	r29
     b3a:	cd b7       	in	r28, 0x3d	; 61
     b3c:	de b7       	in	r29, 0x3e	; 62
     b3e:	28 97       	sbiw	r28, 0x08	; 8
     b40:	0f b6       	in	r0, 0x3f	; 63
     b42:	f8 94       	cli
     b44:	de bf       	out	0x3e, r29	; 62
     b46:	0f be       	out	0x3f, r0	; 63
     b48:	cd bf       	out	0x3d, r28	; 61
    const  uint8_t Bit_Muster_Tab[8] = {1,2,4,8,16,32,64,128};
     b4a:	88 e0       	ldi	r24, 0x08	; 8
     b4c:	e2 e0       	ldi	r30, 0x02	; 2
     b4e:	f2 e0       	ldi	r31, 0x02	; 2
     b50:	de 01       	movw	r26, r28
     b52:	11 96       	adiw	r26, 0x01	; 1
     b54:	01 90       	ld	r0, Z+
     b56:	0d 92       	st	X+, r0
     b58:	8a 95       	dec	r24
     b5a:	e1 f7       	brne	.-8      	; 0xb54 <matrixWriteNextLine+0x1e>
    static uint16_t Zeilen_Nr, Bit_Muster;
    uint8_t i;
    
    STROBE_0;                             // Daten des Scheiberegisters nicht ins Latch schreiben
     b5c:	e5 e0       	ldi	r30, 0x05	; 5
     b5e:	f1 e0       	ldi	r31, 0x01	; 1
     b60:	80 81       	ld	r24, Z
     b62:	8f 7b       	andi	r24, 0xBF	; 191
     b64:	80 83       	st	Z, r24

    Bit_Muster = Bit_Muster_Tab[Zeilen_Nr]; // Bitmuster aus Tabelle holen, um mit Daten in matrix[] zu vergleichen.
     b66:	e0 91 80 02 	lds	r30, 0x0280	; 0x800280 <Zeilen_Nr.2731>
     b6a:	f0 91 81 02 	lds	r31, 0x0281	; 0x800281 <Zeilen_Nr.2731+0x1>
     b6e:	81 e0       	ldi	r24, 0x01	; 1
     b70:	90 e0       	ldi	r25, 0x00	; 0
     b72:	8c 0f       	add	r24, r28
     b74:	9d 1f       	adc	r25, r29
     b76:	e8 0f       	add	r30, r24
     b78:	f9 1f       	adc	r31, r25
     b7a:	80 81       	ld	r24, Z
     b7c:	90 e0       	ldi	r25, 0x00	; 0
     b7e:	90 93 7f 02 	sts	0x027F, r25	; 0x80027f <__data_end+0x1>
     b82:	80 93 7e 02 	sts	0x027E, r24	; 0x80027e <__data_end>
     b86:	a6 e4       	ldi	r26, 0x46	; 70
     b88:	b3 e0       	ldi	r27, 0x03	; 3
     b8a:	26 ed       	ldi	r18, 0xD6	; 214
     b8c:	32 e0       	ldi	r19, 0x02	; 2
    {                                       // Vergleicht Bit-Muster der aktuellen Zeile mit Daten in matrix[]
        if((matrix[Anzahl_Spalten-1- i] & Bit_Muster) != 0)     // Ist in matrix[] das entsprechende Bit gesetzt?
        { DATA_Modul_1_ON;                    //   JA:   ==> Datenbit "1" ins Schieberegister schreiben
        }
        else
        { DATA_Modul_1_OFF;                   //   NEIN: ==> Datenbit "0" ins Schieberegister schreiben
     b8e:	e5 e0       	ldi	r30, 0x05	; 5
     b90:	f1 e0       	ldi	r31, 0x01	; 1
    Bit_Muster = Bit_Muster_Tab[Zeilen_Nr]; // Bitmuster aus Tabelle holen, um mit Daten in matrix[] zu vergleichen.
    
    // Alle Bits seriell ins Schieberegister hineinschreiben
    for(i=0; i<Anzahl_Spalten; i++)         // Alle Spalten durchgehen und überpüfen, ob Bit gesetzt ist
    {                                       // Vergleicht Bit-Muster der aktuellen Zeile mit Daten in matrix[]
        if((matrix[Anzahl_Spalten-1- i] & Bit_Muster) != 0)     // Ist in matrix[] das entsprechende Bit gesetzt?
     b92:	5e 91       	ld	r21, -X
     b94:	4e 91       	ld	r20, -X
     b96:	80 91 7e 02 	lds	r24, 0x027E	; 0x80027e <__data_end>
     b9a:	90 91 7f 02 	lds	r25, 0x027F	; 0x80027f <__data_end+0x1>
     b9e:	84 23       	and	r24, r20
     ba0:	95 23       	and	r25, r21
     ba2:	89 2b       	or	r24, r25
     ba4:	21 f0       	breq	.+8      	; 0xbae <matrixWriteNextLine+0x78>
        { DATA_Modul_1_ON;                    //   JA:   ==> Datenbit "1" ins Schieberegister schreiben
     ba6:	80 81       	ld	r24, Z
     ba8:	80 62       	ori	r24, 0x20	; 32
     baa:	80 83       	st	Z, r24
     bac:	03 c0       	rjmp	.+6      	; 0xbb4 <matrixWriteNextLine+0x7e>
        }
        else
        { DATA_Modul_1_OFF;                   //   NEIN: ==> Datenbit "0" ins Schieberegister schreiben
     bae:	80 81       	ld	r24, Z
     bb0:	8f 7d       	andi	r24, 0xDF	; 223
     bb2:	80 83       	st	Z, r24
        }
        CLOCK_1;
     bb4:	80 81       	ld	r24, Z
     bb6:	80 61       	ori	r24, 0x10	; 16
     bb8:	80 83       	st	Z, r24
        CLOCK_0;                            // Datenbit wird bei der negativen Flanke des Clock-Signals übernommen
     bba:	80 81       	ld	r24, Z
     bbc:	8f 7e       	andi	r24, 0xEF	; 239
     bbe:	80 83       	st	Z, r24
    STROBE_0;                             // Daten des Scheiberegisters nicht ins Latch schreiben

    Bit_Muster = Bit_Muster_Tab[Zeilen_Nr]; // Bitmuster aus Tabelle holen, um mit Daten in matrix[] zu vergleichen.
    
    // Alle Bits seriell ins Schieberegister hineinschreiben
    for(i=0; i<Anzahl_Spalten; i++)         // Alle Spalten durchgehen und überpüfen, ob Bit gesetzt ist
     bc0:	a2 17       	cp	r26, r18
     bc2:	b3 07       	cpc	r27, r19
     bc4:	31 f7       	brne	.-52     	; 0xb92 <matrixWriteNextLine+0x5c>
        }
        CLOCK_1;
        CLOCK_0;                            // Datenbit wird bei der negativen Flanke des Clock-Signals übernommen
    }
    
    ENABLE_0;                                // +5V aller Zeilen abschalten
     bc6:	e5 e0       	ldi	r30, 0x05	; 5
     bc8:	f1 e0       	ldi	r31, 0x01	; 1
     bca:	80 81       	ld	r24, Z
     bcc:	87 7f       	andi	r24, 0xF7	; 247
     bce:	80 83       	st	Z, r24
    PORTJ &= ~0x07;
     bd0:	80 81       	ld	r24, Z
     bd2:	88 7f       	andi	r24, 0xF8	; 248
     bd4:	80 83       	st	Z, r24
    PORTJ |= Zeilen_Nr;                     // gewünschte Zeile einstellen
     bd6:	90 81       	ld	r25, Z
     bd8:	80 91 80 02 	lds	r24, 0x0280	; 0x800280 <Zeilen_Nr.2731>
     bdc:	89 2b       	or	r24, r25
     bde:	80 83       	st	Z, r24
    STROBE_1;                             // Daten ins Latch schreiben
     be0:	80 81       	ld	r24, Z
     be2:	80 64       	ori	r24, 0x40	; 64
     be4:	80 83       	st	Z, r24
    ENABLE_1;                             // +5V Speisung der eingestellten Zeile einschalten
     be6:	80 81       	ld	r24, Z
     be8:	88 60       	ori	r24, 0x08	; 8
     bea:	80 83       	st	Z, r24

    // Die Zeilen werden nacheinander eingeschaltet --> zyklisch 0,1,2,3,4,5,6,7, 0,1,2,3, ...
    if (Zeilen_Nr < 7)
     bec:	80 91 80 02 	lds	r24, 0x0280	; 0x800280 <Zeilen_Nr.2731>
     bf0:	90 91 81 02 	lds	r25, 0x0281	; 0x800281 <Zeilen_Nr.2731+0x1>
     bf4:	87 30       	cpi	r24, 0x07	; 7
     bf6:	91 05       	cpc	r25, r1
     bf8:	30 f4       	brcc	.+12     	; 0xc06 <matrixWriteNextLine+0xd0>
    {
        Zeilen_Nr++;
     bfa:	01 96       	adiw	r24, 0x01	; 1
     bfc:	90 93 81 02 	sts	0x0281, r25	; 0x800281 <Zeilen_Nr.2731+0x1>
     c00:	80 93 80 02 	sts	0x0280, r24	; 0x800280 <Zeilen_Nr.2731>
     c04:	07 c0       	rjmp	.+14     	; 0xc14 <matrixWriteNextLine+0xde>
    }
    else
    {
        Zeilen_Nr = 0;
     c06:	10 92 81 02 	sts	0x0281, r1	; 0x800281 <Zeilen_Nr.2731+0x1>
     c0a:	10 92 80 02 	sts	0x0280, r1	; 0x800280 <Zeilen_Nr.2731>
        writeTextFinished = 1;
     c0e:	81 e0       	ldi	r24, 0x01	; 1
     c10:	80 93 cc 02 	sts	0x02CC, r24	; 0x8002cc <writeTextFinished>
    }
    
     c14:	28 96       	adiw	r28, 0x08	; 8
     c16:	0f b6       	in	r0, 0x3f	; 63
     c18:	f8 94       	cli
     c1a:	de bf       	out	0x3e, r29	; 62
     c1c:	0f be       	out	0x3f, r0	; 63
     c1e:	cd bf       	out	0x3d, r28	; 61
     c20:	df 91       	pop	r29
     c22:	cf 91       	pop	r28
     c24:	08 95       	ret

00000c26 <__vector_23>:
//--------------------------------------------------------------------------------------------
// Timer 0 Overflow Interrupt ->  Wird alle 1ms aufgerufen
//--------------------------------------------------------------------------------------------

ISR(TIMER0_OVF_vect)
{
     c26:	1f 92       	push	r1
     c28:	0f 92       	push	r0
     c2a:	0f b6       	in	r0, 0x3f	; 63
     c2c:	0f 92       	push	r0
     c2e:	11 24       	eor	r1, r1
     c30:	0b b6       	in	r0, 0x3b	; 59
     c32:	0f 92       	push	r0
     c34:	2f 93       	push	r18
     c36:	3f 93       	push	r19
     c38:	4f 93       	push	r20
     c3a:	5f 93       	push	r21
     c3c:	6f 93       	push	r22
     c3e:	7f 93       	push	r23
     c40:	8f 93       	push	r24
     c42:	9f 93       	push	r25
     c44:	af 93       	push	r26
     c46:	bf 93       	push	r27
     c48:	ef 93       	push	r30
     c4a:	ff 93       	push	r31
    systemTimeMs += 1;
     c4c:	20 91 cd 02 	lds	r18, 0x02CD	; 0x8002cd <systemTimeMs>
     c50:	30 91 ce 02 	lds	r19, 0x02CE	; 0x8002ce <systemTimeMs+0x1>
     c54:	40 91 cf 02 	lds	r20, 0x02CF	; 0x8002cf <systemTimeMs+0x2>
     c58:	50 91 d0 02 	lds	r21, 0x02D0	; 0x8002d0 <systemTimeMs+0x3>
     c5c:	60 91 d1 02 	lds	r22, 0x02D1	; 0x8002d1 <systemTimeMs+0x4>
     c60:	70 91 d2 02 	lds	r23, 0x02D2	; 0x8002d2 <systemTimeMs+0x5>
     c64:	80 91 d3 02 	lds	r24, 0x02D3	; 0x8002d3 <systemTimeMs+0x6>
     c68:	90 91 d4 02 	lds	r25, 0x02D4	; 0x8002d4 <systemTimeMs+0x7>
     c6c:	a1 e0       	ldi	r26, 0x01	; 1
     c6e:	b6 d0       	rcall	.+364    	; 0xddc <__adddi3_s8>
     c70:	20 93 cd 02 	sts	0x02CD, r18	; 0x8002cd <systemTimeMs>
     c74:	30 93 ce 02 	sts	0x02CE, r19	; 0x8002ce <systemTimeMs+0x1>
     c78:	40 93 cf 02 	sts	0x02CF, r20	; 0x8002cf <systemTimeMs+0x2>
     c7c:	50 93 d0 02 	sts	0x02D0, r21	; 0x8002d0 <systemTimeMs+0x3>
     c80:	60 93 d1 02 	sts	0x02D1, r22	; 0x8002d1 <systemTimeMs+0x4>
     c84:	70 93 d2 02 	sts	0x02D2, r23	; 0x8002d2 <systemTimeMs+0x5>
     c88:	80 93 d3 02 	sts	0x02D3, r24	; 0x8002d3 <systemTimeMs+0x6>
     c8c:	90 93 d4 02 	sts	0x02D4, r25	; 0x8002d4 <systemTimeMs+0x7>

    if(matrixRunning)matrixWriteNextLine();
     c90:	80 91 d5 02 	lds	r24, 0x02D5	; 0x8002d5 <matrixRunning>
     c94:	81 11       	cpse	r24, r1
     c96:	4f df       	rcall	.-354    	; 0xb36 <matrixWriteNextLine>
}
     c98:	ff 91       	pop	r31
     c9a:	ef 91       	pop	r30
     c9c:	bf 91       	pop	r27
     c9e:	af 91       	pop	r26
     ca0:	9f 91       	pop	r25
     ca2:	8f 91       	pop	r24
     ca4:	7f 91       	pop	r23
     ca6:	6f 91       	pop	r22
     ca8:	5f 91       	pop	r21
     caa:	4f 91       	pop	r20
     cac:	3f 91       	pop	r19
     cae:	2f 91       	pop	r18
     cb0:	0f 90       	pop	r0
     cb2:	0b be       	out	0x3b, r0	; 59
     cb4:	0f 90       	pop	r0
     cb6:	0f be       	out	0x3f, r0	; 63
     cb8:	0f 90       	pop	r0
     cba:	1f 90       	pop	r1
     cbc:	18 95       	reti

00000cbe <__udivmodsi4>:
     cbe:	a1 e2       	ldi	r26, 0x21	; 33
     cc0:	1a 2e       	mov	r1, r26
     cc2:	aa 1b       	sub	r26, r26
     cc4:	bb 1b       	sub	r27, r27
     cc6:	fd 01       	movw	r30, r26
     cc8:	0d c0       	rjmp	.+26     	; 0xce4 <__udivmodsi4_ep>

00000cca <__udivmodsi4_loop>:
     cca:	aa 1f       	adc	r26, r26
     ccc:	bb 1f       	adc	r27, r27
     cce:	ee 1f       	adc	r30, r30
     cd0:	ff 1f       	adc	r31, r31
     cd2:	a2 17       	cp	r26, r18
     cd4:	b3 07       	cpc	r27, r19
     cd6:	e4 07       	cpc	r30, r20
     cd8:	f5 07       	cpc	r31, r21
     cda:	20 f0       	brcs	.+8      	; 0xce4 <__udivmodsi4_ep>
     cdc:	a2 1b       	sub	r26, r18
     cde:	b3 0b       	sbc	r27, r19
     ce0:	e4 0b       	sbc	r30, r20
     ce2:	f5 0b       	sbc	r31, r21

00000ce4 <__udivmodsi4_ep>:
     ce4:	66 1f       	adc	r22, r22
     ce6:	77 1f       	adc	r23, r23
     ce8:	88 1f       	adc	r24, r24
     cea:	99 1f       	adc	r25, r25
     cec:	1a 94       	dec	r1
     cee:	69 f7       	brne	.-38     	; 0xcca <__udivmodsi4_loop>
     cf0:	60 95       	com	r22
     cf2:	70 95       	com	r23
     cf4:	80 95       	com	r24
     cf6:	90 95       	com	r25
     cf8:	9b 01       	movw	r18, r22
     cfa:	ac 01       	movw	r20, r24
     cfc:	bd 01       	movw	r22, r26
     cfe:	cf 01       	movw	r24, r30
     d00:	08 95       	ret

00000d02 <__umulhisi3>:
     d02:	a2 9f       	mul	r26, r18
     d04:	b0 01       	movw	r22, r0
     d06:	b3 9f       	mul	r27, r19
     d08:	c0 01       	movw	r24, r0
     d0a:	a3 9f       	mul	r26, r19
     d0c:	70 0d       	add	r23, r0
     d0e:	81 1d       	adc	r24, r1
     d10:	11 24       	eor	r1, r1
     d12:	91 1d       	adc	r25, r1
     d14:	b2 9f       	mul	r27, r18
     d16:	70 0d       	add	r23, r0
     d18:	81 1d       	adc	r24, r1
     d1a:	11 24       	eor	r1, r1
     d1c:	91 1d       	adc	r25, r1
     d1e:	08 95       	ret

00000d20 <__umoddi3>:
     d20:	68 94       	set
     d22:	01 c0       	rjmp	.+2      	; 0xd26 <__udivdi3_umoddi3>

00000d24 <__udivdi3>:
     d24:	e8 94       	clt

00000d26 <__udivdi3_umoddi3>:
     d26:	8f 92       	push	r8
     d28:	9f 92       	push	r9
     d2a:	cf 93       	push	r28
     d2c:	df 93       	push	r29
     d2e:	05 d0       	rcall	.+10     	; 0xd3a <__udivmod64>
     d30:	df 91       	pop	r29
     d32:	cf 91       	pop	r28
     d34:	9f 90       	pop	r9
     d36:	8f 90       	pop	r8
     d38:	08 95       	ret

00000d3a <__udivmod64>:
     d3a:	88 24       	eor	r8, r8
     d3c:	99 24       	eor	r9, r9
     d3e:	f4 01       	movw	r30, r8
     d40:	e4 01       	movw	r28, r8
     d42:	b0 e4       	ldi	r27, 0x40	; 64
     d44:	9f 93       	push	r25
     d46:	aa 27       	eor	r26, r26
     d48:	9a 15       	cp	r25, r10
     d4a:	8b 04       	cpc	r8, r11
     d4c:	9c 04       	cpc	r9, r12
     d4e:	ed 05       	cpc	r30, r13
     d50:	fe 05       	cpc	r31, r14
     d52:	cf 05       	cpc	r28, r15
     d54:	d0 07       	cpc	r29, r16
     d56:	a1 07       	cpc	r26, r17
     d58:	98 f4       	brcc	.+38     	; 0xd80 <__udivmod64+0x46>
     d5a:	ad 2f       	mov	r26, r29
     d5c:	dc 2f       	mov	r29, r28
     d5e:	cf 2f       	mov	r28, r31
     d60:	fe 2f       	mov	r31, r30
     d62:	e9 2d       	mov	r30, r9
     d64:	98 2c       	mov	r9, r8
     d66:	89 2e       	mov	r8, r25
     d68:	98 2f       	mov	r25, r24
     d6a:	87 2f       	mov	r24, r23
     d6c:	76 2f       	mov	r23, r22
     d6e:	65 2f       	mov	r22, r21
     d70:	54 2f       	mov	r21, r20
     d72:	43 2f       	mov	r20, r19
     d74:	32 2f       	mov	r19, r18
     d76:	22 27       	eor	r18, r18
     d78:	b8 50       	subi	r27, 0x08	; 8
     d7a:	31 f7       	brne	.-52     	; 0xd48 <__udivmod64+0xe>
     d7c:	bf 91       	pop	r27
     d7e:	27 c0       	rjmp	.+78     	; 0xdce <__udivmod64+0x94>
     d80:	1b 2e       	mov	r1, r27
     d82:	bf 91       	pop	r27
     d84:	bb 27       	eor	r27, r27
     d86:	22 0f       	add	r18, r18
     d88:	33 1f       	adc	r19, r19
     d8a:	44 1f       	adc	r20, r20
     d8c:	55 1f       	adc	r21, r21
     d8e:	66 1f       	adc	r22, r22
     d90:	77 1f       	adc	r23, r23
     d92:	88 1f       	adc	r24, r24
     d94:	99 1f       	adc	r25, r25
     d96:	88 1c       	adc	r8, r8
     d98:	99 1c       	adc	r9, r9
     d9a:	ee 1f       	adc	r30, r30
     d9c:	ff 1f       	adc	r31, r31
     d9e:	cc 1f       	adc	r28, r28
     da0:	dd 1f       	adc	r29, r29
     da2:	aa 1f       	adc	r26, r26
     da4:	bb 1f       	adc	r27, r27
     da6:	8a 14       	cp	r8, r10
     da8:	9b 04       	cpc	r9, r11
     daa:	ec 05       	cpc	r30, r12
     dac:	fd 05       	cpc	r31, r13
     dae:	ce 05       	cpc	r28, r14
     db0:	df 05       	cpc	r29, r15
     db2:	a0 07       	cpc	r26, r16
     db4:	b1 07       	cpc	r27, r17
     db6:	48 f0       	brcs	.+18     	; 0xdca <__udivmod64+0x90>
     db8:	8a 18       	sub	r8, r10
     dba:	9b 08       	sbc	r9, r11
     dbc:	ec 09       	sbc	r30, r12
     dbe:	fd 09       	sbc	r31, r13
     dc0:	ce 09       	sbc	r28, r14
     dc2:	df 09       	sbc	r29, r15
     dc4:	a0 0b       	sbc	r26, r16
     dc6:	b1 0b       	sbc	r27, r17
     dc8:	21 60       	ori	r18, 0x01	; 1
     dca:	1a 94       	dec	r1
     dcc:	e1 f6       	brne	.-72     	; 0xd86 <__udivmod64+0x4c>
     dce:	2e f4       	brtc	.+10     	; 0xdda <__udivmod64+0xa0>
     dd0:	94 01       	movw	r18, r8
     dd2:	af 01       	movw	r20, r30
     dd4:	be 01       	movw	r22, r28
     dd6:	cd 01       	movw	r24, r26
     dd8:	00 0c       	add	r0, r0
     dda:	08 95       	ret

00000ddc <__adddi3_s8>:
     ddc:	00 24       	eor	r0, r0
     dde:	a7 fd       	sbrc	r26, 7
     de0:	00 94       	com	r0
     de2:	2a 0f       	add	r18, r26
     de4:	30 1d       	adc	r19, r0
     de6:	40 1d       	adc	r20, r0
     de8:	50 1d       	adc	r21, r0
     dea:	60 1d       	adc	r22, r0
     dec:	70 1d       	adc	r23, r0
     dee:	80 1d       	adc	r24, r0
     df0:	90 1d       	adc	r25, r0
     df2:	08 95       	ret

00000df4 <strcmp>:
     df4:	fb 01       	movw	r30, r22
     df6:	dc 01       	movw	r26, r24
     df8:	8d 91       	ld	r24, X+
     dfa:	01 90       	ld	r0, Z+
     dfc:	80 19       	sub	r24, r0
     dfe:	01 10       	cpse	r0, r1
     e00:	d9 f3       	breq	.-10     	; 0xdf8 <strcmp+0x4>
     e02:	99 0b       	sbc	r25, r25
     e04:	08 95       	ret

00000e06 <vsnprintf>:
     e06:	0f 93       	push	r16
     e08:	1f 93       	push	r17
     e0a:	cf 93       	push	r28
     e0c:	df 93       	push	r29
     e0e:	cd b7       	in	r28, 0x3d	; 61
     e10:	de b7       	in	r29, 0x3e	; 62
     e12:	2e 97       	sbiw	r28, 0x0e	; 14
     e14:	0f b6       	in	r0, 0x3f	; 63
     e16:	f8 94       	cli
     e18:	de bf       	out	0x3e, r29	; 62
     e1a:	0f be       	out	0x3f, r0	; 63
     e1c:	cd bf       	out	0x3d, r28	; 61
     e1e:	8c 01       	movw	r16, r24
     e20:	fa 01       	movw	r30, r20
     e22:	86 e0       	ldi	r24, 0x06	; 6
     e24:	8c 83       	std	Y+4, r24	; 0x04
     e26:	1a 83       	std	Y+2, r17	; 0x02
     e28:	09 83       	std	Y+1, r16	; 0x01
     e2a:	77 ff       	sbrs	r23, 7
     e2c:	02 c0       	rjmp	.+4      	; 0xe32 <vsnprintf+0x2c>
     e2e:	60 e0       	ldi	r22, 0x00	; 0
     e30:	70 e8       	ldi	r23, 0x80	; 128
     e32:	cb 01       	movw	r24, r22
     e34:	01 97       	sbiw	r24, 0x01	; 1
     e36:	9e 83       	std	Y+6, r25	; 0x06
     e38:	8d 83       	std	Y+5, r24	; 0x05
     e3a:	a9 01       	movw	r20, r18
     e3c:	bf 01       	movw	r22, r30
     e3e:	ce 01       	movw	r24, r28
     e40:	01 96       	adiw	r24, 0x01	; 1
     e42:	19 d0       	rcall	.+50     	; 0xe76 <vfprintf>
     e44:	4d 81       	ldd	r20, Y+5	; 0x05
     e46:	5e 81       	ldd	r21, Y+6	; 0x06
     e48:	57 fd       	sbrc	r21, 7
     e4a:	0a c0       	rjmp	.+20     	; 0xe60 <vsnprintf+0x5a>
     e4c:	2f 81       	ldd	r18, Y+7	; 0x07
     e4e:	38 85       	ldd	r19, Y+8	; 0x08
     e50:	42 17       	cp	r20, r18
     e52:	53 07       	cpc	r21, r19
     e54:	0c f4       	brge	.+2      	; 0xe58 <vsnprintf+0x52>
     e56:	9a 01       	movw	r18, r20
     e58:	f8 01       	movw	r30, r16
     e5a:	e2 0f       	add	r30, r18
     e5c:	f3 1f       	adc	r31, r19
     e5e:	10 82       	st	Z, r1
     e60:	2e 96       	adiw	r28, 0x0e	; 14
     e62:	0f b6       	in	r0, 0x3f	; 63
     e64:	f8 94       	cli
     e66:	de bf       	out	0x3e, r29	; 62
     e68:	0f be       	out	0x3f, r0	; 63
     e6a:	cd bf       	out	0x3d, r28	; 61
     e6c:	df 91       	pop	r29
     e6e:	cf 91       	pop	r28
     e70:	1f 91       	pop	r17
     e72:	0f 91       	pop	r16
     e74:	08 95       	ret

00000e76 <vfprintf>:
     e76:	2f 92       	push	r2
     e78:	3f 92       	push	r3
     e7a:	4f 92       	push	r4
     e7c:	5f 92       	push	r5
     e7e:	6f 92       	push	r6
     e80:	7f 92       	push	r7
     e82:	8f 92       	push	r8
     e84:	9f 92       	push	r9
     e86:	af 92       	push	r10
     e88:	bf 92       	push	r11
     e8a:	cf 92       	push	r12
     e8c:	df 92       	push	r13
     e8e:	ef 92       	push	r14
     e90:	ff 92       	push	r15
     e92:	0f 93       	push	r16
     e94:	1f 93       	push	r17
     e96:	cf 93       	push	r28
     e98:	df 93       	push	r29
     e9a:	cd b7       	in	r28, 0x3d	; 61
     e9c:	de b7       	in	r29, 0x3e	; 62
     e9e:	2b 97       	sbiw	r28, 0x0b	; 11
     ea0:	0f b6       	in	r0, 0x3f	; 63
     ea2:	f8 94       	cli
     ea4:	de bf       	out	0x3e, r29	; 62
     ea6:	0f be       	out	0x3f, r0	; 63
     ea8:	cd bf       	out	0x3d, r28	; 61
     eaa:	6c 01       	movw	r12, r24
     eac:	7b 01       	movw	r14, r22
     eae:	8a 01       	movw	r16, r20
     eb0:	fc 01       	movw	r30, r24
     eb2:	17 82       	std	Z+7, r1	; 0x07
     eb4:	16 82       	std	Z+6, r1	; 0x06
     eb6:	83 81       	ldd	r24, Z+3	; 0x03
     eb8:	81 ff       	sbrs	r24, 1
     eba:	bf c1       	rjmp	.+894    	; 0x123a <vfprintf+0x3c4>
     ebc:	ce 01       	movw	r24, r28
     ebe:	01 96       	adiw	r24, 0x01	; 1
     ec0:	3c 01       	movw	r6, r24
     ec2:	f6 01       	movw	r30, r12
     ec4:	93 81       	ldd	r25, Z+3	; 0x03
     ec6:	f7 01       	movw	r30, r14
     ec8:	93 fd       	sbrc	r25, 3
     eca:	85 91       	lpm	r24, Z+
     ecc:	93 ff       	sbrs	r25, 3
     ece:	81 91       	ld	r24, Z+
     ed0:	7f 01       	movw	r14, r30
     ed2:	88 23       	and	r24, r24
     ed4:	09 f4       	brne	.+2      	; 0xed8 <vfprintf+0x62>
     ed6:	ad c1       	rjmp	.+858    	; 0x1232 <vfprintf+0x3bc>
     ed8:	85 32       	cpi	r24, 0x25	; 37
     eda:	39 f4       	brne	.+14     	; 0xeea <vfprintf+0x74>
     edc:	93 fd       	sbrc	r25, 3
     ede:	85 91       	lpm	r24, Z+
     ee0:	93 ff       	sbrs	r25, 3
     ee2:	81 91       	ld	r24, Z+
     ee4:	7f 01       	movw	r14, r30
     ee6:	85 32       	cpi	r24, 0x25	; 37
     ee8:	21 f4       	brne	.+8      	; 0xef2 <vfprintf+0x7c>
     eea:	b6 01       	movw	r22, r12
     eec:	90 e0       	ldi	r25, 0x00	; 0
     eee:	d6 d1       	rcall	.+940    	; 0x129c <fputc>
     ef0:	e8 cf       	rjmp	.-48     	; 0xec2 <vfprintf+0x4c>
     ef2:	91 2c       	mov	r9, r1
     ef4:	21 2c       	mov	r2, r1
     ef6:	31 2c       	mov	r3, r1
     ef8:	ff e1       	ldi	r31, 0x1F	; 31
     efa:	f3 15       	cp	r31, r3
     efc:	d8 f0       	brcs	.+54     	; 0xf34 <vfprintf+0xbe>
     efe:	8b 32       	cpi	r24, 0x2B	; 43
     f00:	79 f0       	breq	.+30     	; 0xf20 <vfprintf+0xaa>
     f02:	38 f4       	brcc	.+14     	; 0xf12 <vfprintf+0x9c>
     f04:	80 32       	cpi	r24, 0x20	; 32
     f06:	79 f0       	breq	.+30     	; 0xf26 <vfprintf+0xb0>
     f08:	83 32       	cpi	r24, 0x23	; 35
     f0a:	a1 f4       	brne	.+40     	; 0xf34 <vfprintf+0xbe>
     f0c:	23 2d       	mov	r18, r3
     f0e:	20 61       	ori	r18, 0x10	; 16
     f10:	1d c0       	rjmp	.+58     	; 0xf4c <vfprintf+0xd6>
     f12:	8d 32       	cpi	r24, 0x2D	; 45
     f14:	61 f0       	breq	.+24     	; 0xf2e <vfprintf+0xb8>
     f16:	80 33       	cpi	r24, 0x30	; 48
     f18:	69 f4       	brne	.+26     	; 0xf34 <vfprintf+0xbe>
     f1a:	23 2d       	mov	r18, r3
     f1c:	21 60       	ori	r18, 0x01	; 1
     f1e:	16 c0       	rjmp	.+44     	; 0xf4c <vfprintf+0xd6>
     f20:	83 2d       	mov	r24, r3
     f22:	82 60       	ori	r24, 0x02	; 2
     f24:	38 2e       	mov	r3, r24
     f26:	e3 2d       	mov	r30, r3
     f28:	e4 60       	ori	r30, 0x04	; 4
     f2a:	3e 2e       	mov	r3, r30
     f2c:	2a c0       	rjmp	.+84     	; 0xf82 <vfprintf+0x10c>
     f2e:	f3 2d       	mov	r31, r3
     f30:	f8 60       	ori	r31, 0x08	; 8
     f32:	1d c0       	rjmp	.+58     	; 0xf6e <vfprintf+0xf8>
     f34:	37 fc       	sbrc	r3, 7
     f36:	2d c0       	rjmp	.+90     	; 0xf92 <vfprintf+0x11c>
     f38:	20 ed       	ldi	r18, 0xD0	; 208
     f3a:	28 0f       	add	r18, r24
     f3c:	2a 30       	cpi	r18, 0x0A	; 10
     f3e:	40 f0       	brcs	.+16     	; 0xf50 <vfprintf+0xda>
     f40:	8e 32       	cpi	r24, 0x2E	; 46
     f42:	b9 f4       	brne	.+46     	; 0xf72 <vfprintf+0xfc>
     f44:	36 fc       	sbrc	r3, 6
     f46:	75 c1       	rjmp	.+746    	; 0x1232 <vfprintf+0x3bc>
     f48:	23 2d       	mov	r18, r3
     f4a:	20 64       	ori	r18, 0x40	; 64
     f4c:	32 2e       	mov	r3, r18
     f4e:	19 c0       	rjmp	.+50     	; 0xf82 <vfprintf+0x10c>
     f50:	36 fe       	sbrs	r3, 6
     f52:	06 c0       	rjmp	.+12     	; 0xf60 <vfprintf+0xea>
     f54:	8a e0       	ldi	r24, 0x0A	; 10
     f56:	98 9e       	mul	r9, r24
     f58:	20 0d       	add	r18, r0
     f5a:	11 24       	eor	r1, r1
     f5c:	92 2e       	mov	r9, r18
     f5e:	11 c0       	rjmp	.+34     	; 0xf82 <vfprintf+0x10c>
     f60:	ea e0       	ldi	r30, 0x0A	; 10
     f62:	2e 9e       	mul	r2, r30
     f64:	20 0d       	add	r18, r0
     f66:	11 24       	eor	r1, r1
     f68:	22 2e       	mov	r2, r18
     f6a:	f3 2d       	mov	r31, r3
     f6c:	f0 62       	ori	r31, 0x20	; 32
     f6e:	3f 2e       	mov	r3, r31
     f70:	08 c0       	rjmp	.+16     	; 0xf82 <vfprintf+0x10c>
     f72:	8c 36       	cpi	r24, 0x6C	; 108
     f74:	21 f4       	brne	.+8      	; 0xf7e <vfprintf+0x108>
     f76:	83 2d       	mov	r24, r3
     f78:	80 68       	ori	r24, 0x80	; 128
     f7a:	38 2e       	mov	r3, r24
     f7c:	02 c0       	rjmp	.+4      	; 0xf82 <vfprintf+0x10c>
     f7e:	88 36       	cpi	r24, 0x68	; 104
     f80:	41 f4       	brne	.+16     	; 0xf92 <vfprintf+0x11c>
     f82:	f7 01       	movw	r30, r14
     f84:	93 fd       	sbrc	r25, 3
     f86:	85 91       	lpm	r24, Z+
     f88:	93 ff       	sbrs	r25, 3
     f8a:	81 91       	ld	r24, Z+
     f8c:	7f 01       	movw	r14, r30
     f8e:	81 11       	cpse	r24, r1
     f90:	b3 cf       	rjmp	.-154    	; 0xef8 <vfprintf+0x82>
     f92:	98 2f       	mov	r25, r24
     f94:	9f 7d       	andi	r25, 0xDF	; 223
     f96:	95 54       	subi	r25, 0x45	; 69
     f98:	93 30       	cpi	r25, 0x03	; 3
     f9a:	28 f4       	brcc	.+10     	; 0xfa6 <vfprintf+0x130>
     f9c:	0c 5f       	subi	r16, 0xFC	; 252
     f9e:	1f 4f       	sbci	r17, 0xFF	; 255
     fa0:	9f e3       	ldi	r25, 0x3F	; 63
     fa2:	99 83       	std	Y+1, r25	; 0x01
     fa4:	0d c0       	rjmp	.+26     	; 0xfc0 <vfprintf+0x14a>
     fa6:	83 36       	cpi	r24, 0x63	; 99
     fa8:	31 f0       	breq	.+12     	; 0xfb6 <vfprintf+0x140>
     faa:	83 37       	cpi	r24, 0x73	; 115
     fac:	71 f0       	breq	.+28     	; 0xfca <vfprintf+0x154>
     fae:	83 35       	cpi	r24, 0x53	; 83
     fb0:	09 f0       	breq	.+2      	; 0xfb4 <vfprintf+0x13e>
     fb2:	55 c0       	rjmp	.+170    	; 0x105e <vfprintf+0x1e8>
     fb4:	20 c0       	rjmp	.+64     	; 0xff6 <vfprintf+0x180>
     fb6:	f8 01       	movw	r30, r16
     fb8:	80 81       	ld	r24, Z
     fba:	89 83       	std	Y+1, r24	; 0x01
     fbc:	0e 5f       	subi	r16, 0xFE	; 254
     fbe:	1f 4f       	sbci	r17, 0xFF	; 255
     fc0:	88 24       	eor	r8, r8
     fc2:	83 94       	inc	r8
     fc4:	91 2c       	mov	r9, r1
     fc6:	53 01       	movw	r10, r6
     fc8:	12 c0       	rjmp	.+36     	; 0xfee <vfprintf+0x178>
     fca:	28 01       	movw	r4, r16
     fcc:	f2 e0       	ldi	r31, 0x02	; 2
     fce:	4f 0e       	add	r4, r31
     fd0:	51 1c       	adc	r5, r1
     fd2:	f8 01       	movw	r30, r16
     fd4:	a0 80       	ld	r10, Z
     fd6:	b1 80       	ldd	r11, Z+1	; 0x01
     fd8:	36 fe       	sbrs	r3, 6
     fda:	03 c0       	rjmp	.+6      	; 0xfe2 <vfprintf+0x16c>
     fdc:	69 2d       	mov	r22, r9
     fde:	70 e0       	ldi	r23, 0x00	; 0
     fe0:	02 c0       	rjmp	.+4      	; 0xfe6 <vfprintf+0x170>
     fe2:	6f ef       	ldi	r22, 0xFF	; 255
     fe4:	7f ef       	ldi	r23, 0xFF	; 255
     fe6:	c5 01       	movw	r24, r10
     fe8:	4e d1       	rcall	.+668    	; 0x1286 <strnlen>
     fea:	4c 01       	movw	r8, r24
     fec:	82 01       	movw	r16, r4
     fee:	f3 2d       	mov	r31, r3
     ff0:	ff 77       	andi	r31, 0x7F	; 127
     ff2:	3f 2e       	mov	r3, r31
     ff4:	15 c0       	rjmp	.+42     	; 0x1020 <vfprintf+0x1aa>
     ff6:	28 01       	movw	r4, r16
     ff8:	22 e0       	ldi	r18, 0x02	; 2
     ffa:	42 0e       	add	r4, r18
     ffc:	51 1c       	adc	r5, r1
     ffe:	f8 01       	movw	r30, r16
    1000:	a0 80       	ld	r10, Z
    1002:	b1 80       	ldd	r11, Z+1	; 0x01
    1004:	36 fe       	sbrs	r3, 6
    1006:	03 c0       	rjmp	.+6      	; 0x100e <vfprintf+0x198>
    1008:	69 2d       	mov	r22, r9
    100a:	70 e0       	ldi	r23, 0x00	; 0
    100c:	02 c0       	rjmp	.+4      	; 0x1012 <vfprintf+0x19c>
    100e:	6f ef       	ldi	r22, 0xFF	; 255
    1010:	7f ef       	ldi	r23, 0xFF	; 255
    1012:	c5 01       	movw	r24, r10
    1014:	2d d1       	rcall	.+602    	; 0x1270 <strnlen_P>
    1016:	4c 01       	movw	r8, r24
    1018:	f3 2d       	mov	r31, r3
    101a:	f0 68       	ori	r31, 0x80	; 128
    101c:	3f 2e       	mov	r3, r31
    101e:	82 01       	movw	r16, r4
    1020:	33 fc       	sbrc	r3, 3
    1022:	19 c0       	rjmp	.+50     	; 0x1056 <vfprintf+0x1e0>
    1024:	82 2d       	mov	r24, r2
    1026:	90 e0       	ldi	r25, 0x00	; 0
    1028:	88 16       	cp	r8, r24
    102a:	99 06       	cpc	r9, r25
    102c:	a0 f4       	brcc	.+40     	; 0x1056 <vfprintf+0x1e0>
    102e:	b6 01       	movw	r22, r12
    1030:	80 e2       	ldi	r24, 0x20	; 32
    1032:	90 e0       	ldi	r25, 0x00	; 0
    1034:	33 d1       	rcall	.+614    	; 0x129c <fputc>
    1036:	2a 94       	dec	r2
    1038:	f5 cf       	rjmp	.-22     	; 0x1024 <vfprintf+0x1ae>
    103a:	f5 01       	movw	r30, r10
    103c:	37 fc       	sbrc	r3, 7
    103e:	85 91       	lpm	r24, Z+
    1040:	37 fe       	sbrs	r3, 7
    1042:	81 91       	ld	r24, Z+
    1044:	5f 01       	movw	r10, r30
    1046:	b6 01       	movw	r22, r12
    1048:	90 e0       	ldi	r25, 0x00	; 0
    104a:	28 d1       	rcall	.+592    	; 0x129c <fputc>
    104c:	21 10       	cpse	r2, r1
    104e:	2a 94       	dec	r2
    1050:	21 e0       	ldi	r18, 0x01	; 1
    1052:	82 1a       	sub	r8, r18
    1054:	91 08       	sbc	r9, r1
    1056:	81 14       	cp	r8, r1
    1058:	91 04       	cpc	r9, r1
    105a:	79 f7       	brne	.-34     	; 0x103a <vfprintf+0x1c4>
    105c:	e1 c0       	rjmp	.+450    	; 0x1220 <vfprintf+0x3aa>
    105e:	84 36       	cpi	r24, 0x64	; 100
    1060:	11 f0       	breq	.+4      	; 0x1066 <vfprintf+0x1f0>
    1062:	89 36       	cpi	r24, 0x69	; 105
    1064:	39 f5       	brne	.+78     	; 0x10b4 <vfprintf+0x23e>
    1066:	f8 01       	movw	r30, r16
    1068:	37 fe       	sbrs	r3, 7
    106a:	07 c0       	rjmp	.+14     	; 0x107a <vfprintf+0x204>
    106c:	60 81       	ld	r22, Z
    106e:	71 81       	ldd	r23, Z+1	; 0x01
    1070:	82 81       	ldd	r24, Z+2	; 0x02
    1072:	93 81       	ldd	r25, Z+3	; 0x03
    1074:	0c 5f       	subi	r16, 0xFC	; 252
    1076:	1f 4f       	sbci	r17, 0xFF	; 255
    1078:	08 c0       	rjmp	.+16     	; 0x108a <vfprintf+0x214>
    107a:	60 81       	ld	r22, Z
    107c:	71 81       	ldd	r23, Z+1	; 0x01
    107e:	07 2e       	mov	r0, r23
    1080:	00 0c       	add	r0, r0
    1082:	88 0b       	sbc	r24, r24
    1084:	99 0b       	sbc	r25, r25
    1086:	0e 5f       	subi	r16, 0xFE	; 254
    1088:	1f 4f       	sbci	r17, 0xFF	; 255
    108a:	f3 2d       	mov	r31, r3
    108c:	ff 76       	andi	r31, 0x6F	; 111
    108e:	3f 2e       	mov	r3, r31
    1090:	97 ff       	sbrs	r25, 7
    1092:	09 c0       	rjmp	.+18     	; 0x10a6 <vfprintf+0x230>
    1094:	90 95       	com	r25
    1096:	80 95       	com	r24
    1098:	70 95       	com	r23
    109a:	61 95       	neg	r22
    109c:	7f 4f       	sbci	r23, 0xFF	; 255
    109e:	8f 4f       	sbci	r24, 0xFF	; 255
    10a0:	9f 4f       	sbci	r25, 0xFF	; 255
    10a2:	f0 68       	ori	r31, 0x80	; 128
    10a4:	3f 2e       	mov	r3, r31
    10a6:	2a e0       	ldi	r18, 0x0A	; 10
    10a8:	30 e0       	ldi	r19, 0x00	; 0
    10aa:	a3 01       	movw	r20, r6
    10ac:	33 d1       	rcall	.+614    	; 0x1314 <__ultoa_invert>
    10ae:	88 2e       	mov	r8, r24
    10b0:	86 18       	sub	r8, r6
    10b2:	44 c0       	rjmp	.+136    	; 0x113c <vfprintf+0x2c6>
    10b4:	85 37       	cpi	r24, 0x75	; 117
    10b6:	31 f4       	brne	.+12     	; 0x10c4 <vfprintf+0x24e>
    10b8:	23 2d       	mov	r18, r3
    10ba:	2f 7e       	andi	r18, 0xEF	; 239
    10bc:	b2 2e       	mov	r11, r18
    10be:	2a e0       	ldi	r18, 0x0A	; 10
    10c0:	30 e0       	ldi	r19, 0x00	; 0
    10c2:	25 c0       	rjmp	.+74     	; 0x110e <vfprintf+0x298>
    10c4:	93 2d       	mov	r25, r3
    10c6:	99 7f       	andi	r25, 0xF9	; 249
    10c8:	b9 2e       	mov	r11, r25
    10ca:	8f 36       	cpi	r24, 0x6F	; 111
    10cc:	c1 f0       	breq	.+48     	; 0x10fe <vfprintf+0x288>
    10ce:	18 f4       	brcc	.+6      	; 0x10d6 <vfprintf+0x260>
    10d0:	88 35       	cpi	r24, 0x58	; 88
    10d2:	79 f0       	breq	.+30     	; 0x10f2 <vfprintf+0x27c>
    10d4:	ae c0       	rjmp	.+348    	; 0x1232 <vfprintf+0x3bc>
    10d6:	80 37       	cpi	r24, 0x70	; 112
    10d8:	19 f0       	breq	.+6      	; 0x10e0 <vfprintf+0x26a>
    10da:	88 37       	cpi	r24, 0x78	; 120
    10dc:	21 f0       	breq	.+8      	; 0x10e6 <vfprintf+0x270>
    10de:	a9 c0       	rjmp	.+338    	; 0x1232 <vfprintf+0x3bc>
    10e0:	e9 2f       	mov	r30, r25
    10e2:	e0 61       	ori	r30, 0x10	; 16
    10e4:	be 2e       	mov	r11, r30
    10e6:	b4 fe       	sbrs	r11, 4
    10e8:	0d c0       	rjmp	.+26     	; 0x1104 <vfprintf+0x28e>
    10ea:	fb 2d       	mov	r31, r11
    10ec:	f4 60       	ori	r31, 0x04	; 4
    10ee:	bf 2e       	mov	r11, r31
    10f0:	09 c0       	rjmp	.+18     	; 0x1104 <vfprintf+0x28e>
    10f2:	34 fe       	sbrs	r3, 4
    10f4:	0a c0       	rjmp	.+20     	; 0x110a <vfprintf+0x294>
    10f6:	29 2f       	mov	r18, r25
    10f8:	26 60       	ori	r18, 0x06	; 6
    10fa:	b2 2e       	mov	r11, r18
    10fc:	06 c0       	rjmp	.+12     	; 0x110a <vfprintf+0x294>
    10fe:	28 e0       	ldi	r18, 0x08	; 8
    1100:	30 e0       	ldi	r19, 0x00	; 0
    1102:	05 c0       	rjmp	.+10     	; 0x110e <vfprintf+0x298>
    1104:	20 e1       	ldi	r18, 0x10	; 16
    1106:	30 e0       	ldi	r19, 0x00	; 0
    1108:	02 c0       	rjmp	.+4      	; 0x110e <vfprintf+0x298>
    110a:	20 e1       	ldi	r18, 0x10	; 16
    110c:	32 e0       	ldi	r19, 0x02	; 2
    110e:	f8 01       	movw	r30, r16
    1110:	b7 fe       	sbrs	r11, 7
    1112:	07 c0       	rjmp	.+14     	; 0x1122 <vfprintf+0x2ac>
    1114:	60 81       	ld	r22, Z
    1116:	71 81       	ldd	r23, Z+1	; 0x01
    1118:	82 81       	ldd	r24, Z+2	; 0x02
    111a:	93 81       	ldd	r25, Z+3	; 0x03
    111c:	0c 5f       	subi	r16, 0xFC	; 252
    111e:	1f 4f       	sbci	r17, 0xFF	; 255
    1120:	06 c0       	rjmp	.+12     	; 0x112e <vfprintf+0x2b8>
    1122:	60 81       	ld	r22, Z
    1124:	71 81       	ldd	r23, Z+1	; 0x01
    1126:	80 e0       	ldi	r24, 0x00	; 0
    1128:	90 e0       	ldi	r25, 0x00	; 0
    112a:	0e 5f       	subi	r16, 0xFE	; 254
    112c:	1f 4f       	sbci	r17, 0xFF	; 255
    112e:	a3 01       	movw	r20, r6
    1130:	f1 d0       	rcall	.+482    	; 0x1314 <__ultoa_invert>
    1132:	88 2e       	mov	r8, r24
    1134:	86 18       	sub	r8, r6
    1136:	fb 2d       	mov	r31, r11
    1138:	ff 77       	andi	r31, 0x7F	; 127
    113a:	3f 2e       	mov	r3, r31
    113c:	36 fe       	sbrs	r3, 6
    113e:	0d c0       	rjmp	.+26     	; 0x115a <vfprintf+0x2e4>
    1140:	23 2d       	mov	r18, r3
    1142:	2e 7f       	andi	r18, 0xFE	; 254
    1144:	a2 2e       	mov	r10, r18
    1146:	89 14       	cp	r8, r9
    1148:	58 f4       	brcc	.+22     	; 0x1160 <vfprintf+0x2ea>
    114a:	34 fe       	sbrs	r3, 4
    114c:	0b c0       	rjmp	.+22     	; 0x1164 <vfprintf+0x2ee>
    114e:	32 fc       	sbrc	r3, 2
    1150:	09 c0       	rjmp	.+18     	; 0x1164 <vfprintf+0x2ee>
    1152:	83 2d       	mov	r24, r3
    1154:	8e 7e       	andi	r24, 0xEE	; 238
    1156:	a8 2e       	mov	r10, r24
    1158:	05 c0       	rjmp	.+10     	; 0x1164 <vfprintf+0x2ee>
    115a:	b8 2c       	mov	r11, r8
    115c:	a3 2c       	mov	r10, r3
    115e:	03 c0       	rjmp	.+6      	; 0x1166 <vfprintf+0x2f0>
    1160:	b8 2c       	mov	r11, r8
    1162:	01 c0       	rjmp	.+2      	; 0x1166 <vfprintf+0x2f0>
    1164:	b9 2c       	mov	r11, r9
    1166:	a4 fe       	sbrs	r10, 4
    1168:	0f c0       	rjmp	.+30     	; 0x1188 <vfprintf+0x312>
    116a:	fe 01       	movw	r30, r28
    116c:	e8 0d       	add	r30, r8
    116e:	f1 1d       	adc	r31, r1
    1170:	80 81       	ld	r24, Z
    1172:	80 33       	cpi	r24, 0x30	; 48
    1174:	21 f4       	brne	.+8      	; 0x117e <vfprintf+0x308>
    1176:	9a 2d       	mov	r25, r10
    1178:	99 7e       	andi	r25, 0xE9	; 233
    117a:	a9 2e       	mov	r10, r25
    117c:	09 c0       	rjmp	.+18     	; 0x1190 <vfprintf+0x31a>
    117e:	a2 fe       	sbrs	r10, 2
    1180:	06 c0       	rjmp	.+12     	; 0x118e <vfprintf+0x318>
    1182:	b3 94       	inc	r11
    1184:	b3 94       	inc	r11
    1186:	04 c0       	rjmp	.+8      	; 0x1190 <vfprintf+0x31a>
    1188:	8a 2d       	mov	r24, r10
    118a:	86 78       	andi	r24, 0x86	; 134
    118c:	09 f0       	breq	.+2      	; 0x1190 <vfprintf+0x31a>
    118e:	b3 94       	inc	r11
    1190:	a3 fc       	sbrc	r10, 3
    1192:	10 c0       	rjmp	.+32     	; 0x11b4 <vfprintf+0x33e>
    1194:	a0 fe       	sbrs	r10, 0
    1196:	06 c0       	rjmp	.+12     	; 0x11a4 <vfprintf+0x32e>
    1198:	b2 14       	cp	r11, r2
    119a:	80 f4       	brcc	.+32     	; 0x11bc <vfprintf+0x346>
    119c:	28 0c       	add	r2, r8
    119e:	92 2c       	mov	r9, r2
    11a0:	9b 18       	sub	r9, r11
    11a2:	0d c0       	rjmp	.+26     	; 0x11be <vfprintf+0x348>
    11a4:	b2 14       	cp	r11, r2
    11a6:	58 f4       	brcc	.+22     	; 0x11be <vfprintf+0x348>
    11a8:	b6 01       	movw	r22, r12
    11aa:	80 e2       	ldi	r24, 0x20	; 32
    11ac:	90 e0       	ldi	r25, 0x00	; 0
    11ae:	76 d0       	rcall	.+236    	; 0x129c <fputc>
    11b0:	b3 94       	inc	r11
    11b2:	f8 cf       	rjmp	.-16     	; 0x11a4 <vfprintf+0x32e>
    11b4:	b2 14       	cp	r11, r2
    11b6:	18 f4       	brcc	.+6      	; 0x11be <vfprintf+0x348>
    11b8:	2b 18       	sub	r2, r11
    11ba:	02 c0       	rjmp	.+4      	; 0x11c0 <vfprintf+0x34a>
    11bc:	98 2c       	mov	r9, r8
    11be:	21 2c       	mov	r2, r1
    11c0:	a4 fe       	sbrs	r10, 4
    11c2:	0f c0       	rjmp	.+30     	; 0x11e2 <vfprintf+0x36c>
    11c4:	b6 01       	movw	r22, r12
    11c6:	80 e3       	ldi	r24, 0x30	; 48
    11c8:	90 e0       	ldi	r25, 0x00	; 0
    11ca:	68 d0       	rcall	.+208    	; 0x129c <fputc>
    11cc:	a2 fe       	sbrs	r10, 2
    11ce:	16 c0       	rjmp	.+44     	; 0x11fc <vfprintf+0x386>
    11d0:	a1 fc       	sbrc	r10, 1
    11d2:	03 c0       	rjmp	.+6      	; 0x11da <vfprintf+0x364>
    11d4:	88 e7       	ldi	r24, 0x78	; 120
    11d6:	90 e0       	ldi	r25, 0x00	; 0
    11d8:	02 c0       	rjmp	.+4      	; 0x11de <vfprintf+0x368>
    11da:	88 e5       	ldi	r24, 0x58	; 88
    11dc:	90 e0       	ldi	r25, 0x00	; 0
    11de:	b6 01       	movw	r22, r12
    11e0:	0c c0       	rjmp	.+24     	; 0x11fa <vfprintf+0x384>
    11e2:	8a 2d       	mov	r24, r10
    11e4:	86 78       	andi	r24, 0x86	; 134
    11e6:	51 f0       	breq	.+20     	; 0x11fc <vfprintf+0x386>
    11e8:	a1 fe       	sbrs	r10, 1
    11ea:	02 c0       	rjmp	.+4      	; 0x11f0 <vfprintf+0x37a>
    11ec:	8b e2       	ldi	r24, 0x2B	; 43
    11ee:	01 c0       	rjmp	.+2      	; 0x11f2 <vfprintf+0x37c>
    11f0:	80 e2       	ldi	r24, 0x20	; 32
    11f2:	a7 fc       	sbrc	r10, 7
    11f4:	8d e2       	ldi	r24, 0x2D	; 45
    11f6:	b6 01       	movw	r22, r12
    11f8:	90 e0       	ldi	r25, 0x00	; 0
    11fa:	50 d0       	rcall	.+160    	; 0x129c <fputc>
    11fc:	89 14       	cp	r8, r9
    11fe:	30 f4       	brcc	.+12     	; 0x120c <vfprintf+0x396>
    1200:	b6 01       	movw	r22, r12
    1202:	80 e3       	ldi	r24, 0x30	; 48
    1204:	90 e0       	ldi	r25, 0x00	; 0
    1206:	4a d0       	rcall	.+148    	; 0x129c <fputc>
    1208:	9a 94       	dec	r9
    120a:	f8 cf       	rjmp	.-16     	; 0x11fc <vfprintf+0x386>
    120c:	8a 94       	dec	r8
    120e:	f3 01       	movw	r30, r6
    1210:	e8 0d       	add	r30, r8
    1212:	f1 1d       	adc	r31, r1
    1214:	80 81       	ld	r24, Z
    1216:	b6 01       	movw	r22, r12
    1218:	90 e0       	ldi	r25, 0x00	; 0
    121a:	40 d0       	rcall	.+128    	; 0x129c <fputc>
    121c:	81 10       	cpse	r8, r1
    121e:	f6 cf       	rjmp	.-20     	; 0x120c <vfprintf+0x396>
    1220:	22 20       	and	r2, r2
    1222:	09 f4       	brne	.+2      	; 0x1226 <vfprintf+0x3b0>
    1224:	4e ce       	rjmp	.-868    	; 0xec2 <vfprintf+0x4c>
    1226:	b6 01       	movw	r22, r12
    1228:	80 e2       	ldi	r24, 0x20	; 32
    122a:	90 e0       	ldi	r25, 0x00	; 0
    122c:	37 d0       	rcall	.+110    	; 0x129c <fputc>
    122e:	2a 94       	dec	r2
    1230:	f7 cf       	rjmp	.-18     	; 0x1220 <vfprintf+0x3aa>
    1232:	f6 01       	movw	r30, r12
    1234:	86 81       	ldd	r24, Z+6	; 0x06
    1236:	97 81       	ldd	r25, Z+7	; 0x07
    1238:	02 c0       	rjmp	.+4      	; 0x123e <vfprintf+0x3c8>
    123a:	8f ef       	ldi	r24, 0xFF	; 255
    123c:	9f ef       	ldi	r25, 0xFF	; 255
    123e:	2b 96       	adiw	r28, 0x0b	; 11
    1240:	0f b6       	in	r0, 0x3f	; 63
    1242:	f8 94       	cli
    1244:	de bf       	out	0x3e, r29	; 62
    1246:	0f be       	out	0x3f, r0	; 63
    1248:	cd bf       	out	0x3d, r28	; 61
    124a:	df 91       	pop	r29
    124c:	cf 91       	pop	r28
    124e:	1f 91       	pop	r17
    1250:	0f 91       	pop	r16
    1252:	ff 90       	pop	r15
    1254:	ef 90       	pop	r14
    1256:	df 90       	pop	r13
    1258:	cf 90       	pop	r12
    125a:	bf 90       	pop	r11
    125c:	af 90       	pop	r10
    125e:	9f 90       	pop	r9
    1260:	8f 90       	pop	r8
    1262:	7f 90       	pop	r7
    1264:	6f 90       	pop	r6
    1266:	5f 90       	pop	r5
    1268:	4f 90       	pop	r4
    126a:	3f 90       	pop	r3
    126c:	2f 90       	pop	r2
    126e:	08 95       	ret

00001270 <strnlen_P>:
    1270:	fc 01       	movw	r30, r24
    1272:	05 90       	lpm	r0, Z+
    1274:	61 50       	subi	r22, 0x01	; 1
    1276:	70 40       	sbci	r23, 0x00	; 0
    1278:	01 10       	cpse	r0, r1
    127a:	d8 f7       	brcc	.-10     	; 0x1272 <strnlen_P+0x2>
    127c:	80 95       	com	r24
    127e:	90 95       	com	r25
    1280:	8e 0f       	add	r24, r30
    1282:	9f 1f       	adc	r25, r31
    1284:	08 95       	ret

00001286 <strnlen>:
    1286:	fc 01       	movw	r30, r24
    1288:	61 50       	subi	r22, 0x01	; 1
    128a:	70 40       	sbci	r23, 0x00	; 0
    128c:	01 90       	ld	r0, Z+
    128e:	01 10       	cpse	r0, r1
    1290:	d8 f7       	brcc	.-10     	; 0x1288 <strnlen+0x2>
    1292:	80 95       	com	r24
    1294:	90 95       	com	r25
    1296:	8e 0f       	add	r24, r30
    1298:	9f 1f       	adc	r25, r31
    129a:	08 95       	ret

0000129c <fputc>:
    129c:	0f 93       	push	r16
    129e:	1f 93       	push	r17
    12a0:	cf 93       	push	r28
    12a2:	df 93       	push	r29
    12a4:	fb 01       	movw	r30, r22
    12a6:	23 81       	ldd	r18, Z+3	; 0x03
    12a8:	21 fd       	sbrc	r18, 1
    12aa:	03 c0       	rjmp	.+6      	; 0x12b2 <fputc+0x16>
    12ac:	8f ef       	ldi	r24, 0xFF	; 255
    12ae:	9f ef       	ldi	r25, 0xFF	; 255
    12b0:	2c c0       	rjmp	.+88     	; 0x130a <fputc+0x6e>
    12b2:	22 ff       	sbrs	r18, 2
    12b4:	16 c0       	rjmp	.+44     	; 0x12e2 <fputc+0x46>
    12b6:	46 81       	ldd	r20, Z+6	; 0x06
    12b8:	57 81       	ldd	r21, Z+7	; 0x07
    12ba:	24 81       	ldd	r18, Z+4	; 0x04
    12bc:	35 81       	ldd	r19, Z+5	; 0x05
    12be:	42 17       	cp	r20, r18
    12c0:	53 07       	cpc	r21, r19
    12c2:	44 f4       	brge	.+16     	; 0x12d4 <fputc+0x38>
    12c4:	a0 81       	ld	r26, Z
    12c6:	b1 81       	ldd	r27, Z+1	; 0x01
    12c8:	9d 01       	movw	r18, r26
    12ca:	2f 5f       	subi	r18, 0xFF	; 255
    12cc:	3f 4f       	sbci	r19, 0xFF	; 255
    12ce:	31 83       	std	Z+1, r19	; 0x01
    12d0:	20 83       	st	Z, r18
    12d2:	8c 93       	st	X, r24
    12d4:	26 81       	ldd	r18, Z+6	; 0x06
    12d6:	37 81       	ldd	r19, Z+7	; 0x07
    12d8:	2f 5f       	subi	r18, 0xFF	; 255
    12da:	3f 4f       	sbci	r19, 0xFF	; 255
    12dc:	37 83       	std	Z+7, r19	; 0x07
    12de:	26 83       	std	Z+6, r18	; 0x06
    12e0:	14 c0       	rjmp	.+40     	; 0x130a <fputc+0x6e>
    12e2:	8b 01       	movw	r16, r22
    12e4:	ec 01       	movw	r28, r24
    12e6:	fb 01       	movw	r30, r22
    12e8:	00 84       	ldd	r0, Z+8	; 0x08
    12ea:	f1 85       	ldd	r31, Z+9	; 0x09
    12ec:	e0 2d       	mov	r30, r0
    12ee:	19 95       	eicall
    12f0:	89 2b       	or	r24, r25
    12f2:	e1 f6       	brne	.-72     	; 0x12ac <fputc+0x10>
    12f4:	d8 01       	movw	r26, r16
    12f6:	16 96       	adiw	r26, 0x06	; 6
    12f8:	8d 91       	ld	r24, X+
    12fa:	9c 91       	ld	r25, X
    12fc:	17 97       	sbiw	r26, 0x07	; 7
    12fe:	01 96       	adiw	r24, 0x01	; 1
    1300:	17 96       	adiw	r26, 0x07	; 7
    1302:	9c 93       	st	X, r25
    1304:	8e 93       	st	-X, r24
    1306:	16 97       	sbiw	r26, 0x06	; 6
    1308:	ce 01       	movw	r24, r28
    130a:	df 91       	pop	r29
    130c:	cf 91       	pop	r28
    130e:	1f 91       	pop	r17
    1310:	0f 91       	pop	r16
    1312:	08 95       	ret

00001314 <__ultoa_invert>:
    1314:	fa 01       	movw	r30, r20
    1316:	aa 27       	eor	r26, r26
    1318:	28 30       	cpi	r18, 0x08	; 8
    131a:	51 f1       	breq	.+84     	; 0x1370 <__ultoa_invert+0x5c>
    131c:	20 31       	cpi	r18, 0x10	; 16
    131e:	81 f1       	breq	.+96     	; 0x1380 <__ultoa_invert+0x6c>
    1320:	e8 94       	clt
    1322:	6f 93       	push	r22
    1324:	6e 7f       	andi	r22, 0xFE	; 254
    1326:	6e 5f       	subi	r22, 0xFE	; 254
    1328:	7f 4f       	sbci	r23, 0xFF	; 255
    132a:	8f 4f       	sbci	r24, 0xFF	; 255
    132c:	9f 4f       	sbci	r25, 0xFF	; 255
    132e:	af 4f       	sbci	r26, 0xFF	; 255
    1330:	b1 e0       	ldi	r27, 0x01	; 1
    1332:	3e d0       	rcall	.+124    	; 0x13b0 <__ultoa_invert+0x9c>
    1334:	b4 e0       	ldi	r27, 0x04	; 4
    1336:	3c d0       	rcall	.+120    	; 0x13b0 <__ultoa_invert+0x9c>
    1338:	67 0f       	add	r22, r23
    133a:	78 1f       	adc	r23, r24
    133c:	89 1f       	adc	r24, r25
    133e:	9a 1f       	adc	r25, r26
    1340:	a1 1d       	adc	r26, r1
    1342:	68 0f       	add	r22, r24
    1344:	79 1f       	adc	r23, r25
    1346:	8a 1f       	adc	r24, r26
    1348:	91 1d       	adc	r25, r1
    134a:	a1 1d       	adc	r26, r1
    134c:	6a 0f       	add	r22, r26
    134e:	71 1d       	adc	r23, r1
    1350:	81 1d       	adc	r24, r1
    1352:	91 1d       	adc	r25, r1
    1354:	a1 1d       	adc	r26, r1
    1356:	20 d0       	rcall	.+64     	; 0x1398 <__ultoa_invert+0x84>
    1358:	09 f4       	brne	.+2      	; 0x135c <__ultoa_invert+0x48>
    135a:	68 94       	set
    135c:	3f 91       	pop	r19
    135e:	2a e0       	ldi	r18, 0x0A	; 10
    1360:	26 9f       	mul	r18, r22
    1362:	11 24       	eor	r1, r1
    1364:	30 19       	sub	r19, r0
    1366:	30 5d       	subi	r19, 0xD0	; 208
    1368:	31 93       	st	Z+, r19
    136a:	de f6       	brtc	.-74     	; 0x1322 <__ultoa_invert+0xe>
    136c:	cf 01       	movw	r24, r30
    136e:	08 95       	ret
    1370:	46 2f       	mov	r20, r22
    1372:	47 70       	andi	r20, 0x07	; 7
    1374:	40 5d       	subi	r20, 0xD0	; 208
    1376:	41 93       	st	Z+, r20
    1378:	b3 e0       	ldi	r27, 0x03	; 3
    137a:	0f d0       	rcall	.+30     	; 0x139a <__ultoa_invert+0x86>
    137c:	c9 f7       	brne	.-14     	; 0x1370 <__ultoa_invert+0x5c>
    137e:	f6 cf       	rjmp	.-20     	; 0x136c <__ultoa_invert+0x58>
    1380:	46 2f       	mov	r20, r22
    1382:	4f 70       	andi	r20, 0x0F	; 15
    1384:	40 5d       	subi	r20, 0xD0	; 208
    1386:	4a 33       	cpi	r20, 0x3A	; 58
    1388:	18 f0       	brcs	.+6      	; 0x1390 <__ultoa_invert+0x7c>
    138a:	49 5d       	subi	r20, 0xD9	; 217
    138c:	31 fd       	sbrc	r19, 1
    138e:	40 52       	subi	r20, 0x20	; 32
    1390:	41 93       	st	Z+, r20
    1392:	02 d0       	rcall	.+4      	; 0x1398 <__ultoa_invert+0x84>
    1394:	a9 f7       	brne	.-22     	; 0x1380 <__ultoa_invert+0x6c>
    1396:	ea cf       	rjmp	.-44     	; 0x136c <__ultoa_invert+0x58>
    1398:	b4 e0       	ldi	r27, 0x04	; 4
    139a:	a6 95       	lsr	r26
    139c:	97 95       	ror	r25
    139e:	87 95       	ror	r24
    13a0:	77 95       	ror	r23
    13a2:	67 95       	ror	r22
    13a4:	ba 95       	dec	r27
    13a6:	c9 f7       	brne	.-14     	; 0x139a <__ultoa_invert+0x86>
    13a8:	00 97       	sbiw	r24, 0x00	; 0
    13aa:	61 05       	cpc	r22, r1
    13ac:	71 05       	cpc	r23, r1
    13ae:	08 95       	ret
    13b0:	9b 01       	movw	r18, r22
    13b2:	ac 01       	movw	r20, r24
    13b4:	0a 2e       	mov	r0, r26
    13b6:	06 94       	lsr	r0
    13b8:	57 95       	ror	r21
    13ba:	47 95       	ror	r20
    13bc:	37 95       	ror	r19
    13be:	27 95       	ror	r18
    13c0:	ba 95       	dec	r27
    13c2:	c9 f7       	brne	.-14     	; 0x13b6 <__ultoa_invert+0xa2>
    13c4:	62 0f       	add	r22, r18
    13c6:	73 1f       	adc	r23, r19
    13c8:	84 1f       	adc	r24, r20
    13ca:	95 1f       	adc	r25, r21
    13cc:	a0 1d       	adc	r26, r0
    13ce:	08 95       	ret

000013d0 <_exit>:
    13d0:	f8 94       	cli

000013d2 <__stop_program>:
    13d2:	ff cf       	rjmp	.-2      	; 0x13d2 <__stop_program>
