
uCBoardBeispiele.elf:     file format elf32-avr

Sections:
Idx Name          Size      VMA       LMA       File off  Algn
  0 .data         00000074  00800200  00000e7e  00000f12  2**0
                  CONTENTS, ALLOC, LOAD, DATA
  1 .text         00000e7e  00000000  00000000  00000094  2**1
                  CONTENTS, ALLOC, LOAD, READONLY, CODE
  2 .bss          0000007e  00800274  00800274  00000f86  2**0
                  ALLOC
  3 .comment      0000005c  00000000  00000000  00000f86  2**0
                  CONTENTS, READONLY
  4 .note.gnu.avr.deviceinfo 00000040  00000000  00000000  00000fe4  2**2
                  CONTENTS, READONLY
  5 .debug_aranges 000001e8  00000000  00000000  00001024  2**0
                  CONTENTS, READONLY, DEBUGGING
  6 .debug_info   00002543  00000000  00000000  0000120c  2**0
                  CONTENTS, READONLY, DEBUGGING
  7 .debug_abbrev 00001009  00000000  00000000  0000374f  2**0
                  CONTENTS, READONLY, DEBUGGING
  8 .debug_line   000014df  00000000  00000000  00004758  2**0
                  CONTENTS, READONLY, DEBUGGING
  9 .debug_frame  00000678  00000000  00000000  00005c38  2**2
                  CONTENTS, READONLY, DEBUGGING
 10 .debug_str    00000d3c  00000000  00000000  000062b0  2**0
                  CONTENTS, READONLY, DEBUGGING
 11 .debug_loc    00001c83  00000000  00000000  00006fec  2**0
                  CONTENTS, READONLY, DEBUGGING
 12 .debug_ranges 00000218  00000000  00000000  00008c6f  2**0
                  CONTENTS, READONLY, DEBUGGING

Disassembly of section .text:

00000000 <__vectors>:
   0:	71 c0       	rjmp	.+226    	; 0xe4 <__ctors_end>
   2:	00 00       	nop
   4:	8e c0       	rjmp	.+284    	; 0x122 <__bad_interrupt>
   6:	00 00       	nop
   8:	8c c0       	rjmp	.+280    	; 0x122 <__bad_interrupt>
   a:	00 00       	nop
   c:	8a c0       	rjmp	.+276    	; 0x122 <__bad_interrupt>
   e:	00 00       	nop
  10:	88 c0       	rjmp	.+272    	; 0x122 <__bad_interrupt>
  12:	00 00       	nop
  14:	86 c0       	rjmp	.+268    	; 0x122 <__bad_interrupt>
  16:	00 00       	nop
  18:	84 c0       	rjmp	.+264    	; 0x122 <__bad_interrupt>
  1a:	00 00       	nop
  1c:	82 c0       	rjmp	.+260    	; 0x122 <__bad_interrupt>
  1e:	00 00       	nop
  20:	80 c0       	rjmp	.+256    	; 0x122 <__bad_interrupt>
  22:	00 00       	nop
  24:	7e c0       	rjmp	.+252    	; 0x122 <__bad_interrupt>
  26:	00 00       	nop
  28:	7c c0       	rjmp	.+248    	; 0x122 <__bad_interrupt>
  2a:	00 00       	nop
  2c:	7a c0       	rjmp	.+244    	; 0x122 <__bad_interrupt>
  2e:	00 00       	nop
  30:	78 c0       	rjmp	.+240    	; 0x122 <__bad_interrupt>
  32:	00 00       	nop
  34:	76 c0       	rjmp	.+236    	; 0x122 <__bad_interrupt>
  36:	00 00       	nop
  38:	74 c0       	rjmp	.+232    	; 0x122 <__bad_interrupt>
  3a:	00 00       	nop
  3c:	72 c0       	rjmp	.+228    	; 0x122 <__bad_interrupt>
  3e:	00 00       	nop
  40:	70 c0       	rjmp	.+224    	; 0x122 <__bad_interrupt>
  42:	00 00       	nop
  44:	6e c0       	rjmp	.+220    	; 0x122 <__bad_interrupt>
  46:	00 00       	nop
  48:	6c c0       	rjmp	.+216    	; 0x122 <__bad_interrupt>
  4a:	00 00       	nop
  4c:	6a c0       	rjmp	.+212    	; 0x122 <__bad_interrupt>
  4e:	00 00       	nop
  50:	68 c0       	rjmp	.+208    	; 0x122 <__bad_interrupt>
  52:	00 00       	nop
  54:	66 c0       	rjmp	.+204    	; 0x122 <__bad_interrupt>
  56:	00 00       	nop
  58:	64 c0       	rjmp	.+200    	; 0x122 <__bad_interrupt>
  5a:	00 00       	nop
  5c:	d1 c3       	rjmp	.+1954   	; 0x800 <__vector_23>
  5e:	00 00       	nop
  60:	60 c0       	rjmp	.+192    	; 0x122 <__bad_interrupt>
  62:	00 00       	nop
  64:	5e c0       	rjmp	.+188    	; 0x122 <__bad_interrupt>
  66:	00 00       	nop
  68:	5c c0       	rjmp	.+184    	; 0x122 <__bad_interrupt>
  6a:	00 00       	nop
  6c:	5a c0       	rjmp	.+180    	; 0x122 <__bad_interrupt>
  6e:	00 00       	nop
  70:	58 c0       	rjmp	.+176    	; 0x122 <__bad_interrupt>
  72:	00 00       	nop
  74:	56 c0       	rjmp	.+172    	; 0x122 <__bad_interrupt>
  76:	00 00       	nop
  78:	54 c0       	rjmp	.+168    	; 0x122 <__bad_interrupt>
  7a:	00 00       	nop
  7c:	52 c0       	rjmp	.+164    	; 0x122 <__bad_interrupt>
  7e:	00 00       	nop
  80:	50 c0       	rjmp	.+160    	; 0x122 <__bad_interrupt>
  82:	00 00       	nop
  84:	4e c0       	rjmp	.+156    	; 0x122 <__bad_interrupt>
  86:	00 00       	nop
  88:	4c c0       	rjmp	.+152    	; 0x122 <__bad_interrupt>
  8a:	00 00       	nop
  8c:	4a c0       	rjmp	.+148    	; 0x122 <__bad_interrupt>
  8e:	00 00       	nop
  90:	48 c0       	rjmp	.+144    	; 0x122 <__bad_interrupt>
  92:	00 00       	nop
  94:	46 c0       	rjmp	.+140    	; 0x122 <__bad_interrupt>
  96:	00 00       	nop
  98:	44 c0       	rjmp	.+136    	; 0x122 <__bad_interrupt>
  9a:	00 00       	nop
  9c:	42 c0       	rjmp	.+132    	; 0x122 <__bad_interrupt>
  9e:	00 00       	nop
  a0:	40 c0       	rjmp	.+128    	; 0x122 <__bad_interrupt>
  a2:	00 00       	nop
  a4:	3e c0       	rjmp	.+124    	; 0x122 <__bad_interrupt>
  a6:	00 00       	nop
  a8:	3c c0       	rjmp	.+120    	; 0x122 <__bad_interrupt>
  aa:	00 00       	nop
  ac:	3a c0       	rjmp	.+116    	; 0x122 <__bad_interrupt>
  ae:	00 00       	nop
  b0:	38 c0       	rjmp	.+112    	; 0x122 <__bad_interrupt>
  b2:	00 00       	nop
  b4:	36 c0       	rjmp	.+108    	; 0x122 <__bad_interrupt>
  b6:	00 00       	nop
  b8:	34 c0       	rjmp	.+104    	; 0x122 <__bad_interrupt>
  ba:	00 00       	nop
  bc:	32 c0       	rjmp	.+100    	; 0x122 <__bad_interrupt>
  be:	00 00       	nop
  c0:	30 c0       	rjmp	.+96     	; 0x122 <__bad_interrupt>
  c2:	00 00       	nop
  c4:	2e c0       	rjmp	.+92     	; 0x122 <__bad_interrupt>
  c6:	00 00       	nop
  c8:	2c c0       	rjmp	.+88     	; 0x122 <__bad_interrupt>
  ca:	00 00       	nop
  cc:	2a c0       	rjmp	.+84     	; 0x122 <__bad_interrupt>
  ce:	00 00       	nop
  d0:	28 c0       	rjmp	.+80     	; 0x122 <__bad_interrupt>
  d2:	00 00       	nop
  d4:	26 c0       	rjmp	.+76     	; 0x122 <__bad_interrupt>
  d6:	00 00       	nop
  d8:	24 c0       	rjmp	.+72     	; 0x122 <__bad_interrupt>
  da:	00 00       	nop
  dc:	22 c0       	rjmp	.+68     	; 0x122 <__bad_interrupt>
  de:	00 00       	nop
  e0:	20 c0       	rjmp	.+64     	; 0x122 <__bad_interrupt>
	...

000000e4 <__ctors_end>:
  e4:	11 24       	eor	r1, r1
  e6:	1f be       	out	0x3f, r1	; 63
  e8:	cf ef       	ldi	r28, 0xFF	; 255
  ea:	d1 e2       	ldi	r29, 0x21	; 33
  ec:	de bf       	out	0x3e, r29	; 62
  ee:	cd bf       	out	0x3d, r28	; 61
  f0:	00 e0       	ldi	r16, 0x00	; 0
  f2:	0c bf       	out	0x3c, r16	; 60

000000f4 <__do_copy_data>:
  f4:	12 e0       	ldi	r17, 0x02	; 2
  f6:	a0 e0       	ldi	r26, 0x00	; 0
  f8:	b2 e0       	ldi	r27, 0x02	; 2
  fa:	ee e7       	ldi	r30, 0x7E	; 126
  fc:	fe e0       	ldi	r31, 0x0E	; 14
  fe:	00 e0       	ldi	r16, 0x00	; 0
 100:	0b bf       	out	0x3b, r16	; 59
 102:	02 c0       	rjmp	.+4      	; 0x108 <__do_copy_data+0x14>
 104:	07 90       	elpm	r0, Z+
 106:	0d 92       	st	X+, r0
 108:	a4 37       	cpi	r26, 0x74	; 116
 10a:	b1 07       	cpc	r27, r17
 10c:	d9 f7       	brne	.-10     	; 0x104 <__do_copy_data+0x10>

0000010e <__do_clear_bss>:
 10e:	22 e0       	ldi	r18, 0x02	; 2
 110:	a4 e7       	ldi	r26, 0x74	; 116
 112:	b2 e0       	ldi	r27, 0x02	; 2
 114:	01 c0       	rjmp	.+2      	; 0x118 <.do_clear_bss_start>

00000116 <.do_clear_bss_loop>:
 116:	1d 92       	st	X+, r1

00000118 <.do_clear_bss_start>:
 118:	a2 3f       	cpi	r26, 0xF2	; 242
 11a:	b2 07       	cpc	r27, r18
 11c:	e1 f7       	brne	.-8      	; 0x116 <.do_clear_bss_loop>
 11e:	02 d0       	rcall	.+4      	; 0x124 <main>
 120:	ac c6       	rjmp	.+3416   	; 0xe7a <_exit>

00000122 <__bad_interrupt>:
 122:	6e cf       	rjmp	.-292    	; 0x0 <__vectors>

00000124 <main>:
     uint16_t akkuanzeige_Led = 0;
     uint16_t outSpannungLed = 0; 
     uint64_t timerBlink_ms = 0;
    
    //Initialisieren
    initBoard(1);
 124:	81 e0       	ldi	r24, 0x01	; 1
 126:	e9 d1       	rcall	.+978    	; 0x4fa <initBoard>
     uint16_t powerLed = 0;
     uint16_t ladenAnzeige_Blinken = 0;
     uint16_t ladenAnzeige_Led = 0;
     uint16_t akkuanzeige_Led = 0;
     uint16_t outSpannungLed = 0; 
     uint64_t timerBlink_ms = 0;
 128:	e1 2c       	mov	r14, r1
 12a:	f1 2c       	mov	r15, r1
 12c:	00 e0       	ldi	r16, 0x00	; 0
 12e:	10 e0       	ldi	r17, 0x00	; 0
 130:	d0 e0       	ldi	r29, 0x00	; 0
 132:	c0 e0       	ldi	r28, 0x00	; 0
 134:	a1 2c       	mov	r10, r1
 136:	b1 2c       	mov	r11, r1
     uint8_t On = 0;
     uint8_t ger_Laden = 0;
     uint8_t selber_laden = 0;
     uint16_t powerLed = 0;
     uint16_t ladenAnzeige_Blinken = 0;
     uint16_t ladenAnzeige_Led = 0;
 138:	c1 2c       	mov	r12, r1
 13a:	d1 2c       	mov	r13, r1
             }
             
         }
         else
         {
             powerLed = OFF;
 13c:	61 2c       	mov	r6, r1
 13e:	71 2c       	mov	r7, r1
       
        
        //Ausgabe------------------------------------------------------------------
         if (On)
         {
             powerLed = OUT_POWER_LED;
 140:	44 24       	eor	r4, r4
 142:	43 94       	inc	r4
 144:	51 2c       	mov	r5, r1
                     ladenAnzeige_Led = OFF;
                 }
                 if (timerBlink_ms >= PERIOD)
                 {
                     ladenAnzeige_Led = IN_LADE_GERAET;
                     timerBlink_ms = 0;
 146:	91 2c       	mov	r9, r1
                 }
             }
             else
             {
                 timerBlink_ms = PERIOD;
 148:	0f 2e       	mov	r0, r31
 14a:	f4 ef       	ldi	r31, 0xF4	; 244
 14c:	2f 2e       	mov	r2, r31
 14e:	f0 2d       	mov	r31, r0
 150:	33 24       	eor	r3, r3
    
    //Unendlichschlaufe
    while(1)
    {
        //Eingabe------------------------------------------------------------------
        inSpannungsmessung = switchReadAll() & IN_SPANNUNGSMESSUNG;
 152:	33 94       	inc	r3
        inSpannungsmessung = inSpannungsmessung >> IN_OFFSET_SPANNUNG;
        ger_Laden = switchReadAll() & IN_LADE_GERAET;
 154:	77 d0       	rcall	.+238    	; 0x244 <switchReadAll>
        selber_laden = switchReadAll() & IN_SELBER_LADE_GERAET;
 156:	76 d0       	rcall	.+236    	; 0x244 <switchReadAll>
 158:	88 2e       	mov	r8, r24
        On = switchReadAll() & ON_OFF_SCHALTER;
 15a:	74 d0       	rcall	.+232    	; 0x244 <switchReadAll>
 15c:	73 d0       	rcall	.+230    	; 0x244 <switchReadAll>
 15e:	81 70       	andi	r24, 0x01	; 1
        
        //Verarbeitung-------------------------------------------------------------
       
       if (ger_Laden)
 160:	82 fc       	sbrc	r8, 2
 162:	68 c0       	rjmp	.+208    	; 0x234 <main+0x110>
           ladenAnzeige_Led = OFF;
       }
       
        
        //Ausgabe------------------------------------------------------------------
         if (On)
 164:	88 23       	and	r24, r24
 166:	09 f4       	brne	.+2      	; 0x16a <main+0x46>
 168:	42 c0       	rjmp	.+132    	; 0x1ee <main+0xca>
                     timerBlink_ms = 0;
                 }
             }
             else
             {
                 timerBlink_ms = PERIOD;
 16a:	e2 2c       	mov	r14, r2
 16c:	f3 2c       	mov	r15, r3
 16e:	09 2d       	mov	r16, r9
 170:	19 2d       	mov	r17, r9
 172:	d9 2d       	mov	r29, r9
 174:	c9 2d       	mov	r28, r9
 176:	a9 2c       	mov	r10, r9
 178:	b9 2c       	mov	r11, r9
           ladenAnzeige_Blinken = 1;
       }
       else
       {
           ladenAnzeige_Blinken = 0;
           ladenAnzeige_Led = OFF;
 17a:	c6 2c       	mov	r12, r6
 17c:	d7 2c       	mov	r13, r7
       
        
        //Ausgabe------------------------------------------------------------------
         if (On)
         {
             powerLed = OUT_POWER_LED;
 17e:	84 2d       	mov	r24, r4
 180:	95 2d       	mov	r25, r5
 182:	3c c0       	rjmp	.+120    	; 0x1fc <main+0xd8>
             
             if (ladenAnzeige_Blinken)
             {
                 if (timerBlink_ms >= ON_TIME)
 184:	2e 2d       	mov	r18, r14
 186:	3f 2d       	mov	r19, r15
 188:	40 2f       	mov	r20, r16
 18a:	51 2f       	mov	r21, r17
 18c:	6d 2f       	mov	r22, r29
 18e:	7c 2f       	mov	r23, r28
 190:	8a 2d       	mov	r24, r10
 192:	9b 2d       	mov	r25, r11
 194:	29 3f       	cpi	r18, 0xF9	; 249
 196:	31 05       	cpc	r19, r1
 198:	41 05       	cpc	r20, r1
 19a:	51 05       	cpc	r21, r1
 19c:	61 05       	cpc	r22, r1
 19e:	71 05       	cpc	r23, r1
 1a0:	81 05       	cpc	r24, r1
 1a2:	91 05       	cpc	r25, r1
 1a4:	19 f0       	breq	.+6      	; 0x1ac <main+0x88>
 1a6:	10 f0       	brcs	.+4      	; 0x1ac <main+0x88>
                 {
                     ladenAnzeige_Led = OFF;
 1a8:	c6 2c       	mov	r12, r6
 1aa:	d7 2c       	mov	r13, r7
                 }
                 if (timerBlink_ms >= PERIOD)
 1ac:	2e 2d       	mov	r18, r14
 1ae:	3f 2d       	mov	r19, r15
 1b0:	40 2f       	mov	r20, r16
 1b2:	51 2f       	mov	r21, r17
 1b4:	6d 2f       	mov	r22, r29
 1b6:	7c 2f       	mov	r23, r28
 1b8:	8a 2d       	mov	r24, r10
 1ba:	9b 2d       	mov	r25, r11
 1bc:	23 3f       	cpi	r18, 0xF3	; 243
 1be:	31 40       	sbci	r19, 0x01	; 1
 1c0:	41 05       	cpc	r20, r1
 1c2:	51 05       	cpc	r21, r1
 1c4:	61 05       	cpc	r22, r1
 1c6:	71 05       	cpc	r23, r1
 1c8:	81 05       	cpc	r24, r1
 1ca:	91 05       	cpc	r25, r1
 1cc:	a9 f0       	breq	.+42     	; 0x1f8 <main+0xd4>
 1ce:	a0 f0       	brcs	.+40     	; 0x1f8 <main+0xd4>
                 {
                     ladenAnzeige_Led = IN_LADE_GERAET;
                     timerBlink_ms = 0;
 1d0:	e9 2c       	mov	r14, r9
 1d2:	f9 2c       	mov	r15, r9
 1d4:	09 2d       	mov	r16, r9
 1d6:	19 2d       	mov	r17, r9
 1d8:	d9 2d       	mov	r29, r9
 1da:	c9 2d       	mov	r28, r9
 1dc:	a9 2c       	mov	r10, r9
 1de:	b9 2c       	mov	r11, r9
                 {
                     ladenAnzeige_Led = OFF;
                 }
                 if (timerBlink_ms >= PERIOD)
                 {
                     ladenAnzeige_Led = IN_LADE_GERAET;
 1e0:	68 94       	set
 1e2:	cc 24       	eor	r12, r12
 1e4:	c2 f8       	bld	r12, 2
 1e6:	d1 2c       	mov	r13, r1
       
        
        //Ausgabe------------------------------------------------------------------
         if (On)
         {
             powerLed = OUT_POWER_LED;
 1e8:	84 2d       	mov	r24, r4
 1ea:	95 2d       	mov	r25, r5
 1ec:	07 c0       	rjmp	.+14     	; 0x1fc <main+0xd8>
           ladenAnzeige_Blinken = 1;
       }
       else
       {
           ladenAnzeige_Blinken = 0;
           ladenAnzeige_Led = OFF;
 1ee:	c6 2c       	mov	r12, r6
 1f0:	d7 2c       	mov	r13, r7
             }
             
         }
         else
         {
             powerLed = OFF;
 1f2:	86 2d       	mov	r24, r6
 1f4:	97 2d       	mov	r25, r7
       
        
        //Ausgabe------------------------------------------------------------------
         if (On)
         {
             powerLed = OUT_POWER_LED;
 1f6:	02 c0       	rjmp	.+4      	; 0x1fc <main+0xd8>
 1f8:	84 2d       	mov	r24, r4
             powerLed = OFF;
         }
        
        
        
        ledWriteAll(powerLed | ladenAnzeige_Led);
 1fa:	95 2d       	mov	r25, r5
 1fc:	8c 29       	or	r24, r12
 1fe:	9d 29       	or	r25, r13
 200:	1e d0       	rcall	.+60     	; 0x23e <ledWriteAll>
	#else
		//round up by default
		__ticks_dc = (uint32_t)(ceil(fabs(__tmp)));
	#endif

	__builtin_avr_delay_cycles(__ticks_dc);
 202:	8f e3       	ldi	r24, 0x3F	; 63
 204:	9c e9       	ldi	r25, 0x9C	; 156
 206:	01 97       	sbiw	r24, 0x01	; 1
 208:	f1 f7       	brne	.-4      	; 0x206 <main+0xe2>
 20a:	00 c0       	rjmp	.+0      	; 0x20c <main+0xe8>
 20c:	00 00       	nop
        
     //Warten-------------------------------------------------------------------
     _delay_ms(SYSTEM_TICK_MS);
     timerBlink_ms = timerBlink_ms + SYSTEM_TICK_MS;
 20e:	2e 2d       	mov	r18, r14
 210:	3f 2d       	mov	r19, r15
 212:	40 2f       	mov	r20, r16
 214:	51 2f       	mov	r21, r17
 216:	6d 2f       	mov	r22, r29
 218:	7c 2f       	mov	r23, r28
 21a:	8a 2d       	mov	r24, r10
 21c:	9b 2d       	mov	r25, r11
 21e:	aa e0       	ldi	r26, 0x0A	; 10
 220:	3b d3       	rcall	.+1654   	; 0x898 <__adddi3_s8>
 222:	e2 2e       	mov	r14, r18
 224:	f3 2e       	mov	r15, r19
 226:	04 2f       	mov	r16, r20
 228:	15 2f       	mov	r17, r21
 22a:	d6 2f       	mov	r29, r22
 22c:	c7 2f       	mov	r28, r23
 22e:	a8 2e       	mov	r10, r24
 230:	b9 2e       	mov	r11, r25
     
    }
 232:	90 cf       	rjmp	.-224    	; 0x154 <main+0x30>
           ladenAnzeige_Led = OFF;
       }
       
        
        //Ausgabe------------------------------------------------------------------
         if (On)
 234:	81 11       	cpse	r24, r1
 236:	a6 cf       	rjmp	.-180    	; 0x184 <main+0x60>
             }
             
         }
         else
         {
             powerLed = OFF;
 238:	86 2d       	mov	r24, r6
 23a:	97 2d       	mov	r25, r7
 23c:	df cf       	rjmp	.-66     	; 0x1fc <main+0xd8>

0000023e <ledWriteAll>:
            }
        }
        matrix_buffer_pos += breite + Zeichenabstand;           // Position für das nächste Zeichen berechnen
        str_p++;                                                // Zeichen-Zeiger auf das nächste Zeichen richten
    }
}
 23e:	82 b9       	out	0x02, r24	; 2
 240:	95 b9       	out	0x05, r25	; 5
 242:	08 95       	ret

00000244 <switchReadAll>:
 244:	86 b1       	in	r24, 0x06	; 6
 246:	08 95       	ret

00000248 <startSystemTimeMs>:
 248:	83 e0       	ldi	r24, 0x03	; 3
 24a:	84 bd       	out	0x24, r24	; 36
 24c:	8b e0       	ldi	r24, 0x0B	; 11
 24e:	85 bd       	out	0x25, r24	; 37
 250:	81 e0       	ldi	r24, 0x01	; 1
 252:	80 93 6e 00 	sts	0x006E, r24	; 0x80006e <__TEXT_REGION_LENGTH__+0x70006e>
 256:	89 ef       	ldi	r24, 0xF9	; 249
 258:	87 bd       	out	0x27, r24	; 39
 25a:	08 95       	ret

0000025c <initAdc>:
 25c:	11 ba       	out	0x11, r1	; 17
 25e:	10 ba       	out	0x10, r1	; 16
 260:	10 92 08 01 	sts	0x0108, r1	; 0x800108 <__TEXT_REGION_LENGTH__+0x700108>
 264:	10 92 07 01 	sts	0x0107, r1	; 0x800107 <__TEXT_REGION_LENGTH__+0x700107>
 268:	80 e4       	ldi	r24, 0x40	; 64
 26a:	80 93 7c 00 	sts	0x007C, r24	; 0x80007c <__TEXT_REGION_LENGTH__+0x70007c>
 26e:	8f e0       	ldi	r24, 0x0F	; 15
 270:	80 93 7e 00 	sts	0x007E, r24	; 0x80007e <__TEXT_REGION_LENGTH__+0x70007e>
 274:	8f ef       	ldi	r24, 0xFF	; 255
 276:	80 93 7d 00 	sts	0x007D, r24	; 0x80007d <__TEXT_REGION_LENGTH__+0x70007d>
 27a:	ea e7       	ldi	r30, 0x7A	; 122
 27c:	f0 e0       	ldi	r31, 0x00	; 0
 27e:	87 ea       	ldi	r24, 0xA7	; 167
 280:	80 83       	st	Z, r24
 282:	10 92 7b 00 	sts	0x007B, r1	; 0x80007b <__TEXT_REGION_LENGTH__+0x70007b>
 286:	80 81       	ld	r24, Z
 288:	80 64       	ori	r24, 0x40	; 64
 28a:	80 83       	st	Z, r24
 28c:	80 81       	ld	r24, Z
 28e:	84 ff       	sbrs	r24, 4
 290:	fd cf       	rjmp	.-6      	; 0x28c <initAdc+0x30>
 292:	ea e7       	ldi	r30, 0x7A	; 122
 294:	f0 e0       	ldi	r31, 0x00	; 0
 296:	80 81       	ld	r24, Z
 298:	8f 7e       	andi	r24, 0xEF	; 239
 29a:	80 83       	st	Z, r24
 29c:	08 95       	ret

0000029e <rgbWrite>:
 29e:	2f ef       	ldi	r18, 0xFF	; 255
 2a0:	33 e0       	ldi	r19, 0x03	; 3
 2a2:	f9 01       	movw	r30, r18
 2a4:	e8 1b       	sub	r30, r24
 2a6:	f9 0b       	sbc	r31, r25
 2a8:	c9 01       	movw	r24, r18
 2aa:	86 1b       	sub	r24, r22
 2ac:	97 0b       	sbc	r25, r23
 2ae:	24 1b       	sub	r18, r20
 2b0:	35 0b       	sbc	r19, r21
 2b2:	f0 93 a9 00 	sts	0x00A9, r31	; 0x8000a9 <__TEXT_REGION_LENGTH__+0x7000a9>
 2b6:	e0 93 a8 00 	sts	0x00A8, r30	; 0x8000a8 <__TEXT_REGION_LENGTH__+0x7000a8>
 2ba:	90 93 ab 00 	sts	0x00AB, r25	; 0x8000ab <__TEXT_REGION_LENGTH__+0x7000ab>
 2be:	80 93 aa 00 	sts	0x00AA, r24	; 0x8000aa <__TEXT_REGION_LENGTH__+0x7000aa>
 2c2:	30 93 ad 00 	sts	0x00AD, r19	; 0x8000ad <__TEXT_REGION_LENGTH__+0x7000ad>
 2c6:	20 93 ac 00 	sts	0x00AC, r18	; 0x8000ac <__TEXT_REGION_LENGTH__+0x7000ac>
 2ca:	08 95       	ret

000002cc <initRgb>:
 2cc:	8e ef       	ldi	r24, 0xFE	; 254
 2ce:	80 93 a0 00 	sts	0x00A0, r24	; 0x8000a0 <__TEXT_REGION_LENGTH__+0x7000a0>
 2d2:	8b e1       	ldi	r24, 0x1B	; 27
 2d4:	80 93 a1 00 	sts	0x00A1, r24	; 0x8000a1 <__TEXT_REGION_LENGTH__+0x7000a1>
 2d8:	83 e0       	ldi	r24, 0x03	; 3
 2da:	80 93 a7 00 	sts	0x00A7, r24	; 0x8000a7 <__TEXT_REGION_LENGTH__+0x7000a7>
 2de:	8f ef       	ldi	r24, 0xFF	; 255
 2e0:	80 93 a6 00 	sts	0x00A6, r24	; 0x8000a6 <__TEXT_REGION_LENGTH__+0x7000a6>
 2e4:	40 e0       	ldi	r20, 0x00	; 0
 2e6:	50 e0       	ldi	r21, 0x00	; 0
 2e8:	60 e0       	ldi	r22, 0x00	; 0
 2ea:	70 e0       	ldi	r23, 0x00	; 0
 2ec:	80 e0       	ldi	r24, 0x00	; 0
 2ee:	90 e0       	ldi	r25, 0x00	; 0
 2f0:	d6 cf       	rjmp	.-84     	; 0x29e <rgbWrite>
 2f2:	08 95       	ret

000002f4 <lcdSid>:
 2f4:	88 23       	and	r24, r24
 2f6:	11 f0       	breq	.+4      	; 0x2fc <lcdSid+0x8>
 2f8:	a0 9a       	sbi	0x14, 0	; 20
 2fa:	08 95       	ret
 2fc:	a0 98       	cbi	0x14, 0	; 20
 2fe:	08 95       	ret

00000300 <lcdSclk>:
 300:	88 23       	and	r24, r24
 302:	11 f0       	breq	.+4      	; 0x308 <lcdSclk+0x8>
 304:	a1 9a       	sbi	0x14, 1	; 20
 306:	08 95       	ret
 308:	a1 98       	cbi	0x14, 1	; 20
 30a:	08 95       	ret

0000030c <lcdLight>:
 30c:	81 11       	cpse	r24, r1
 30e:	04 c0       	rjmp	.+8      	; 0x318 <lcdLight+0xc>
 310:	84 b5       	in	r24, 0x24	; 36
 312:	8f 7d       	andi	r24, 0xDF	; 223
 314:	84 bd       	out	0x24, r24	; 36
 316:	08 95       	ret
 318:	94 b5       	in	r25, 0x24	; 36
 31a:	90 62       	ori	r25, 0x20	; 32
 31c:	94 bd       	out	0x24, r25	; 36
 31e:	88 bd       	out	0x28, r24	; 40
 320:	08 95       	ret

00000322 <writeLcdF>:
 322:	ef 92       	push	r14
 324:	ff 92       	push	r15
 326:	0f 93       	push	r16
 328:	1f 93       	push	r17
 32a:	cf 93       	push	r28
 32c:	df 93       	push	r29
 32e:	7c 01       	movw	r14, r24
 330:	eb 01       	movw	r28, r22
 332:	81 e0       	ldi	r24, 0x01	; 1
 334:	df df       	rcall	.-66     	; 0x2f4 <lcdSid>
 336:	05 e0       	ldi	r16, 0x05	; 5
 338:	10 e0       	ldi	r17, 0x00	; 0
 33a:	80 e0       	ldi	r24, 0x00	; 0
 33c:	e1 df       	rcall	.-62     	; 0x300 <lcdSclk>
 33e:	81 e0       	ldi	r24, 0x01	; 1
 340:	df df       	rcall	.-66     	; 0x300 <lcdSclk>
 342:	01 50       	subi	r16, 0x01	; 1
 344:	11 09       	sbc	r17, r1
 346:	c9 f7       	brne	.-14     	; 0x33a <writeLcdF+0x18>
 348:	80 e0       	ldi	r24, 0x00	; 0
 34a:	d4 df       	rcall	.-88     	; 0x2f4 <lcdSid>
 34c:	80 e0       	ldi	r24, 0x00	; 0
 34e:	d8 df       	rcall	.-80     	; 0x300 <lcdSclk>
 350:	81 e0       	ldi	r24, 0x01	; 1
 352:	d6 df       	rcall	.-84     	; 0x300 <lcdSclk>
 354:	83 e4       	ldi	r24, 0x43	; 67
 356:	e8 16       	cp	r14, r24
 358:	f1 04       	cpc	r15, r1
 35a:	19 f4       	brne	.+6      	; 0x362 <writeLcdF+0x40>
 35c:	80 e0       	ldi	r24, 0x00	; 0
 35e:	ca df       	rcall	.-108    	; 0x2f4 <lcdSid>
 360:	02 c0       	rjmp	.+4      	; 0x366 <writeLcdF+0x44>
 362:	81 e0       	ldi	r24, 0x01	; 1
 364:	c7 df       	rcall	.-114    	; 0x2f4 <lcdSid>
 366:	80 e0       	ldi	r24, 0x00	; 0
 368:	cb df       	rcall	.-106    	; 0x300 <lcdSclk>
 36a:	81 e0       	ldi	r24, 0x01	; 1
 36c:	c9 df       	rcall	.-110    	; 0x300 <lcdSclk>
 36e:	80 e0       	ldi	r24, 0x00	; 0
 370:	c1 df       	rcall	.-126    	; 0x2f4 <lcdSid>
 372:	80 e0       	ldi	r24, 0x00	; 0
 374:	c5 df       	rcall	.-118    	; 0x300 <lcdSclk>
 376:	81 e0       	ldi	r24, 0x01	; 1
 378:	c3 df       	rcall	.-122    	; 0x300 <lcdSclk>
 37a:	04 e0       	ldi	r16, 0x04	; 4
 37c:	10 e0       	ldi	r17, 0x00	; 0
 37e:	80 e0       	ldi	r24, 0x00	; 0
 380:	bf df       	rcall	.-130    	; 0x300 <lcdSclk>
 382:	c0 ff       	sbrs	r28, 0
 384:	03 c0       	rjmp	.+6      	; 0x38c <writeLcdF+0x6a>
 386:	81 e0       	ldi	r24, 0x01	; 1
 388:	b5 df       	rcall	.-150    	; 0x2f4 <lcdSid>
 38a:	02 c0       	rjmp	.+4      	; 0x390 <writeLcdF+0x6e>
 38c:	80 e0       	ldi	r24, 0x00	; 0
 38e:	b2 df       	rcall	.-156    	; 0x2f4 <lcdSid>
 390:	d6 95       	lsr	r29
 392:	c7 95       	ror	r28
 394:	80 e0       	ldi	r24, 0x00	; 0
 396:	b4 df       	rcall	.-152    	; 0x300 <lcdSclk>
 398:	81 e0       	ldi	r24, 0x01	; 1
 39a:	b2 df       	rcall	.-156    	; 0x300 <lcdSclk>
 39c:	01 50       	subi	r16, 0x01	; 1
 39e:	11 09       	sbc	r17, r1
 3a0:	71 f7       	brne	.-36     	; 0x37e <writeLcdF+0x5c>
 3a2:	80 e0       	ldi	r24, 0x00	; 0
 3a4:	a7 df       	rcall	.-178    	; 0x2f4 <lcdSid>
 3a6:	04 e0       	ldi	r16, 0x04	; 4
 3a8:	10 e0       	ldi	r17, 0x00	; 0
 3aa:	80 e0       	ldi	r24, 0x00	; 0
 3ac:	a9 df       	rcall	.-174    	; 0x300 <lcdSclk>
 3ae:	81 e0       	ldi	r24, 0x01	; 1
 3b0:	a7 df       	rcall	.-178    	; 0x300 <lcdSclk>
 3b2:	01 50       	subi	r16, 0x01	; 1
 3b4:	11 09       	sbc	r17, r1
 3b6:	c9 f7       	brne	.-14     	; 0x3aa <writeLcdF+0x88>
 3b8:	04 e0       	ldi	r16, 0x04	; 4
 3ba:	10 e0       	ldi	r17, 0x00	; 0
 3bc:	80 e0       	ldi	r24, 0x00	; 0
 3be:	a0 df       	rcall	.-192    	; 0x300 <lcdSclk>
 3c0:	c0 ff       	sbrs	r28, 0
 3c2:	03 c0       	rjmp	.+6      	; 0x3ca <writeLcdF+0xa8>
 3c4:	81 e0       	ldi	r24, 0x01	; 1
 3c6:	96 df       	rcall	.-212    	; 0x2f4 <lcdSid>
 3c8:	02 c0       	rjmp	.+4      	; 0x3ce <writeLcdF+0xac>
 3ca:	80 e0       	ldi	r24, 0x00	; 0
 3cc:	93 df       	rcall	.-218    	; 0x2f4 <lcdSid>
 3ce:	d6 95       	lsr	r29
 3d0:	c7 95       	ror	r28
 3d2:	80 e0       	ldi	r24, 0x00	; 0
 3d4:	95 df       	rcall	.-214    	; 0x300 <lcdSclk>
 3d6:	81 e0       	ldi	r24, 0x01	; 1
 3d8:	93 df       	rcall	.-218    	; 0x300 <lcdSclk>
 3da:	01 50       	subi	r16, 0x01	; 1
 3dc:	11 09       	sbc	r17, r1
 3de:	71 f7       	brne	.-36     	; 0x3bc <writeLcdF+0x9a>
 3e0:	80 e0       	ldi	r24, 0x00	; 0
 3e2:	88 df       	rcall	.-240    	; 0x2f4 <lcdSid>
 3e4:	c4 e0       	ldi	r28, 0x04	; 4
 3e6:	d0 e0       	ldi	r29, 0x00	; 0
 3e8:	80 e0       	ldi	r24, 0x00	; 0
 3ea:	8a df       	rcall	.-236    	; 0x300 <lcdSclk>
 3ec:	81 e0       	ldi	r24, 0x01	; 1
 3ee:	88 df       	rcall	.-240    	; 0x300 <lcdSclk>
 3f0:	21 97       	sbiw	r28, 0x01	; 1
 3f2:	d1 f7       	brne	.-12     	; 0x3e8 <writeLcdF+0xc6>
 3f4:	81 e0       	ldi	r24, 0x01	; 1
 3f6:	7e df       	rcall	.-260    	; 0x2f4 <lcdSid>
 3f8:	87 ec       	ldi	r24, 0xC7	; 199
 3fa:	90 e0       	ldi	r25, 0x00	; 0
 3fc:	01 97       	sbiw	r24, 0x01	; 1
 3fe:	f1 f7       	brne	.-4      	; 0x3fc <writeLcdF+0xda>
 400:	00 c0       	rjmp	.+0      	; 0x402 <__LOCK_REGION_LENGTH__+0x2>
 402:	00 00       	nop
 404:	df 91       	pop	r29
 406:	cf 91       	pop	r28
 408:	1f 91       	pop	r17
 40a:	0f 91       	pop	r16
 40c:	ff 90       	pop	r15
 40e:	ef 90       	pop	r14
 410:	08 95       	ret

00000412 <lcdWriteText>:
 412:	1f 93       	push	r17
 414:	cf 93       	push	r28
 416:	df 93       	push	r29
 418:	cd b7       	in	r28, 0x3d	; 61
 41a:	de b7       	in	r29, 0x3e	; 62
 41c:	65 97       	sbiw	r28, 0x15	; 21
 41e:	0f b6       	in	r0, 0x3f	; 63
 420:	f8 94       	cli
 422:	de bf       	out	0x3e, r29	; 62
 424:	0f be       	out	0x3f, r0	; 63
 426:	cd bf       	out	0x3d, r28	; 61
 428:	9e 01       	movw	r18, r28
 42a:	20 5e       	subi	r18, 0xE0	; 224
 42c:	3f 4f       	sbci	r19, 0xFF	; 255
 42e:	4e 8d       	ldd	r20, Y+30	; 0x1e
 430:	5f 8d       	ldd	r21, Y+31	; 0x1f
 432:	65 e1       	ldi	r22, 0x15	; 21
 434:	70 e0       	ldi	r23, 0x00	; 0
 436:	ce 01       	movw	r24, r28
 438:	01 96       	adiw	r24, 0x01	; 1
 43a:	3a d2       	rcall	.+1140   	; 0x8b0 <vsnprintf>
 43c:	6d 8d       	ldd	r22, Y+29	; 0x1d
 43e:	8c 8d       	ldd	r24, Y+28	; 0x1c
 440:	90 e2       	ldi	r25, 0x20	; 32
 442:	89 9f       	mul	r24, r25
 444:	60 0d       	add	r22, r0
 446:	11 24       	eor	r1, r1
 448:	60 68       	ori	r22, 0x80	; 128
 44a:	70 e0       	ldi	r23, 0x00	; 0
 44c:	83 e4       	ldi	r24, 0x43	; 67
 44e:	90 e0       	ldi	r25, 0x00	; 0
 450:	68 df       	rcall	.-304    	; 0x322 <writeLcdF>
 452:	69 81       	ldd	r22, Y+1	; 0x01
 454:	66 23       	and	r22, r22
 456:	79 f0       	breq	.+30     	; 0x476 <lcdWriteText+0x64>
 458:	10 e0       	ldi	r17, 0x00	; 0
 45a:	1f 5f       	subi	r17, 0xFF	; 255
 45c:	70 e0       	ldi	r23, 0x00	; 0
 45e:	84 e4       	ldi	r24, 0x44	; 68
 460:	90 e0       	ldi	r25, 0x00	; 0
 462:	5f df       	rcall	.-322    	; 0x322 <writeLcdF>
 464:	e1 e0       	ldi	r30, 0x01	; 1
 466:	f0 e0       	ldi	r31, 0x00	; 0
 468:	ec 0f       	add	r30, r28
 46a:	fd 1f       	adc	r31, r29
 46c:	e1 0f       	add	r30, r17
 46e:	f1 1d       	adc	r31, r1
 470:	60 81       	ld	r22, Z
 472:	61 11       	cpse	r22, r1
 474:	f2 cf       	rjmp	.-28     	; 0x45a <lcdWriteText+0x48>
 476:	65 96       	adiw	r28, 0x15	; 21
 478:	0f b6       	in	r0, 0x3f	; 63
 47a:	f8 94       	cli
 47c:	de bf       	out	0x3e, r29	; 62
 47e:	0f be       	out	0x3f, r0	; 63
 480:	cd bf       	out	0x3d, r28	; 61
 482:	df 91       	pop	r29
 484:	cf 91       	pop	r28
 486:	1f 91       	pop	r17
 488:	08 95       	ret

0000048a <lcdClear>:
 48a:	61 e0       	ldi	r22, 0x01	; 1
 48c:	70 e0       	ldi	r23, 0x00	; 0
 48e:	83 e4       	ldi	r24, 0x43	; 67
 490:	90 e0       	ldi	r25, 0x00	; 0
 492:	47 df       	rcall	.-370    	; 0x322 <writeLcdF>
 494:	8f e3       	ldi	r24, 0x3F	; 63
 496:	9f e1       	ldi	r25, 0x1F	; 31
 498:	01 97       	sbiw	r24, 0x01	; 1
 49a:	f1 f7       	brne	.-4      	; 0x498 <lcdClear+0xe>
 49c:	00 c0       	rjmp	.+0      	; 0x49e <lcdClear+0x14>
 49e:	00 00       	nop
 4a0:	80 e3       	ldi	r24, 0x30	; 48
 4a2:	92 e0       	ldi	r25, 0x02	; 2
 4a4:	9f 93       	push	r25
 4a6:	8f 93       	push	r24
 4a8:	1f 92       	push	r1
 4aa:	1f 92       	push	r1
 4ac:	b2 df       	rcall	.-156    	; 0x412 <lcdWriteText>
 4ae:	0f 90       	pop	r0
 4b0:	0f 90       	pop	r0
 4b2:	0f 90       	pop	r0
 4b4:	0f 90       	pop	r0
 4b6:	08 95       	ret

000004b8 <initLcd>:
 4b8:	81 e0       	ldi	r24, 0x01	; 1
 4ba:	22 df       	rcall	.-444    	; 0x300 <lcdSclk>
 4bc:	80 e0       	ldi	r24, 0x00	; 0
 4be:	1a df       	rcall	.-460    	; 0x2f4 <lcdSid>
 4c0:	64 e3       	ldi	r22, 0x34	; 52
 4c2:	70 e0       	ldi	r23, 0x00	; 0
 4c4:	83 e4       	ldi	r24, 0x43	; 67
 4c6:	90 e0       	ldi	r25, 0x00	; 0
 4c8:	2c df       	rcall	.-424    	; 0x322 <writeLcdF>
 4ca:	69 e0       	ldi	r22, 0x09	; 9
 4cc:	70 e0       	ldi	r23, 0x00	; 0
 4ce:	83 e4       	ldi	r24, 0x43	; 67
 4d0:	90 e0       	ldi	r25, 0x00	; 0
 4d2:	27 df       	rcall	.-434    	; 0x322 <writeLcdF>
 4d4:	60 e3       	ldi	r22, 0x30	; 48
 4d6:	70 e0       	ldi	r23, 0x00	; 0
 4d8:	83 e4       	ldi	r24, 0x43	; 67
 4da:	90 e0       	ldi	r25, 0x00	; 0
 4dc:	22 df       	rcall	.-444    	; 0x322 <writeLcdF>
 4de:	6c e0       	ldi	r22, 0x0C	; 12
 4e0:	70 e0       	ldi	r23, 0x00	; 0
 4e2:	83 e4       	ldi	r24, 0x43	; 67
 4e4:	90 e0       	ldi	r25, 0x00	; 0
 4e6:	1d df       	rcall	.-454    	; 0x322 <writeLcdF>
 4e8:	d0 df       	rcall	.-96     	; 0x48a <lcdClear>
 4ea:	67 e0       	ldi	r22, 0x07	; 7
 4ec:	70 e0       	ldi	r23, 0x00	; 0
 4ee:	83 e4       	ldi	r24, 0x43	; 67
 4f0:	90 e0       	ldi	r25, 0x00	; 0
 4f2:	17 df       	rcall	.-466    	; 0x322 <writeLcdF>
 4f4:	80 e0       	ldi	r24, 0x00	; 0
 4f6:	0a cf       	rjmp	.-492    	; 0x30c <lcdLight>
 4f8:	08 95       	ret

000004fa <initBoard>:
 4fa:	4f 92       	push	r4
 4fc:	5f 92       	push	r5
 4fe:	6f 92       	push	r6
 500:	7f 92       	push	r7
 502:	8f 92       	push	r8
 504:	9f 92       	push	r9
 506:	af 92       	push	r10
 508:	bf 92       	push	r11
 50a:	cf 92       	push	r12
 50c:	df 92       	push	r13
 50e:	ef 92       	push	r14
 510:	ff 92       	push	r15
 512:	0f 93       	push	r16
 514:	1f 93       	push	r17
 516:	cf 93       	push	r28
 518:	df 93       	push	r29
 51a:	c8 2f       	mov	r28, r24
 51c:	85 b7       	in	r24, 0x35	; 53
 51e:	85 bf       	out	0x35, r24	; 53
 520:	12 b8       	out	0x02, r1	; 2
 522:	8f ef       	ldi	r24, 0xFF	; 255
 524:	81 b9       	out	0x01, r24	; 1
 526:	15 b8       	out	0x05, r1	; 5
 528:	84 b9       	out	0x04, r24	; 4
 52a:	88 b9       	out	0x08, r24	; 8
 52c:	17 b8       	out	0x07, r1	; 7
 52e:	8b b9       	out	0x0b, r24	; 11
 530:	1a b8       	out	0x0a, r1	; 10
 532:	8e b9       	out	0x0e, r24	; 14
 534:	1d b8       	out	0x0d, r1	; 13
 536:	72 98       	cbi	0x0e, 2	; 14
 538:	11 ba       	out	0x11, r1	; 17
 53a:	10 ba       	out	0x10, r1	; 16
 53c:	94 e0       	ldi	r25, 0x04	; 4
 53e:	94 bb       	out	0x14, r25	; 20
 540:	93 b3       	in	r25, 0x13	; 19
 542:	93 60       	ori	r25, 0x03	; 3
 544:	93 bb       	out	0x13, r25	; 19
 546:	9d 9a       	sbi	0x13, 5	; 19
 548:	97 ec       	ldi	r25, 0xC7	; 199
 54a:	90 93 02 01 	sts	0x0102, r25	; 0x800102 <__TEXT_REGION_LENGTH__+0x700102>
 54e:	98 e3       	ldi	r25, 0x38	; 56
 550:	90 93 01 01 	sts	0x0101, r25	; 0x800101 <__TEXT_REGION_LENGTH__+0x700101>
 554:	10 92 05 01 	sts	0x0105, r1	; 0x800105 <__TEXT_REGION_LENGTH__+0x700105>
 558:	80 93 04 01 	sts	0x0104, r24	; 0x800104 <__TEXT_REGION_LENGTH__+0x700104>
 55c:	10 92 08 01 	sts	0x0108, r1	; 0x800108 <__TEXT_REGION_LENGTH__+0x700108>
 560:	10 92 07 01 	sts	0x0107, r1	; 0x800107 <__TEXT_REGION_LENGTH__+0x700107>
 564:	8c e3       	ldi	r24, 0x3C	; 60
 566:	80 93 0b 01 	sts	0x010B, r24	; 0x80010b <__TEXT_REGION_LENGTH__+0x70010b>
 56a:	10 92 0a 01 	sts	0x010A, r1	; 0x80010a <__TEXT_REGION_LENGTH__+0x70010a>
 56e:	78 94       	sei
 570:	6b de       	rcall	.-810    	; 0x248 <startSystemTimeMs>
 572:	a2 df       	rcall	.-188    	; 0x4b8 <initLcd>
 574:	73 de       	rcall	.-794    	; 0x25c <initAdc>
 576:	aa de       	rcall	.-684    	; 0x2cc <initRgb>
 578:	cc 23       	and	r28, r28
 57a:	09 f4       	brne	.+2      	; 0x57e <initBoard+0x84>
 57c:	b8 c0       	rjmp	.+368    	; 0x6ee <initBoard+0x1f4>
 57e:	8f ef       	ldi	r24, 0xFF	; 255
 580:	c5 de       	rcall	.-630    	; 0x30c <lcdLight>
 582:	40 e0       	ldi	r20, 0x00	; 0
 584:	50 e0       	ldi	r21, 0x00	; 0
 586:	6f ef       	ldi	r22, 0xFF	; 255
 588:	73 e0       	ldi	r23, 0x03	; 3
 58a:	80 e0       	ldi	r24, 0x00	; 0
 58c:	90 e0       	ldi	r25, 0x00	; 0
 58e:	87 de       	rcall	.-754    	; 0x29e <rgbWrite>
 590:	8d e1       	ldi	r24, 0x1D	; 29
 592:	92 e0       	ldi	r25, 0x02	; 2
 594:	9f 93       	push	r25
 596:	8f 93       	push	r24
 598:	1f 92       	push	r1
 59a:	1f 92       	push	r1
 59c:	3a df       	rcall	.-396    	; 0x412 <lcdWriteText>
 59e:	82 e3       	ldi	r24, 0x32	; 50
 5a0:	92 e0       	ldi	r25, 0x02	; 2
 5a2:	9f 93       	push	r25
 5a4:	8f 93       	push	r24
 5a6:	1f 92       	push	r1
 5a8:	81 e0       	ldi	r24, 0x01	; 1
 5aa:	8f 93       	push	r24
 5ac:	32 df       	rcall	.-412    	; 0x412 <lcdWriteText>
 5ae:	88 e0       	ldi	r24, 0x08	; 8
 5b0:	92 e0       	ldi	r25, 0x02	; 2
 5b2:	9f 93       	push	r25
 5b4:	8f 93       	push	r24
 5b6:	1f 92       	push	r1
 5b8:	82 e0       	ldi	r24, 0x02	; 2
 5ba:	8f 93       	push	r24
 5bc:	2a df       	rcall	.-428    	; 0x412 <lcdWriteText>
 5be:	87 e4       	ldi	r24, 0x47	; 71
 5c0:	92 e0       	ldi	r25, 0x02	; 2
 5c2:	9f 93       	push	r25
 5c4:	8f 93       	push	r24
 5c6:	1f 92       	push	r1
 5c8:	83 e0       	ldi	r24, 0x03	; 3
 5ca:	8f 93       	push	r24
 5cc:	22 df       	rcall	.-444    	; 0x412 <lcdWriteText>
 5ce:	8d b7       	in	r24, 0x3d	; 61
 5d0:	9e b7       	in	r25, 0x3e	; 62
 5d2:	40 96       	adiw	r24, 0x10	; 16
 5d4:	0f b6       	in	r0, 0x3f	; 63
 5d6:	f8 94       	cli
 5d8:	9e bf       	out	0x3e, r25	; 62
 5da:	0f be       	out	0x3f, r0	; 63
 5dc:	8d bf       	out	0x3d, r24	; 61
 5de:	88 24       	eor	r8, r8
 5e0:	83 94       	inc	r8
 5e2:	c0 e0       	ldi	r28, 0x00	; 0
 5e4:	71 2c       	mov	r7, r1
 5e6:	99 24       	eor	r9, r9
 5e8:	93 94       	inc	r9
 5ea:	d0 e0       	ldi	r29, 0x00	; 0
 5ec:	cc 24       	eor	r12, r12
 5ee:	c3 94       	inc	r12
 5f0:	d1 2c       	mov	r13, r1
 5f2:	e1 2c       	mov	r14, r1
 5f4:	68 94       	set
 5f6:	ff 24       	eor	r15, r15
 5f8:	f7 f8       	bld	r15, 7
 5fa:	66 24       	eor	r6, r6
 5fc:	63 94       	inc	r6
 5fe:	51 2c       	mov	r5, r1
 600:	09 e0       	ldi	r16, 0x09	; 9
 602:	11 e0       	ldi	r17, 0x01	; 1
 604:	0f 2e       	mov	r0, r31
 606:	fc e5       	ldi	r31, 0x5C	; 92
 608:	af 2e       	mov	r10, r31
 60a:	f2 e0       	ldi	r31, 0x02	; 2
 60c:	bf 2e       	mov	r11, r31
 60e:	f0 2d       	mov	r31, r0
 610:	0f 2e       	mov	r0, r31
 612:	f3 e0       	ldi	r31, 0x03	; 3
 614:	4f 2e       	mov	r4, r31
 616:	f0 2d       	mov	r31, r0
 618:	99 20       	and	r9, r9
 61a:	49 f0       	breq	.+18     	; 0x62e <initBoard+0x134>
 61c:	c7 01       	movw	r24, r14
 61e:	0d 2e       	mov	r0, r29
 620:	02 c0       	rjmp	.+4      	; 0x626 <initBoard+0x12c>
 622:	96 95       	lsr	r25
 624:	87 95       	ror	r24
 626:	0a 94       	dec	r0
 628:	e2 f7       	brpl	.-8      	; 0x622 <initBoard+0x128>
 62a:	09 de       	rcall	.-1006   	; 0x23e <ledWriteAll>
 62c:	08 c0       	rjmp	.+16     	; 0x63e <initBoard+0x144>
 62e:	c6 01       	movw	r24, r12
 630:	0d 2e       	mov	r0, r29
 632:	02 c0       	rjmp	.+4      	; 0x638 <initBoard+0x13e>
 634:	88 0f       	add	r24, r24
 636:	99 1f       	adc	r25, r25
 638:	0a 94       	dec	r0
 63a:	e2 f7       	brpl	.-8      	; 0x634 <initBoard+0x13a>
 63c:	00 de       	rcall	.-1024   	; 0x23e <ledWriteAll>
 63e:	df 5f       	subi	r29, 0xFF	; 255
 640:	d1 31       	cpi	r29, 0x11	; 17
 642:	28 f0       	brcs	.+10     	; 0x64e <initBoard+0x154>
 644:	86 2d       	mov	r24, r6
 646:	91 10       	cpse	r9, r1
 648:	85 2d       	mov	r24, r5
 64a:	98 2e       	mov	r9, r24
 64c:	d0 e0       	ldi	r29, 0x00	; 0
 64e:	88 20       	and	r8, r8
 650:	11 f0       	breq	.+4      	; 0x656 <initBoard+0x15c>
 652:	ce 5f       	subi	r28, 0xFE	; 254
 654:	01 c0       	rjmp	.+2      	; 0x658 <initBoard+0x15e>
 656:	c2 50       	subi	r28, 0x02	; 2
 658:	8c 2f       	mov	r24, r28
 65a:	58 de       	rcall	.-848    	; 0x30c <lcdLight>
 65c:	ce 3f       	cpi	r28, 0xFE	; 254
 65e:	21 f0       	breq	.+8      	; 0x668 <initBoard+0x16e>
 660:	c8 37       	cpi	r28, 0x78	; 120
 662:	19 f4       	brne	.+6      	; 0x66a <initBoard+0x170>
 664:	86 2c       	mov	r8, r6
 666:	01 c0       	rjmp	.+2      	; 0x66a <initBoard+0x170>
 668:	85 2c       	mov	r8, r5
 66a:	71 10       	cpse	r7, r1
 66c:	3b c0       	rjmp	.+118    	; 0x6e4 <initBoard+0x1ea>
 66e:	f8 01       	movw	r30, r16
 670:	80 81       	ld	r24, Z
 672:	83 7c       	andi	r24, 0xC3	; 195
 674:	91 f0       	breq	.+36     	; 0x69a <initBoard+0x1a0>
 676:	40 e0       	ldi	r20, 0x00	; 0
 678:	50 e0       	ldi	r21, 0x00	; 0
 67a:	66 e2       	ldi	r22, 0x26	; 38
 67c:	72 e0       	ldi	r23, 0x02	; 2
 67e:	8f ef       	ldi	r24, 0xFF	; 255
 680:	93 e0       	ldi	r25, 0x03	; 3
 682:	0d de       	rcall	.-998    	; 0x29e <rgbWrite>
 684:	bf 92       	push	r11
 686:	af 92       	push	r10
 688:	1f 92       	push	r1
 68a:	4f 92       	push	r4
 68c:	c2 de       	rcall	.-636    	; 0x412 <lcdWriteText>
 68e:	0f 90       	pop	r0
 690:	0f 90       	pop	r0
 692:	0f 90       	pop	r0
 694:	0f 90       	pop	r0
 696:	76 2c       	mov	r7, r6
 698:	25 c0       	rjmp	.+74     	; 0x6e4 <initBoard+0x1ea>
 69a:	8f ef       	ldi	r24, 0xFF	; 255
 69c:	9c e7       	ldi	r25, 0x7C	; 124
 69e:	01 97       	sbiw	r24, 0x01	; 1
 6a0:	f1 f7       	brne	.-4      	; 0x69e <initBoard+0x1a4>
 6a2:	00 c0       	rjmp	.+0      	; 0x6a4 <initBoard+0x1aa>
 6a4:	00 00       	nop
 6a6:	b8 cf       	rjmp	.-144    	; 0x618 <initBoard+0x11e>
 6a8:	f0 de       	rcall	.-544    	; 0x48a <lcdClear>
 6aa:	80 e0       	ldi	r24, 0x00	; 0
 6ac:	2f de       	rcall	.-930    	; 0x30c <lcdLight>
 6ae:	80 e0       	ldi	r24, 0x00	; 0
 6b0:	90 e0       	ldi	r25, 0x00	; 0
 6b2:	c5 dd       	rcall	.-1142   	; 0x23e <ledWriteAll>
 6b4:	40 e0       	ldi	r20, 0x00	; 0
 6b6:	50 e0       	ldi	r21, 0x00	; 0
 6b8:	60 e0       	ldi	r22, 0x00	; 0
 6ba:	70 e0       	ldi	r23, 0x00	; 0
 6bc:	80 e0       	ldi	r24, 0x00	; 0
 6be:	90 e0       	ldi	r25, 0x00	; 0
 6c0:	ee dd       	rcall	.-1060   	; 0x29e <rgbWrite>
 6c2:	10 92 79 02 	sts	0x0279, r1	; 0x800279 <systemTimeMs>
 6c6:	10 92 7a 02 	sts	0x027A, r1	; 0x80027a <systemTimeMs+0x1>
 6ca:	10 92 7b 02 	sts	0x027B, r1	; 0x80027b <systemTimeMs+0x2>
 6ce:	10 92 7c 02 	sts	0x027C, r1	; 0x80027c <systemTimeMs+0x3>
 6d2:	10 92 7d 02 	sts	0x027D, r1	; 0x80027d <systemTimeMs+0x4>
 6d6:	10 92 7e 02 	sts	0x027E, r1	; 0x80027e <systemTimeMs+0x5>
 6da:	10 92 7f 02 	sts	0x027F, r1	; 0x80027f <systemTimeMs+0x6>
 6de:	10 92 80 02 	sts	0x0280, r1	; 0x800280 <systemTimeMs+0x7>
 6e2:	05 c0       	rjmp	.+10     	; 0x6ee <initBoard+0x1f4>
 6e4:	f8 01       	movw	r30, r16
 6e6:	80 81       	ld	r24, Z
 6e8:	83 7c       	andi	r24, 0xC3	; 195
 6ea:	b9 f6       	brne	.-82     	; 0x69a <initBoard+0x1a0>
 6ec:	dd cf       	rjmp	.-70     	; 0x6a8 <initBoard+0x1ae>
 6ee:	df 91       	pop	r29
 6f0:	cf 91       	pop	r28
 6f2:	1f 91       	pop	r17
 6f4:	0f 91       	pop	r16
 6f6:	ff 90       	pop	r15
 6f8:	ef 90       	pop	r14
 6fa:	df 90       	pop	r13
 6fc:	cf 90       	pop	r12
 6fe:	bf 90       	pop	r11
 700:	af 90       	pop	r10
 702:	9f 90       	pop	r9
 704:	8f 90       	pop	r8
 706:	7f 90       	pop	r7
 708:	6f 90       	pop	r6
 70a:	5f 90       	pop	r5
 70c:	4f 90       	pop	r4
 70e:	08 95       	ret

00000710 <matrixWriteNextLine>:




void matrixWriteNextLine(void)
{
 710:	cf 93       	push	r28
 712:	df 93       	push	r29
 714:	cd b7       	in	r28, 0x3d	; 61
 716:	de b7       	in	r29, 0x3e	; 62
 718:	28 97       	sbiw	r28, 0x08	; 8
 71a:	0f b6       	in	r0, 0x3f	; 63
 71c:	f8 94       	cli
 71e:	de bf       	out	0x3e, r29	; 62
 720:	0f be       	out	0x3f, r0	; 63
 722:	cd bf       	out	0x3d, r28	; 61
    const  uint8_t Bit_Muster_Tab[8] = {1,2,4,8,16,32,64,128};
 724:	88 e0       	ldi	r24, 0x08	; 8
 726:	e0 e0       	ldi	r30, 0x00	; 0
 728:	f2 e0       	ldi	r31, 0x02	; 2
 72a:	de 01       	movw	r26, r28
 72c:	11 96       	adiw	r26, 0x01	; 1
 72e:	01 90       	ld	r0, Z+
 730:	0d 92       	st	X+, r0
 732:	8a 95       	dec	r24
 734:	e1 f7       	brne	.-8      	; 0x72e <matrixWriteNextLine+0x1e>
    static uint16_t Zeilen_Nr, Bit_Muster;
    uint8_t i;
    
    STROBE_0;                             // Daten des Scheiberegisters nicht ins Latch schreiben
 736:	e5 e0       	ldi	r30, 0x05	; 5
 738:	f1 e0       	ldi	r31, 0x01	; 1
 73a:	80 81       	ld	r24, Z
 73c:	8f 7b       	andi	r24, 0xBF	; 191
 73e:	80 83       	st	Z, r24

    Bit_Muster = Bit_Muster_Tab[Zeilen_Nr]; // Bitmuster aus Tabelle holen, um mit Daten in matrix[] zu vergleichen.
 740:	e0 91 76 02 	lds	r30, 0x0276	; 0x800276 <Zeilen_Nr.2731>
 744:	f0 91 77 02 	lds	r31, 0x0277	; 0x800277 <Zeilen_Nr.2731+0x1>
 748:	81 e0       	ldi	r24, 0x01	; 1
 74a:	90 e0       	ldi	r25, 0x00	; 0
 74c:	8c 0f       	add	r24, r28
 74e:	9d 1f       	adc	r25, r29
 750:	e8 0f       	add	r30, r24
 752:	f9 1f       	adc	r31, r25
 754:	80 81       	ld	r24, Z
 756:	90 e0       	ldi	r25, 0x00	; 0
 758:	90 93 75 02 	sts	0x0275, r25	; 0x800275 <__data_end+0x1>
 75c:	80 93 74 02 	sts	0x0274, r24	; 0x800274 <__data_end>
 760:	a2 ef       	ldi	r26, 0xF2	; 242
 762:	b2 e0       	ldi	r27, 0x02	; 2
 764:	22 e8       	ldi	r18, 0x82	; 130
 766:	32 e0       	ldi	r19, 0x02	; 2
    {                                       // Vergleicht Bit-Muster der aktuellen Zeile mit Daten in matrix[]
        if((matrix[Anzahl_Spalten-1- i] & Bit_Muster) != 0)     // Ist in matrix[] das entsprechende Bit gesetzt?
        { DATA_Modul_1_ON;                    //   JA:   ==> Datenbit "1" ins Schieberegister schreiben
        }
        else
        { DATA_Modul_1_OFF;                   //   NEIN: ==> Datenbit "0" ins Schieberegister schreiben
 768:	e5 e0       	ldi	r30, 0x05	; 5
 76a:	f1 e0       	ldi	r31, 0x01	; 1
    Bit_Muster = Bit_Muster_Tab[Zeilen_Nr]; // Bitmuster aus Tabelle holen, um mit Daten in matrix[] zu vergleichen.
    
    // Alle Bits seriell ins Schieberegister hineinschreiben
    for(i=0; i<Anzahl_Spalten; i++)         // Alle Spalten durchgehen und überpüfen, ob Bit gesetzt ist
    {                                       // Vergleicht Bit-Muster der aktuellen Zeile mit Daten in matrix[]
        if((matrix[Anzahl_Spalten-1- i] & Bit_Muster) != 0)     // Ist in matrix[] das entsprechende Bit gesetzt?
 76c:	5e 91       	ld	r21, -X
 76e:	4e 91       	ld	r20, -X
 770:	80 91 74 02 	lds	r24, 0x0274	; 0x800274 <__data_end>
 774:	90 91 75 02 	lds	r25, 0x0275	; 0x800275 <__data_end+0x1>
 778:	84 23       	and	r24, r20
 77a:	95 23       	and	r25, r21
 77c:	89 2b       	or	r24, r25
 77e:	21 f0       	breq	.+8      	; 0x788 <matrixWriteNextLine+0x78>
        { DATA_Modul_1_ON;                    //   JA:   ==> Datenbit "1" ins Schieberegister schreiben
 780:	80 81       	ld	r24, Z
 782:	80 62       	ori	r24, 0x20	; 32
 784:	80 83       	st	Z, r24
 786:	03 c0       	rjmp	.+6      	; 0x78e <matrixWriteNextLine+0x7e>
        }
        else
        { DATA_Modul_1_OFF;                   //   NEIN: ==> Datenbit "0" ins Schieberegister schreiben
 788:	80 81       	ld	r24, Z
 78a:	8f 7d       	andi	r24, 0xDF	; 223
 78c:	80 83       	st	Z, r24
        }
        CLOCK_1;
 78e:	80 81       	ld	r24, Z
 790:	80 61       	ori	r24, 0x10	; 16
 792:	80 83       	st	Z, r24
        CLOCK_0;                            // Datenbit wird bei der negativen Flanke des Clock-Signals übernommen
 794:	80 81       	ld	r24, Z
 796:	8f 7e       	andi	r24, 0xEF	; 239
 798:	80 83       	st	Z, r24
    STROBE_0;                             // Daten des Scheiberegisters nicht ins Latch schreiben

    Bit_Muster = Bit_Muster_Tab[Zeilen_Nr]; // Bitmuster aus Tabelle holen, um mit Daten in matrix[] zu vergleichen.
    
    // Alle Bits seriell ins Schieberegister hineinschreiben
    for(i=0; i<Anzahl_Spalten; i++)         // Alle Spalten durchgehen und überpüfen, ob Bit gesetzt ist
 79a:	a2 17       	cp	r26, r18
 79c:	b3 07       	cpc	r27, r19
 79e:	31 f7       	brne	.-52     	; 0x76c <matrixWriteNextLine+0x5c>
        }
        CLOCK_1;
        CLOCK_0;                            // Datenbit wird bei der negativen Flanke des Clock-Signals übernommen
    }
    
    ENABLE_0;                                // +5V aller Zeilen abschalten
 7a0:	e5 e0       	ldi	r30, 0x05	; 5
 7a2:	f1 e0       	ldi	r31, 0x01	; 1
 7a4:	80 81       	ld	r24, Z
 7a6:	87 7f       	andi	r24, 0xF7	; 247
 7a8:	80 83       	st	Z, r24
    PORTJ &= ~0x07;
 7aa:	80 81       	ld	r24, Z
 7ac:	88 7f       	andi	r24, 0xF8	; 248
 7ae:	80 83       	st	Z, r24
    PORTJ |= Zeilen_Nr;                     // gewünschte Zeile einstellen
 7b0:	90 81       	ld	r25, Z
 7b2:	80 91 76 02 	lds	r24, 0x0276	; 0x800276 <Zeilen_Nr.2731>
 7b6:	89 2b       	or	r24, r25
 7b8:	80 83       	st	Z, r24
    STROBE_1;                             // Daten ins Latch schreiben
 7ba:	80 81       	ld	r24, Z
 7bc:	80 64       	ori	r24, 0x40	; 64
 7be:	80 83       	st	Z, r24
    ENABLE_1;                             // +5V Speisung der eingestellten Zeile einschalten
 7c0:	80 81       	ld	r24, Z
 7c2:	88 60       	ori	r24, 0x08	; 8
 7c4:	80 83       	st	Z, r24

    // Die Zeilen werden nacheinander eingeschaltet --> zyklisch 0,1,2,3,4,5,6,7, 0,1,2,3, ...
    if (Zeilen_Nr < 7)
 7c6:	80 91 76 02 	lds	r24, 0x0276	; 0x800276 <Zeilen_Nr.2731>
 7ca:	90 91 77 02 	lds	r25, 0x0277	; 0x800277 <Zeilen_Nr.2731+0x1>
 7ce:	87 30       	cpi	r24, 0x07	; 7
 7d0:	91 05       	cpc	r25, r1
 7d2:	30 f4       	brcc	.+12     	; 0x7e0 <matrixWriteNextLine+0xd0>
    {
        Zeilen_Nr++;
 7d4:	01 96       	adiw	r24, 0x01	; 1
 7d6:	90 93 77 02 	sts	0x0277, r25	; 0x800277 <Zeilen_Nr.2731+0x1>
 7da:	80 93 76 02 	sts	0x0276, r24	; 0x800276 <Zeilen_Nr.2731>
 7de:	07 c0       	rjmp	.+14     	; 0x7ee <matrixWriteNextLine+0xde>
    }
    else
    {
        Zeilen_Nr = 0;
 7e0:	10 92 77 02 	sts	0x0277, r1	; 0x800277 <Zeilen_Nr.2731+0x1>
 7e4:	10 92 76 02 	sts	0x0276, r1	; 0x800276 <Zeilen_Nr.2731>
        writeTextFinished = 1;
 7e8:	81 e0       	ldi	r24, 0x01	; 1
 7ea:	80 93 78 02 	sts	0x0278, r24	; 0x800278 <writeTextFinished>
    }
    
 7ee:	28 96       	adiw	r28, 0x08	; 8
 7f0:	0f b6       	in	r0, 0x3f	; 63
 7f2:	f8 94       	cli
 7f4:	de bf       	out	0x3e, r29	; 62
 7f6:	0f be       	out	0x3f, r0	; 63
 7f8:	cd bf       	out	0x3d, r28	; 61
 7fa:	df 91       	pop	r29
 7fc:	cf 91       	pop	r28
 7fe:	08 95       	ret

00000800 <__vector_23>:
//--------------------------------------------------------------------------------------------
// Timer 0 Overflow Interrupt ->  Wird alle 1ms aufgerufen
//--------------------------------------------------------------------------------------------

ISR(TIMER0_OVF_vect)
{
 800:	1f 92       	push	r1
 802:	0f 92       	push	r0
 804:	0f b6       	in	r0, 0x3f	; 63
 806:	0f 92       	push	r0
 808:	11 24       	eor	r1, r1
 80a:	0b b6       	in	r0, 0x3b	; 59
 80c:	0f 92       	push	r0
 80e:	2f 93       	push	r18
 810:	3f 93       	push	r19
 812:	4f 93       	push	r20
 814:	5f 93       	push	r21
 816:	6f 93       	push	r22
 818:	7f 93       	push	r23
 81a:	8f 93       	push	r24
 81c:	9f 93       	push	r25
 81e:	af 93       	push	r26
 820:	bf 93       	push	r27
 822:	ef 93       	push	r30
 824:	ff 93       	push	r31
    systemTimeMs += 1;
 826:	20 91 79 02 	lds	r18, 0x0279	; 0x800279 <systemTimeMs>
 82a:	30 91 7a 02 	lds	r19, 0x027A	; 0x80027a <systemTimeMs+0x1>
 82e:	40 91 7b 02 	lds	r20, 0x027B	; 0x80027b <systemTimeMs+0x2>
 832:	50 91 7c 02 	lds	r21, 0x027C	; 0x80027c <systemTimeMs+0x3>
 836:	60 91 7d 02 	lds	r22, 0x027D	; 0x80027d <systemTimeMs+0x4>
 83a:	70 91 7e 02 	lds	r23, 0x027E	; 0x80027e <systemTimeMs+0x5>
 83e:	80 91 7f 02 	lds	r24, 0x027F	; 0x80027f <systemTimeMs+0x6>
 842:	90 91 80 02 	lds	r25, 0x0280	; 0x800280 <systemTimeMs+0x7>
 846:	a1 e0       	ldi	r26, 0x01	; 1
 848:	27 d0       	rcall	.+78     	; 0x898 <__adddi3_s8>
 84a:	20 93 79 02 	sts	0x0279, r18	; 0x800279 <systemTimeMs>
 84e:	30 93 7a 02 	sts	0x027A, r19	; 0x80027a <systemTimeMs+0x1>
 852:	40 93 7b 02 	sts	0x027B, r20	; 0x80027b <systemTimeMs+0x2>
 856:	50 93 7c 02 	sts	0x027C, r21	; 0x80027c <systemTimeMs+0x3>
 85a:	60 93 7d 02 	sts	0x027D, r22	; 0x80027d <systemTimeMs+0x4>
 85e:	70 93 7e 02 	sts	0x027E, r23	; 0x80027e <systemTimeMs+0x5>
 862:	80 93 7f 02 	sts	0x027F, r24	; 0x80027f <systemTimeMs+0x6>
 866:	90 93 80 02 	sts	0x0280, r25	; 0x800280 <systemTimeMs+0x7>

    if(matrixRunning)matrixWriteNextLine();
 86a:	80 91 81 02 	lds	r24, 0x0281	; 0x800281 <matrixRunning>
 86e:	81 11       	cpse	r24, r1
 870:	4f df       	rcall	.-354    	; 0x710 <matrixWriteNextLine>
}
 872:	ff 91       	pop	r31
 874:	ef 91       	pop	r30
 876:	bf 91       	pop	r27
 878:	af 91       	pop	r26
 87a:	9f 91       	pop	r25
 87c:	8f 91       	pop	r24
 87e:	7f 91       	pop	r23
 880:	6f 91       	pop	r22
 882:	5f 91       	pop	r21
 884:	4f 91       	pop	r20
 886:	3f 91       	pop	r19
 888:	2f 91       	pop	r18
 88a:	0f 90       	pop	r0
 88c:	0b be       	out	0x3b, r0	; 59
 88e:	0f 90       	pop	r0
 890:	0f be       	out	0x3f, r0	; 63
 892:	0f 90       	pop	r0
 894:	1f 90       	pop	r1
 896:	18 95       	reti

00000898 <__adddi3_s8>:
 898:	00 24       	eor	r0, r0
 89a:	a7 fd       	sbrc	r26, 7
 89c:	00 94       	com	r0
 89e:	2a 0f       	add	r18, r26
 8a0:	30 1d       	adc	r19, r0
 8a2:	40 1d       	adc	r20, r0
 8a4:	50 1d       	adc	r21, r0
 8a6:	60 1d       	adc	r22, r0
 8a8:	70 1d       	adc	r23, r0
 8aa:	80 1d       	adc	r24, r0
 8ac:	90 1d       	adc	r25, r0
 8ae:	08 95       	ret

000008b0 <vsnprintf>:
 8b0:	0f 93       	push	r16
 8b2:	1f 93       	push	r17
 8b4:	cf 93       	push	r28
 8b6:	df 93       	push	r29
 8b8:	cd b7       	in	r28, 0x3d	; 61
 8ba:	de b7       	in	r29, 0x3e	; 62
 8bc:	2e 97       	sbiw	r28, 0x0e	; 14
 8be:	0f b6       	in	r0, 0x3f	; 63
 8c0:	f8 94       	cli
 8c2:	de bf       	out	0x3e, r29	; 62
 8c4:	0f be       	out	0x3f, r0	; 63
 8c6:	cd bf       	out	0x3d, r28	; 61
 8c8:	8c 01       	movw	r16, r24
 8ca:	fa 01       	movw	r30, r20
 8cc:	86 e0       	ldi	r24, 0x06	; 6
 8ce:	8c 83       	std	Y+4, r24	; 0x04
 8d0:	1a 83       	std	Y+2, r17	; 0x02
 8d2:	09 83       	std	Y+1, r16	; 0x01
 8d4:	77 ff       	sbrs	r23, 7
 8d6:	02 c0       	rjmp	.+4      	; 0x8dc <vsnprintf+0x2c>
 8d8:	60 e0       	ldi	r22, 0x00	; 0
 8da:	70 e8       	ldi	r23, 0x80	; 128
 8dc:	cb 01       	movw	r24, r22
 8de:	01 97       	sbiw	r24, 0x01	; 1
 8e0:	9e 83       	std	Y+6, r25	; 0x06
 8e2:	8d 83       	std	Y+5, r24	; 0x05
 8e4:	a9 01       	movw	r20, r18
 8e6:	bf 01       	movw	r22, r30
 8e8:	ce 01       	movw	r24, r28
 8ea:	01 96       	adiw	r24, 0x01	; 1
 8ec:	19 d0       	rcall	.+50     	; 0x920 <vfprintf>
 8ee:	4d 81       	ldd	r20, Y+5	; 0x05
 8f0:	5e 81       	ldd	r21, Y+6	; 0x06
 8f2:	57 fd       	sbrc	r21, 7
 8f4:	0a c0       	rjmp	.+20     	; 0x90a <vsnprintf+0x5a>
 8f6:	2f 81       	ldd	r18, Y+7	; 0x07
 8f8:	38 85       	ldd	r19, Y+8	; 0x08
 8fa:	42 17       	cp	r20, r18
 8fc:	53 07       	cpc	r21, r19
 8fe:	0c f4       	brge	.+2      	; 0x902 <vsnprintf+0x52>
 900:	9a 01       	movw	r18, r20
 902:	f8 01       	movw	r30, r16
 904:	e2 0f       	add	r30, r18
 906:	f3 1f       	adc	r31, r19
 908:	10 82       	st	Z, r1
 90a:	2e 96       	adiw	r28, 0x0e	; 14
 90c:	0f b6       	in	r0, 0x3f	; 63
 90e:	f8 94       	cli
 910:	de bf       	out	0x3e, r29	; 62
 912:	0f be       	out	0x3f, r0	; 63
 914:	cd bf       	out	0x3d, r28	; 61
 916:	df 91       	pop	r29
 918:	cf 91       	pop	r28
 91a:	1f 91       	pop	r17
 91c:	0f 91       	pop	r16
 91e:	08 95       	ret

00000920 <vfprintf>:
 920:	2f 92       	push	r2
 922:	3f 92       	push	r3
 924:	4f 92       	push	r4
 926:	5f 92       	push	r5
 928:	6f 92       	push	r6
 92a:	7f 92       	push	r7
 92c:	8f 92       	push	r8
 92e:	9f 92       	push	r9
 930:	af 92       	push	r10
 932:	bf 92       	push	r11
 934:	cf 92       	push	r12
 936:	df 92       	push	r13
 938:	ef 92       	push	r14
 93a:	ff 92       	push	r15
 93c:	0f 93       	push	r16
 93e:	1f 93       	push	r17
 940:	cf 93       	push	r28
 942:	df 93       	push	r29
 944:	cd b7       	in	r28, 0x3d	; 61
 946:	de b7       	in	r29, 0x3e	; 62
 948:	2b 97       	sbiw	r28, 0x0b	; 11
 94a:	0f b6       	in	r0, 0x3f	; 63
 94c:	f8 94       	cli
 94e:	de bf       	out	0x3e, r29	; 62
 950:	0f be       	out	0x3f, r0	; 63
 952:	cd bf       	out	0x3d, r28	; 61
 954:	6c 01       	movw	r12, r24
 956:	7b 01       	movw	r14, r22
 958:	8a 01       	movw	r16, r20
 95a:	fc 01       	movw	r30, r24
 95c:	17 82       	std	Z+7, r1	; 0x07
 95e:	16 82       	std	Z+6, r1	; 0x06
 960:	83 81       	ldd	r24, Z+3	; 0x03
 962:	81 ff       	sbrs	r24, 1
 964:	bf c1       	rjmp	.+894    	; 0xce4 <vfprintf+0x3c4>
 966:	ce 01       	movw	r24, r28
 968:	01 96       	adiw	r24, 0x01	; 1
 96a:	3c 01       	movw	r6, r24
 96c:	f6 01       	movw	r30, r12
 96e:	93 81       	ldd	r25, Z+3	; 0x03
 970:	f7 01       	movw	r30, r14
 972:	93 fd       	sbrc	r25, 3
 974:	85 91       	lpm	r24, Z+
 976:	93 ff       	sbrs	r25, 3
 978:	81 91       	ld	r24, Z+
 97a:	7f 01       	movw	r14, r30
 97c:	88 23       	and	r24, r24
 97e:	09 f4       	brne	.+2      	; 0x982 <vfprintf+0x62>
 980:	ad c1       	rjmp	.+858    	; 0xcdc <vfprintf+0x3bc>
 982:	85 32       	cpi	r24, 0x25	; 37
 984:	39 f4       	brne	.+14     	; 0x994 <vfprintf+0x74>
 986:	93 fd       	sbrc	r25, 3
 988:	85 91       	lpm	r24, Z+
 98a:	93 ff       	sbrs	r25, 3
 98c:	81 91       	ld	r24, Z+
 98e:	7f 01       	movw	r14, r30
 990:	85 32       	cpi	r24, 0x25	; 37
 992:	21 f4       	brne	.+8      	; 0x99c <vfprintf+0x7c>
 994:	b6 01       	movw	r22, r12
 996:	90 e0       	ldi	r25, 0x00	; 0
 998:	d6 d1       	rcall	.+940    	; 0xd46 <fputc>
 99a:	e8 cf       	rjmp	.-48     	; 0x96c <vfprintf+0x4c>
 99c:	91 2c       	mov	r9, r1
 99e:	21 2c       	mov	r2, r1
 9a0:	31 2c       	mov	r3, r1
 9a2:	ff e1       	ldi	r31, 0x1F	; 31
 9a4:	f3 15       	cp	r31, r3
 9a6:	d8 f0       	brcs	.+54     	; 0x9de <vfprintf+0xbe>
 9a8:	8b 32       	cpi	r24, 0x2B	; 43
 9aa:	79 f0       	breq	.+30     	; 0x9ca <vfprintf+0xaa>
 9ac:	38 f4       	brcc	.+14     	; 0x9bc <vfprintf+0x9c>
 9ae:	80 32       	cpi	r24, 0x20	; 32
 9b0:	79 f0       	breq	.+30     	; 0x9d0 <vfprintf+0xb0>
 9b2:	83 32       	cpi	r24, 0x23	; 35
 9b4:	a1 f4       	brne	.+40     	; 0x9de <vfprintf+0xbe>
 9b6:	23 2d       	mov	r18, r3
 9b8:	20 61       	ori	r18, 0x10	; 16
 9ba:	1d c0       	rjmp	.+58     	; 0x9f6 <vfprintf+0xd6>
 9bc:	8d 32       	cpi	r24, 0x2D	; 45
 9be:	61 f0       	breq	.+24     	; 0x9d8 <vfprintf+0xb8>
 9c0:	80 33       	cpi	r24, 0x30	; 48
 9c2:	69 f4       	brne	.+26     	; 0x9de <vfprintf+0xbe>
 9c4:	23 2d       	mov	r18, r3
 9c6:	21 60       	ori	r18, 0x01	; 1
 9c8:	16 c0       	rjmp	.+44     	; 0x9f6 <vfprintf+0xd6>
 9ca:	83 2d       	mov	r24, r3
 9cc:	82 60       	ori	r24, 0x02	; 2
 9ce:	38 2e       	mov	r3, r24
 9d0:	e3 2d       	mov	r30, r3
 9d2:	e4 60       	ori	r30, 0x04	; 4
 9d4:	3e 2e       	mov	r3, r30
 9d6:	2a c0       	rjmp	.+84     	; 0xa2c <vfprintf+0x10c>
 9d8:	f3 2d       	mov	r31, r3
 9da:	f8 60       	ori	r31, 0x08	; 8
 9dc:	1d c0       	rjmp	.+58     	; 0xa18 <vfprintf+0xf8>
 9de:	37 fc       	sbrc	r3, 7
 9e0:	2d c0       	rjmp	.+90     	; 0xa3c <vfprintf+0x11c>
 9e2:	20 ed       	ldi	r18, 0xD0	; 208
 9e4:	28 0f       	add	r18, r24
 9e6:	2a 30       	cpi	r18, 0x0A	; 10
 9e8:	40 f0       	brcs	.+16     	; 0x9fa <vfprintf+0xda>
 9ea:	8e 32       	cpi	r24, 0x2E	; 46
 9ec:	b9 f4       	brne	.+46     	; 0xa1c <vfprintf+0xfc>
 9ee:	36 fc       	sbrc	r3, 6
 9f0:	75 c1       	rjmp	.+746    	; 0xcdc <vfprintf+0x3bc>
 9f2:	23 2d       	mov	r18, r3
 9f4:	20 64       	ori	r18, 0x40	; 64
 9f6:	32 2e       	mov	r3, r18
 9f8:	19 c0       	rjmp	.+50     	; 0xa2c <vfprintf+0x10c>
 9fa:	36 fe       	sbrs	r3, 6
 9fc:	06 c0       	rjmp	.+12     	; 0xa0a <vfprintf+0xea>
 9fe:	8a e0       	ldi	r24, 0x0A	; 10
 a00:	98 9e       	mul	r9, r24
 a02:	20 0d       	add	r18, r0
 a04:	11 24       	eor	r1, r1
 a06:	92 2e       	mov	r9, r18
 a08:	11 c0       	rjmp	.+34     	; 0xa2c <vfprintf+0x10c>
 a0a:	ea e0       	ldi	r30, 0x0A	; 10
 a0c:	2e 9e       	mul	r2, r30
 a0e:	20 0d       	add	r18, r0
 a10:	11 24       	eor	r1, r1
 a12:	22 2e       	mov	r2, r18
 a14:	f3 2d       	mov	r31, r3
 a16:	f0 62       	ori	r31, 0x20	; 32
 a18:	3f 2e       	mov	r3, r31
 a1a:	08 c0       	rjmp	.+16     	; 0xa2c <vfprintf+0x10c>
 a1c:	8c 36       	cpi	r24, 0x6C	; 108
 a1e:	21 f4       	brne	.+8      	; 0xa28 <vfprintf+0x108>
 a20:	83 2d       	mov	r24, r3
 a22:	80 68       	ori	r24, 0x80	; 128
 a24:	38 2e       	mov	r3, r24
 a26:	02 c0       	rjmp	.+4      	; 0xa2c <vfprintf+0x10c>
 a28:	88 36       	cpi	r24, 0x68	; 104
 a2a:	41 f4       	brne	.+16     	; 0xa3c <vfprintf+0x11c>
 a2c:	f7 01       	movw	r30, r14
 a2e:	93 fd       	sbrc	r25, 3
 a30:	85 91       	lpm	r24, Z+
 a32:	93 ff       	sbrs	r25, 3
 a34:	81 91       	ld	r24, Z+
 a36:	7f 01       	movw	r14, r30
 a38:	81 11       	cpse	r24, r1
 a3a:	b3 cf       	rjmp	.-154    	; 0x9a2 <vfprintf+0x82>
 a3c:	98 2f       	mov	r25, r24
 a3e:	9f 7d       	andi	r25, 0xDF	; 223
 a40:	95 54       	subi	r25, 0x45	; 69
 a42:	93 30       	cpi	r25, 0x03	; 3
 a44:	28 f4       	brcc	.+10     	; 0xa50 <vfprintf+0x130>
 a46:	0c 5f       	subi	r16, 0xFC	; 252
 a48:	1f 4f       	sbci	r17, 0xFF	; 255
 a4a:	9f e3       	ldi	r25, 0x3F	; 63
 a4c:	99 83       	std	Y+1, r25	; 0x01
 a4e:	0d c0       	rjmp	.+26     	; 0xa6a <vfprintf+0x14a>
 a50:	83 36       	cpi	r24, 0x63	; 99
 a52:	31 f0       	breq	.+12     	; 0xa60 <vfprintf+0x140>
 a54:	83 37       	cpi	r24, 0x73	; 115
 a56:	71 f0       	breq	.+28     	; 0xa74 <vfprintf+0x154>
 a58:	83 35       	cpi	r24, 0x53	; 83
 a5a:	09 f0       	breq	.+2      	; 0xa5e <vfprintf+0x13e>
 a5c:	55 c0       	rjmp	.+170    	; 0xb08 <vfprintf+0x1e8>
 a5e:	20 c0       	rjmp	.+64     	; 0xaa0 <vfprintf+0x180>
 a60:	f8 01       	movw	r30, r16
 a62:	80 81       	ld	r24, Z
 a64:	89 83       	std	Y+1, r24	; 0x01
 a66:	0e 5f       	subi	r16, 0xFE	; 254
 a68:	1f 4f       	sbci	r17, 0xFF	; 255
 a6a:	88 24       	eor	r8, r8
 a6c:	83 94       	inc	r8
 a6e:	91 2c       	mov	r9, r1
 a70:	53 01       	movw	r10, r6
 a72:	12 c0       	rjmp	.+36     	; 0xa98 <vfprintf+0x178>
 a74:	28 01       	movw	r4, r16
 a76:	f2 e0       	ldi	r31, 0x02	; 2
 a78:	4f 0e       	add	r4, r31
 a7a:	51 1c       	adc	r5, r1
 a7c:	f8 01       	movw	r30, r16
 a7e:	a0 80       	ld	r10, Z
 a80:	b1 80       	ldd	r11, Z+1	; 0x01
 a82:	36 fe       	sbrs	r3, 6
 a84:	03 c0       	rjmp	.+6      	; 0xa8c <vfprintf+0x16c>
 a86:	69 2d       	mov	r22, r9
 a88:	70 e0       	ldi	r23, 0x00	; 0
 a8a:	02 c0       	rjmp	.+4      	; 0xa90 <vfprintf+0x170>
 a8c:	6f ef       	ldi	r22, 0xFF	; 255
 a8e:	7f ef       	ldi	r23, 0xFF	; 255
 a90:	c5 01       	movw	r24, r10
 a92:	4e d1       	rcall	.+668    	; 0xd30 <strnlen>
 a94:	4c 01       	movw	r8, r24
 a96:	82 01       	movw	r16, r4
 a98:	f3 2d       	mov	r31, r3
 a9a:	ff 77       	andi	r31, 0x7F	; 127
 a9c:	3f 2e       	mov	r3, r31
 a9e:	15 c0       	rjmp	.+42     	; 0xaca <vfprintf+0x1aa>
 aa0:	28 01       	movw	r4, r16
 aa2:	22 e0       	ldi	r18, 0x02	; 2
 aa4:	42 0e       	add	r4, r18
 aa6:	51 1c       	adc	r5, r1
 aa8:	f8 01       	movw	r30, r16
 aaa:	a0 80       	ld	r10, Z
 aac:	b1 80       	ldd	r11, Z+1	; 0x01
 aae:	36 fe       	sbrs	r3, 6
 ab0:	03 c0       	rjmp	.+6      	; 0xab8 <vfprintf+0x198>
 ab2:	69 2d       	mov	r22, r9
 ab4:	70 e0       	ldi	r23, 0x00	; 0
 ab6:	02 c0       	rjmp	.+4      	; 0xabc <vfprintf+0x19c>
 ab8:	6f ef       	ldi	r22, 0xFF	; 255
 aba:	7f ef       	ldi	r23, 0xFF	; 255
 abc:	c5 01       	movw	r24, r10
 abe:	2d d1       	rcall	.+602    	; 0xd1a <strnlen_P>
 ac0:	4c 01       	movw	r8, r24
 ac2:	f3 2d       	mov	r31, r3
 ac4:	f0 68       	ori	r31, 0x80	; 128
 ac6:	3f 2e       	mov	r3, r31
 ac8:	82 01       	movw	r16, r4
 aca:	33 fc       	sbrc	r3, 3
 acc:	19 c0       	rjmp	.+50     	; 0xb00 <vfprintf+0x1e0>
 ace:	82 2d       	mov	r24, r2
 ad0:	90 e0       	ldi	r25, 0x00	; 0
 ad2:	88 16       	cp	r8, r24
 ad4:	99 06       	cpc	r9, r25
 ad6:	a0 f4       	brcc	.+40     	; 0xb00 <vfprintf+0x1e0>
 ad8:	b6 01       	movw	r22, r12
 ada:	80 e2       	ldi	r24, 0x20	; 32
 adc:	90 e0       	ldi	r25, 0x00	; 0
 ade:	33 d1       	rcall	.+614    	; 0xd46 <fputc>
 ae0:	2a 94       	dec	r2
 ae2:	f5 cf       	rjmp	.-22     	; 0xace <vfprintf+0x1ae>
 ae4:	f5 01       	movw	r30, r10
 ae6:	37 fc       	sbrc	r3, 7
 ae8:	85 91       	lpm	r24, Z+
 aea:	37 fe       	sbrs	r3, 7
 aec:	81 91       	ld	r24, Z+
 aee:	5f 01       	movw	r10, r30
 af0:	b6 01       	movw	r22, r12
 af2:	90 e0       	ldi	r25, 0x00	; 0
 af4:	28 d1       	rcall	.+592    	; 0xd46 <fputc>
 af6:	21 10       	cpse	r2, r1
 af8:	2a 94       	dec	r2
 afa:	21 e0       	ldi	r18, 0x01	; 1
 afc:	82 1a       	sub	r8, r18
 afe:	91 08       	sbc	r9, r1
 b00:	81 14       	cp	r8, r1
 b02:	91 04       	cpc	r9, r1
 b04:	79 f7       	brne	.-34     	; 0xae4 <vfprintf+0x1c4>
 b06:	e1 c0       	rjmp	.+450    	; 0xcca <vfprintf+0x3aa>
 b08:	84 36       	cpi	r24, 0x64	; 100
 b0a:	11 f0       	breq	.+4      	; 0xb10 <vfprintf+0x1f0>
 b0c:	89 36       	cpi	r24, 0x69	; 105
 b0e:	39 f5       	brne	.+78     	; 0xb5e <vfprintf+0x23e>
 b10:	f8 01       	movw	r30, r16
 b12:	37 fe       	sbrs	r3, 7
 b14:	07 c0       	rjmp	.+14     	; 0xb24 <vfprintf+0x204>
 b16:	60 81       	ld	r22, Z
 b18:	71 81       	ldd	r23, Z+1	; 0x01
 b1a:	82 81       	ldd	r24, Z+2	; 0x02
 b1c:	93 81       	ldd	r25, Z+3	; 0x03
 b1e:	0c 5f       	subi	r16, 0xFC	; 252
 b20:	1f 4f       	sbci	r17, 0xFF	; 255
 b22:	08 c0       	rjmp	.+16     	; 0xb34 <vfprintf+0x214>
 b24:	60 81       	ld	r22, Z
 b26:	71 81       	ldd	r23, Z+1	; 0x01
 b28:	07 2e       	mov	r0, r23
 b2a:	00 0c       	add	r0, r0
 b2c:	88 0b       	sbc	r24, r24
 b2e:	99 0b       	sbc	r25, r25
 b30:	0e 5f       	subi	r16, 0xFE	; 254
 b32:	1f 4f       	sbci	r17, 0xFF	; 255
 b34:	f3 2d       	mov	r31, r3
 b36:	ff 76       	andi	r31, 0x6F	; 111
 b38:	3f 2e       	mov	r3, r31
 b3a:	97 ff       	sbrs	r25, 7
 b3c:	09 c0       	rjmp	.+18     	; 0xb50 <vfprintf+0x230>
 b3e:	90 95       	com	r25
 b40:	80 95       	com	r24
 b42:	70 95       	com	r23
 b44:	61 95       	neg	r22
 b46:	7f 4f       	sbci	r23, 0xFF	; 255
 b48:	8f 4f       	sbci	r24, 0xFF	; 255
 b4a:	9f 4f       	sbci	r25, 0xFF	; 255
 b4c:	f0 68       	ori	r31, 0x80	; 128
 b4e:	3f 2e       	mov	r3, r31
 b50:	2a e0       	ldi	r18, 0x0A	; 10
 b52:	30 e0       	ldi	r19, 0x00	; 0
 b54:	a3 01       	movw	r20, r6
 b56:	33 d1       	rcall	.+614    	; 0xdbe <__ultoa_invert>
 b58:	88 2e       	mov	r8, r24
 b5a:	86 18       	sub	r8, r6
 b5c:	44 c0       	rjmp	.+136    	; 0xbe6 <vfprintf+0x2c6>
 b5e:	85 37       	cpi	r24, 0x75	; 117
 b60:	31 f4       	brne	.+12     	; 0xb6e <vfprintf+0x24e>
 b62:	23 2d       	mov	r18, r3
 b64:	2f 7e       	andi	r18, 0xEF	; 239
 b66:	b2 2e       	mov	r11, r18
 b68:	2a e0       	ldi	r18, 0x0A	; 10
 b6a:	30 e0       	ldi	r19, 0x00	; 0
 b6c:	25 c0       	rjmp	.+74     	; 0xbb8 <vfprintf+0x298>
 b6e:	93 2d       	mov	r25, r3
 b70:	99 7f       	andi	r25, 0xF9	; 249
 b72:	b9 2e       	mov	r11, r25
 b74:	8f 36       	cpi	r24, 0x6F	; 111
 b76:	c1 f0       	breq	.+48     	; 0xba8 <vfprintf+0x288>
 b78:	18 f4       	brcc	.+6      	; 0xb80 <vfprintf+0x260>
 b7a:	88 35       	cpi	r24, 0x58	; 88
 b7c:	79 f0       	breq	.+30     	; 0xb9c <vfprintf+0x27c>
 b7e:	ae c0       	rjmp	.+348    	; 0xcdc <vfprintf+0x3bc>
 b80:	80 37       	cpi	r24, 0x70	; 112
 b82:	19 f0       	breq	.+6      	; 0xb8a <vfprintf+0x26a>
 b84:	88 37       	cpi	r24, 0x78	; 120
 b86:	21 f0       	breq	.+8      	; 0xb90 <vfprintf+0x270>
 b88:	a9 c0       	rjmp	.+338    	; 0xcdc <vfprintf+0x3bc>
 b8a:	e9 2f       	mov	r30, r25
 b8c:	e0 61       	ori	r30, 0x10	; 16
 b8e:	be 2e       	mov	r11, r30
 b90:	b4 fe       	sbrs	r11, 4
 b92:	0d c0       	rjmp	.+26     	; 0xbae <vfprintf+0x28e>
 b94:	fb 2d       	mov	r31, r11
 b96:	f4 60       	ori	r31, 0x04	; 4
 b98:	bf 2e       	mov	r11, r31
 b9a:	09 c0       	rjmp	.+18     	; 0xbae <vfprintf+0x28e>
 b9c:	34 fe       	sbrs	r3, 4
 b9e:	0a c0       	rjmp	.+20     	; 0xbb4 <vfprintf+0x294>
 ba0:	29 2f       	mov	r18, r25
 ba2:	26 60       	ori	r18, 0x06	; 6
 ba4:	b2 2e       	mov	r11, r18
 ba6:	06 c0       	rjmp	.+12     	; 0xbb4 <vfprintf+0x294>
 ba8:	28 e0       	ldi	r18, 0x08	; 8
 baa:	30 e0       	ldi	r19, 0x00	; 0
 bac:	05 c0       	rjmp	.+10     	; 0xbb8 <vfprintf+0x298>
 bae:	20 e1       	ldi	r18, 0x10	; 16
 bb0:	30 e0       	ldi	r19, 0x00	; 0
 bb2:	02 c0       	rjmp	.+4      	; 0xbb8 <vfprintf+0x298>
 bb4:	20 e1       	ldi	r18, 0x10	; 16
 bb6:	32 e0       	ldi	r19, 0x02	; 2
 bb8:	f8 01       	movw	r30, r16
 bba:	b7 fe       	sbrs	r11, 7
 bbc:	07 c0       	rjmp	.+14     	; 0xbcc <vfprintf+0x2ac>
 bbe:	60 81       	ld	r22, Z
 bc0:	71 81       	ldd	r23, Z+1	; 0x01
 bc2:	82 81       	ldd	r24, Z+2	; 0x02
 bc4:	93 81       	ldd	r25, Z+3	; 0x03
 bc6:	0c 5f       	subi	r16, 0xFC	; 252
 bc8:	1f 4f       	sbci	r17, 0xFF	; 255
 bca:	06 c0       	rjmp	.+12     	; 0xbd8 <vfprintf+0x2b8>
 bcc:	60 81       	ld	r22, Z
 bce:	71 81       	ldd	r23, Z+1	; 0x01
 bd0:	80 e0       	ldi	r24, 0x00	; 0
 bd2:	90 e0       	ldi	r25, 0x00	; 0
 bd4:	0e 5f       	subi	r16, 0xFE	; 254
 bd6:	1f 4f       	sbci	r17, 0xFF	; 255
 bd8:	a3 01       	movw	r20, r6
 bda:	f1 d0       	rcall	.+482    	; 0xdbe <__ultoa_invert>
 bdc:	88 2e       	mov	r8, r24
 bde:	86 18       	sub	r8, r6
 be0:	fb 2d       	mov	r31, r11
 be2:	ff 77       	andi	r31, 0x7F	; 127
 be4:	3f 2e       	mov	r3, r31
 be6:	36 fe       	sbrs	r3, 6
 be8:	0d c0       	rjmp	.+26     	; 0xc04 <vfprintf+0x2e4>
 bea:	23 2d       	mov	r18, r3
 bec:	2e 7f       	andi	r18, 0xFE	; 254
 bee:	a2 2e       	mov	r10, r18
 bf0:	89 14       	cp	r8, r9
 bf2:	58 f4       	brcc	.+22     	; 0xc0a <vfprintf+0x2ea>
 bf4:	34 fe       	sbrs	r3, 4
 bf6:	0b c0       	rjmp	.+22     	; 0xc0e <vfprintf+0x2ee>
 bf8:	32 fc       	sbrc	r3, 2
 bfa:	09 c0       	rjmp	.+18     	; 0xc0e <vfprintf+0x2ee>
 bfc:	83 2d       	mov	r24, r3
 bfe:	8e 7e       	andi	r24, 0xEE	; 238
 c00:	a8 2e       	mov	r10, r24
 c02:	05 c0       	rjmp	.+10     	; 0xc0e <vfprintf+0x2ee>
 c04:	b8 2c       	mov	r11, r8
 c06:	a3 2c       	mov	r10, r3
 c08:	03 c0       	rjmp	.+6      	; 0xc10 <vfprintf+0x2f0>
 c0a:	b8 2c       	mov	r11, r8
 c0c:	01 c0       	rjmp	.+2      	; 0xc10 <vfprintf+0x2f0>
 c0e:	b9 2c       	mov	r11, r9
 c10:	a4 fe       	sbrs	r10, 4
 c12:	0f c0       	rjmp	.+30     	; 0xc32 <vfprintf+0x312>
 c14:	fe 01       	movw	r30, r28
 c16:	e8 0d       	add	r30, r8
 c18:	f1 1d       	adc	r31, r1
 c1a:	80 81       	ld	r24, Z
 c1c:	80 33       	cpi	r24, 0x30	; 48
 c1e:	21 f4       	brne	.+8      	; 0xc28 <vfprintf+0x308>
 c20:	9a 2d       	mov	r25, r10
 c22:	99 7e       	andi	r25, 0xE9	; 233
 c24:	a9 2e       	mov	r10, r25
 c26:	09 c0       	rjmp	.+18     	; 0xc3a <vfprintf+0x31a>
 c28:	a2 fe       	sbrs	r10, 2
 c2a:	06 c0       	rjmp	.+12     	; 0xc38 <vfprintf+0x318>
 c2c:	b3 94       	inc	r11
 c2e:	b3 94       	inc	r11
 c30:	04 c0       	rjmp	.+8      	; 0xc3a <vfprintf+0x31a>
 c32:	8a 2d       	mov	r24, r10
 c34:	86 78       	andi	r24, 0x86	; 134
 c36:	09 f0       	breq	.+2      	; 0xc3a <vfprintf+0x31a>
 c38:	b3 94       	inc	r11
 c3a:	a3 fc       	sbrc	r10, 3
 c3c:	10 c0       	rjmp	.+32     	; 0xc5e <vfprintf+0x33e>
 c3e:	a0 fe       	sbrs	r10, 0
 c40:	06 c0       	rjmp	.+12     	; 0xc4e <vfprintf+0x32e>
 c42:	b2 14       	cp	r11, r2
 c44:	80 f4       	brcc	.+32     	; 0xc66 <vfprintf+0x346>
 c46:	28 0c       	add	r2, r8
 c48:	92 2c       	mov	r9, r2
 c4a:	9b 18       	sub	r9, r11
 c4c:	0d c0       	rjmp	.+26     	; 0xc68 <vfprintf+0x348>
 c4e:	b2 14       	cp	r11, r2
 c50:	58 f4       	brcc	.+22     	; 0xc68 <vfprintf+0x348>
 c52:	b6 01       	movw	r22, r12
 c54:	80 e2       	ldi	r24, 0x20	; 32
 c56:	90 e0       	ldi	r25, 0x00	; 0
 c58:	76 d0       	rcall	.+236    	; 0xd46 <fputc>
 c5a:	b3 94       	inc	r11
 c5c:	f8 cf       	rjmp	.-16     	; 0xc4e <vfprintf+0x32e>
 c5e:	b2 14       	cp	r11, r2
 c60:	18 f4       	brcc	.+6      	; 0xc68 <vfprintf+0x348>
 c62:	2b 18       	sub	r2, r11
 c64:	02 c0       	rjmp	.+4      	; 0xc6a <vfprintf+0x34a>
 c66:	98 2c       	mov	r9, r8
 c68:	21 2c       	mov	r2, r1
 c6a:	a4 fe       	sbrs	r10, 4
 c6c:	0f c0       	rjmp	.+30     	; 0xc8c <vfprintf+0x36c>
 c6e:	b6 01       	movw	r22, r12
 c70:	80 e3       	ldi	r24, 0x30	; 48
 c72:	90 e0       	ldi	r25, 0x00	; 0
 c74:	68 d0       	rcall	.+208    	; 0xd46 <fputc>
 c76:	a2 fe       	sbrs	r10, 2
 c78:	16 c0       	rjmp	.+44     	; 0xca6 <vfprintf+0x386>
 c7a:	a1 fc       	sbrc	r10, 1
 c7c:	03 c0       	rjmp	.+6      	; 0xc84 <vfprintf+0x364>
 c7e:	88 e7       	ldi	r24, 0x78	; 120
 c80:	90 e0       	ldi	r25, 0x00	; 0
 c82:	02 c0       	rjmp	.+4      	; 0xc88 <vfprintf+0x368>
 c84:	88 e5       	ldi	r24, 0x58	; 88
 c86:	90 e0       	ldi	r25, 0x00	; 0
 c88:	b6 01       	movw	r22, r12
 c8a:	0c c0       	rjmp	.+24     	; 0xca4 <vfprintf+0x384>
 c8c:	8a 2d       	mov	r24, r10
 c8e:	86 78       	andi	r24, 0x86	; 134
 c90:	51 f0       	breq	.+20     	; 0xca6 <vfprintf+0x386>
 c92:	a1 fe       	sbrs	r10, 1
 c94:	02 c0       	rjmp	.+4      	; 0xc9a <vfprintf+0x37a>
 c96:	8b e2       	ldi	r24, 0x2B	; 43
 c98:	01 c0       	rjmp	.+2      	; 0xc9c <vfprintf+0x37c>
 c9a:	80 e2       	ldi	r24, 0x20	; 32
 c9c:	a7 fc       	sbrc	r10, 7
 c9e:	8d e2       	ldi	r24, 0x2D	; 45
 ca0:	b6 01       	movw	r22, r12
 ca2:	90 e0       	ldi	r25, 0x00	; 0
 ca4:	50 d0       	rcall	.+160    	; 0xd46 <fputc>
 ca6:	89 14       	cp	r8, r9
 ca8:	30 f4       	brcc	.+12     	; 0xcb6 <vfprintf+0x396>
 caa:	b6 01       	movw	r22, r12
 cac:	80 e3       	ldi	r24, 0x30	; 48
 cae:	90 e0       	ldi	r25, 0x00	; 0
 cb0:	4a d0       	rcall	.+148    	; 0xd46 <fputc>
 cb2:	9a 94       	dec	r9
 cb4:	f8 cf       	rjmp	.-16     	; 0xca6 <vfprintf+0x386>
 cb6:	8a 94       	dec	r8
 cb8:	f3 01       	movw	r30, r6
 cba:	e8 0d       	add	r30, r8
 cbc:	f1 1d       	adc	r31, r1
 cbe:	80 81       	ld	r24, Z
 cc0:	b6 01       	movw	r22, r12
 cc2:	90 e0       	ldi	r25, 0x00	; 0
 cc4:	40 d0       	rcall	.+128    	; 0xd46 <fputc>
 cc6:	81 10       	cpse	r8, r1
 cc8:	f6 cf       	rjmp	.-20     	; 0xcb6 <vfprintf+0x396>
 cca:	22 20       	and	r2, r2
 ccc:	09 f4       	brne	.+2      	; 0xcd0 <vfprintf+0x3b0>
 cce:	4e ce       	rjmp	.-868    	; 0x96c <vfprintf+0x4c>
 cd0:	b6 01       	movw	r22, r12
 cd2:	80 e2       	ldi	r24, 0x20	; 32
 cd4:	90 e0       	ldi	r25, 0x00	; 0
 cd6:	37 d0       	rcall	.+110    	; 0xd46 <fputc>
 cd8:	2a 94       	dec	r2
 cda:	f7 cf       	rjmp	.-18     	; 0xcca <vfprintf+0x3aa>
 cdc:	f6 01       	movw	r30, r12
 cde:	86 81       	ldd	r24, Z+6	; 0x06
 ce0:	97 81       	ldd	r25, Z+7	; 0x07
 ce2:	02 c0       	rjmp	.+4      	; 0xce8 <vfprintf+0x3c8>
 ce4:	8f ef       	ldi	r24, 0xFF	; 255
 ce6:	9f ef       	ldi	r25, 0xFF	; 255
 ce8:	2b 96       	adiw	r28, 0x0b	; 11
 cea:	0f b6       	in	r0, 0x3f	; 63
 cec:	f8 94       	cli
 cee:	de bf       	out	0x3e, r29	; 62
 cf0:	0f be       	out	0x3f, r0	; 63
 cf2:	cd bf       	out	0x3d, r28	; 61
 cf4:	df 91       	pop	r29
 cf6:	cf 91       	pop	r28
 cf8:	1f 91       	pop	r17
 cfa:	0f 91       	pop	r16
 cfc:	ff 90       	pop	r15
 cfe:	ef 90       	pop	r14
 d00:	df 90       	pop	r13
 d02:	cf 90       	pop	r12
 d04:	bf 90       	pop	r11
 d06:	af 90       	pop	r10
 d08:	9f 90       	pop	r9
 d0a:	8f 90       	pop	r8
 d0c:	7f 90       	pop	r7
 d0e:	6f 90       	pop	r6
 d10:	5f 90       	pop	r5
 d12:	4f 90       	pop	r4
 d14:	3f 90       	pop	r3
 d16:	2f 90       	pop	r2
 d18:	08 95       	ret

00000d1a <strnlen_P>:
 d1a:	fc 01       	movw	r30, r24
 d1c:	05 90       	lpm	r0, Z+
 d1e:	61 50       	subi	r22, 0x01	; 1
 d20:	70 40       	sbci	r23, 0x00	; 0
 d22:	01 10       	cpse	r0, r1
 d24:	d8 f7       	brcc	.-10     	; 0xd1c <strnlen_P+0x2>
 d26:	80 95       	com	r24
 d28:	90 95       	com	r25
 d2a:	8e 0f       	add	r24, r30
 d2c:	9f 1f       	adc	r25, r31
 d2e:	08 95       	ret

00000d30 <strnlen>:
 d30:	fc 01       	movw	r30, r24
 d32:	61 50       	subi	r22, 0x01	; 1
 d34:	70 40       	sbci	r23, 0x00	; 0
 d36:	01 90       	ld	r0, Z+
 d38:	01 10       	cpse	r0, r1
 d3a:	d8 f7       	brcc	.-10     	; 0xd32 <strnlen+0x2>
 d3c:	80 95       	com	r24
 d3e:	90 95       	com	r25
 d40:	8e 0f       	add	r24, r30
 d42:	9f 1f       	adc	r25, r31
 d44:	08 95       	ret

00000d46 <fputc>:
 d46:	0f 93       	push	r16
 d48:	1f 93       	push	r17
 d4a:	cf 93       	push	r28
 d4c:	df 93       	push	r29
 d4e:	fb 01       	movw	r30, r22
 d50:	23 81       	ldd	r18, Z+3	; 0x03
 d52:	21 fd       	sbrc	r18, 1
 d54:	03 c0       	rjmp	.+6      	; 0xd5c <fputc+0x16>
 d56:	8f ef       	ldi	r24, 0xFF	; 255
 d58:	9f ef       	ldi	r25, 0xFF	; 255
 d5a:	2c c0       	rjmp	.+88     	; 0xdb4 <fputc+0x6e>
 d5c:	22 ff       	sbrs	r18, 2
 d5e:	16 c0       	rjmp	.+44     	; 0xd8c <fputc+0x46>
 d60:	46 81       	ldd	r20, Z+6	; 0x06
 d62:	57 81       	ldd	r21, Z+7	; 0x07
 d64:	24 81       	ldd	r18, Z+4	; 0x04
 d66:	35 81       	ldd	r19, Z+5	; 0x05
 d68:	42 17       	cp	r20, r18
 d6a:	53 07       	cpc	r21, r19
 d6c:	44 f4       	brge	.+16     	; 0xd7e <fputc+0x38>
 d6e:	a0 81       	ld	r26, Z
 d70:	b1 81       	ldd	r27, Z+1	; 0x01
 d72:	9d 01       	movw	r18, r26
 d74:	2f 5f       	subi	r18, 0xFF	; 255
 d76:	3f 4f       	sbci	r19, 0xFF	; 255
 d78:	31 83       	std	Z+1, r19	; 0x01
 d7a:	20 83       	st	Z, r18
 d7c:	8c 93       	st	X, r24
 d7e:	26 81       	ldd	r18, Z+6	; 0x06
 d80:	37 81       	ldd	r19, Z+7	; 0x07
 d82:	2f 5f       	subi	r18, 0xFF	; 255
 d84:	3f 4f       	sbci	r19, 0xFF	; 255
 d86:	37 83       	std	Z+7, r19	; 0x07
 d88:	26 83       	std	Z+6, r18	; 0x06
 d8a:	14 c0       	rjmp	.+40     	; 0xdb4 <fputc+0x6e>
 d8c:	8b 01       	movw	r16, r22
 d8e:	ec 01       	movw	r28, r24
 d90:	fb 01       	movw	r30, r22
 d92:	00 84       	ldd	r0, Z+8	; 0x08
 d94:	f1 85       	ldd	r31, Z+9	; 0x09
 d96:	e0 2d       	mov	r30, r0
 d98:	19 95       	eicall
 d9a:	89 2b       	or	r24, r25
 d9c:	e1 f6       	brne	.-72     	; 0xd56 <fputc+0x10>
 d9e:	d8 01       	movw	r26, r16
 da0:	16 96       	adiw	r26, 0x06	; 6
 da2:	8d 91       	ld	r24, X+
 da4:	9c 91       	ld	r25, X
 da6:	17 97       	sbiw	r26, 0x07	; 7
 da8:	01 96       	adiw	r24, 0x01	; 1
 daa:	17 96       	adiw	r26, 0x07	; 7
 dac:	9c 93       	st	X, r25
 dae:	8e 93       	st	-X, r24
 db0:	16 97       	sbiw	r26, 0x06	; 6
 db2:	ce 01       	movw	r24, r28
 db4:	df 91       	pop	r29
 db6:	cf 91       	pop	r28
 db8:	1f 91       	pop	r17
 dba:	0f 91       	pop	r16
 dbc:	08 95       	ret

00000dbe <__ultoa_invert>:
 dbe:	fa 01       	movw	r30, r20
 dc0:	aa 27       	eor	r26, r26
 dc2:	28 30       	cpi	r18, 0x08	; 8
 dc4:	51 f1       	breq	.+84     	; 0xe1a <__ultoa_invert+0x5c>
 dc6:	20 31       	cpi	r18, 0x10	; 16
 dc8:	81 f1       	breq	.+96     	; 0xe2a <__ultoa_invert+0x6c>
 dca:	e8 94       	clt
 dcc:	6f 93       	push	r22
 dce:	6e 7f       	andi	r22, 0xFE	; 254
 dd0:	6e 5f       	subi	r22, 0xFE	; 254
 dd2:	7f 4f       	sbci	r23, 0xFF	; 255
 dd4:	8f 4f       	sbci	r24, 0xFF	; 255
 dd6:	9f 4f       	sbci	r25, 0xFF	; 255
 dd8:	af 4f       	sbci	r26, 0xFF	; 255
 dda:	b1 e0       	ldi	r27, 0x01	; 1
 ddc:	3e d0       	rcall	.+124    	; 0xe5a <__ultoa_invert+0x9c>
 dde:	b4 e0       	ldi	r27, 0x04	; 4
 de0:	3c d0       	rcall	.+120    	; 0xe5a <__ultoa_invert+0x9c>
 de2:	67 0f       	add	r22, r23
 de4:	78 1f       	adc	r23, r24
 de6:	89 1f       	adc	r24, r25
 de8:	9a 1f       	adc	r25, r26
 dea:	a1 1d       	adc	r26, r1
 dec:	68 0f       	add	r22, r24
 dee:	79 1f       	adc	r23, r25
 df0:	8a 1f       	adc	r24, r26
 df2:	91 1d       	adc	r25, r1
 df4:	a1 1d       	adc	r26, r1
 df6:	6a 0f       	add	r22, r26
 df8:	71 1d       	adc	r23, r1
 dfa:	81 1d       	adc	r24, r1
 dfc:	91 1d       	adc	r25, r1
 dfe:	a1 1d       	adc	r26, r1
 e00:	20 d0       	rcall	.+64     	; 0xe42 <__ultoa_invert+0x84>
 e02:	09 f4       	brne	.+2      	; 0xe06 <__ultoa_invert+0x48>
 e04:	68 94       	set
 e06:	3f 91       	pop	r19
 e08:	2a e0       	ldi	r18, 0x0A	; 10
 e0a:	26 9f       	mul	r18, r22
 e0c:	11 24       	eor	r1, r1
 e0e:	30 19       	sub	r19, r0
 e10:	30 5d       	subi	r19, 0xD0	; 208
 e12:	31 93       	st	Z+, r19
 e14:	de f6       	brtc	.-74     	; 0xdcc <__ultoa_invert+0xe>
 e16:	cf 01       	movw	r24, r30
 e18:	08 95       	ret
 e1a:	46 2f       	mov	r20, r22
 e1c:	47 70       	andi	r20, 0x07	; 7
 e1e:	40 5d       	subi	r20, 0xD0	; 208
 e20:	41 93       	st	Z+, r20
 e22:	b3 e0       	ldi	r27, 0x03	; 3
 e24:	0f d0       	rcall	.+30     	; 0xe44 <__ultoa_invert+0x86>
 e26:	c9 f7       	brne	.-14     	; 0xe1a <__ultoa_invert+0x5c>
 e28:	f6 cf       	rjmp	.-20     	; 0xe16 <__ultoa_invert+0x58>
 e2a:	46 2f       	mov	r20, r22
 e2c:	4f 70       	andi	r20, 0x0F	; 15
 e2e:	40 5d       	subi	r20, 0xD0	; 208
 e30:	4a 33       	cpi	r20, 0x3A	; 58
 e32:	18 f0       	brcs	.+6      	; 0xe3a <__ultoa_invert+0x7c>
 e34:	49 5d       	subi	r20, 0xD9	; 217
 e36:	31 fd       	sbrc	r19, 1
 e38:	40 52       	subi	r20, 0x20	; 32
 e3a:	41 93       	st	Z+, r20
 e3c:	02 d0       	rcall	.+4      	; 0xe42 <__ultoa_invert+0x84>
 e3e:	a9 f7       	brne	.-22     	; 0xe2a <__ultoa_invert+0x6c>
 e40:	ea cf       	rjmp	.-44     	; 0xe16 <__ultoa_invert+0x58>
 e42:	b4 e0       	ldi	r27, 0x04	; 4
 e44:	a6 95       	lsr	r26
 e46:	97 95       	ror	r25
 e48:	87 95       	ror	r24
 e4a:	77 95       	ror	r23
 e4c:	67 95       	ror	r22
 e4e:	ba 95       	dec	r27
 e50:	c9 f7       	brne	.-14     	; 0xe44 <__ultoa_invert+0x86>
 e52:	00 97       	sbiw	r24, 0x00	; 0
 e54:	61 05       	cpc	r22, r1
 e56:	71 05       	cpc	r23, r1
 e58:	08 95       	ret
 e5a:	9b 01       	movw	r18, r22
 e5c:	ac 01       	movw	r20, r24
 e5e:	0a 2e       	mov	r0, r26
 e60:	06 94       	lsr	r0
 e62:	57 95       	ror	r21
 e64:	47 95       	ror	r20
 e66:	37 95       	ror	r19
 e68:	27 95       	ror	r18
 e6a:	ba 95       	dec	r27
 e6c:	c9 f7       	brne	.-14     	; 0xe60 <__ultoa_invert+0xa2>
 e6e:	62 0f       	add	r22, r18
 e70:	73 1f       	adc	r23, r19
 e72:	84 1f       	adc	r24, r20
 e74:	95 1f       	adc	r25, r21
 e76:	a0 1d       	adc	r26, r0
 e78:	08 95       	ret

00000e7a <_exit>:
 e7a:	f8 94       	cli

00000e7c <__stop_program>:
 e7c:	ff cf       	rjmp	.-2      	; 0xe7c <__stop_program>
