
uCBoardBeispiele.elf:     file format elf32-avr

Sections:
Idx Name          Size      VMA       LMA       File off  Algn
  0 .data         000000ea  00800200  00001522  000015b6  2**0
                  CONTENTS, ALLOC, LOAD, DATA
  1 .text         00001522  00000000  00000000  00000094  2**1
                  CONTENTS, ALLOC, LOAD, READONLY, CODE
  2 .bss          000000c8  008002ea  008002ea  000016a0  2**0
                  ALLOC
  3 .comment      0000005c  00000000  00000000  000016a0  2**0
                  CONTENTS, READONLY
  4 .note.gnu.avr.deviceinfo 00000040  00000000  00000000  000016fc  2**2
                  CONTENTS, READONLY
  5 .debug_aranges 000001e8  00000000  00000000  0000173c  2**0
                  CONTENTS, READONLY, DEBUGGING
  6 .debug_info   00002636  00000000  00000000  00001924  2**0
                  CONTENTS, READONLY, DEBUGGING
  7 .debug_abbrev 00001068  00000000  00000000  00003f5a  2**0
                  CONTENTS, READONLY, DEBUGGING
  8 .debug_line   00001599  00000000  00000000  00004fc2  2**0
                  CONTENTS, READONLY, DEBUGGING
  9 .debug_frame  00000688  00000000  00000000  0000655c  2**2
                  CONTENTS, READONLY, DEBUGGING
 10 .debug_str    00000db9  00000000  00000000  00006be4  2**0
                  CONTENTS, READONLY, DEBUGGING
 11 .debug_loc    00001ea3  00000000  00000000  0000799d  2**0
                  CONTENTS, READONLY, DEBUGGING
 12 .debug_ranges 00000218  00000000  00000000  00009840  2**0
                  CONTENTS, READONLY, DEBUGGING

Disassembly of section .text:

00000000 <__vectors>:
       0:	71 c0       	rjmp	.+226    	; 0xe4 <__ctors_end>
       2:	00 00       	nop
       4:	8f c0       	rjmp	.+286    	; 0x124 <__bad_interrupt>
       6:	00 00       	nop
       8:	8d c0       	rjmp	.+282    	; 0x124 <__bad_interrupt>
       a:	00 00       	nop
       c:	8b c0       	rjmp	.+278    	; 0x124 <__bad_interrupt>
       e:	00 00       	nop
      10:	89 c0       	rjmp	.+274    	; 0x124 <__bad_interrupt>
      12:	00 00       	nop
      14:	87 c0       	rjmp	.+270    	; 0x124 <__bad_interrupt>
      16:	00 00       	nop
      18:	85 c0       	rjmp	.+266    	; 0x124 <__bad_interrupt>
      1a:	00 00       	nop
      1c:	83 c0       	rjmp	.+262    	; 0x124 <__bad_interrupt>
      1e:	00 00       	nop
      20:	81 c0       	rjmp	.+258    	; 0x124 <__bad_interrupt>
      22:	00 00       	nop
      24:	7f c0       	rjmp	.+254    	; 0x124 <__bad_interrupt>
      26:	00 00       	nop
      28:	7d c0       	rjmp	.+250    	; 0x124 <__bad_interrupt>
      2a:	00 00       	nop
      2c:	7b c0       	rjmp	.+246    	; 0x124 <__bad_interrupt>
      2e:	00 00       	nop
      30:	79 c0       	rjmp	.+242    	; 0x124 <__bad_interrupt>
      32:	00 00       	nop
      34:	77 c0       	rjmp	.+238    	; 0x124 <__bad_interrupt>
      36:	00 00       	nop
      38:	75 c0       	rjmp	.+234    	; 0x124 <__bad_interrupt>
      3a:	00 00       	nop
      3c:	73 c0       	rjmp	.+230    	; 0x124 <__bad_interrupt>
      3e:	00 00       	nop
      40:	71 c0       	rjmp	.+226    	; 0x124 <__bad_interrupt>
      42:	00 00       	nop
      44:	6f c0       	rjmp	.+222    	; 0x124 <__bad_interrupt>
      46:	00 00       	nop
      48:	6d c0       	rjmp	.+218    	; 0x124 <__bad_interrupt>
      4a:	00 00       	nop
      4c:	6b c0       	rjmp	.+214    	; 0x124 <__bad_interrupt>
      4e:	00 00       	nop
      50:	69 c0       	rjmp	.+210    	; 0x124 <__bad_interrupt>
      52:	00 00       	nop
      54:	67 c0       	rjmp	.+206    	; 0x124 <__bad_interrupt>
      56:	00 00       	nop
      58:	65 c0       	rjmp	.+202    	; 0x124 <__bad_interrupt>
      5a:	00 00       	nop
      5c:	8b c6       	rjmp	.+3350   	; 0xd74 <__vector_23>
      5e:	00 00       	nop
      60:	61 c0       	rjmp	.+194    	; 0x124 <__bad_interrupt>
      62:	00 00       	nop
      64:	5f c0       	rjmp	.+190    	; 0x124 <__bad_interrupt>
      66:	00 00       	nop
      68:	5d c0       	rjmp	.+186    	; 0x124 <__bad_interrupt>
      6a:	00 00       	nop
      6c:	5b c0       	rjmp	.+182    	; 0x124 <__bad_interrupt>
      6e:	00 00       	nop
      70:	59 c0       	rjmp	.+178    	; 0x124 <__bad_interrupt>
      72:	00 00       	nop
      74:	57 c0       	rjmp	.+174    	; 0x124 <__bad_interrupt>
      76:	00 00       	nop
      78:	55 c0       	rjmp	.+170    	; 0x124 <__bad_interrupt>
      7a:	00 00       	nop
      7c:	53 c0       	rjmp	.+166    	; 0x124 <__bad_interrupt>
      7e:	00 00       	nop
      80:	51 c0       	rjmp	.+162    	; 0x124 <__bad_interrupt>
      82:	00 00       	nop
      84:	4f c0       	rjmp	.+158    	; 0x124 <__bad_interrupt>
      86:	00 00       	nop
      88:	4d c0       	rjmp	.+154    	; 0x124 <__bad_interrupt>
      8a:	00 00       	nop
      8c:	4b c0       	rjmp	.+150    	; 0x124 <__bad_interrupt>
      8e:	00 00       	nop
      90:	49 c0       	rjmp	.+146    	; 0x124 <__bad_interrupt>
      92:	00 00       	nop
      94:	47 c0       	rjmp	.+142    	; 0x124 <__bad_interrupt>
      96:	00 00       	nop
      98:	45 c0       	rjmp	.+138    	; 0x124 <__bad_interrupt>
      9a:	00 00       	nop
      9c:	43 c0       	rjmp	.+134    	; 0x124 <__bad_interrupt>
      9e:	00 00       	nop
      a0:	41 c0       	rjmp	.+130    	; 0x124 <__bad_interrupt>
      a2:	00 00       	nop
      a4:	3f c0       	rjmp	.+126    	; 0x124 <__bad_interrupt>
      a6:	00 00       	nop
      a8:	3d c0       	rjmp	.+122    	; 0x124 <__bad_interrupt>
      aa:	00 00       	nop
      ac:	3b c0       	rjmp	.+118    	; 0x124 <__bad_interrupt>
      ae:	00 00       	nop
      b0:	39 c0       	rjmp	.+114    	; 0x124 <__bad_interrupt>
      b2:	00 00       	nop
      b4:	37 c0       	rjmp	.+110    	; 0x124 <__bad_interrupt>
      b6:	00 00       	nop
      b8:	35 c0       	rjmp	.+106    	; 0x124 <__bad_interrupt>
      ba:	00 00       	nop
      bc:	33 c0       	rjmp	.+102    	; 0x124 <__bad_interrupt>
      be:	00 00       	nop
      c0:	31 c0       	rjmp	.+98     	; 0x124 <__bad_interrupt>
      c2:	00 00       	nop
      c4:	2f c0       	rjmp	.+94     	; 0x124 <__bad_interrupt>
      c6:	00 00       	nop
      c8:	2d c0       	rjmp	.+90     	; 0x124 <__bad_interrupt>
      ca:	00 00       	nop
      cc:	2b c0       	rjmp	.+86     	; 0x124 <__bad_interrupt>
      ce:	00 00       	nop
      d0:	29 c0       	rjmp	.+82     	; 0x124 <__bad_interrupt>
      d2:	00 00       	nop
      d4:	27 c0       	rjmp	.+78     	; 0x124 <__bad_interrupt>
      d6:	00 00       	nop
      d8:	25 c0       	rjmp	.+74     	; 0x124 <__bad_interrupt>
      da:	00 00       	nop
      dc:	23 c0       	rjmp	.+70     	; 0x124 <__bad_interrupt>
      de:	00 00       	nop
      e0:	21 c0       	rjmp	.+66     	; 0x124 <__bad_interrupt>
	...

000000e4 <__ctors_end>:
      e4:	11 24       	eor	r1, r1
      e6:	1f be       	out	0x3f, r1	; 63
      e8:	cf ef       	ldi	r28, 0xFF	; 255
      ea:	d1 e2       	ldi	r29, 0x21	; 33
      ec:	de bf       	out	0x3e, r29	; 62
      ee:	cd bf       	out	0x3d, r28	; 61
      f0:	00 e0       	ldi	r16, 0x00	; 0
      f2:	0c bf       	out	0x3c, r16	; 60

000000f4 <__do_copy_data>:
      f4:	12 e0       	ldi	r17, 0x02	; 2
      f6:	a0 e0       	ldi	r26, 0x00	; 0
      f8:	b2 e0       	ldi	r27, 0x02	; 2
      fa:	e2 e2       	ldi	r30, 0x22	; 34
      fc:	f5 e1       	ldi	r31, 0x15	; 21
      fe:	00 e0       	ldi	r16, 0x00	; 0
     100:	0b bf       	out	0x3b, r16	; 59
     102:	02 c0       	rjmp	.+4      	; 0x108 <__do_copy_data+0x14>
     104:	07 90       	elpm	r0, Z+
     106:	0d 92       	st	X+, r0
     108:	aa 3e       	cpi	r26, 0xEA	; 234
     10a:	b1 07       	cpc	r27, r17
     10c:	d9 f7       	brne	.-10     	; 0x104 <__do_copy_data+0x10>

0000010e <__do_clear_bss>:
     10e:	23 e0       	ldi	r18, 0x03	; 3
     110:	aa ee       	ldi	r26, 0xEA	; 234
     112:	b2 e0       	ldi	r27, 0x02	; 2
     114:	01 c0       	rjmp	.+2      	; 0x118 <.do_clear_bss_start>

00000116 <.do_clear_bss_loop>:
     116:	1d 92       	st	X+, r1

00000118 <.do_clear_bss_start>:
     118:	a2 3b       	cpi	r26, 0xB2	; 178
     11a:	b2 07       	cpc	r27, r18
     11c:	e1 f7       	brne	.-8      	; 0x116 <.do_clear_bss_loop>
     11e:	03 d0       	rcall	.+6      	; 0x126 <main>
     120:	0c 94 8f 0a 	jmp	0x151e	; 0x151e <_exit>

00000124 <__bad_interrupt>:
     124:	6d cf       	rjmp	.-294    	; 0x0 <__vectors>

00000126 <main>:
MUSTER_7, MUSTER_8, MUSTER_9, MUSTER_10, MUSTER_11, MUSTER_12, MUSTER_13, MUSTER_14, MUSTER_15};


//Hauptprogramm
int main(void)
{
     126:	cf 93       	push	r28
     128:	df 93       	push	r29
     12a:	00 d0       	rcall	.+0      	; 0x12c <main+0x6>
     12c:	1f 92       	push	r1
     12e:	1f 92       	push	r1
     130:	cd b7       	in	r28, 0x3d	; 61
     132:	de b7       	in	r29, 0x3e	; 62
    uint8_t blau = 0;
    
    zustand_t state = AUS;
    
    //Initialisieren
    initBoard(1);
     134:	81 e0       	ldi	r24, 0x01	; 1
     136:	6d d3       	rcall	.+1754   	; 0x812 <initBoard>
    
    uint8_t rot = 0;
    uint8_t gruen = 0;
    uint8_t blau = 0;
    
    zustand_t state = AUS;
     138:	10 e0       	ldi	r17, 0x00	; 0
    uint64_t timerBlink_ms = 0;
    uint8_t blink = 0;
    uint16_t spannung_mV = 0;
    
    uint8_t rot = 0;
    uint8_t gruen = 0;
     13a:	51 2c       	mov	r5, r1
    uint16_t i = 0;
    uint64_t timerBlink_ms = 0;
    uint8_t blink = 0;
    uint16_t spannung_mV = 0;
    
    uint8_t rot = 0;
     13c:	31 2c       	mov	r3, r1
    uint8_t schalterAkku = 0;
    uint16_t leds = 0;
    uint8_t inDez =0;
    uint16_t i = 0;
    uint64_t timerBlink_ms = 0;
    uint8_t blink = 0;
     13e:	41 2c       	mov	r4, r1
    uint8_t muster=0;
    uint8_t schalterAkku = 0;
    uint16_t leds = 0;
    uint8_t inDez =0;
    uint16_t i = 0;
    uint64_t timerBlink_ms = 0;
     140:	c1 2c       	mov	r12, r1
     142:	d1 2c       	mov	r13, r1
     144:	e1 2c       	mov	r14, r1
     146:	f1 2c       	mov	r15, r1
     148:	00 e0       	ldi	r16, 0x00	; 0
     14a:	71 2c       	mov	r7, r1
     14c:	81 2c       	mov	r8, r1
    uint8_t power=0;
    uint8_t muster=0;
    uint8_t schalterAkku = 0;
    uint16_t leds = 0;
    uint8_t inDez =0;
    uint16_t i = 0;
     14e:	1c 82       	std	Y+4, r1	; 0x04
     150:	1b 82       	std	Y+3, r1	; 0x03
    uint8_t inTaster=0;
    uint8_t inTasterAlt=0;
    uint8_t power=0;
    uint8_t muster=0;
    uint8_t schalterAkku = 0;
    uint16_t leds = 0;
     152:	21 2c       	mov	r2, r1

//Hauptprogramm
int main(void)
{
    //Variablen
    uint8_t inTaster=0;
     154:	20 e0       	ldi	r18, 0x00	; 0
                state = AUS ;//setzen;
            }
            
            break;
            case MUSTER_WECHSELN:
            lcdLog("Muster Wechseln     ");
     156:	2d 83       	std	Y+5, r18	; 0x05
     158:	4a 82       	std	Y+2, r4	; 0x02
     15a:	b1 2c       	mov	r11, r1
    //Unendlichschlaufe
    while(1)
    {
        //Eingabe------------------------------------------------------------------
        inTasterAlt = inTaster;
        inTaster = buttonReadAllPL();
     15c:	a7 2c       	mov	r10, r7
     15e:	05 d1       	rcall	.+522    	; 0x36a <buttonReadAllPL>
     160:	98 2e       	mov	r9, r24
        power = (inTasterAlt ^ inTaster) & inTaster & IN_MASKE_POWER_TASTER;
     162:	8d 81       	ldd	r24, Y+5	; 0x05
     164:	80 95       	com	r24
     166:	89 21       	and	r24, r9
     168:	8d 83       	std	Y+5, r24	; 0x05
     16a:	81 70       	andi	r24, 0x01	; 1
     16c:	89 83       	std	Y+1, r24	; 0x01
        muster = (inTasterAlt ^ inTaster) & inTaster & IN_MASKE_MUSTER_TASTER;
     16e:	9d 81       	ldd	r25, Y+5	; 0x05
     170:	92 70       	andi	r25, 0x02	; 2
        schalterAkku = switchReadAll() & IN_MASKE_SCHALTER_AKKU;
     172:	9d 83       	std	Y+5, r25	; 0x05
     174:	f8 d0       	rcall	.+496    	; 0x366 <switchReadAll>
        spannung_mV = (uint32_t) schalterAkku * 5000 / 255;
     176:	28 2f       	mov	r18, r24
     178:	30 e0       	ldi	r19, 0x00	; 0
     17a:	a8 e8       	ldi	r26, 0x88	; 136
     17c:	b3 e1       	ldi	r27, 0x13	; 19
     17e:	68 d6       	rcall	.+3280   	; 0xe50 <__umulhisi3>
     180:	2f ef       	ldi	r18, 0xFF	; 255
     182:	30 e0       	ldi	r19, 0x00	; 0
     184:	40 e0       	ldi	r20, 0x00	; 0
     186:	50 e0       	ldi	r21, 0x00	; 0
     188:	41 d6       	rcall	.+3202   	; 0xe0c <__udivmodsi4>
     18a:	39 01       	movw	r6, r18
        
        //Verarbeitung-------------------------------------------------------------
        
        switch (state)
     18c:	11 30       	cpi	r17, 0x01	; 1
     18e:	29 f1       	breq	.+74     	; 0x1da <main+0xb4>
     190:	38 f0       	brcs	.+14     	; 0x1a0 <main+0x7a>
     192:	12 30       	cpi	r17, 0x02	; 2
     194:	09 f4       	brne	.+2      	; 0x198 <main+0x72>
     196:	3c c0       	rjmp	.+120    	; 0x210 <main+0xea>
     198:	13 30       	cpi	r17, 0x03	; 3
     19a:	09 f4       	brne	.+2      	; 0x19e <main+0x78>
     19c:	4c c0       	rjmp	.+152    	; 0x236 <main+0x110>
        {
            case AUS:
            lcdLog("Aus                 ");
     19e:	75 c0       	rjmp	.+234    	; 0x28a <main+0x164>
     1a0:	8a e0       	ldi	r24, 0x0A	; 10
     1a2:	92 e0       	ldi	r25, 0x02	; 2
     1a4:	9f 93       	push	r25
     1a6:	8f 93       	push	r24
     1a8:	3f d4       	rcall	.+2174   	; 0xa28 <lcdLog>
            rot=0;
            gruen=0;
            blau=0;
            if (power)
            {
                state = AN ;//setzen;
     1aa:	11 e0       	ldi	r17, 0x01	; 1
     1ac:	0f 90       	pop	r0
     1ae:	0f 90       	pop	r0
     1b0:	29 81       	ldd	r18, Y+1	; 0x01
     1b2:	21 11       	cpse	r18, r1
     1b4:	01 c0       	rjmp	.+2      	; 0x1b8 <main+0x92>
     1b6:	10 e0       	ldi	r17, 0x00	; 0
     1b8:	1a 82       	std	Y+2, r1	; 0x02
     1ba:	51 2c       	mov	r5, r1
     1bc:	21 2c       	mov	r2, r1
     1be:	41 2c       	mov	r4, r1
     1c0:	31 2c       	mov	r3, r1
                timerBlink_ms = 0;
            }
        }
        else
        {
            timerBlink_ms = PERIOD;
     1c2:	0f 2e       	mov	r0, r31
     1c4:	f8 ec       	ldi	r31, 0xC8	; 200
     1c6:	cf 2e       	mov	r12, r31
     1c8:	f0 2d       	mov	r31, r0
     1ca:	d1 2c       	mov	r13, r1
     1cc:	e1 2c       	mov	r14, r1
     1ce:	f1 2c       	mov	r15, r1
     1d0:	00 e0       	ldi	r16, 0x00	; 0
     1d2:	b1 2c       	mov	r11, r1
     1d4:	a1 2c       	mov	r10, r1
     1d6:	81 2c       	mov	r8, r1
                state = AN ;//setzen;
            }

            break;
            case AN:
            lcdLog("An                  ");
     1d8:	9a c0       	rjmp	.+308    	; 0x30e <main+0x1e8>
     1da:	8f e1       	ldi	r24, 0x1F	; 31
     1dc:	92 e0       	ldi	r25, 0x02	; 2
     1de:	9f 93       	push	r25
     1e0:	8f 93       	push	r24
     1e2:	22 d4       	rcall	.+2116   	; 0xa28 <lcdLog>
            rot=0;
            gruen=250;
            blau=0;// Grün leuchtet;
            if (muster)
     1e4:	0f 90       	pop	r0
     1e6:	0f 90       	pop	r0
     1e8:	2d 81       	ldd	r18, Y+5	; 0x05
     1ea:	21 11       	cpse	r18, r1
            {
                state = MUSTER_WECHSELN;// setzen;
     1ec:	13 e0       	ldi	r17, 0x03	; 3
            }
            
            if (spannung_mV < AKKU_LEER)
     1ee:	84 ee       	ldi	r24, 0xE4	; 228
     1f0:	68 16       	cp	r6, r24
     1f2:	8c e0       	ldi	r24, 0x0C	; 12
     1f4:	78 06       	cpc	r7, r24
     1f6:	08 f4       	brcc	.+2      	; 0x1fa <main+0xd4>
            {
                state = AKKU ;
     1f8:	12 e0       	ldi	r17, 0x02	; 2
            }
            if (power)
     1fa:	99 81       	ldd	r25, Y+1	; 0x01
     1fc:	99 23       	and	r25, r25
     1fe:	09 f4       	brne	.+2      	; 0x202 <main+0xdc>
     200:	3f c0       	rjmp	.+126    	; 0x280 <main+0x15a>
            {
                state = AUS ;//setzen;
     202:	10 e0       	ldi	r17, 0x00	; 0

            break;
            case AN:
            lcdLog("An                  ");
            rot=0;
            gruen=250;
     204:	0f 2e       	mov	r0, r31
     206:	fa ef       	ldi	r31, 0xFA	; 250
     208:	4f 2e       	mov	r4, r31
            }

            break;
            case AN:
            lcdLog("An                  ");
            rot=0;
     20a:	f0 2d       	mov	r31, r0
     20c:	31 2c       	mov	r3, r1
            {
                state = AUS ;//setzen;
            }
            break;
            case AKKU:
            lcdLog("Akku Leer           ");
     20e:	3d c0       	rjmp	.+122    	; 0x28a <main+0x164>
     210:	84 e3       	ldi	r24, 0x34	; 52
     212:	92 e0       	ldi	r25, 0x02	; 2
     214:	9f 93       	push	r25
     216:	8f 93       	push	r24
     218:	07 d4       	rcall	.+2062   	; 0xa28 <lcdLog>
            blink=1;
            leds=0;
            if (spannung_mV > AKKU_VOLL)
     21a:	0f 90       	pop	r0
     21c:	0f 90       	pop	r0
     21e:	25 e7       	ldi	r18, 0x75	; 117
     220:	62 16       	cp	r6, r18
     222:	2e e0       	ldi	r18, 0x0E	; 14
     224:	72 06       	cpc	r7, r18
     226:	08 f0       	brcs	.+2      	; 0x22a <main+0x104>
            {
                state = AUS ;
     228:	10 e0       	ldi	r17, 0x00	; 0
            }
            if (power)
     22a:	89 81       	ldd	r24, Y+1	; 0x01
     22c:	88 23       	and	r24, r24
     22e:	09 f4       	brne	.+2      	; 0x232 <main+0x10c>
            {
                state = AUS ;//setzen;
     230:	92 c0       	rjmp	.+292    	; 0x356 <main+0x230>
     232:	10 e0       	ldi	r17, 0x00	; 0
            }
            
            break;
            case MUSTER_WECHSELN:
            lcdLog("Muster Wechseln     ");
     234:	90 c0       	rjmp	.+288    	; 0x356 <main+0x230>
     236:	89 e4       	ldi	r24, 0x49	; 73
     238:	92 e0       	ldi	r25, 0x02	; 2
     23a:	9f 93       	push	r25
     23c:	8f 93       	push	r24
     23e:	f4 d3       	rcall	.+2024   	; 0xa28 <lcdLog>
            if (spannung_mV < AKKU_LEER)
     240:	0f 90       	pop	r0
     242:	0f 90       	pop	r0
     244:	24 ee       	ldi	r18, 0xE4	; 228
     246:	62 16       	cp	r6, r18
     248:	2c e0       	ldi	r18, 0x0C	; 12
     24a:	72 06       	cpc	r7, r18
     24c:	08 f4       	brcc	.+2      	; 0x250 <main+0x12a>
            {
                state = AKKU ;
     24e:	12 e0       	ldi	r17, 0x02	; 2
            }
            if (power)
     250:	89 81       	ldd	r24, Y+1	; 0x01
     252:	81 11       	cpse	r24, r1
            {
                state = AUS ;//setzen;
     254:	10 e0       	ldi	r17, 0x00	; 0
            }
            leds = DECORDER [i]; //Array
     256:	eb 81       	ldd	r30, Y+3	; 0x03
     258:	fc 81       	ldd	r31, Y+4	; 0x04
     25a:	ee 0f       	add	r30, r30
     25c:	ff 1f       	adc	r31, r31
     25e:	e2 5a       	subi	r30, 0xA2	; 162
     260:	fd 4f       	sbci	r31, 0xFD	; 253
     262:	50 80       	ld	r5, Z
     264:	21 80       	ldd	r2, Z+1	; 0x01
            if (muster)
     266:	9d 81       	ldd	r25, Y+5	; 0x05
     268:	99 23       	and	r25, r25
     26a:	79 f0       	breq	.+30     	; 0x28a <main+0x164>
            {
                i = i+1;
     26c:	8b 81       	ldd	r24, Y+3	; 0x03
     26e:	9c 81       	ldd	r25, Y+4	; 0x04
     270:	01 96       	adiw	r24, 0x01	; 1
     272:	9c 83       	std	Y+4, r25	; 0x04
     274:	8b 83       	std	Y+3, r24	; 0x03
                if (i>16)
     276:	41 97       	sbiw	r24, 0x11	; 17
     278:	40 f0       	brcs	.+16     	; 0x28a <main+0x164>
                {
                    i=0;
     27a:	1c 82       	std	Y+4, r1	; 0x04
     27c:	1b 82       	std	Y+3, r1	; 0x03
     27e:	05 c0       	rjmp	.+10     	; 0x28a <main+0x164>

            break;
            case AN:
            lcdLog("An                  ");
            rot=0;
            gruen=250;
     280:	0f 2e       	mov	r0, r31
     282:	fa ef       	ldi	r31, 0xFA	; 250
     284:	4f 2e       	mov	r4, r31
     286:	f0 2d       	mov	r31, r0
            }

            break;
            case AN:
            lcdLog("An                  ");
            rot=0;
     288:	31 2c       	mov	r3, r1
            break;
            default:
            ;
        }
        //Ausgabe------------------------------------------------------------------
        if (blink)
     28a:	9a 81       	ldd	r25, Y+2	; 0x02
     28c:	99 23       	and	r25, r25
     28e:	a1 f1       	breq	.+104    	; 0x2f8 <main+0x1d2>
        {
            if (timerBlink_ms >= ON_TIME)
     290:	2c 2d       	mov	r18, r12
     292:	3d 2d       	mov	r19, r13
     294:	4e 2d       	mov	r20, r14
     296:	5f 2d       	mov	r21, r15
     298:	60 2f       	mov	r22, r16
     29a:	7b 2d       	mov	r23, r11
     29c:	8a 2d       	mov	r24, r10
     29e:	98 2d       	mov	r25, r8
     2a0:	25 39       	cpi	r18, 0x95	; 149
     2a2:	31 05       	cpc	r19, r1
     2a4:	41 05       	cpc	r20, r1
     2a6:	51 05       	cpc	r21, r1
     2a8:	61 05       	cpc	r22, r1
     2aa:	71 05       	cpc	r23, r1
     2ac:	81 05       	cpc	r24, r1
     2ae:	91 05       	cpc	r25, r1
     2b0:	19 f0       	breq	.+6      	; 0x2b8 <main+0x192>
     2b2:	10 f0       	brcs	.+4      	; 0x2b8 <main+0x192>
            {
                rot=0;
                gruen=0;
     2b4:	41 2c       	mov	r4, r1
        //Ausgabe------------------------------------------------------------------
        if (blink)
        {
            if (timerBlink_ms >= ON_TIME)
            {
                rot=0;
     2b6:	31 2c       	mov	r3, r1
                gruen=0;
                blau=0;
            }
            if (timerBlink_ms >= PERIOD)
     2b8:	2c 2d       	mov	r18, r12
     2ba:	3d 2d       	mov	r19, r13
     2bc:	4e 2d       	mov	r20, r14
     2be:	5f 2d       	mov	r21, r15
     2c0:	60 2f       	mov	r22, r16
     2c2:	7b 2d       	mov	r23, r11
     2c4:	8a 2d       	mov	r24, r10
     2c6:	98 2d       	mov	r25, r8
     2c8:	27 3c       	cpi	r18, 0xC7	; 199
     2ca:	31 05       	cpc	r19, r1
     2cc:	41 05       	cpc	r20, r1
     2ce:	51 05       	cpc	r21, r1
     2d0:	61 05       	cpc	r22, r1
     2d2:	71 05       	cpc	r23, r1
     2d4:	81 05       	cpc	r24, r1
     2d6:	91 05       	cpc	r25, r1
     2d8:	d1 f0       	breq	.+52     	; 0x30e <main+0x1e8>
     2da:	c8 f0       	brcs	.+50     	; 0x30e <main+0x1e8>
            {
                rot=250;
                gruen=0;
     2dc:	41 2c       	mov	r4, r1
                gruen=0;
                blau=0;
            }
            if (timerBlink_ms >= PERIOD)
            {
                rot=250;
     2de:	0f 2e       	mov	r0, r31
     2e0:	fa ef       	ldi	r31, 0xFA	; 250
     2e2:	3f 2e       	mov	r3, r31
     2e4:	f0 2d       	mov	r31, r0
                gruen=0;
                blau=0;//RGB Rot blinkt;
                timerBlink_ms = 0;
     2e6:	c1 2c       	mov	r12, r1
     2e8:	d1 2c       	mov	r13, r1
     2ea:	e1 2c       	mov	r14, r1
     2ec:	f1 2c       	mov	r15, r1
     2ee:	00 e0       	ldi	r16, 0x00	; 0
     2f0:	b1 2c       	mov	r11, r1
     2f2:	a1 2c       	mov	r10, r1
     2f4:	81 2c       	mov	r8, r1
     2f6:	0b c0       	rjmp	.+22     	; 0x30e <main+0x1e8>
            }
        }
        else
        {
            timerBlink_ms = PERIOD;
     2f8:	0f 2e       	mov	r0, r31
     2fa:	f8 ec       	ldi	r31, 0xC8	; 200
     2fc:	cf 2e       	mov	r12, r31
     2fe:	f0 2d       	mov	r31, r0
     300:	d1 2c       	mov	r13, r1
     302:	e1 2c       	mov	r14, r1
     304:	f1 2c       	mov	r15, r1
     306:	00 e0       	ldi	r16, 0x00	; 0
     308:	b1 2c       	mov	r11, r1
     30a:	a1 2c       	mov	r10, r1
        }
        ledWriteAll(leds);
     30c:	81 2c       	mov	r8, r1
     30e:	85 2d       	mov	r24, r5
     310:	92 2d       	mov	r25, r2
        rgbWrite(rot,gruen,blau);
     312:	26 d0       	rcall	.+76     	; 0x360 <ledWriteAll>
     314:	64 2d       	mov	r22, r4
     316:	70 e0       	ldi	r23, 0x00	; 0
     318:	40 e0       	ldi	r20, 0x00	; 0
     31a:	50 e0       	ldi	r21, 0x00	; 0
     31c:	83 2d       	mov	r24, r3
     31e:	90 e0       	ldi	r25, 0x00	; 0
     320:	52 d0       	rcall	.+164    	; 0x3c6 <rgbWrite>
	#else
		//round up by default
		__ticks_dc = (uint32_t)(ceil(fabs(__tmp)));
	#endif

	__builtin_avr_delay_cycles(__ticks_dc);
     322:	8f e3       	ldi	r24, 0x3F	; 63
     324:	9c e9       	ldi	r25, 0x9C	; 156
     326:	01 97       	sbiw	r24, 0x01	; 1
     328:	f1 f7       	brne	.-4      	; 0x326 <main+0x200>
     32a:	00 c0       	rjmp	.+0      	; 0x32c <main+0x206>
        //Warten-------------------------------------------------------------------
        _delay_ms(SYSTEM_TICK_MS);
        timerBlink_ms = timerBlink_ms + SYSTEM_TICK_MS;
     32c:	00 00       	nop
     32e:	2c 2d       	mov	r18, r12
     330:	3d 2d       	mov	r19, r13
     332:	4e 2d       	mov	r20, r14
     334:	5f 2d       	mov	r21, r15
     336:	60 2f       	mov	r22, r16
     338:	7b 2d       	mov	r23, r11
     33a:	8a 2d       	mov	r24, r10
     33c:	98 2d       	mov	r25, r8
     33e:	aa e0       	ldi	r26, 0x0A	; 10
     340:	f4 d5       	rcall	.+3048   	; 0xf2a <__adddi3_s8>
     342:	c2 2e       	mov	r12, r18
     344:	d3 2e       	mov	r13, r19
     346:	e4 2e       	mov	r14, r20
     348:	f5 2e       	mov	r15, r21
     34a:	06 2f       	mov	r16, r22
     34c:	b7 2e       	mov	r11, r23
     34e:	a8 2e       	mov	r10, r24
     350:	89 2e       	mov	r8, r25
    //Unendlichschlaufe
    while(1)
    {
        //Eingabe------------------------------------------------------------------
        inTasterAlt = inTaster;
        inTaster = buttonReadAllPL();
     352:	9d 82       	std	Y+5, r9	; 0x05
        ledWriteAll(leds);
        rgbWrite(rot,gruen,blau);
        //Warten-------------------------------------------------------------------
        _delay_ms(SYSTEM_TICK_MS);
        timerBlink_ms = timerBlink_ms + SYSTEM_TICK_MS;
    }
     354:	04 cf       	rjmp	.-504    	; 0x15e <main+0x38>
            if (muster)
            {
                i = i+1;
                if (i>16)
                {
                    i=0;
     356:	91 e0       	ldi	r25, 0x01	; 1
     358:	9a 83       	std	Y+2, r25	; 0x02
     35a:	51 2c       	mov	r5, r1
     35c:	21 2c       	mov	r2, r1
     35e:	98 cf       	rjmp	.-208    	; 0x290 <main+0x16a>

00000360 <ledWriteAll>:
     360:	82 b9       	out	0x02, r24	; 2
     362:	95 b9       	out	0x05, r25	; 5
     364:	08 95       	ret

00000366 <switchReadAll>:
     366:	86 b1       	in	r24, 0x06	; 6
     368:	08 95       	ret

0000036a <buttonReadAllPL>:
     36a:	80 91 09 01 	lds	r24, 0x0109	; 0x800109 <__TEXT_REGION_LENGTH__+0x700109>
     36e:	08 95       	ret

00000370 <startSystemTimeMs>:
     370:	83 e0       	ldi	r24, 0x03	; 3
     372:	84 bd       	out	0x24, r24	; 36
     374:	8b e0       	ldi	r24, 0x0B	; 11
     376:	85 bd       	out	0x25, r24	; 37
     378:	81 e0       	ldi	r24, 0x01	; 1
     37a:	80 93 6e 00 	sts	0x006E, r24	; 0x80006e <__TEXT_REGION_LENGTH__+0x70006e>
     37e:	89 ef       	ldi	r24, 0xF9	; 249
     380:	87 bd       	out	0x27, r24	; 39
     382:	08 95       	ret

00000384 <initAdc>:
     384:	11 ba       	out	0x11, r1	; 17
     386:	10 ba       	out	0x10, r1	; 16
     388:	10 92 08 01 	sts	0x0108, r1	; 0x800108 <__TEXT_REGION_LENGTH__+0x700108>
     38c:	10 92 07 01 	sts	0x0107, r1	; 0x800107 <__TEXT_REGION_LENGTH__+0x700107>
     390:	80 e4       	ldi	r24, 0x40	; 64
     392:	80 93 7c 00 	sts	0x007C, r24	; 0x80007c <__TEXT_REGION_LENGTH__+0x70007c>
     396:	8f e0       	ldi	r24, 0x0F	; 15
     398:	80 93 7e 00 	sts	0x007E, r24	; 0x80007e <__TEXT_REGION_LENGTH__+0x70007e>
     39c:	8f ef       	ldi	r24, 0xFF	; 255
     39e:	80 93 7d 00 	sts	0x007D, r24	; 0x80007d <__TEXT_REGION_LENGTH__+0x70007d>
     3a2:	ea e7       	ldi	r30, 0x7A	; 122
     3a4:	f0 e0       	ldi	r31, 0x00	; 0
     3a6:	87 ea       	ldi	r24, 0xA7	; 167
     3a8:	80 83       	st	Z, r24
     3aa:	10 92 7b 00 	sts	0x007B, r1	; 0x80007b <__TEXT_REGION_LENGTH__+0x70007b>
     3ae:	80 81       	ld	r24, Z
     3b0:	80 64       	ori	r24, 0x40	; 64
     3b2:	80 83       	st	Z, r24
     3b4:	80 81       	ld	r24, Z
     3b6:	84 ff       	sbrs	r24, 4
     3b8:	fd cf       	rjmp	.-6      	; 0x3b4 <initAdc+0x30>
     3ba:	ea e7       	ldi	r30, 0x7A	; 122
     3bc:	f0 e0       	ldi	r31, 0x00	; 0
     3be:	80 81       	ld	r24, Z
     3c0:	8f 7e       	andi	r24, 0xEF	; 239
     3c2:	80 83       	st	Z, r24
     3c4:	08 95       	ret

000003c6 <rgbWrite>:
     3c6:	2f ef       	ldi	r18, 0xFF	; 255
     3c8:	33 e0       	ldi	r19, 0x03	; 3
     3ca:	f9 01       	movw	r30, r18
     3cc:	e8 1b       	sub	r30, r24
     3ce:	f9 0b       	sbc	r31, r25
     3d0:	c9 01       	movw	r24, r18
     3d2:	86 1b       	sub	r24, r22
     3d4:	97 0b       	sbc	r25, r23
     3d6:	24 1b       	sub	r18, r20
     3d8:	35 0b       	sbc	r19, r21
     3da:	f0 93 a9 00 	sts	0x00A9, r31	; 0x8000a9 <__TEXT_REGION_LENGTH__+0x7000a9>
     3de:	e0 93 a8 00 	sts	0x00A8, r30	; 0x8000a8 <__TEXT_REGION_LENGTH__+0x7000a8>
     3e2:	90 93 ab 00 	sts	0x00AB, r25	; 0x8000ab <__TEXT_REGION_LENGTH__+0x7000ab>
     3e6:	80 93 aa 00 	sts	0x00AA, r24	; 0x8000aa <__TEXT_REGION_LENGTH__+0x7000aa>
     3ea:	30 93 ad 00 	sts	0x00AD, r19	; 0x8000ad <__TEXT_REGION_LENGTH__+0x7000ad>
     3ee:	20 93 ac 00 	sts	0x00AC, r18	; 0x8000ac <__TEXT_REGION_LENGTH__+0x7000ac>
     3f2:	08 95       	ret

000003f4 <initRgb>:
     3f4:	8e ef       	ldi	r24, 0xFE	; 254
     3f6:	80 93 a0 00 	sts	0x00A0, r24	; 0x8000a0 <__TEXT_REGION_LENGTH__+0x7000a0>
     3fa:	8b e1       	ldi	r24, 0x1B	; 27
     3fc:	80 93 a1 00 	sts	0x00A1, r24	; 0x8000a1 <__TEXT_REGION_LENGTH__+0x7000a1>
     400:	83 e0       	ldi	r24, 0x03	; 3
     402:	80 93 a7 00 	sts	0x00A7, r24	; 0x8000a7 <__TEXT_REGION_LENGTH__+0x7000a7>
     406:	8f ef       	ldi	r24, 0xFF	; 255
     408:	80 93 a6 00 	sts	0x00A6, r24	; 0x8000a6 <__TEXT_REGION_LENGTH__+0x7000a6>
     40c:	40 e0       	ldi	r20, 0x00	; 0
     40e:	50 e0       	ldi	r21, 0x00	; 0
     410:	60 e0       	ldi	r22, 0x00	; 0
     412:	70 e0       	ldi	r23, 0x00	; 0
     414:	80 e0       	ldi	r24, 0x00	; 0
     416:	90 e0       	ldi	r25, 0x00	; 0
     418:	d6 cf       	rjmp	.-84     	; 0x3c6 <rgbWrite>
     41a:	08 95       	ret

0000041c <lcdSid>:
     41c:	88 23       	and	r24, r24
     41e:	11 f0       	breq	.+4      	; 0x424 <lcdSid+0x8>
     420:	a0 9a       	sbi	0x14, 0	; 20
     422:	08 95       	ret
     424:	a0 98       	cbi	0x14, 0	; 20
     426:	08 95       	ret

00000428 <lcdSclk>:
     428:	88 23       	and	r24, r24
     42a:	11 f0       	breq	.+4      	; 0x430 <lcdSclk+0x8>
     42c:	a1 9a       	sbi	0x14, 1	; 20
     42e:	08 95       	ret
     430:	a1 98       	cbi	0x14, 1	; 20
     432:	08 95       	ret

00000434 <lcdLight>:
     434:	81 11       	cpse	r24, r1
     436:	04 c0       	rjmp	.+8      	; 0x440 <lcdLight+0xc>
     438:	84 b5       	in	r24, 0x24	; 36
     43a:	8f 7d       	andi	r24, 0xDF	; 223
     43c:	84 bd       	out	0x24, r24	; 36
     43e:	08 95       	ret
     440:	94 b5       	in	r25, 0x24	; 36
     442:	90 62       	ori	r25, 0x20	; 32
     444:	94 bd       	out	0x24, r25	; 36
     446:	88 bd       	out	0x28, r24	; 40
     448:	08 95       	ret

0000044a <writeLcdF>:
     44a:	ef 92       	push	r14
     44c:	ff 92       	push	r15
     44e:	0f 93       	push	r16
     450:	1f 93       	push	r17
     452:	cf 93       	push	r28
     454:	df 93       	push	r29
     456:	7c 01       	movw	r14, r24
     458:	eb 01       	movw	r28, r22
     45a:	81 e0       	ldi	r24, 0x01	; 1
     45c:	df df       	rcall	.-66     	; 0x41c <lcdSid>
     45e:	05 e0       	ldi	r16, 0x05	; 5
     460:	10 e0       	ldi	r17, 0x00	; 0
     462:	80 e0       	ldi	r24, 0x00	; 0
     464:	e1 df       	rcall	.-62     	; 0x428 <lcdSclk>
     466:	81 e0       	ldi	r24, 0x01	; 1
     468:	df df       	rcall	.-66     	; 0x428 <lcdSclk>
     46a:	01 50       	subi	r16, 0x01	; 1
     46c:	11 09       	sbc	r17, r1
     46e:	c9 f7       	brne	.-14     	; 0x462 <writeLcdF+0x18>
     470:	80 e0       	ldi	r24, 0x00	; 0
     472:	d4 df       	rcall	.-88     	; 0x41c <lcdSid>
     474:	80 e0       	ldi	r24, 0x00	; 0
     476:	d8 df       	rcall	.-80     	; 0x428 <lcdSclk>
     478:	81 e0       	ldi	r24, 0x01	; 1
     47a:	d6 df       	rcall	.-84     	; 0x428 <lcdSclk>
     47c:	83 e4       	ldi	r24, 0x43	; 67
     47e:	e8 16       	cp	r14, r24
     480:	f1 04       	cpc	r15, r1
     482:	19 f4       	brne	.+6      	; 0x48a <writeLcdF+0x40>
     484:	80 e0       	ldi	r24, 0x00	; 0
     486:	ca df       	rcall	.-108    	; 0x41c <lcdSid>
     488:	02 c0       	rjmp	.+4      	; 0x48e <writeLcdF+0x44>
     48a:	81 e0       	ldi	r24, 0x01	; 1
     48c:	c7 df       	rcall	.-114    	; 0x41c <lcdSid>
     48e:	80 e0       	ldi	r24, 0x00	; 0
     490:	cb df       	rcall	.-106    	; 0x428 <lcdSclk>
     492:	81 e0       	ldi	r24, 0x01	; 1
     494:	c9 df       	rcall	.-110    	; 0x428 <lcdSclk>
     496:	80 e0       	ldi	r24, 0x00	; 0
     498:	c1 df       	rcall	.-126    	; 0x41c <lcdSid>
     49a:	80 e0       	ldi	r24, 0x00	; 0
     49c:	c5 df       	rcall	.-118    	; 0x428 <lcdSclk>
     49e:	81 e0       	ldi	r24, 0x01	; 1
     4a0:	c3 df       	rcall	.-122    	; 0x428 <lcdSclk>
     4a2:	04 e0       	ldi	r16, 0x04	; 4
     4a4:	10 e0       	ldi	r17, 0x00	; 0
     4a6:	80 e0       	ldi	r24, 0x00	; 0
     4a8:	bf df       	rcall	.-130    	; 0x428 <lcdSclk>
     4aa:	c0 ff       	sbrs	r28, 0
     4ac:	03 c0       	rjmp	.+6      	; 0x4b4 <writeLcdF+0x6a>
     4ae:	81 e0       	ldi	r24, 0x01	; 1
     4b0:	b5 df       	rcall	.-150    	; 0x41c <lcdSid>
     4b2:	02 c0       	rjmp	.+4      	; 0x4b8 <writeLcdF+0x6e>
     4b4:	80 e0       	ldi	r24, 0x00	; 0
     4b6:	b2 df       	rcall	.-156    	; 0x41c <lcdSid>
     4b8:	d6 95       	lsr	r29
     4ba:	c7 95       	ror	r28
     4bc:	80 e0       	ldi	r24, 0x00	; 0
     4be:	b4 df       	rcall	.-152    	; 0x428 <lcdSclk>
     4c0:	81 e0       	ldi	r24, 0x01	; 1
     4c2:	b2 df       	rcall	.-156    	; 0x428 <lcdSclk>
     4c4:	01 50       	subi	r16, 0x01	; 1
     4c6:	11 09       	sbc	r17, r1
     4c8:	71 f7       	brne	.-36     	; 0x4a6 <writeLcdF+0x5c>
     4ca:	80 e0       	ldi	r24, 0x00	; 0
     4cc:	a7 df       	rcall	.-178    	; 0x41c <lcdSid>
     4ce:	04 e0       	ldi	r16, 0x04	; 4
     4d0:	10 e0       	ldi	r17, 0x00	; 0
     4d2:	80 e0       	ldi	r24, 0x00	; 0
     4d4:	a9 df       	rcall	.-174    	; 0x428 <lcdSclk>
     4d6:	81 e0       	ldi	r24, 0x01	; 1
     4d8:	a7 df       	rcall	.-178    	; 0x428 <lcdSclk>
     4da:	01 50       	subi	r16, 0x01	; 1
     4dc:	11 09       	sbc	r17, r1
     4de:	c9 f7       	brne	.-14     	; 0x4d2 <writeLcdF+0x88>
     4e0:	04 e0       	ldi	r16, 0x04	; 4
     4e2:	10 e0       	ldi	r17, 0x00	; 0
     4e4:	80 e0       	ldi	r24, 0x00	; 0
     4e6:	a0 df       	rcall	.-192    	; 0x428 <lcdSclk>
     4e8:	c0 ff       	sbrs	r28, 0
     4ea:	03 c0       	rjmp	.+6      	; 0x4f2 <writeLcdF+0xa8>
     4ec:	81 e0       	ldi	r24, 0x01	; 1
     4ee:	96 df       	rcall	.-212    	; 0x41c <lcdSid>
     4f0:	02 c0       	rjmp	.+4      	; 0x4f6 <writeLcdF+0xac>
     4f2:	80 e0       	ldi	r24, 0x00	; 0
     4f4:	93 df       	rcall	.-218    	; 0x41c <lcdSid>
     4f6:	d6 95       	lsr	r29
     4f8:	c7 95       	ror	r28
     4fa:	80 e0       	ldi	r24, 0x00	; 0
     4fc:	95 df       	rcall	.-214    	; 0x428 <lcdSclk>
     4fe:	81 e0       	ldi	r24, 0x01	; 1
     500:	93 df       	rcall	.-218    	; 0x428 <lcdSclk>
     502:	01 50       	subi	r16, 0x01	; 1
     504:	11 09       	sbc	r17, r1
     506:	71 f7       	brne	.-36     	; 0x4e4 <writeLcdF+0x9a>
     508:	80 e0       	ldi	r24, 0x00	; 0
     50a:	88 df       	rcall	.-240    	; 0x41c <lcdSid>
     50c:	c4 e0       	ldi	r28, 0x04	; 4
     50e:	d0 e0       	ldi	r29, 0x00	; 0
     510:	80 e0       	ldi	r24, 0x00	; 0
     512:	8a df       	rcall	.-236    	; 0x428 <lcdSclk>
     514:	81 e0       	ldi	r24, 0x01	; 1
     516:	88 df       	rcall	.-240    	; 0x428 <lcdSclk>
     518:	21 97       	sbiw	r28, 0x01	; 1
     51a:	d1 f7       	brne	.-12     	; 0x510 <writeLcdF+0xc6>
     51c:	81 e0       	ldi	r24, 0x01	; 1
     51e:	7e df       	rcall	.-260    	; 0x41c <lcdSid>
     520:	87 ec       	ldi	r24, 0xC7	; 199
     522:	90 e0       	ldi	r25, 0x00	; 0
     524:	01 97       	sbiw	r24, 0x01	; 1
     526:	f1 f7       	brne	.-4      	; 0x524 <writeLcdF+0xda>
     528:	00 c0       	rjmp	.+0      	; 0x52a <writeLcdF+0xe0>
     52a:	00 00       	nop
     52c:	df 91       	pop	r29
     52e:	cf 91       	pop	r28
     530:	1f 91       	pop	r17
     532:	0f 91       	pop	r16
     534:	ff 90       	pop	r15
     536:	ef 90       	pop	r14
     538:	08 95       	ret

0000053a <lcdWriteText>:
     53a:	1f 93       	push	r17
     53c:	cf 93       	push	r28
     53e:	df 93       	push	r29
     540:	cd b7       	in	r28, 0x3d	; 61
     542:	de b7       	in	r29, 0x3e	; 62
     544:	65 97       	sbiw	r28, 0x15	; 21
     546:	0f b6       	in	r0, 0x3f	; 63
     548:	f8 94       	cli
     54a:	de bf       	out	0x3e, r29	; 62
     54c:	0f be       	out	0x3f, r0	; 63
     54e:	cd bf       	out	0x3d, r28	; 61
     550:	9e 01       	movw	r18, r28
     552:	20 5e       	subi	r18, 0xE0	; 224
     554:	3f 4f       	sbci	r19, 0xFF	; 255
     556:	4e 8d       	ldd	r20, Y+30	; 0x1e
     558:	5f 8d       	ldd	r21, Y+31	; 0x1f
     55a:	65 e1       	ldi	r22, 0x15	; 21
     55c:	70 e0       	ldi	r23, 0x00	; 0
     55e:	ce 01       	movw	r24, r28
     560:	01 96       	adiw	r24, 0x01	; 1
     562:	f8 d4       	rcall	.+2544   	; 0xf54 <vsnprintf>
     564:	6d 8d       	ldd	r22, Y+29	; 0x1d
     566:	8c 8d       	ldd	r24, Y+28	; 0x1c
     568:	90 e2       	ldi	r25, 0x20	; 32
     56a:	89 9f       	mul	r24, r25
     56c:	60 0d       	add	r22, r0
     56e:	11 24       	eor	r1, r1
     570:	60 68       	ori	r22, 0x80	; 128
     572:	70 e0       	ldi	r23, 0x00	; 0
     574:	83 e4       	ldi	r24, 0x43	; 67
     576:	90 e0       	ldi	r25, 0x00	; 0
     578:	68 df       	rcall	.-304    	; 0x44a <writeLcdF>
     57a:	69 81       	ldd	r22, Y+1	; 0x01
     57c:	66 23       	and	r22, r22
     57e:	79 f0       	breq	.+30     	; 0x59e <lcdWriteText+0x64>
     580:	10 e0       	ldi	r17, 0x00	; 0
     582:	1f 5f       	subi	r17, 0xFF	; 255
     584:	70 e0       	ldi	r23, 0x00	; 0
     586:	84 e4       	ldi	r24, 0x44	; 68
     588:	90 e0       	ldi	r25, 0x00	; 0
     58a:	5f df       	rcall	.-322    	; 0x44a <writeLcdF>
     58c:	e1 e0       	ldi	r30, 0x01	; 1
     58e:	f0 e0       	ldi	r31, 0x00	; 0
     590:	ec 0f       	add	r30, r28
     592:	fd 1f       	adc	r31, r29
     594:	e1 0f       	add	r30, r17
     596:	f1 1d       	adc	r31, r1
     598:	60 81       	ld	r22, Z
     59a:	61 11       	cpse	r22, r1
     59c:	f2 cf       	rjmp	.-28     	; 0x582 <lcdWriteText+0x48>
     59e:	65 96       	adiw	r28, 0x15	; 21
     5a0:	0f b6       	in	r0, 0x3f	; 63
     5a2:	f8 94       	cli
     5a4:	de bf       	out	0x3e, r29	; 62
     5a6:	0f be       	out	0x3f, r0	; 63
     5a8:	cd bf       	out	0x3d, r28	; 61
     5aa:	df 91       	pop	r29
     5ac:	cf 91       	pop	r28
     5ae:	1f 91       	pop	r17
     5b0:	08 95       	ret

000005b2 <lcdWriteZahl>:
     5b2:	2f 92       	push	r2
     5b4:	3f 92       	push	r3
     5b6:	4f 92       	push	r4
     5b8:	5f 92       	push	r5
     5ba:	6f 92       	push	r6
     5bc:	7f 92       	push	r7
     5be:	8f 92       	push	r8
     5c0:	9f 92       	push	r9
     5c2:	af 92       	push	r10
     5c4:	bf 92       	push	r11
     5c6:	cf 92       	push	r12
     5c8:	df 92       	push	r13
     5ca:	ef 92       	push	r14
     5cc:	ff 92       	push	r15
     5ce:	0f 93       	push	r16
     5d0:	1f 93       	push	r17
     5d2:	cf 93       	push	r28
     5d4:	df 93       	push	r29
     5d6:	cd b7       	in	r28, 0x3d	; 61
     5d8:	de b7       	in	r29, 0x3e	; 62
     5da:	e3 97       	sbiw	r28, 0x33	; 51
     5dc:	0f b6       	in	r0, 0x3f	; 63
     5de:	f8 94       	cli
     5e0:	de bf       	out	0x3e, r29	; 62
     5e2:	0f be       	out	0x3f, r0	; 63
     5e4:	cd bf       	out	0x3d, r28	; 61
     5e6:	8a ab       	std	Y+50, r24	; 0x32
     5e8:	6b ab       	std	Y+51, r22	; 0x33
     5ea:	ed a6       	std	Y+45, r14	; 0x2d
     5ec:	fe a6       	std	Y+46, r15	; 0x2e
     5ee:	70 2e       	mov	r7, r16
     5f0:	61 2e       	mov	r6, r17
     5f2:	52 2e       	mov	r5, r18
     5f4:	43 2e       	mov	r4, r19
     5f6:	cf a6       	std	Y+47, r12	; 0x2f
     5f8:	a8 aa       	std	Y+48, r10	; 0x30
     5fa:	8c 2d       	mov	r24, r12
     5fc:	8a 0d       	add	r24, r10
     5fe:	89 ab       	std	Y+49, r24	; 0x31
     600:	85 31       	cpi	r24, 0x15	; 21
     602:	70 f0       	brcs	.+28     	; 0x620 <lcdWriteZahl+0x6e>
     604:	8e e7       	ldi	r24, 0x7E	; 126
     606:	92 e0       	ldi	r25, 0x02	; 2
     608:	9f 93       	push	r25
     60a:	8f 93       	push	r24
     60c:	9b a9       	ldd	r25, Y+51	; 0x33
     60e:	9f 93       	push	r25
     610:	ea a9       	ldd	r30, Y+50	; 0x32
     612:	ef 93       	push	r30
     614:	92 df       	rcall	.-220    	; 0x53a <lcdWriteText>
     616:	0f 90       	pop	r0
     618:	0f 90       	pop	r0
     61a:	0f 90       	pop	r0
     61c:	0f 90       	pop	r0
     61e:	a8 c0       	rjmp	.+336    	; 0x770 <lcdWriteZahl+0x1be>
     620:	4e 01       	movw	r8, r28
     622:	f5 e1       	ldi	r31, 0x15	; 21
     624:	8f 0e       	add	r8, r31
     626:	91 1c       	adc	r9, r1
     628:	ce 01       	movw	r24, r28
     62a:	01 96       	adiw	r24, 0x01	; 1
     62c:	9c a7       	std	Y+44, r25	; 0x2c
     62e:	8b a7       	std	Y+43, r24	; 0x2b
     630:	24 2e       	mov	r2, r20
     632:	35 2e       	mov	r3, r21
     634:	0f 2e       	mov	r0, r31
     636:	fa e0       	ldi	r31, 0x0A	; 10
     638:	af 2e       	mov	r10, r31
     63a:	f0 2d       	mov	r31, r0
     63c:	b1 2c       	mov	r11, r1
     63e:	c1 2c       	mov	r12, r1
     640:	d1 2c       	mov	r13, r1
     642:	e1 2c       	mov	r14, r1
     644:	f1 2c       	mov	r15, r1
     646:	00 e0       	ldi	r16, 0x00	; 0
     648:	10 e0       	ldi	r17, 0x00	; 0
     64a:	2d a5       	ldd	r18, Y+45	; 0x2d
     64c:	3e a5       	ldd	r19, Y+46	; 0x2e
     64e:	47 2d       	mov	r20, r7
     650:	56 2d       	mov	r21, r6
     652:	65 2d       	mov	r22, r5
     654:	74 2d       	mov	r23, r4
     656:	82 2d       	mov	r24, r2
     658:	93 2d       	mov	r25, r3
     65a:	09 d4       	rcall	.+2066   	; 0xe6e <__umoddi3>
     65c:	20 5d       	subi	r18, 0xD0	; 208
     65e:	f4 01       	movw	r30, r8
     660:	22 93       	st	-Z, r18
     662:	4f 01       	movw	r8, r30
     664:	2d a5       	ldd	r18, Y+45	; 0x2d
     666:	3e a5       	ldd	r19, Y+46	; 0x2e
     668:	47 2d       	mov	r20, r7
     66a:	56 2d       	mov	r21, r6
     66c:	65 2d       	mov	r22, r5
     66e:	74 2d       	mov	r23, r4
     670:	82 2d       	mov	r24, r2
     672:	93 2d       	mov	r25, r3
     674:	fe d3       	rcall	.+2044   	; 0xe72 <__udivdi3>
     676:	2d a7       	std	Y+45, r18	; 0x2d
     678:	3e a7       	std	Y+46, r19	; 0x2e
     67a:	74 2e       	mov	r7, r20
     67c:	65 2e       	mov	r6, r21
     67e:	56 2e       	mov	r5, r22
     680:	47 2e       	mov	r4, r23
     682:	28 2e       	mov	r2, r24
     684:	39 2e       	mov	r3, r25
     686:	8b a5       	ldd	r24, Y+43	; 0x2b
     688:	9c a5       	ldd	r25, Y+44	; 0x2c
     68a:	88 15       	cp	r24, r8
     68c:	99 05       	cpc	r25, r9
     68e:	91 f6       	brne	.-92     	; 0x634 <lcdWriteZahl+0x82>
     690:	84 e1       	ldi	r24, 0x14	; 20
     692:	99 a9       	ldd	r25, Y+49	; 0x31
     694:	89 1b       	sub	r24, r25
     696:	ef a5       	ldd	r30, Y+47	; 0x2f
     698:	ee 23       	and	r30, r30
     69a:	89 f0       	breq	.+34     	; 0x6be <lcdWriteZahl+0x10c>
     69c:	fe 01       	movw	r30, r28
     69e:	75 96       	adiw	r30, 0x15	; 21
     6a0:	2f a5       	ldd	r18, Y+47	; 0x2f
     6a2:	28 0f       	add	r18, r24
     6a4:	a1 e0       	ldi	r26, 0x01	; 1
     6a6:	b0 e0       	ldi	r27, 0x00	; 0
     6a8:	ac 0f       	add	r26, r28
     6aa:	bd 1f       	adc	r27, r29
     6ac:	a8 0f       	add	r26, r24
     6ae:	b1 1d       	adc	r27, r1
     6b0:	9c 91       	ld	r25, X
     6b2:	91 93       	st	Z+, r25
     6b4:	8f 5f       	subi	r24, 0xFF	; 255
     6b6:	82 13       	cpse	r24, r18
     6b8:	f5 cf       	rjmp	.-22     	; 0x6a4 <lcdWriteZahl+0xf2>
     6ba:	3f a5       	ldd	r19, Y+47	; 0x2f
     6bc:	02 c0       	rjmp	.+4      	; 0x6c2 <lcdWriteZahl+0x110>
     6be:	28 2f       	mov	r18, r24
     6c0:	3f a5       	ldd	r19, Y+47	; 0x2f
     6c2:	f8 a9       	ldd	r31, Y+48	; 0x30
     6c4:	ff 23       	and	r31, r31
     6c6:	f1 f0       	breq	.+60     	; 0x704 <lcdWriteZahl+0x152>
     6c8:	fe 01       	movw	r30, r28
     6ca:	e3 0f       	add	r30, r19
     6cc:	f1 1d       	adc	r31, r1
     6ce:	8e e2       	ldi	r24, 0x2E	; 46
     6d0:	85 8b       	std	Z+21, r24	; 0x15
     6d2:	91 e0       	ldi	r25, 0x01	; 1
     6d4:	93 0f       	add	r25, r19
     6d6:	38 a9       	ldd	r19, Y+48	; 0x30
     6d8:	39 0f       	add	r19, r25
     6da:	89 2f       	mov	r24, r25
     6dc:	29 1b       	sub	r18, r25
     6de:	e5 e1       	ldi	r30, 0x15	; 21
     6e0:	f0 e0       	ldi	r31, 0x00	; 0
     6e2:	ec 0f       	add	r30, r28
     6e4:	fd 1f       	adc	r31, r29
     6e6:	e8 0f       	add	r30, r24
     6e8:	f1 1d       	adc	r31, r1
     6ea:	92 2f       	mov	r25, r18
     6ec:	98 0f       	add	r25, r24
     6ee:	a1 e0       	ldi	r26, 0x01	; 1
     6f0:	b0 e0       	ldi	r27, 0x00	; 0
     6f2:	ac 0f       	add	r26, r28
     6f4:	bd 1f       	adc	r27, r29
     6f6:	a9 0f       	add	r26, r25
     6f8:	b1 1d       	adc	r27, r1
     6fa:	9c 91       	ld	r25, X
     6fc:	90 83       	st	Z, r25
     6fe:	8f 5f       	subi	r24, 0xFF	; 255
     700:	38 13       	cpse	r19, r24
     702:	ed cf       	rjmp	.-38     	; 0x6de <lcdWriteZahl+0x12c>
     704:	fe 01       	movw	r30, r28
     706:	e3 0f       	add	r30, r19
     708:	f1 1d       	adc	r31, r1
     70a:	15 8a       	std	Z+21, r1	; 0x15
     70c:	8d 89       	ldd	r24, Y+21	; 0x15
     70e:	80 33       	cpi	r24, 0x30	; 48
     710:	11 f5       	brne	.+68     	; 0x756 <lcdWriteZahl+0x1a4>
     712:	8f a5       	ldd	r24, Y+47	; 0x2f
     714:	48 2f       	mov	r20, r24
     716:	50 e0       	ldi	r21, 0x00	; 0
     718:	41 50       	subi	r20, 0x01	; 1
     71a:	51 09       	sbc	r21, r1
     71c:	14 16       	cp	r1, r20
     71e:	15 06       	cpc	r1, r21
     720:	d4 f4       	brge	.+52     	; 0x756 <lcdWriteZahl+0x1a4>
     722:	80 e0       	ldi	r24, 0x00	; 0
     724:	90 e0       	ldi	r25, 0x00	; 0
     726:	20 e0       	ldi	r18, 0x00	; 0
     728:	60 e2       	ldi	r22, 0x20	; 32
     72a:	2f 5f       	subi	r18, 0xFF	; 255
     72c:	e5 e1       	ldi	r30, 0x15	; 21
     72e:	f0 e0       	ldi	r31, 0x00	; 0
     730:	ec 0f       	add	r30, r28
     732:	fd 1f       	adc	r31, r29
     734:	e8 0f       	add	r30, r24
     736:	f9 1f       	adc	r31, r25
     738:	60 83       	st	Z, r22
     73a:	82 2f       	mov	r24, r18
     73c:	90 e0       	ldi	r25, 0x00	; 0
     73e:	e5 e1       	ldi	r30, 0x15	; 21
     740:	f0 e0       	ldi	r31, 0x00	; 0
     742:	ec 0f       	add	r30, r28
     744:	fd 1f       	adc	r31, r29
     746:	e8 0f       	add	r30, r24
     748:	f9 1f       	adc	r31, r25
     74a:	30 81       	ld	r19, Z
     74c:	30 33       	cpi	r19, 0x30	; 48
     74e:	19 f4       	brne	.+6      	; 0x756 <lcdWriteZahl+0x1a4>
     750:	84 17       	cp	r24, r20
     752:	95 07       	cpc	r25, r21
     754:	54 f3       	brlt	.-44     	; 0x72a <lcdWriteZahl+0x178>
     756:	ce 01       	movw	r24, r28
     758:	45 96       	adiw	r24, 0x15	; 21
     75a:	9f 93       	push	r25
     75c:	8f 93       	push	r24
     75e:	9b a9       	ldd	r25, Y+51	; 0x33
     760:	9f 93       	push	r25
     762:	ea a9       	ldd	r30, Y+50	; 0x32
     764:	ef 93       	push	r30
     766:	e9 de       	rcall	.-558    	; 0x53a <lcdWriteText>
     768:	0f 90       	pop	r0
     76a:	0f 90       	pop	r0
     76c:	0f 90       	pop	r0
     76e:	0f 90       	pop	r0
     770:	e3 96       	adiw	r28, 0x33	; 51
     772:	0f b6       	in	r0, 0x3f	; 63
     774:	f8 94       	cli
     776:	de bf       	out	0x3e, r29	; 62
     778:	0f be       	out	0x3f, r0	; 63
     77a:	cd bf       	out	0x3d, r28	; 61
     77c:	df 91       	pop	r29
     77e:	cf 91       	pop	r28
     780:	1f 91       	pop	r17
     782:	0f 91       	pop	r16
     784:	ff 90       	pop	r15
     786:	ef 90       	pop	r14
     788:	df 90       	pop	r13
     78a:	cf 90       	pop	r12
     78c:	bf 90       	pop	r11
     78e:	af 90       	pop	r10
     790:	9f 90       	pop	r9
     792:	8f 90       	pop	r8
     794:	7f 90       	pop	r7
     796:	6f 90       	pop	r6
     798:	5f 90       	pop	r5
     79a:	4f 90       	pop	r4
     79c:	3f 90       	pop	r3
     79e:	2f 90       	pop	r2
     7a0:	08 95       	ret

000007a2 <lcdClear>:
     7a2:	61 e0       	ldi	r22, 0x01	; 1
     7a4:	70 e0       	ldi	r23, 0x00	; 0
     7a6:	83 e4       	ldi	r24, 0x43	; 67
     7a8:	90 e0       	ldi	r25, 0x00	; 0
     7aa:	4f de       	rcall	.-866    	; 0x44a <writeLcdF>
     7ac:	8f e3       	ldi	r24, 0x3F	; 63
     7ae:	9f e1       	ldi	r25, 0x1F	; 31
     7b0:	01 97       	sbiw	r24, 0x01	; 1
     7b2:	f1 f7       	brne	.-4      	; 0x7b0 <lcdClear+0xe>
     7b4:	00 c0       	rjmp	.+0      	; 0x7b6 <lcdClear+0x14>
     7b6:	00 00       	nop
     7b8:	82 e3       	ldi	r24, 0x32	; 50
     7ba:	92 e0       	ldi	r25, 0x02	; 2
     7bc:	9f 93       	push	r25
     7be:	8f 93       	push	r24
     7c0:	1f 92       	push	r1
     7c2:	1f 92       	push	r1
     7c4:	ba de       	rcall	.-652    	; 0x53a <lcdWriteText>
     7c6:	0f 90       	pop	r0
     7c8:	0f 90       	pop	r0
     7ca:	0f 90       	pop	r0
     7cc:	0f 90       	pop	r0
     7ce:	08 95       	ret

000007d0 <initLcd>:
     7d0:	81 e0       	ldi	r24, 0x01	; 1
     7d2:	2a de       	rcall	.-940    	; 0x428 <lcdSclk>
     7d4:	80 e0       	ldi	r24, 0x00	; 0
     7d6:	22 de       	rcall	.-956    	; 0x41c <lcdSid>
     7d8:	64 e3       	ldi	r22, 0x34	; 52
     7da:	70 e0       	ldi	r23, 0x00	; 0
     7dc:	83 e4       	ldi	r24, 0x43	; 67
     7de:	90 e0       	ldi	r25, 0x00	; 0
     7e0:	34 de       	rcall	.-920    	; 0x44a <writeLcdF>
     7e2:	69 e0       	ldi	r22, 0x09	; 9
     7e4:	70 e0       	ldi	r23, 0x00	; 0
     7e6:	83 e4       	ldi	r24, 0x43	; 67
     7e8:	90 e0       	ldi	r25, 0x00	; 0
     7ea:	2f de       	rcall	.-930    	; 0x44a <writeLcdF>
     7ec:	60 e3       	ldi	r22, 0x30	; 48
     7ee:	70 e0       	ldi	r23, 0x00	; 0
     7f0:	83 e4       	ldi	r24, 0x43	; 67
     7f2:	90 e0       	ldi	r25, 0x00	; 0
     7f4:	2a de       	rcall	.-940    	; 0x44a <writeLcdF>
     7f6:	6c e0       	ldi	r22, 0x0C	; 12
     7f8:	70 e0       	ldi	r23, 0x00	; 0
     7fa:	83 e4       	ldi	r24, 0x43	; 67
     7fc:	90 e0       	ldi	r25, 0x00	; 0
     7fe:	25 de       	rcall	.-950    	; 0x44a <writeLcdF>
     800:	d0 df       	rcall	.-96     	; 0x7a2 <lcdClear>
     802:	67 e0       	ldi	r22, 0x07	; 7
     804:	70 e0       	ldi	r23, 0x00	; 0
     806:	83 e4       	ldi	r24, 0x43	; 67
     808:	90 e0       	ldi	r25, 0x00	; 0
     80a:	1f de       	rcall	.-962    	; 0x44a <writeLcdF>
     80c:	80 e0       	ldi	r24, 0x00	; 0
     80e:	12 ce       	rjmp	.-988    	; 0x434 <lcdLight>
     810:	08 95       	ret

00000812 <initBoard>:
     812:	4f 92       	push	r4
     814:	5f 92       	push	r5
     816:	6f 92       	push	r6
     818:	7f 92       	push	r7
     81a:	8f 92       	push	r8
     81c:	9f 92       	push	r9
     81e:	af 92       	push	r10
     820:	bf 92       	push	r11
     822:	cf 92       	push	r12
     824:	df 92       	push	r13
     826:	ef 92       	push	r14
     828:	ff 92       	push	r15
     82a:	0f 93       	push	r16
     82c:	1f 93       	push	r17
     82e:	cf 93       	push	r28
     830:	df 93       	push	r29
     832:	c8 2f       	mov	r28, r24
     834:	85 b7       	in	r24, 0x35	; 53
     836:	85 bf       	out	0x35, r24	; 53
     838:	12 b8       	out	0x02, r1	; 2
     83a:	8f ef       	ldi	r24, 0xFF	; 255
     83c:	81 b9       	out	0x01, r24	; 1
     83e:	15 b8       	out	0x05, r1	; 5
     840:	84 b9       	out	0x04, r24	; 4
     842:	88 b9       	out	0x08, r24	; 8
     844:	17 b8       	out	0x07, r1	; 7
     846:	8b b9       	out	0x0b, r24	; 11
     848:	1a b8       	out	0x0a, r1	; 10
     84a:	8e b9       	out	0x0e, r24	; 14
     84c:	1d b8       	out	0x0d, r1	; 13
     84e:	72 98       	cbi	0x0e, 2	; 14
     850:	11 ba       	out	0x11, r1	; 17
     852:	10 ba       	out	0x10, r1	; 16
     854:	94 e0       	ldi	r25, 0x04	; 4
     856:	94 bb       	out	0x14, r25	; 20
     858:	93 b3       	in	r25, 0x13	; 19
     85a:	93 60       	ori	r25, 0x03	; 3
     85c:	93 bb       	out	0x13, r25	; 19
     85e:	9d 9a       	sbi	0x13, 5	; 19
     860:	97 ec       	ldi	r25, 0xC7	; 199
     862:	90 93 02 01 	sts	0x0102, r25	; 0x800102 <__TEXT_REGION_LENGTH__+0x700102>
     866:	98 e3       	ldi	r25, 0x38	; 56
     868:	90 93 01 01 	sts	0x0101, r25	; 0x800101 <__TEXT_REGION_LENGTH__+0x700101>
     86c:	10 92 05 01 	sts	0x0105, r1	; 0x800105 <__TEXT_REGION_LENGTH__+0x700105>
     870:	80 93 04 01 	sts	0x0104, r24	; 0x800104 <__TEXT_REGION_LENGTH__+0x700104>
     874:	10 92 08 01 	sts	0x0108, r1	; 0x800108 <__TEXT_REGION_LENGTH__+0x700108>
     878:	10 92 07 01 	sts	0x0107, r1	; 0x800107 <__TEXT_REGION_LENGTH__+0x700107>
     87c:	8c e3       	ldi	r24, 0x3C	; 60
     87e:	80 93 0b 01 	sts	0x010B, r24	; 0x80010b <__TEXT_REGION_LENGTH__+0x70010b>
     882:	10 92 0a 01 	sts	0x010A, r1	; 0x80010a <__TEXT_REGION_LENGTH__+0x70010a>
     886:	78 94       	sei
     888:	73 dd       	rcall	.-1306   	; 0x370 <startSystemTimeMs>
     88a:	a2 df       	rcall	.-188    	; 0x7d0 <initLcd>
     88c:	7b dd       	rcall	.-1290   	; 0x384 <initAdc>
     88e:	b2 dd       	rcall	.-1180   	; 0x3f4 <initRgb>
     890:	cc 23       	and	r28, r28
     892:	09 f4       	brne	.+2      	; 0x896 <initBoard+0x84>
     894:	b8 c0       	rjmp	.+368    	; 0xa06 <initBoard+0x1f4>
     896:	8f ef       	ldi	r24, 0xFF	; 255
     898:	cd dd       	rcall	.-1126   	; 0x434 <lcdLight>
     89a:	40 e0       	ldi	r20, 0x00	; 0
     89c:	50 e0       	ldi	r21, 0x00	; 0
     89e:	6f ef       	ldi	r22, 0xFF	; 255
     8a0:	73 e0       	ldi	r23, 0x03	; 3
     8a2:	80 e0       	ldi	r24, 0x00	; 0
     8a4:	90 e0       	ldi	r25, 0x00	; 0
     8a6:	8f dd       	rcall	.-1250   	; 0x3c6 <rgbWrite>
     8a8:	83 e9       	ldi	r24, 0x93	; 147
     8aa:	92 e0       	ldi	r25, 0x02	; 2
     8ac:	9f 93       	push	r25
     8ae:	8f 93       	push	r24
     8b0:	1f 92       	push	r1
     8b2:	1f 92       	push	r1
     8b4:	42 de       	rcall	.-892    	; 0x53a <lcdWriteText>
     8b6:	88 ea       	ldi	r24, 0xA8	; 168
     8b8:	92 e0       	ldi	r25, 0x02	; 2
     8ba:	9f 93       	push	r25
     8bc:	8f 93       	push	r24
     8be:	1f 92       	push	r1
     8c0:	81 e0       	ldi	r24, 0x01	; 1
     8c2:	8f 93       	push	r24
     8c4:	3a de       	rcall	.-908    	; 0x53a <lcdWriteText>
     8c6:	8e e7       	ldi	r24, 0x7E	; 126
     8c8:	92 e0       	ldi	r25, 0x02	; 2
     8ca:	9f 93       	push	r25
     8cc:	8f 93       	push	r24
     8ce:	1f 92       	push	r1
     8d0:	82 e0       	ldi	r24, 0x02	; 2
     8d2:	8f 93       	push	r24
     8d4:	32 de       	rcall	.-924    	; 0x53a <lcdWriteText>
     8d6:	8d eb       	ldi	r24, 0xBD	; 189
     8d8:	92 e0       	ldi	r25, 0x02	; 2
     8da:	9f 93       	push	r25
     8dc:	8f 93       	push	r24
     8de:	1f 92       	push	r1
     8e0:	83 e0       	ldi	r24, 0x03	; 3
     8e2:	8f 93       	push	r24
     8e4:	2a de       	rcall	.-940    	; 0x53a <lcdWriteText>
     8e6:	8d b7       	in	r24, 0x3d	; 61
     8e8:	9e b7       	in	r25, 0x3e	; 62
     8ea:	40 96       	adiw	r24, 0x10	; 16
     8ec:	0f b6       	in	r0, 0x3f	; 63
     8ee:	f8 94       	cli
     8f0:	9e bf       	out	0x3e, r25	; 62
     8f2:	0f be       	out	0x3f, r0	; 63
     8f4:	8d bf       	out	0x3d, r24	; 61
     8f6:	88 24       	eor	r8, r8
     8f8:	83 94       	inc	r8
     8fa:	c0 e0       	ldi	r28, 0x00	; 0
     8fc:	71 2c       	mov	r7, r1
     8fe:	99 24       	eor	r9, r9
     900:	93 94       	inc	r9
     902:	d0 e0       	ldi	r29, 0x00	; 0
     904:	cc 24       	eor	r12, r12
     906:	c3 94       	inc	r12
     908:	d1 2c       	mov	r13, r1
     90a:	e1 2c       	mov	r14, r1
     90c:	68 94       	set
     90e:	ff 24       	eor	r15, r15
     910:	f7 f8       	bld	r15, 7
     912:	66 24       	eor	r6, r6
     914:	63 94       	inc	r6
     916:	51 2c       	mov	r5, r1
     918:	09 e0       	ldi	r16, 0x09	; 9
     91a:	11 e0       	ldi	r17, 0x01	; 1
     91c:	0f 2e       	mov	r0, r31
     91e:	f2 ed       	ldi	r31, 0xD2	; 210
     920:	af 2e       	mov	r10, r31
     922:	f2 e0       	ldi	r31, 0x02	; 2
     924:	bf 2e       	mov	r11, r31
     926:	f0 2d       	mov	r31, r0
     928:	0f 2e       	mov	r0, r31
     92a:	f3 e0       	ldi	r31, 0x03	; 3
     92c:	4f 2e       	mov	r4, r31
     92e:	f0 2d       	mov	r31, r0
     930:	99 20       	and	r9, r9
     932:	49 f0       	breq	.+18     	; 0x946 <initBoard+0x134>
     934:	c7 01       	movw	r24, r14
     936:	0d 2e       	mov	r0, r29
     938:	02 c0       	rjmp	.+4      	; 0x93e <initBoard+0x12c>
     93a:	96 95       	lsr	r25
     93c:	87 95       	ror	r24
     93e:	0a 94       	dec	r0
     940:	e2 f7       	brpl	.-8      	; 0x93a <initBoard+0x128>
     942:	0e dd       	rcall	.-1508   	; 0x360 <ledWriteAll>
     944:	08 c0       	rjmp	.+16     	; 0x956 <initBoard+0x144>
     946:	c6 01       	movw	r24, r12
     948:	0d 2e       	mov	r0, r29
     94a:	02 c0       	rjmp	.+4      	; 0x950 <initBoard+0x13e>
     94c:	88 0f       	add	r24, r24
     94e:	99 1f       	adc	r25, r25
     950:	0a 94       	dec	r0
     952:	e2 f7       	brpl	.-8      	; 0x94c <initBoard+0x13a>
     954:	05 dd       	rcall	.-1526   	; 0x360 <ledWriteAll>
     956:	df 5f       	subi	r29, 0xFF	; 255
     958:	d1 31       	cpi	r29, 0x11	; 17
     95a:	28 f0       	brcs	.+10     	; 0x966 <initBoard+0x154>
     95c:	86 2d       	mov	r24, r6
     95e:	91 10       	cpse	r9, r1
     960:	85 2d       	mov	r24, r5
     962:	98 2e       	mov	r9, r24
     964:	d0 e0       	ldi	r29, 0x00	; 0
     966:	88 20       	and	r8, r8
     968:	11 f0       	breq	.+4      	; 0x96e <initBoard+0x15c>
     96a:	ce 5f       	subi	r28, 0xFE	; 254
     96c:	01 c0       	rjmp	.+2      	; 0x970 <initBoard+0x15e>
     96e:	c2 50       	subi	r28, 0x02	; 2
     970:	8c 2f       	mov	r24, r28
     972:	60 dd       	rcall	.-1344   	; 0x434 <lcdLight>
     974:	ce 3f       	cpi	r28, 0xFE	; 254
     976:	21 f0       	breq	.+8      	; 0x980 <initBoard+0x16e>
     978:	c8 37       	cpi	r28, 0x78	; 120
     97a:	19 f4       	brne	.+6      	; 0x982 <initBoard+0x170>
     97c:	86 2c       	mov	r8, r6
     97e:	01 c0       	rjmp	.+2      	; 0x982 <initBoard+0x170>
     980:	85 2c       	mov	r8, r5
     982:	71 10       	cpse	r7, r1
     984:	3b c0       	rjmp	.+118    	; 0x9fc <initBoard+0x1ea>
     986:	f8 01       	movw	r30, r16
     988:	80 81       	ld	r24, Z
     98a:	83 7c       	andi	r24, 0xC3	; 195
     98c:	91 f0       	breq	.+36     	; 0x9b2 <initBoard+0x1a0>
     98e:	40 e0       	ldi	r20, 0x00	; 0
     990:	50 e0       	ldi	r21, 0x00	; 0
     992:	66 e2       	ldi	r22, 0x26	; 38
     994:	72 e0       	ldi	r23, 0x02	; 2
     996:	8f ef       	ldi	r24, 0xFF	; 255
     998:	93 e0       	ldi	r25, 0x03	; 3
     99a:	15 dd       	rcall	.-1494   	; 0x3c6 <rgbWrite>
     99c:	bf 92       	push	r11
     99e:	af 92       	push	r10
     9a0:	1f 92       	push	r1
     9a2:	4f 92       	push	r4
     9a4:	ca dd       	rcall	.-1132   	; 0x53a <lcdWriteText>
     9a6:	0f 90       	pop	r0
     9a8:	0f 90       	pop	r0
     9aa:	0f 90       	pop	r0
     9ac:	0f 90       	pop	r0
     9ae:	76 2c       	mov	r7, r6
     9b0:	25 c0       	rjmp	.+74     	; 0x9fc <initBoard+0x1ea>
     9b2:	8f ef       	ldi	r24, 0xFF	; 255
     9b4:	9c e7       	ldi	r25, 0x7C	; 124
     9b6:	01 97       	sbiw	r24, 0x01	; 1
     9b8:	f1 f7       	brne	.-4      	; 0x9b6 <initBoard+0x1a4>
     9ba:	00 c0       	rjmp	.+0      	; 0x9bc <initBoard+0x1aa>
     9bc:	00 00       	nop
     9be:	b8 cf       	rjmp	.-144    	; 0x930 <initBoard+0x11e>
     9c0:	f0 de       	rcall	.-544    	; 0x7a2 <lcdClear>
     9c2:	80 e0       	ldi	r24, 0x00	; 0
     9c4:	37 dd       	rcall	.-1426   	; 0x434 <lcdLight>
     9c6:	80 e0       	ldi	r24, 0x00	; 0
     9c8:	90 e0       	ldi	r25, 0x00	; 0
     9ca:	ca dc       	rcall	.-1644   	; 0x360 <ledWriteAll>
     9cc:	40 e0       	ldi	r20, 0x00	; 0
     9ce:	50 e0       	ldi	r21, 0x00	; 0
     9d0:	60 e0       	ldi	r22, 0x00	; 0
     9d2:	70 e0       	ldi	r23, 0x00	; 0
     9d4:	80 e0       	ldi	r24, 0x00	; 0
     9d6:	90 e0       	ldi	r25, 0x00	; 0
     9d8:	f6 dc       	rcall	.-1556   	; 0x3c6 <rgbWrite>
     9da:	10 92 39 03 	sts	0x0339, r1	; 0x800339 <systemTimeMs>
     9de:	10 92 3a 03 	sts	0x033A, r1	; 0x80033a <systemTimeMs+0x1>
     9e2:	10 92 3b 03 	sts	0x033B, r1	; 0x80033b <systemTimeMs+0x2>
     9e6:	10 92 3c 03 	sts	0x033C, r1	; 0x80033c <systemTimeMs+0x3>
     9ea:	10 92 3d 03 	sts	0x033D, r1	; 0x80033d <systemTimeMs+0x4>
     9ee:	10 92 3e 03 	sts	0x033E, r1	; 0x80033e <systemTimeMs+0x5>
     9f2:	10 92 3f 03 	sts	0x033F, r1	; 0x80033f <systemTimeMs+0x6>
     9f6:	10 92 40 03 	sts	0x0340, r1	; 0x800340 <systemTimeMs+0x7>
     9fa:	05 c0       	rjmp	.+10     	; 0xa06 <initBoard+0x1f4>
     9fc:	f8 01       	movw	r30, r16
     9fe:	80 81       	ld	r24, Z
     a00:	83 7c       	andi	r24, 0xC3	; 195
     a02:	b9 f6       	brne	.-82     	; 0x9b2 <initBoard+0x1a0>
     a04:	dd cf       	rjmp	.-70     	; 0x9c0 <initBoard+0x1ae>
     a06:	df 91       	pop	r29
     a08:	cf 91       	pop	r28
     a0a:	1f 91       	pop	r17
     a0c:	0f 91       	pop	r16
     a0e:	ff 90       	pop	r15
     a10:	ef 90       	pop	r14
     a12:	df 90       	pop	r13
     a14:	cf 90       	pop	r12
     a16:	bf 90       	pop	r11
     a18:	af 90       	pop	r10
     a1a:	9f 90       	pop	r9
     a1c:	8f 90       	pop	r8
     a1e:	7f 90       	pop	r7
     a20:	6f 90       	pop	r6
     a22:	5f 90       	pop	r5
     a24:	4f 90       	pop	r4
     a26:	08 95       	ret

00000a28 <lcdLog>:
     a28:	6f 92       	push	r6
     a2a:	7f 92       	push	r7
     a2c:	8f 92       	push	r8
     a2e:	9f 92       	push	r9
     a30:	af 92       	push	r10
     a32:	bf 92       	push	r11
     a34:	cf 92       	push	r12
     a36:	df 92       	push	r13
     a38:	ef 92       	push	r14
     a3a:	ff 92       	push	r15
     a3c:	0f 93       	push	r16
     a3e:	1f 93       	push	r17
     a40:	cf 93       	push	r28
     a42:	df 93       	push	r29
     a44:	cd b7       	in	r28, 0x3d	; 61
     a46:	de b7       	in	r29, 0x3e	; 62
     a48:	60 97       	sbiw	r28, 0x10	; 16
     a4a:	0f b6       	in	r0, 0x3f	; 63
     a4c:	f8 94       	cli
     a4e:	de bf       	out	0x3e, r29	; 62
     a50:	0f be       	out	0x3f, r0	; 63
     a52:	cd bf       	out	0x3d, r28	; 61
     a54:	80 91 00 02 	lds	r24, 0x0200	; 0x800200 <__DATA_REGION_ORIGIN__>
     a58:	88 23       	and	r24, r24
     a5a:	b1 f1       	breq	.+108    	; 0xac8 <lcdLog+0xa0>
     a5c:	a2 de       	rcall	.-700    	; 0x7a2 <lcdClear>
     a5e:	10 92 00 02 	sts	0x0200, r1	; 0x800200 <__DATA_REGION_ORIGIN__>
     a62:	10 92 37 03 	sts	0x0337, r1	; 0x800337 <nummer.2616+0x1>
     a66:	10 92 36 03 	sts	0x0336, r1	; 0x800336 <nummer.2616>
     a6a:	0f 2e       	mov	r0, r31
     a6c:	fe e2       	ldi	r31, 0x2E	; 46
     a6e:	8f 2e       	mov	r8, r31
     a70:	f3 e0       	ldi	r31, 0x03	; 3
     a72:	9f 2e       	mov	r9, r31
     a74:	f0 2d       	mov	r31, r0
     a76:	0e ee       	ldi	r16, 0xEE	; 238
     a78:	12 e0       	ldi	r17, 0x02	; 2
     a7a:	a0 e0       	ldi	r26, 0x00	; 0
     a7c:	b0 e0       	ldi	r27, 0x00	; 0
     a7e:	40 e2       	ldi	r20, 0x20	; 32
     a80:	bd 01       	movw	r22, r26
     a82:	f4 01       	movw	r30, r8
     a84:	11 92       	st	Z+, r1
     a86:	11 92       	st	Z+, r1
     a88:	4f 01       	movw	r8, r30
     a8a:	f8 01       	movw	r30, r16
     a8c:	41 93       	st	Z+, r20
     a8e:	81 e0       	ldi	r24, 0x01	; 1
     a90:	90 e0       	ldi	r25, 0x00	; 0
     a92:	13 c0       	rjmp	.+38     	; 0xaba <lcdLog+0x92>
     a94:	62 95       	swap	r22
     a96:	72 95       	swap	r23
     a98:	70 7f       	andi	r23, 0xF0	; 240
     a9a:	76 27       	eor	r23, r22
     a9c:	60 7f       	andi	r22, 0xF0	; 240
     a9e:	76 27       	eor	r23, r22
     aa0:	62 51       	subi	r22, 0x12	; 18
     aa2:	7d 4f       	sbci	r23, 0xFD	; 253
     aa4:	fb 01       	movw	r30, r22
     aa6:	e2 0f       	add	r30, r18
     aa8:	f3 1f       	adc	r31, r19
     aaa:	10 82       	st	Z, r1
     aac:	11 96       	adiw	r26, 0x01	; 1
     aae:	00 5f       	subi	r16, 0xF0	; 240
     ab0:	1f 4f       	sbci	r17, 0xFF	; 255
     ab2:	a4 30       	cpi	r26, 0x04	; 4
     ab4:	b1 05       	cpc	r27, r1
     ab6:	21 f7       	brne	.-56     	; 0xa80 <lcdLog+0x58>
     ab8:	07 c0       	rjmp	.+14     	; 0xac8 <lcdLog+0xa0>
     aba:	9c 01       	movw	r18, r24
     abc:	41 93       	st	Z+, r20
     abe:	01 96       	adiw	r24, 0x01	; 1
     ac0:	80 31       	cpi	r24, 0x10	; 16
     ac2:	91 05       	cpc	r25, r1
     ac4:	d1 f7       	brne	.-12     	; 0xaba <lcdLog+0x92>
     ac6:	e6 cf       	rjmp	.-52     	; 0xa94 <lcdLog+0x6c>
     ac8:	80 91 36 03 	lds	r24, 0x0336	; 0x800336 <nummer.2616>
     acc:	90 91 37 03 	lds	r25, 0x0337	; 0x800337 <nummer.2616+0x1>
     ad0:	01 96       	adiw	r24, 0x01	; 1
     ad2:	90 93 37 03 	sts	0x0337, r25	; 0x800337 <nummer.2616+0x1>
     ad6:	80 93 36 03 	sts	0x0336, r24	; 0x800336 <nummer.2616>
     ada:	9e 01       	movw	r18, r28
     adc:	2c 5d       	subi	r18, 0xDC	; 220
     ade:	3f 4f       	sbci	r19, 0xFF	; 255
     ae0:	4a a1       	ldd	r20, Y+34	; 0x22
     ae2:	5b a1       	ldd	r21, Y+35	; 0x23
     ae4:	60 e1       	ldi	r22, 0x10	; 16
     ae6:	70 e0       	ldi	r23, 0x00	; 0
     ae8:	ce 01       	movw	r24, r28
     aea:	01 96       	adiw	r24, 0x01	; 1
     aec:	33 d2       	rcall	.+1126   	; 0xf54 <vsnprintf>
     aee:	8e 01       	movw	r16, r28
     af0:	0f 5f       	subi	r16, 0xFF	; 255
     af2:	1f 4f       	sbci	r17, 0xFF	; 255
     af4:	4e 01       	movw	r8, r28
     af6:	f1 e1       	ldi	r31, 0x11	; 17
     af8:	8f 0e       	add	r8, r31
     afa:	91 1c       	adc	r9, r1
     afc:	f8 01       	movw	r30, r16
     afe:	90 e0       	ldi	r25, 0x00	; 0
     b00:	30 e2       	ldi	r19, 0x20	; 32
     b02:	21 e0       	ldi	r18, 0x01	; 1
     b04:	df 01       	movw	r26, r30
     b06:	80 81       	ld	r24, Z
     b08:	88 23       	and	r24, r24
     b0a:	19 f0       	breq	.+6      	; 0xb12 <lcdLog+0xea>
     b0c:	99 23       	and	r25, r25
     b0e:	19 f0       	breq	.+6      	; 0xb16 <lcdLog+0xee>
     b10:	01 c0       	rjmp	.+2      	; 0xb14 <lcdLog+0xec>
     b12:	92 2f       	mov	r25, r18
     b14:	3c 93       	st	X, r19
     b16:	31 96       	adiw	r30, 0x01	; 1
     b18:	e8 15       	cp	r30, r8
     b1a:	f9 05       	cpc	r31, r9
     b1c:	99 f7       	brne	.-26     	; 0xb04 <lcdLog+0xdc>
     b1e:	18 8a       	std	Y+16, r1	; 0x10
     b20:	6e ee       	ldi	r22, 0xEE	; 238
     b22:	72 e0       	ldi	r23, 0x02	; 2
     b24:	ce 01       	movw	r24, r28
     b26:	01 96       	adiw	r24, 0x01	; 1
     b28:	0c d2       	rcall	.+1048   	; 0xf42 <strcmp>
     b2a:	88 23       	and	r24, r24
     b2c:	09 f4       	brne	.+2      	; 0xb30 <lcdLog+0x108>
     b2e:	7e c0       	rjmp	.+252    	; 0xc2c <lcdLog+0x204>
     b30:	0f 2e       	mov	r0, r31
     b32:	f4 e3       	ldi	r31, 0x34	; 52
     b34:	6f 2e       	mov	r6, r31
     b36:	f3 e0       	ldi	r31, 0x03	; 3
     b38:	7f 2e       	mov	r7, r31
     b3a:	f0 2d       	mov	r31, r0
     b3c:	6e e1       	ldi	r22, 0x1E	; 30
     b3e:	73 e0       	ldi	r23, 0x03	; 3
     b40:	4e ee       	ldi	r20, 0xEE	; 238
     b42:	52 e0       	ldi	r21, 0x02	; 2
     b44:	f3 01       	movw	r30, r6
     b46:	92 91       	ld	r25, -Z
     b48:	82 91       	ld	r24, -Z
     b4a:	3f 01       	movw	r6, r30
     b4c:	93 83       	std	Z+3, r25	; 0x03
     b4e:	82 83       	std	Z+2, r24	; 0x02
     b50:	db 01       	movw	r26, r22
     b52:	50 97       	sbiw	r26, 0x10	; 16
     b54:	9b 01       	movw	r18, r22
     b56:	20 5f       	subi	r18, 0xF0	; 240
     b58:	3f 4f       	sbci	r19, 0xFF	; 255
     b5a:	fb 01       	movw	r30, r22
     b5c:	8d 91       	ld	r24, X+
     b5e:	81 93       	st	Z+, r24
     b60:	e2 17       	cp	r30, r18
     b62:	f3 07       	cpc	r31, r19
     b64:	d9 f7       	brne	.-10     	; 0xb5c <lcdLog+0x134>
     b66:	60 51       	subi	r22, 0x10	; 16
     b68:	71 09       	sbc	r23, r1
     b6a:	64 17       	cp	r22, r20
     b6c:	75 07       	cpc	r23, r21
     b6e:	51 f7       	brne	.-44     	; 0xb44 <lcdLog+0x11c>
     b70:	f8 01       	movw	r30, r16
     b72:	81 91       	ld	r24, Z+
     b74:	8f 01       	movw	r16, r30
     b76:	fa 01       	movw	r30, r20
     b78:	81 93       	st	Z+, r24
     b7a:	af 01       	movw	r20, r30
     b7c:	08 15       	cp	r16, r8
     b7e:	19 05       	cpc	r17, r9
     b80:	b9 f7       	brne	.-18     	; 0xb70 <lcdLog+0x148>
     b82:	80 91 36 03 	lds	r24, 0x0336	; 0x800336 <nummer.2616>
     b86:	90 91 37 03 	lds	r25, 0x0337	; 0x800337 <nummer.2616+0x1>
     b8a:	90 93 2f 03 	sts	0x032F, r25	; 0x80032f <lcdPrintNr.2614+0x1>
     b8e:	80 93 2e 03 	sts	0x032E, r24	; 0x80032e <lcdPrintNr.2614>
     b92:	80 91 01 02 	lds	r24, 0x0201	; 0x800201 <lcdLogZeilen>
     b96:	94 e0       	ldi	r25, 0x04	; 4
     b98:	d9 2e       	mov	r13, r25
     b9a:	d8 1a       	sub	r13, r24
     b9c:	f3 e0       	ldi	r31, 0x03	; 3
     b9e:	fd 15       	cp	r31, r13
     ba0:	08 f4       	brcc	.+2      	; 0xba4 <lcdLog+0x17c>
     ba2:	5b c0       	rjmp	.+182    	; 0xc5a <lcdLog+0x232>
     ba4:	83 e0       	ldi	r24, 0x03	; 3
     ba6:	b8 2e       	mov	r11, r24
     ba8:	bd 18       	sub	r11, r13
     baa:	0f 2e       	mov	r0, r31
     bac:	f5 e0       	ldi	r31, 0x05	; 5
     bae:	6f 2e       	mov	r6, r31
     bb0:	f0 2d       	mov	r31, r0
     bb2:	0f 2e       	mov	r0, r31
     bb4:	f7 ee       	ldi	r31, 0xE7	; 231
     bb6:	8f 2e       	mov	r8, r31
     bb8:	f2 e0       	ldi	r31, 0x02	; 2
     bba:	9f 2e       	mov	r9, r31
     bbc:	f0 2d       	mov	r31, r0
     bbe:	68 94       	set
     bc0:	77 24       	eor	r7, r7
     bc2:	72 f8       	bld	r7, 2
     bc4:	0b 2d       	mov	r16, r11
     bc6:	10 e0       	ldi	r17, 0x00	; 0
     bc8:	c8 01       	movw	r24, r16
     bca:	82 95       	swap	r24
     bcc:	92 95       	swap	r25
     bce:	90 7f       	andi	r25, 0xF0	; 240
     bd0:	98 27       	eor	r25, r24
     bd2:	80 7f       	andi	r24, 0xF0	; 240
     bd4:	98 27       	eor	r25, r24
     bd6:	82 51       	subi	r24, 0x12	; 18
     bd8:	9d 4f       	sbci	r25, 0xFD	; 253
     bda:	9f 93       	push	r25
     bdc:	8f 93       	push	r24
     bde:	6f 92       	push	r6
     be0:	df 92       	push	r13
     be2:	ab dc       	rcall	.-1706   	; 0x53a <lcdWriteText>
     be4:	9f 92       	push	r9
     be6:	8f 92       	push	r8
     be8:	7f 92       	push	r7
     bea:	df 92       	push	r13
     bec:	a6 dc       	rcall	.-1716   	; 0x53a <lcdWriteText>
     bee:	00 0f       	add	r16, r16
     bf0:	11 1f       	adc	r17, r17
     bf2:	f8 01       	movw	r30, r16
     bf4:	e2 5d       	subi	r30, 0xD2	; 210
     bf6:	fc 4f       	sbci	r31, 0xFC	; 252
     bf8:	00 81       	ld	r16, Z
     bfa:	11 81       	ldd	r17, Z+1	; 0x01
     bfc:	a1 2c       	mov	r10, r1
     bfe:	c7 2c       	mov	r12, r7
     c00:	e0 2e       	mov	r14, r16
     c02:	f1 2e       	mov	r15, r17
     c04:	00 e0       	ldi	r16, 0x00	; 0
     c06:	10 e0       	ldi	r17, 0x00	; 0
     c08:	20 e0       	ldi	r18, 0x00	; 0
     c0a:	30 e0       	ldi	r19, 0x00	; 0
     c0c:	40 e0       	ldi	r20, 0x00	; 0
     c0e:	50 e0       	ldi	r21, 0x00	; 0
     c10:	60 e0       	ldi	r22, 0x00	; 0
     c12:	8d 2d       	mov	r24, r13
     c14:	ce dc       	rcall	.-1636   	; 0x5b2 <lcdWriteZahl>
     c16:	d3 94       	inc	r13
     c18:	ba 94       	dec	r11
     c1a:	0f b6       	in	r0, 0x3f	; 63
     c1c:	f8 94       	cli
     c1e:	de bf       	out	0x3e, r29	; 62
     c20:	0f be       	out	0x3f, r0	; 63
     c22:	cd bf       	out	0x3d, r28	; 61
     c24:	94 e0       	ldi	r25, 0x04	; 4
     c26:	d9 12       	cpse	r13, r25
     c28:	cd cf       	rjmp	.-102    	; 0xbc4 <lcdLog+0x19c>
     c2a:	17 c0       	rjmp	.+46     	; 0xc5a <lcdLog+0x232>
     c2c:	00 91 36 03 	lds	r16, 0x0336	; 0x800336 <nummer.2616>
     c30:	10 91 37 03 	lds	r17, 0x0337	; 0x800337 <nummer.2616+0x1>
     c34:	10 93 2f 03 	sts	0x032F, r17	; 0x80032f <lcdPrintNr.2614+0x1>
     c38:	00 93 2e 03 	sts	0x032E, r16	; 0x80032e <lcdPrintNr.2614>
     c3c:	a1 2c       	mov	r10, r1
     c3e:	68 94       	set
     c40:	cc 24       	eor	r12, r12
     c42:	c2 f8       	bld	r12, 2
     c44:	e0 2e       	mov	r14, r16
     c46:	f1 2e       	mov	r15, r17
     c48:	00 e0       	ldi	r16, 0x00	; 0
     c4a:	10 e0       	ldi	r17, 0x00	; 0
     c4c:	20 e0       	ldi	r18, 0x00	; 0
     c4e:	30 e0       	ldi	r19, 0x00	; 0
     c50:	40 e0       	ldi	r20, 0x00	; 0
     c52:	50 e0       	ldi	r21, 0x00	; 0
     c54:	60 e0       	ldi	r22, 0x00	; 0
     c56:	83 e0       	ldi	r24, 0x03	; 3
     c58:	ac dc       	rcall	.-1704   	; 0x5b2 <lcdWriteZahl>
     c5a:	60 96       	adiw	r28, 0x10	; 16
     c5c:	0f b6       	in	r0, 0x3f	; 63
     c5e:	f8 94       	cli
     c60:	de bf       	out	0x3e, r29	; 62
     c62:	0f be       	out	0x3f, r0	; 63
     c64:	cd bf       	out	0x3d, r28	; 61
     c66:	df 91       	pop	r29
     c68:	cf 91       	pop	r28
     c6a:	1f 91       	pop	r17
     c6c:	0f 91       	pop	r16
     c6e:	ff 90       	pop	r15
     c70:	ef 90       	pop	r14
     c72:	df 90       	pop	r13
     c74:	cf 90       	pop	r12
     c76:	bf 90       	pop	r11
     c78:	af 90       	pop	r10
     c7a:	9f 90       	pop	r9
     c7c:	8f 90       	pop	r8
     c7e:	7f 90       	pop	r7
     c80:	6f 90       	pop	r6
     c82:	08 95       	ret

00000c84 <matrixWriteNextLine>:
     c84:	cf 93       	push	r28
     c86:	df 93       	push	r29
     c88:	cd b7       	in	r28, 0x3d	; 61
     c8a:	de b7       	in	r29, 0x3e	; 62
     c8c:	28 97       	sbiw	r28, 0x08	; 8
     c8e:	0f b6       	in	r0, 0x3f	; 63
     c90:	f8 94       	cli
     c92:	de bf       	out	0x3e, r29	; 62
     c94:	0f be       	out	0x3f, r0	; 63
     c96:	cd bf       	out	0x3d, r28	; 61
     c98:	88 e0       	ldi	r24, 0x08	; 8
     c9a:	e2 e0       	ldi	r30, 0x02	; 2
     c9c:	f2 e0       	ldi	r31, 0x02	; 2
     c9e:	de 01       	movw	r26, r28
     ca0:	11 96       	adiw	r26, 0x01	; 1
     ca2:	01 90       	ld	r0, Z+
     ca4:	0d 92       	st	X+, r0
     ca6:	8a 95       	dec	r24
     ca8:	e1 f7       	brne	.-8      	; 0xca2 <matrixWriteNextLine+0x1e>
     caa:	e5 e0       	ldi	r30, 0x05	; 5
     cac:	f1 e0       	ldi	r31, 0x01	; 1
     cae:	80 81       	ld	r24, Z
     cb0:	8f 7b       	andi	r24, 0xBF	; 191
     cb2:	80 83       	st	Z, r24
     cb4:	e0 91 ec 02 	lds	r30, 0x02EC	; 0x8002ec <Zeilen_Nr.2731>
     cb8:	f0 91 ed 02 	lds	r31, 0x02ED	; 0x8002ed <Zeilen_Nr.2731+0x1>
     cbc:	81 e0       	ldi	r24, 0x01	; 1
     cbe:	90 e0       	ldi	r25, 0x00	; 0
     cc0:	8c 0f       	add	r24, r28
     cc2:	9d 1f       	adc	r25, r29
     cc4:	e8 0f       	add	r30, r24
     cc6:	f9 1f       	adc	r31, r25
     cc8:	80 81       	ld	r24, Z
     cca:	90 e0       	ldi	r25, 0x00	; 0
     ccc:	90 93 eb 02 	sts	0x02EB, r25	; 0x8002eb <__data_end+0x1>
     cd0:	80 93 ea 02 	sts	0x02EA, r24	; 0x8002ea <__data_end>
     cd4:	a2 eb       	ldi	r26, 0xB2	; 178
     cd6:	b3 e0       	ldi	r27, 0x03	; 3
     cd8:	22 e4       	ldi	r18, 0x42	; 66
     cda:	33 e0       	ldi	r19, 0x03	; 3
     cdc:	e5 e0       	ldi	r30, 0x05	; 5
     cde:	f1 e0       	ldi	r31, 0x01	; 1
     ce0:	5e 91       	ld	r21, -X
     ce2:	4e 91       	ld	r20, -X
     ce4:	80 91 ea 02 	lds	r24, 0x02EA	; 0x8002ea <__data_end>
     ce8:	90 91 eb 02 	lds	r25, 0x02EB	; 0x8002eb <__data_end+0x1>
     cec:	84 23       	and	r24, r20
     cee:	95 23       	and	r25, r21
     cf0:	89 2b       	or	r24, r25
     cf2:	21 f0       	breq	.+8      	; 0xcfc <matrixWriteNextLine+0x78>
     cf4:	80 81       	ld	r24, Z
     cf6:	80 62       	ori	r24, 0x20	; 32
     cf8:	80 83       	st	Z, r24
     cfa:	03 c0       	rjmp	.+6      	; 0xd02 <matrixWriteNextLine+0x7e>
     cfc:	80 81       	ld	r24, Z
     cfe:	8f 7d       	andi	r24, 0xDF	; 223
     d00:	80 83       	st	Z, r24
     d02:	80 81       	ld	r24, Z
     d04:	80 61       	ori	r24, 0x10	; 16
     d06:	80 83       	st	Z, r24
     d08:	80 81       	ld	r24, Z
     d0a:	8f 7e       	andi	r24, 0xEF	; 239
     d0c:	80 83       	st	Z, r24
     d0e:	a2 17       	cp	r26, r18
     d10:	b3 07       	cpc	r27, r19
     d12:	31 f7       	brne	.-52     	; 0xce0 <matrixWriteNextLine+0x5c>
     d14:	e5 e0       	ldi	r30, 0x05	; 5
     d16:	f1 e0       	ldi	r31, 0x01	; 1
     d18:	80 81       	ld	r24, Z
     d1a:	87 7f       	andi	r24, 0xF7	; 247
     d1c:	80 83       	st	Z, r24
     d1e:	80 81       	ld	r24, Z
     d20:	88 7f       	andi	r24, 0xF8	; 248
     d22:	80 83       	st	Z, r24
     d24:	90 81       	ld	r25, Z
     d26:	80 91 ec 02 	lds	r24, 0x02EC	; 0x8002ec <Zeilen_Nr.2731>
     d2a:	89 2b       	or	r24, r25
     d2c:	80 83       	st	Z, r24
     d2e:	80 81       	ld	r24, Z
     d30:	80 64       	ori	r24, 0x40	; 64
     d32:	80 83       	st	Z, r24
     d34:	80 81       	ld	r24, Z
     d36:	88 60       	ori	r24, 0x08	; 8
     d38:	80 83       	st	Z, r24
     d3a:	80 91 ec 02 	lds	r24, 0x02EC	; 0x8002ec <Zeilen_Nr.2731>
     d3e:	90 91 ed 02 	lds	r25, 0x02ED	; 0x8002ed <Zeilen_Nr.2731+0x1>
     d42:	87 30       	cpi	r24, 0x07	; 7
     d44:	91 05       	cpc	r25, r1
     d46:	30 f4       	brcc	.+12     	; 0xd54 <matrixWriteNextLine+0xd0>
     d48:	01 96       	adiw	r24, 0x01	; 1
     d4a:	90 93 ed 02 	sts	0x02ED, r25	; 0x8002ed <Zeilen_Nr.2731+0x1>
     d4e:	80 93 ec 02 	sts	0x02EC, r24	; 0x8002ec <Zeilen_Nr.2731>
     d52:	07 c0       	rjmp	.+14     	; 0xd62 <matrixWriteNextLine+0xde>
     d54:	10 92 ed 02 	sts	0x02ED, r1	; 0x8002ed <Zeilen_Nr.2731+0x1>
     d58:	10 92 ec 02 	sts	0x02EC, r1	; 0x8002ec <Zeilen_Nr.2731>
     d5c:	81 e0       	ldi	r24, 0x01	; 1
     d5e:	80 93 38 03 	sts	0x0338, r24	; 0x800338 <writeTextFinished>
     d62:	28 96       	adiw	r28, 0x08	; 8
     d64:	0f b6       	in	r0, 0x3f	; 63
     d66:	f8 94       	cli
     d68:	de bf       	out	0x3e, r29	; 62
     d6a:	0f be       	out	0x3f, r0	; 63
     d6c:	cd bf       	out	0x3d, r28	; 61
     d6e:	df 91       	pop	r29
     d70:	cf 91       	pop	r28
     d72:	08 95       	ret

00000d74 <__vector_23>:
     d74:	1f 92       	push	r1
     d76:	0f 92       	push	r0
     d78:	0f b6       	in	r0, 0x3f	; 63
     d7a:	0f 92       	push	r0
     d7c:	11 24       	eor	r1, r1
     d7e:	0b b6       	in	r0, 0x3b	; 59
     d80:	0f 92       	push	r0
     d82:	2f 93       	push	r18
     d84:	3f 93       	push	r19
     d86:	4f 93       	push	r20
     d88:	5f 93       	push	r21
     d8a:	6f 93       	push	r22
     d8c:	7f 93       	push	r23
     d8e:	8f 93       	push	r24
     d90:	9f 93       	push	r25
     d92:	af 93       	push	r26
     d94:	bf 93       	push	r27
     d96:	ef 93       	push	r30
     d98:	ff 93       	push	r31
     d9a:	20 91 39 03 	lds	r18, 0x0339	; 0x800339 <systemTimeMs>
     d9e:	30 91 3a 03 	lds	r19, 0x033A	; 0x80033a <systemTimeMs+0x1>
     da2:	40 91 3b 03 	lds	r20, 0x033B	; 0x80033b <systemTimeMs+0x2>
     da6:	50 91 3c 03 	lds	r21, 0x033C	; 0x80033c <systemTimeMs+0x3>
     daa:	60 91 3d 03 	lds	r22, 0x033D	; 0x80033d <systemTimeMs+0x4>
     dae:	70 91 3e 03 	lds	r23, 0x033E	; 0x80033e <systemTimeMs+0x5>
     db2:	80 91 3f 03 	lds	r24, 0x033F	; 0x80033f <systemTimeMs+0x6>
     db6:	90 91 40 03 	lds	r25, 0x0340	; 0x800340 <systemTimeMs+0x7>
     dba:	a1 e0       	ldi	r26, 0x01	; 1
     dbc:	b6 d0       	rcall	.+364    	; 0xf2a <__adddi3_s8>
     dbe:	20 93 39 03 	sts	0x0339, r18	; 0x800339 <systemTimeMs>
     dc2:	30 93 3a 03 	sts	0x033A, r19	; 0x80033a <systemTimeMs+0x1>
     dc6:	40 93 3b 03 	sts	0x033B, r20	; 0x80033b <systemTimeMs+0x2>
     dca:	50 93 3c 03 	sts	0x033C, r21	; 0x80033c <systemTimeMs+0x3>
     dce:	60 93 3d 03 	sts	0x033D, r22	; 0x80033d <systemTimeMs+0x4>
     dd2:	70 93 3e 03 	sts	0x033E, r23	; 0x80033e <systemTimeMs+0x5>
     dd6:	80 93 3f 03 	sts	0x033F, r24	; 0x80033f <systemTimeMs+0x6>
     dda:	90 93 40 03 	sts	0x0340, r25	; 0x800340 <systemTimeMs+0x7>
     dde:	80 91 41 03 	lds	r24, 0x0341	; 0x800341 <matrixRunning>
     de2:	81 11       	cpse	r24, r1
     de4:	4f df       	rcall	.-354    	; 0xc84 <matrixWriteNextLine>
     de6:	ff 91       	pop	r31
     de8:	ef 91       	pop	r30
     dea:	bf 91       	pop	r27
     dec:	af 91       	pop	r26
     dee:	9f 91       	pop	r25
     df0:	8f 91       	pop	r24
     df2:	7f 91       	pop	r23
     df4:	6f 91       	pop	r22
     df6:	5f 91       	pop	r21
     df8:	4f 91       	pop	r20
     dfa:	3f 91       	pop	r19
     dfc:	2f 91       	pop	r18
     dfe:	0f 90       	pop	r0
     e00:	0b be       	out	0x3b, r0	; 59
     e02:	0f 90       	pop	r0
     e04:	0f be       	out	0x3f, r0	; 63
     e06:	0f 90       	pop	r0
     e08:	1f 90       	pop	r1
     e0a:	18 95       	reti

00000e0c <__udivmodsi4>:
     e0c:	a1 e2       	ldi	r26, 0x21	; 33
     e0e:	1a 2e       	mov	r1, r26
     e10:	aa 1b       	sub	r26, r26
     e12:	bb 1b       	sub	r27, r27
     e14:	fd 01       	movw	r30, r26
     e16:	0d c0       	rjmp	.+26     	; 0xe32 <__udivmodsi4_ep>

00000e18 <__udivmodsi4_loop>:
     e18:	aa 1f       	adc	r26, r26
     e1a:	bb 1f       	adc	r27, r27
     e1c:	ee 1f       	adc	r30, r30
     e1e:	ff 1f       	adc	r31, r31
     e20:	a2 17       	cp	r26, r18
     e22:	b3 07       	cpc	r27, r19
     e24:	e4 07       	cpc	r30, r20
     e26:	f5 07       	cpc	r31, r21
     e28:	20 f0       	brcs	.+8      	; 0xe32 <__udivmodsi4_ep>
     e2a:	a2 1b       	sub	r26, r18
     e2c:	b3 0b       	sbc	r27, r19
     e2e:	e4 0b       	sbc	r30, r20
     e30:	f5 0b       	sbc	r31, r21

00000e32 <__udivmodsi4_ep>:
     e32:	66 1f       	adc	r22, r22
     e34:	77 1f       	adc	r23, r23
     e36:	88 1f       	adc	r24, r24
     e38:	99 1f       	adc	r25, r25
     e3a:	1a 94       	dec	r1
     e3c:	69 f7       	brne	.-38     	; 0xe18 <__udivmodsi4_loop>
     e3e:	60 95       	com	r22
     e40:	70 95       	com	r23
     e42:	80 95       	com	r24
     e44:	90 95       	com	r25
     e46:	9b 01       	movw	r18, r22
     e48:	ac 01       	movw	r20, r24
     e4a:	bd 01       	movw	r22, r26
     e4c:	cf 01       	movw	r24, r30
     e4e:	08 95       	ret

00000e50 <__umulhisi3>:
     e50:	a2 9f       	mul	r26, r18
     e52:	b0 01       	movw	r22, r0
     e54:	b3 9f       	mul	r27, r19
     e56:	c0 01       	movw	r24, r0
     e58:	a3 9f       	mul	r26, r19
     e5a:	70 0d       	add	r23, r0
     e5c:	81 1d       	adc	r24, r1
     e5e:	11 24       	eor	r1, r1
     e60:	91 1d       	adc	r25, r1
     e62:	b2 9f       	mul	r27, r18
     e64:	70 0d       	add	r23, r0
     e66:	81 1d       	adc	r24, r1
     e68:	11 24       	eor	r1, r1
     e6a:	91 1d       	adc	r25, r1
     e6c:	08 95       	ret

00000e6e <__umoddi3>:
     e6e:	68 94       	set
     e70:	01 c0       	rjmp	.+2      	; 0xe74 <__udivdi3_umoddi3>

00000e72 <__udivdi3>:
     e72:	e8 94       	clt

00000e74 <__udivdi3_umoddi3>:
     e74:	8f 92       	push	r8
     e76:	9f 92       	push	r9
     e78:	cf 93       	push	r28
     e7a:	df 93       	push	r29
     e7c:	05 d0       	rcall	.+10     	; 0xe88 <__udivmod64>
     e7e:	df 91       	pop	r29
     e80:	cf 91       	pop	r28
     e82:	9f 90       	pop	r9
     e84:	8f 90       	pop	r8
     e86:	08 95       	ret

00000e88 <__udivmod64>:
     e88:	88 24       	eor	r8, r8
     e8a:	99 24       	eor	r9, r9
     e8c:	f4 01       	movw	r30, r8
     e8e:	e4 01       	movw	r28, r8
     e90:	b0 e4       	ldi	r27, 0x40	; 64
     e92:	9f 93       	push	r25
     e94:	aa 27       	eor	r26, r26
     e96:	9a 15       	cp	r25, r10
     e98:	8b 04       	cpc	r8, r11
     e9a:	9c 04       	cpc	r9, r12
     e9c:	ed 05       	cpc	r30, r13
     e9e:	fe 05       	cpc	r31, r14
     ea0:	cf 05       	cpc	r28, r15
     ea2:	d0 07       	cpc	r29, r16
     ea4:	a1 07       	cpc	r26, r17
     ea6:	98 f4       	brcc	.+38     	; 0xece <__udivmod64+0x46>
     ea8:	ad 2f       	mov	r26, r29
     eaa:	dc 2f       	mov	r29, r28
     eac:	cf 2f       	mov	r28, r31
     eae:	fe 2f       	mov	r31, r30
     eb0:	e9 2d       	mov	r30, r9
     eb2:	98 2c       	mov	r9, r8
     eb4:	89 2e       	mov	r8, r25
     eb6:	98 2f       	mov	r25, r24
     eb8:	87 2f       	mov	r24, r23
     eba:	76 2f       	mov	r23, r22
     ebc:	65 2f       	mov	r22, r21
     ebe:	54 2f       	mov	r21, r20
     ec0:	43 2f       	mov	r20, r19
     ec2:	32 2f       	mov	r19, r18
     ec4:	22 27       	eor	r18, r18
     ec6:	b8 50       	subi	r27, 0x08	; 8
     ec8:	31 f7       	brne	.-52     	; 0xe96 <__udivmod64+0xe>
     eca:	bf 91       	pop	r27
     ecc:	27 c0       	rjmp	.+78     	; 0xf1c <__udivmod64+0x94>
     ece:	1b 2e       	mov	r1, r27
     ed0:	bf 91       	pop	r27
     ed2:	bb 27       	eor	r27, r27
     ed4:	22 0f       	add	r18, r18
     ed6:	33 1f       	adc	r19, r19
     ed8:	44 1f       	adc	r20, r20
     eda:	55 1f       	adc	r21, r21
     edc:	66 1f       	adc	r22, r22
     ede:	77 1f       	adc	r23, r23
     ee0:	88 1f       	adc	r24, r24
     ee2:	99 1f       	adc	r25, r25
     ee4:	88 1c       	adc	r8, r8
     ee6:	99 1c       	adc	r9, r9
     ee8:	ee 1f       	adc	r30, r30
     eea:	ff 1f       	adc	r31, r31
     eec:	cc 1f       	adc	r28, r28
     eee:	dd 1f       	adc	r29, r29
     ef0:	aa 1f       	adc	r26, r26
     ef2:	bb 1f       	adc	r27, r27
     ef4:	8a 14       	cp	r8, r10
     ef6:	9b 04       	cpc	r9, r11
     ef8:	ec 05       	cpc	r30, r12
     efa:	fd 05       	cpc	r31, r13
     efc:	ce 05       	cpc	r28, r14
     efe:	df 05       	cpc	r29, r15
     f00:	a0 07       	cpc	r26, r16
     f02:	b1 07       	cpc	r27, r17
     f04:	48 f0       	brcs	.+18     	; 0xf18 <__udivmod64+0x90>
     f06:	8a 18       	sub	r8, r10
     f08:	9b 08       	sbc	r9, r11
     f0a:	ec 09       	sbc	r30, r12
     f0c:	fd 09       	sbc	r31, r13
     f0e:	ce 09       	sbc	r28, r14
     f10:	df 09       	sbc	r29, r15
     f12:	a0 0b       	sbc	r26, r16
     f14:	b1 0b       	sbc	r27, r17
     f16:	21 60       	ori	r18, 0x01	; 1
     f18:	1a 94       	dec	r1
     f1a:	e1 f6       	brne	.-72     	; 0xed4 <__udivmod64+0x4c>
     f1c:	2e f4       	brtc	.+10     	; 0xf28 <__udivmod64+0xa0>
     f1e:	94 01       	movw	r18, r8
     f20:	af 01       	movw	r20, r30
     f22:	be 01       	movw	r22, r28
     f24:	cd 01       	movw	r24, r26
     f26:	00 0c       	add	r0, r0
     f28:	08 95       	ret

00000f2a <__adddi3_s8>:
     f2a:	00 24       	eor	r0, r0
     f2c:	a7 fd       	sbrc	r26, 7
     f2e:	00 94       	com	r0
     f30:	2a 0f       	add	r18, r26
     f32:	30 1d       	adc	r19, r0
     f34:	40 1d       	adc	r20, r0
     f36:	50 1d       	adc	r21, r0
     f38:	60 1d       	adc	r22, r0
     f3a:	70 1d       	adc	r23, r0
     f3c:	80 1d       	adc	r24, r0
     f3e:	90 1d       	adc	r25, r0
     f40:	08 95       	ret

00000f42 <strcmp>:
     f42:	fb 01       	movw	r30, r22
     f44:	dc 01       	movw	r26, r24
     f46:	8d 91       	ld	r24, X+
     f48:	01 90       	ld	r0, Z+
     f4a:	80 19       	sub	r24, r0
     f4c:	01 10       	cpse	r0, r1
     f4e:	d9 f3       	breq	.-10     	; 0xf46 <strcmp+0x4>
     f50:	99 0b       	sbc	r25, r25
     f52:	08 95       	ret

00000f54 <vsnprintf>:
     f54:	0f 93       	push	r16
     f56:	1f 93       	push	r17
     f58:	cf 93       	push	r28
     f5a:	df 93       	push	r29
     f5c:	cd b7       	in	r28, 0x3d	; 61
     f5e:	de b7       	in	r29, 0x3e	; 62
     f60:	2e 97       	sbiw	r28, 0x0e	; 14
     f62:	0f b6       	in	r0, 0x3f	; 63
     f64:	f8 94       	cli
     f66:	de bf       	out	0x3e, r29	; 62
     f68:	0f be       	out	0x3f, r0	; 63
     f6a:	cd bf       	out	0x3d, r28	; 61
     f6c:	8c 01       	movw	r16, r24
     f6e:	fa 01       	movw	r30, r20
     f70:	86 e0       	ldi	r24, 0x06	; 6
     f72:	8c 83       	std	Y+4, r24	; 0x04
     f74:	1a 83       	std	Y+2, r17	; 0x02
     f76:	09 83       	std	Y+1, r16	; 0x01
     f78:	77 ff       	sbrs	r23, 7
     f7a:	02 c0       	rjmp	.+4      	; 0xf80 <vsnprintf+0x2c>
     f7c:	60 e0       	ldi	r22, 0x00	; 0
     f7e:	70 e8       	ldi	r23, 0x80	; 128
     f80:	cb 01       	movw	r24, r22
     f82:	01 97       	sbiw	r24, 0x01	; 1
     f84:	9e 83       	std	Y+6, r25	; 0x06
     f86:	8d 83       	std	Y+5, r24	; 0x05
     f88:	a9 01       	movw	r20, r18
     f8a:	bf 01       	movw	r22, r30
     f8c:	ce 01       	movw	r24, r28
     f8e:	01 96       	adiw	r24, 0x01	; 1
     f90:	19 d0       	rcall	.+50     	; 0xfc4 <vfprintf>
     f92:	4d 81       	ldd	r20, Y+5	; 0x05
     f94:	5e 81       	ldd	r21, Y+6	; 0x06
     f96:	57 fd       	sbrc	r21, 7
     f98:	0a c0       	rjmp	.+20     	; 0xfae <vsnprintf+0x5a>
     f9a:	2f 81       	ldd	r18, Y+7	; 0x07
     f9c:	38 85       	ldd	r19, Y+8	; 0x08
     f9e:	42 17       	cp	r20, r18
     fa0:	53 07       	cpc	r21, r19
     fa2:	0c f4       	brge	.+2      	; 0xfa6 <vsnprintf+0x52>
     fa4:	9a 01       	movw	r18, r20
     fa6:	f8 01       	movw	r30, r16
     fa8:	e2 0f       	add	r30, r18
     faa:	f3 1f       	adc	r31, r19
     fac:	10 82       	st	Z, r1
     fae:	2e 96       	adiw	r28, 0x0e	; 14
     fb0:	0f b6       	in	r0, 0x3f	; 63
     fb2:	f8 94       	cli
     fb4:	de bf       	out	0x3e, r29	; 62
     fb6:	0f be       	out	0x3f, r0	; 63
     fb8:	cd bf       	out	0x3d, r28	; 61
     fba:	df 91       	pop	r29
     fbc:	cf 91       	pop	r28
     fbe:	1f 91       	pop	r17
     fc0:	0f 91       	pop	r16
     fc2:	08 95       	ret

00000fc4 <vfprintf>:
     fc4:	2f 92       	push	r2
     fc6:	3f 92       	push	r3
     fc8:	4f 92       	push	r4
     fca:	5f 92       	push	r5
     fcc:	6f 92       	push	r6
     fce:	7f 92       	push	r7
     fd0:	8f 92       	push	r8
     fd2:	9f 92       	push	r9
     fd4:	af 92       	push	r10
     fd6:	bf 92       	push	r11
     fd8:	cf 92       	push	r12
     fda:	df 92       	push	r13
     fdc:	ef 92       	push	r14
     fde:	ff 92       	push	r15
     fe0:	0f 93       	push	r16
     fe2:	1f 93       	push	r17
     fe4:	cf 93       	push	r28
     fe6:	df 93       	push	r29
     fe8:	cd b7       	in	r28, 0x3d	; 61
     fea:	de b7       	in	r29, 0x3e	; 62
     fec:	2b 97       	sbiw	r28, 0x0b	; 11
     fee:	0f b6       	in	r0, 0x3f	; 63
     ff0:	f8 94       	cli
     ff2:	de bf       	out	0x3e, r29	; 62
     ff4:	0f be       	out	0x3f, r0	; 63
     ff6:	cd bf       	out	0x3d, r28	; 61
     ff8:	6c 01       	movw	r12, r24
     ffa:	7b 01       	movw	r14, r22
     ffc:	8a 01       	movw	r16, r20
     ffe:	fc 01       	movw	r30, r24
    1000:	17 82       	std	Z+7, r1	; 0x07
    1002:	16 82       	std	Z+6, r1	; 0x06
    1004:	83 81       	ldd	r24, Z+3	; 0x03
    1006:	81 ff       	sbrs	r24, 1
    1008:	bf c1       	rjmp	.+894    	; 0x1388 <vfprintf+0x3c4>
    100a:	ce 01       	movw	r24, r28
    100c:	01 96       	adiw	r24, 0x01	; 1
    100e:	3c 01       	movw	r6, r24
    1010:	f6 01       	movw	r30, r12
    1012:	93 81       	ldd	r25, Z+3	; 0x03
    1014:	f7 01       	movw	r30, r14
    1016:	93 fd       	sbrc	r25, 3
    1018:	85 91       	lpm	r24, Z+
    101a:	93 ff       	sbrs	r25, 3
    101c:	81 91       	ld	r24, Z+
    101e:	7f 01       	movw	r14, r30
    1020:	88 23       	and	r24, r24
    1022:	09 f4       	brne	.+2      	; 0x1026 <vfprintf+0x62>
    1024:	ad c1       	rjmp	.+858    	; 0x1380 <vfprintf+0x3bc>
    1026:	85 32       	cpi	r24, 0x25	; 37
    1028:	39 f4       	brne	.+14     	; 0x1038 <vfprintf+0x74>
    102a:	93 fd       	sbrc	r25, 3
    102c:	85 91       	lpm	r24, Z+
    102e:	93 ff       	sbrs	r25, 3
    1030:	81 91       	ld	r24, Z+
    1032:	7f 01       	movw	r14, r30
    1034:	85 32       	cpi	r24, 0x25	; 37
    1036:	21 f4       	brne	.+8      	; 0x1040 <vfprintf+0x7c>
    1038:	b6 01       	movw	r22, r12
    103a:	90 e0       	ldi	r25, 0x00	; 0
    103c:	d6 d1       	rcall	.+940    	; 0x13ea <fputc>
    103e:	e8 cf       	rjmp	.-48     	; 0x1010 <vfprintf+0x4c>
    1040:	91 2c       	mov	r9, r1
    1042:	21 2c       	mov	r2, r1
    1044:	31 2c       	mov	r3, r1
    1046:	ff e1       	ldi	r31, 0x1F	; 31
    1048:	f3 15       	cp	r31, r3
    104a:	d8 f0       	brcs	.+54     	; 0x1082 <vfprintf+0xbe>
    104c:	8b 32       	cpi	r24, 0x2B	; 43
    104e:	79 f0       	breq	.+30     	; 0x106e <vfprintf+0xaa>
    1050:	38 f4       	brcc	.+14     	; 0x1060 <vfprintf+0x9c>
    1052:	80 32       	cpi	r24, 0x20	; 32
    1054:	79 f0       	breq	.+30     	; 0x1074 <vfprintf+0xb0>
    1056:	83 32       	cpi	r24, 0x23	; 35
    1058:	a1 f4       	brne	.+40     	; 0x1082 <vfprintf+0xbe>
    105a:	23 2d       	mov	r18, r3
    105c:	20 61       	ori	r18, 0x10	; 16
    105e:	1d c0       	rjmp	.+58     	; 0x109a <vfprintf+0xd6>
    1060:	8d 32       	cpi	r24, 0x2D	; 45
    1062:	61 f0       	breq	.+24     	; 0x107c <vfprintf+0xb8>
    1064:	80 33       	cpi	r24, 0x30	; 48
    1066:	69 f4       	brne	.+26     	; 0x1082 <vfprintf+0xbe>
    1068:	23 2d       	mov	r18, r3
    106a:	21 60       	ori	r18, 0x01	; 1
    106c:	16 c0       	rjmp	.+44     	; 0x109a <vfprintf+0xd6>
    106e:	83 2d       	mov	r24, r3
    1070:	82 60       	ori	r24, 0x02	; 2
    1072:	38 2e       	mov	r3, r24
    1074:	e3 2d       	mov	r30, r3
    1076:	e4 60       	ori	r30, 0x04	; 4
    1078:	3e 2e       	mov	r3, r30
    107a:	2a c0       	rjmp	.+84     	; 0x10d0 <vfprintf+0x10c>
    107c:	f3 2d       	mov	r31, r3
    107e:	f8 60       	ori	r31, 0x08	; 8
    1080:	1d c0       	rjmp	.+58     	; 0x10bc <vfprintf+0xf8>
    1082:	37 fc       	sbrc	r3, 7
    1084:	2d c0       	rjmp	.+90     	; 0x10e0 <vfprintf+0x11c>
    1086:	20 ed       	ldi	r18, 0xD0	; 208
    1088:	28 0f       	add	r18, r24
    108a:	2a 30       	cpi	r18, 0x0A	; 10
    108c:	40 f0       	brcs	.+16     	; 0x109e <vfprintf+0xda>
    108e:	8e 32       	cpi	r24, 0x2E	; 46
    1090:	b9 f4       	brne	.+46     	; 0x10c0 <vfprintf+0xfc>
    1092:	36 fc       	sbrc	r3, 6
    1094:	75 c1       	rjmp	.+746    	; 0x1380 <vfprintf+0x3bc>
    1096:	23 2d       	mov	r18, r3
    1098:	20 64       	ori	r18, 0x40	; 64
    109a:	32 2e       	mov	r3, r18
    109c:	19 c0       	rjmp	.+50     	; 0x10d0 <vfprintf+0x10c>
    109e:	36 fe       	sbrs	r3, 6
    10a0:	06 c0       	rjmp	.+12     	; 0x10ae <vfprintf+0xea>
    10a2:	8a e0       	ldi	r24, 0x0A	; 10
    10a4:	98 9e       	mul	r9, r24
    10a6:	20 0d       	add	r18, r0
    10a8:	11 24       	eor	r1, r1
    10aa:	92 2e       	mov	r9, r18
    10ac:	11 c0       	rjmp	.+34     	; 0x10d0 <vfprintf+0x10c>
    10ae:	ea e0       	ldi	r30, 0x0A	; 10
    10b0:	2e 9e       	mul	r2, r30
    10b2:	20 0d       	add	r18, r0
    10b4:	11 24       	eor	r1, r1
    10b6:	22 2e       	mov	r2, r18
    10b8:	f3 2d       	mov	r31, r3
    10ba:	f0 62       	ori	r31, 0x20	; 32
    10bc:	3f 2e       	mov	r3, r31
    10be:	08 c0       	rjmp	.+16     	; 0x10d0 <vfprintf+0x10c>
    10c0:	8c 36       	cpi	r24, 0x6C	; 108
    10c2:	21 f4       	brne	.+8      	; 0x10cc <vfprintf+0x108>
    10c4:	83 2d       	mov	r24, r3
    10c6:	80 68       	ori	r24, 0x80	; 128
    10c8:	38 2e       	mov	r3, r24
    10ca:	02 c0       	rjmp	.+4      	; 0x10d0 <vfprintf+0x10c>
    10cc:	88 36       	cpi	r24, 0x68	; 104
    10ce:	41 f4       	brne	.+16     	; 0x10e0 <vfprintf+0x11c>
    10d0:	f7 01       	movw	r30, r14
    10d2:	93 fd       	sbrc	r25, 3
    10d4:	85 91       	lpm	r24, Z+
    10d6:	93 ff       	sbrs	r25, 3
    10d8:	81 91       	ld	r24, Z+
    10da:	7f 01       	movw	r14, r30
    10dc:	81 11       	cpse	r24, r1
    10de:	b3 cf       	rjmp	.-154    	; 0x1046 <vfprintf+0x82>
    10e0:	98 2f       	mov	r25, r24
    10e2:	9f 7d       	andi	r25, 0xDF	; 223
    10e4:	95 54       	subi	r25, 0x45	; 69
    10e6:	93 30       	cpi	r25, 0x03	; 3
    10e8:	28 f4       	brcc	.+10     	; 0x10f4 <vfprintf+0x130>
    10ea:	0c 5f       	subi	r16, 0xFC	; 252
    10ec:	1f 4f       	sbci	r17, 0xFF	; 255
    10ee:	9f e3       	ldi	r25, 0x3F	; 63
    10f0:	99 83       	std	Y+1, r25	; 0x01
    10f2:	0d c0       	rjmp	.+26     	; 0x110e <vfprintf+0x14a>
    10f4:	83 36       	cpi	r24, 0x63	; 99
    10f6:	31 f0       	breq	.+12     	; 0x1104 <vfprintf+0x140>
    10f8:	83 37       	cpi	r24, 0x73	; 115
    10fa:	71 f0       	breq	.+28     	; 0x1118 <vfprintf+0x154>
    10fc:	83 35       	cpi	r24, 0x53	; 83
    10fe:	09 f0       	breq	.+2      	; 0x1102 <vfprintf+0x13e>
    1100:	55 c0       	rjmp	.+170    	; 0x11ac <vfprintf+0x1e8>
    1102:	20 c0       	rjmp	.+64     	; 0x1144 <vfprintf+0x180>
    1104:	f8 01       	movw	r30, r16
    1106:	80 81       	ld	r24, Z
    1108:	89 83       	std	Y+1, r24	; 0x01
    110a:	0e 5f       	subi	r16, 0xFE	; 254
    110c:	1f 4f       	sbci	r17, 0xFF	; 255
    110e:	88 24       	eor	r8, r8
    1110:	83 94       	inc	r8
    1112:	91 2c       	mov	r9, r1
    1114:	53 01       	movw	r10, r6
    1116:	12 c0       	rjmp	.+36     	; 0x113c <vfprintf+0x178>
    1118:	28 01       	movw	r4, r16
    111a:	f2 e0       	ldi	r31, 0x02	; 2
    111c:	4f 0e       	add	r4, r31
    111e:	51 1c       	adc	r5, r1
    1120:	f8 01       	movw	r30, r16
    1122:	a0 80       	ld	r10, Z
    1124:	b1 80       	ldd	r11, Z+1	; 0x01
    1126:	36 fe       	sbrs	r3, 6
    1128:	03 c0       	rjmp	.+6      	; 0x1130 <vfprintf+0x16c>
    112a:	69 2d       	mov	r22, r9
    112c:	70 e0       	ldi	r23, 0x00	; 0
    112e:	02 c0       	rjmp	.+4      	; 0x1134 <vfprintf+0x170>
    1130:	6f ef       	ldi	r22, 0xFF	; 255
    1132:	7f ef       	ldi	r23, 0xFF	; 255
    1134:	c5 01       	movw	r24, r10
    1136:	4e d1       	rcall	.+668    	; 0x13d4 <strnlen>
    1138:	4c 01       	movw	r8, r24
    113a:	82 01       	movw	r16, r4
    113c:	f3 2d       	mov	r31, r3
    113e:	ff 77       	andi	r31, 0x7F	; 127
    1140:	3f 2e       	mov	r3, r31
    1142:	15 c0       	rjmp	.+42     	; 0x116e <vfprintf+0x1aa>
    1144:	28 01       	movw	r4, r16
    1146:	22 e0       	ldi	r18, 0x02	; 2
    1148:	42 0e       	add	r4, r18
    114a:	51 1c       	adc	r5, r1
    114c:	f8 01       	movw	r30, r16
    114e:	a0 80       	ld	r10, Z
    1150:	b1 80       	ldd	r11, Z+1	; 0x01
    1152:	36 fe       	sbrs	r3, 6
    1154:	03 c0       	rjmp	.+6      	; 0x115c <vfprintf+0x198>
    1156:	69 2d       	mov	r22, r9
    1158:	70 e0       	ldi	r23, 0x00	; 0
    115a:	02 c0       	rjmp	.+4      	; 0x1160 <vfprintf+0x19c>
    115c:	6f ef       	ldi	r22, 0xFF	; 255
    115e:	7f ef       	ldi	r23, 0xFF	; 255
    1160:	c5 01       	movw	r24, r10
    1162:	2d d1       	rcall	.+602    	; 0x13be <strnlen_P>
    1164:	4c 01       	movw	r8, r24
    1166:	f3 2d       	mov	r31, r3
    1168:	f0 68       	ori	r31, 0x80	; 128
    116a:	3f 2e       	mov	r3, r31
    116c:	82 01       	movw	r16, r4
    116e:	33 fc       	sbrc	r3, 3
    1170:	19 c0       	rjmp	.+50     	; 0x11a4 <vfprintf+0x1e0>
    1172:	82 2d       	mov	r24, r2
    1174:	90 e0       	ldi	r25, 0x00	; 0
    1176:	88 16       	cp	r8, r24
    1178:	99 06       	cpc	r9, r25
    117a:	a0 f4       	brcc	.+40     	; 0x11a4 <vfprintf+0x1e0>
    117c:	b6 01       	movw	r22, r12
    117e:	80 e2       	ldi	r24, 0x20	; 32
    1180:	90 e0       	ldi	r25, 0x00	; 0
    1182:	33 d1       	rcall	.+614    	; 0x13ea <fputc>
    1184:	2a 94       	dec	r2
    1186:	f5 cf       	rjmp	.-22     	; 0x1172 <vfprintf+0x1ae>
    1188:	f5 01       	movw	r30, r10
    118a:	37 fc       	sbrc	r3, 7
    118c:	85 91       	lpm	r24, Z+
    118e:	37 fe       	sbrs	r3, 7
    1190:	81 91       	ld	r24, Z+
    1192:	5f 01       	movw	r10, r30
    1194:	b6 01       	movw	r22, r12
    1196:	90 e0       	ldi	r25, 0x00	; 0
    1198:	28 d1       	rcall	.+592    	; 0x13ea <fputc>
    119a:	21 10       	cpse	r2, r1
    119c:	2a 94       	dec	r2
    119e:	21 e0       	ldi	r18, 0x01	; 1
    11a0:	82 1a       	sub	r8, r18
    11a2:	91 08       	sbc	r9, r1
    11a4:	81 14       	cp	r8, r1
    11a6:	91 04       	cpc	r9, r1
    11a8:	79 f7       	brne	.-34     	; 0x1188 <vfprintf+0x1c4>
    11aa:	e1 c0       	rjmp	.+450    	; 0x136e <vfprintf+0x3aa>
    11ac:	84 36       	cpi	r24, 0x64	; 100
    11ae:	11 f0       	breq	.+4      	; 0x11b4 <vfprintf+0x1f0>
    11b0:	89 36       	cpi	r24, 0x69	; 105
    11b2:	39 f5       	brne	.+78     	; 0x1202 <vfprintf+0x23e>
    11b4:	f8 01       	movw	r30, r16
    11b6:	37 fe       	sbrs	r3, 7
    11b8:	07 c0       	rjmp	.+14     	; 0x11c8 <vfprintf+0x204>
    11ba:	60 81       	ld	r22, Z
    11bc:	71 81       	ldd	r23, Z+1	; 0x01
    11be:	82 81       	ldd	r24, Z+2	; 0x02
    11c0:	93 81       	ldd	r25, Z+3	; 0x03
    11c2:	0c 5f       	subi	r16, 0xFC	; 252
    11c4:	1f 4f       	sbci	r17, 0xFF	; 255
    11c6:	08 c0       	rjmp	.+16     	; 0x11d8 <vfprintf+0x214>
    11c8:	60 81       	ld	r22, Z
    11ca:	71 81       	ldd	r23, Z+1	; 0x01
    11cc:	07 2e       	mov	r0, r23
    11ce:	00 0c       	add	r0, r0
    11d0:	88 0b       	sbc	r24, r24
    11d2:	99 0b       	sbc	r25, r25
    11d4:	0e 5f       	subi	r16, 0xFE	; 254
    11d6:	1f 4f       	sbci	r17, 0xFF	; 255
    11d8:	f3 2d       	mov	r31, r3
    11da:	ff 76       	andi	r31, 0x6F	; 111
    11dc:	3f 2e       	mov	r3, r31
    11de:	97 ff       	sbrs	r25, 7
    11e0:	09 c0       	rjmp	.+18     	; 0x11f4 <vfprintf+0x230>
    11e2:	90 95       	com	r25
    11e4:	80 95       	com	r24
    11e6:	70 95       	com	r23
    11e8:	61 95       	neg	r22
    11ea:	7f 4f       	sbci	r23, 0xFF	; 255
    11ec:	8f 4f       	sbci	r24, 0xFF	; 255
    11ee:	9f 4f       	sbci	r25, 0xFF	; 255
    11f0:	f0 68       	ori	r31, 0x80	; 128
    11f2:	3f 2e       	mov	r3, r31
    11f4:	2a e0       	ldi	r18, 0x0A	; 10
    11f6:	30 e0       	ldi	r19, 0x00	; 0
    11f8:	a3 01       	movw	r20, r6
    11fa:	33 d1       	rcall	.+614    	; 0x1462 <__ultoa_invert>
    11fc:	88 2e       	mov	r8, r24
    11fe:	86 18       	sub	r8, r6
    1200:	44 c0       	rjmp	.+136    	; 0x128a <vfprintf+0x2c6>
    1202:	85 37       	cpi	r24, 0x75	; 117
    1204:	31 f4       	brne	.+12     	; 0x1212 <vfprintf+0x24e>
    1206:	23 2d       	mov	r18, r3
    1208:	2f 7e       	andi	r18, 0xEF	; 239
    120a:	b2 2e       	mov	r11, r18
    120c:	2a e0       	ldi	r18, 0x0A	; 10
    120e:	30 e0       	ldi	r19, 0x00	; 0
    1210:	25 c0       	rjmp	.+74     	; 0x125c <vfprintf+0x298>
    1212:	93 2d       	mov	r25, r3
    1214:	99 7f       	andi	r25, 0xF9	; 249
    1216:	b9 2e       	mov	r11, r25
    1218:	8f 36       	cpi	r24, 0x6F	; 111
    121a:	c1 f0       	breq	.+48     	; 0x124c <vfprintf+0x288>
    121c:	18 f4       	brcc	.+6      	; 0x1224 <vfprintf+0x260>
    121e:	88 35       	cpi	r24, 0x58	; 88
    1220:	79 f0       	breq	.+30     	; 0x1240 <vfprintf+0x27c>
    1222:	ae c0       	rjmp	.+348    	; 0x1380 <vfprintf+0x3bc>
    1224:	80 37       	cpi	r24, 0x70	; 112
    1226:	19 f0       	breq	.+6      	; 0x122e <vfprintf+0x26a>
    1228:	88 37       	cpi	r24, 0x78	; 120
    122a:	21 f0       	breq	.+8      	; 0x1234 <vfprintf+0x270>
    122c:	a9 c0       	rjmp	.+338    	; 0x1380 <vfprintf+0x3bc>
    122e:	e9 2f       	mov	r30, r25
    1230:	e0 61       	ori	r30, 0x10	; 16
    1232:	be 2e       	mov	r11, r30
    1234:	b4 fe       	sbrs	r11, 4
    1236:	0d c0       	rjmp	.+26     	; 0x1252 <vfprintf+0x28e>
    1238:	fb 2d       	mov	r31, r11
    123a:	f4 60       	ori	r31, 0x04	; 4
    123c:	bf 2e       	mov	r11, r31
    123e:	09 c0       	rjmp	.+18     	; 0x1252 <vfprintf+0x28e>
    1240:	34 fe       	sbrs	r3, 4
    1242:	0a c0       	rjmp	.+20     	; 0x1258 <vfprintf+0x294>
    1244:	29 2f       	mov	r18, r25
    1246:	26 60       	ori	r18, 0x06	; 6
    1248:	b2 2e       	mov	r11, r18
    124a:	06 c0       	rjmp	.+12     	; 0x1258 <vfprintf+0x294>
    124c:	28 e0       	ldi	r18, 0x08	; 8
    124e:	30 e0       	ldi	r19, 0x00	; 0
    1250:	05 c0       	rjmp	.+10     	; 0x125c <vfprintf+0x298>
    1252:	20 e1       	ldi	r18, 0x10	; 16
    1254:	30 e0       	ldi	r19, 0x00	; 0
    1256:	02 c0       	rjmp	.+4      	; 0x125c <vfprintf+0x298>
    1258:	20 e1       	ldi	r18, 0x10	; 16
    125a:	32 e0       	ldi	r19, 0x02	; 2
    125c:	f8 01       	movw	r30, r16
    125e:	b7 fe       	sbrs	r11, 7
    1260:	07 c0       	rjmp	.+14     	; 0x1270 <vfprintf+0x2ac>
    1262:	60 81       	ld	r22, Z
    1264:	71 81       	ldd	r23, Z+1	; 0x01
    1266:	82 81       	ldd	r24, Z+2	; 0x02
    1268:	93 81       	ldd	r25, Z+3	; 0x03
    126a:	0c 5f       	subi	r16, 0xFC	; 252
    126c:	1f 4f       	sbci	r17, 0xFF	; 255
    126e:	06 c0       	rjmp	.+12     	; 0x127c <vfprintf+0x2b8>
    1270:	60 81       	ld	r22, Z
    1272:	71 81       	ldd	r23, Z+1	; 0x01
    1274:	80 e0       	ldi	r24, 0x00	; 0
    1276:	90 e0       	ldi	r25, 0x00	; 0
    1278:	0e 5f       	subi	r16, 0xFE	; 254
    127a:	1f 4f       	sbci	r17, 0xFF	; 255
    127c:	a3 01       	movw	r20, r6
    127e:	f1 d0       	rcall	.+482    	; 0x1462 <__ultoa_invert>
    1280:	88 2e       	mov	r8, r24
    1282:	86 18       	sub	r8, r6
    1284:	fb 2d       	mov	r31, r11
    1286:	ff 77       	andi	r31, 0x7F	; 127
    1288:	3f 2e       	mov	r3, r31
    128a:	36 fe       	sbrs	r3, 6
    128c:	0d c0       	rjmp	.+26     	; 0x12a8 <vfprintf+0x2e4>
    128e:	23 2d       	mov	r18, r3
    1290:	2e 7f       	andi	r18, 0xFE	; 254
    1292:	a2 2e       	mov	r10, r18
    1294:	89 14       	cp	r8, r9
    1296:	58 f4       	brcc	.+22     	; 0x12ae <vfprintf+0x2ea>
    1298:	34 fe       	sbrs	r3, 4
    129a:	0b c0       	rjmp	.+22     	; 0x12b2 <vfprintf+0x2ee>
    129c:	32 fc       	sbrc	r3, 2
    129e:	09 c0       	rjmp	.+18     	; 0x12b2 <vfprintf+0x2ee>
    12a0:	83 2d       	mov	r24, r3
    12a2:	8e 7e       	andi	r24, 0xEE	; 238
    12a4:	a8 2e       	mov	r10, r24
    12a6:	05 c0       	rjmp	.+10     	; 0x12b2 <vfprintf+0x2ee>
    12a8:	b8 2c       	mov	r11, r8
    12aa:	a3 2c       	mov	r10, r3
    12ac:	03 c0       	rjmp	.+6      	; 0x12b4 <vfprintf+0x2f0>
    12ae:	b8 2c       	mov	r11, r8
    12b0:	01 c0       	rjmp	.+2      	; 0x12b4 <vfprintf+0x2f0>
    12b2:	b9 2c       	mov	r11, r9
    12b4:	a4 fe       	sbrs	r10, 4
    12b6:	0f c0       	rjmp	.+30     	; 0x12d6 <vfprintf+0x312>
    12b8:	fe 01       	movw	r30, r28
    12ba:	e8 0d       	add	r30, r8
    12bc:	f1 1d       	adc	r31, r1
    12be:	80 81       	ld	r24, Z
    12c0:	80 33       	cpi	r24, 0x30	; 48
    12c2:	21 f4       	brne	.+8      	; 0x12cc <vfprintf+0x308>
    12c4:	9a 2d       	mov	r25, r10
    12c6:	99 7e       	andi	r25, 0xE9	; 233
    12c8:	a9 2e       	mov	r10, r25
    12ca:	09 c0       	rjmp	.+18     	; 0x12de <vfprintf+0x31a>
    12cc:	a2 fe       	sbrs	r10, 2
    12ce:	06 c0       	rjmp	.+12     	; 0x12dc <vfprintf+0x318>
    12d0:	b3 94       	inc	r11
    12d2:	b3 94       	inc	r11
    12d4:	04 c0       	rjmp	.+8      	; 0x12de <vfprintf+0x31a>
    12d6:	8a 2d       	mov	r24, r10
    12d8:	86 78       	andi	r24, 0x86	; 134
    12da:	09 f0       	breq	.+2      	; 0x12de <vfprintf+0x31a>
    12dc:	b3 94       	inc	r11
    12de:	a3 fc       	sbrc	r10, 3
    12e0:	10 c0       	rjmp	.+32     	; 0x1302 <vfprintf+0x33e>
    12e2:	a0 fe       	sbrs	r10, 0
    12e4:	06 c0       	rjmp	.+12     	; 0x12f2 <vfprintf+0x32e>
    12e6:	b2 14       	cp	r11, r2
    12e8:	80 f4       	brcc	.+32     	; 0x130a <vfprintf+0x346>
    12ea:	28 0c       	add	r2, r8
    12ec:	92 2c       	mov	r9, r2
    12ee:	9b 18       	sub	r9, r11
    12f0:	0d c0       	rjmp	.+26     	; 0x130c <vfprintf+0x348>
    12f2:	b2 14       	cp	r11, r2
    12f4:	58 f4       	brcc	.+22     	; 0x130c <vfprintf+0x348>
    12f6:	b6 01       	movw	r22, r12
    12f8:	80 e2       	ldi	r24, 0x20	; 32
    12fa:	90 e0       	ldi	r25, 0x00	; 0
    12fc:	76 d0       	rcall	.+236    	; 0x13ea <fputc>
    12fe:	b3 94       	inc	r11
    1300:	f8 cf       	rjmp	.-16     	; 0x12f2 <vfprintf+0x32e>
    1302:	b2 14       	cp	r11, r2
    1304:	18 f4       	brcc	.+6      	; 0x130c <vfprintf+0x348>
    1306:	2b 18       	sub	r2, r11
    1308:	02 c0       	rjmp	.+4      	; 0x130e <vfprintf+0x34a>
    130a:	98 2c       	mov	r9, r8
    130c:	21 2c       	mov	r2, r1
    130e:	a4 fe       	sbrs	r10, 4
    1310:	0f c0       	rjmp	.+30     	; 0x1330 <vfprintf+0x36c>
    1312:	b6 01       	movw	r22, r12
    1314:	80 e3       	ldi	r24, 0x30	; 48
    1316:	90 e0       	ldi	r25, 0x00	; 0
    1318:	68 d0       	rcall	.+208    	; 0x13ea <fputc>
    131a:	a2 fe       	sbrs	r10, 2
    131c:	16 c0       	rjmp	.+44     	; 0x134a <vfprintf+0x386>
    131e:	a1 fc       	sbrc	r10, 1
    1320:	03 c0       	rjmp	.+6      	; 0x1328 <vfprintf+0x364>
    1322:	88 e7       	ldi	r24, 0x78	; 120
    1324:	90 e0       	ldi	r25, 0x00	; 0
    1326:	02 c0       	rjmp	.+4      	; 0x132c <vfprintf+0x368>
    1328:	88 e5       	ldi	r24, 0x58	; 88
    132a:	90 e0       	ldi	r25, 0x00	; 0
    132c:	b6 01       	movw	r22, r12
    132e:	0c c0       	rjmp	.+24     	; 0x1348 <vfprintf+0x384>
    1330:	8a 2d       	mov	r24, r10
    1332:	86 78       	andi	r24, 0x86	; 134
    1334:	51 f0       	breq	.+20     	; 0x134a <vfprintf+0x386>
    1336:	a1 fe       	sbrs	r10, 1
    1338:	02 c0       	rjmp	.+4      	; 0x133e <vfprintf+0x37a>
    133a:	8b e2       	ldi	r24, 0x2B	; 43
    133c:	01 c0       	rjmp	.+2      	; 0x1340 <vfprintf+0x37c>
    133e:	80 e2       	ldi	r24, 0x20	; 32
    1340:	a7 fc       	sbrc	r10, 7
    1342:	8d e2       	ldi	r24, 0x2D	; 45
    1344:	b6 01       	movw	r22, r12
    1346:	90 e0       	ldi	r25, 0x00	; 0
    1348:	50 d0       	rcall	.+160    	; 0x13ea <fputc>
    134a:	89 14       	cp	r8, r9
    134c:	30 f4       	brcc	.+12     	; 0x135a <vfprintf+0x396>
    134e:	b6 01       	movw	r22, r12
    1350:	80 e3       	ldi	r24, 0x30	; 48
    1352:	90 e0       	ldi	r25, 0x00	; 0
    1354:	4a d0       	rcall	.+148    	; 0x13ea <fputc>
    1356:	9a 94       	dec	r9
    1358:	f8 cf       	rjmp	.-16     	; 0x134a <vfprintf+0x386>
    135a:	8a 94       	dec	r8
    135c:	f3 01       	movw	r30, r6
    135e:	e8 0d       	add	r30, r8
    1360:	f1 1d       	adc	r31, r1
    1362:	80 81       	ld	r24, Z
    1364:	b6 01       	movw	r22, r12
    1366:	90 e0       	ldi	r25, 0x00	; 0
    1368:	40 d0       	rcall	.+128    	; 0x13ea <fputc>
    136a:	81 10       	cpse	r8, r1
    136c:	f6 cf       	rjmp	.-20     	; 0x135a <vfprintf+0x396>
    136e:	22 20       	and	r2, r2
    1370:	09 f4       	brne	.+2      	; 0x1374 <vfprintf+0x3b0>
    1372:	4e ce       	rjmp	.-868    	; 0x1010 <vfprintf+0x4c>
    1374:	b6 01       	movw	r22, r12
    1376:	80 e2       	ldi	r24, 0x20	; 32
    1378:	90 e0       	ldi	r25, 0x00	; 0
    137a:	37 d0       	rcall	.+110    	; 0x13ea <fputc>
    137c:	2a 94       	dec	r2
    137e:	f7 cf       	rjmp	.-18     	; 0x136e <vfprintf+0x3aa>
    1380:	f6 01       	movw	r30, r12
    1382:	86 81       	ldd	r24, Z+6	; 0x06
    1384:	97 81       	ldd	r25, Z+7	; 0x07
    1386:	02 c0       	rjmp	.+4      	; 0x138c <vfprintf+0x3c8>
    1388:	8f ef       	ldi	r24, 0xFF	; 255
    138a:	9f ef       	ldi	r25, 0xFF	; 255
    138c:	2b 96       	adiw	r28, 0x0b	; 11
    138e:	0f b6       	in	r0, 0x3f	; 63
    1390:	f8 94       	cli
    1392:	de bf       	out	0x3e, r29	; 62
    1394:	0f be       	out	0x3f, r0	; 63
    1396:	cd bf       	out	0x3d, r28	; 61
    1398:	df 91       	pop	r29
    139a:	cf 91       	pop	r28
    139c:	1f 91       	pop	r17
    139e:	0f 91       	pop	r16
    13a0:	ff 90       	pop	r15
    13a2:	ef 90       	pop	r14
    13a4:	df 90       	pop	r13
    13a6:	cf 90       	pop	r12
    13a8:	bf 90       	pop	r11
    13aa:	af 90       	pop	r10
    13ac:	9f 90       	pop	r9
    13ae:	8f 90       	pop	r8
    13b0:	7f 90       	pop	r7
    13b2:	6f 90       	pop	r6
    13b4:	5f 90       	pop	r5
    13b6:	4f 90       	pop	r4
    13b8:	3f 90       	pop	r3
    13ba:	2f 90       	pop	r2
    13bc:	08 95       	ret

000013be <strnlen_P>:
    13be:	fc 01       	movw	r30, r24
    13c0:	05 90       	lpm	r0, Z+
    13c2:	61 50       	subi	r22, 0x01	; 1
    13c4:	70 40       	sbci	r23, 0x00	; 0
    13c6:	01 10       	cpse	r0, r1
    13c8:	d8 f7       	brcc	.-10     	; 0x13c0 <strnlen_P+0x2>
    13ca:	80 95       	com	r24
    13cc:	90 95       	com	r25
    13ce:	8e 0f       	add	r24, r30
    13d0:	9f 1f       	adc	r25, r31
    13d2:	08 95       	ret

000013d4 <strnlen>:
    13d4:	fc 01       	movw	r30, r24
    13d6:	61 50       	subi	r22, 0x01	; 1
    13d8:	70 40       	sbci	r23, 0x00	; 0
    13da:	01 90       	ld	r0, Z+
    13dc:	01 10       	cpse	r0, r1
    13de:	d8 f7       	brcc	.-10     	; 0x13d6 <strnlen+0x2>
    13e0:	80 95       	com	r24
    13e2:	90 95       	com	r25
    13e4:	8e 0f       	add	r24, r30
    13e6:	9f 1f       	adc	r25, r31
    13e8:	08 95       	ret

000013ea <fputc>:
    13ea:	0f 93       	push	r16
    13ec:	1f 93       	push	r17
    13ee:	cf 93       	push	r28
    13f0:	df 93       	push	r29
    13f2:	fb 01       	movw	r30, r22
    13f4:	23 81       	ldd	r18, Z+3	; 0x03
    13f6:	21 fd       	sbrc	r18, 1
    13f8:	03 c0       	rjmp	.+6      	; 0x1400 <fputc+0x16>
    13fa:	8f ef       	ldi	r24, 0xFF	; 255
    13fc:	9f ef       	ldi	r25, 0xFF	; 255
    13fe:	2c c0       	rjmp	.+88     	; 0x1458 <fputc+0x6e>
    1400:	22 ff       	sbrs	r18, 2
    1402:	16 c0       	rjmp	.+44     	; 0x1430 <fputc+0x46>
    1404:	46 81       	ldd	r20, Z+6	; 0x06
    1406:	57 81       	ldd	r21, Z+7	; 0x07
    1408:	24 81       	ldd	r18, Z+4	; 0x04
    140a:	35 81       	ldd	r19, Z+5	; 0x05
    140c:	42 17       	cp	r20, r18
    140e:	53 07       	cpc	r21, r19
    1410:	44 f4       	brge	.+16     	; 0x1422 <fputc+0x38>
    1412:	a0 81       	ld	r26, Z
    1414:	b1 81       	ldd	r27, Z+1	; 0x01
    1416:	9d 01       	movw	r18, r26
    1418:	2f 5f       	subi	r18, 0xFF	; 255
    141a:	3f 4f       	sbci	r19, 0xFF	; 255
    141c:	31 83       	std	Z+1, r19	; 0x01
    141e:	20 83       	st	Z, r18
    1420:	8c 93       	st	X, r24
    1422:	26 81       	ldd	r18, Z+6	; 0x06
    1424:	37 81       	ldd	r19, Z+7	; 0x07
    1426:	2f 5f       	subi	r18, 0xFF	; 255
    1428:	3f 4f       	sbci	r19, 0xFF	; 255
    142a:	37 83       	std	Z+7, r19	; 0x07
    142c:	26 83       	std	Z+6, r18	; 0x06
    142e:	14 c0       	rjmp	.+40     	; 0x1458 <fputc+0x6e>
    1430:	8b 01       	movw	r16, r22
    1432:	ec 01       	movw	r28, r24
    1434:	fb 01       	movw	r30, r22
    1436:	00 84       	ldd	r0, Z+8	; 0x08
    1438:	f1 85       	ldd	r31, Z+9	; 0x09
    143a:	e0 2d       	mov	r30, r0
    143c:	19 95       	eicall
    143e:	89 2b       	or	r24, r25
    1440:	e1 f6       	brne	.-72     	; 0x13fa <fputc+0x10>
    1442:	d8 01       	movw	r26, r16
    1444:	16 96       	adiw	r26, 0x06	; 6
    1446:	8d 91       	ld	r24, X+
    1448:	9c 91       	ld	r25, X
    144a:	17 97       	sbiw	r26, 0x07	; 7
    144c:	01 96       	adiw	r24, 0x01	; 1
    144e:	17 96       	adiw	r26, 0x07	; 7
    1450:	9c 93       	st	X, r25
    1452:	8e 93       	st	-X, r24
    1454:	16 97       	sbiw	r26, 0x06	; 6
    1456:	ce 01       	movw	r24, r28
    1458:	df 91       	pop	r29
    145a:	cf 91       	pop	r28
    145c:	1f 91       	pop	r17
    145e:	0f 91       	pop	r16
    1460:	08 95       	ret

00001462 <__ultoa_invert>:
    1462:	fa 01       	movw	r30, r20
    1464:	aa 27       	eor	r26, r26
    1466:	28 30       	cpi	r18, 0x08	; 8
    1468:	51 f1       	breq	.+84     	; 0x14be <__ultoa_invert+0x5c>
    146a:	20 31       	cpi	r18, 0x10	; 16
    146c:	81 f1       	breq	.+96     	; 0x14ce <__ultoa_invert+0x6c>
    146e:	e8 94       	clt
    1470:	6f 93       	push	r22
    1472:	6e 7f       	andi	r22, 0xFE	; 254
    1474:	6e 5f       	subi	r22, 0xFE	; 254
    1476:	7f 4f       	sbci	r23, 0xFF	; 255
    1478:	8f 4f       	sbci	r24, 0xFF	; 255
    147a:	9f 4f       	sbci	r25, 0xFF	; 255
    147c:	af 4f       	sbci	r26, 0xFF	; 255
    147e:	b1 e0       	ldi	r27, 0x01	; 1
    1480:	3e d0       	rcall	.+124    	; 0x14fe <__ultoa_invert+0x9c>
    1482:	b4 e0       	ldi	r27, 0x04	; 4
    1484:	3c d0       	rcall	.+120    	; 0x14fe <__ultoa_invert+0x9c>
    1486:	67 0f       	add	r22, r23
    1488:	78 1f       	adc	r23, r24
    148a:	89 1f       	adc	r24, r25
    148c:	9a 1f       	adc	r25, r26
    148e:	a1 1d       	adc	r26, r1
    1490:	68 0f       	add	r22, r24
    1492:	79 1f       	adc	r23, r25
    1494:	8a 1f       	adc	r24, r26
    1496:	91 1d       	adc	r25, r1
    1498:	a1 1d       	adc	r26, r1
    149a:	6a 0f       	add	r22, r26
    149c:	71 1d       	adc	r23, r1
    149e:	81 1d       	adc	r24, r1
    14a0:	91 1d       	adc	r25, r1
    14a2:	a1 1d       	adc	r26, r1
    14a4:	20 d0       	rcall	.+64     	; 0x14e6 <__ultoa_invert+0x84>
    14a6:	09 f4       	brne	.+2      	; 0x14aa <__ultoa_invert+0x48>
    14a8:	68 94       	set
    14aa:	3f 91       	pop	r19
    14ac:	2a e0       	ldi	r18, 0x0A	; 10
    14ae:	26 9f       	mul	r18, r22
    14b0:	11 24       	eor	r1, r1
    14b2:	30 19       	sub	r19, r0
    14b4:	30 5d       	subi	r19, 0xD0	; 208
    14b6:	31 93       	st	Z+, r19
    14b8:	de f6       	brtc	.-74     	; 0x1470 <__ultoa_invert+0xe>
    14ba:	cf 01       	movw	r24, r30
    14bc:	08 95       	ret
    14be:	46 2f       	mov	r20, r22
    14c0:	47 70       	andi	r20, 0x07	; 7
    14c2:	40 5d       	subi	r20, 0xD0	; 208
    14c4:	41 93       	st	Z+, r20
    14c6:	b3 e0       	ldi	r27, 0x03	; 3
    14c8:	0f d0       	rcall	.+30     	; 0x14e8 <__ultoa_invert+0x86>
    14ca:	c9 f7       	brne	.-14     	; 0x14be <__ultoa_invert+0x5c>
    14cc:	f6 cf       	rjmp	.-20     	; 0x14ba <__ultoa_invert+0x58>
    14ce:	46 2f       	mov	r20, r22
    14d0:	4f 70       	andi	r20, 0x0F	; 15
    14d2:	40 5d       	subi	r20, 0xD0	; 208
    14d4:	4a 33       	cpi	r20, 0x3A	; 58
    14d6:	18 f0       	brcs	.+6      	; 0x14de <__ultoa_invert+0x7c>
    14d8:	49 5d       	subi	r20, 0xD9	; 217
    14da:	31 fd       	sbrc	r19, 1
    14dc:	40 52       	subi	r20, 0x20	; 32
    14de:	41 93       	st	Z+, r20
    14e0:	02 d0       	rcall	.+4      	; 0x14e6 <__ultoa_invert+0x84>
    14e2:	a9 f7       	brne	.-22     	; 0x14ce <__ultoa_invert+0x6c>
    14e4:	ea cf       	rjmp	.-44     	; 0x14ba <__ultoa_invert+0x58>
    14e6:	b4 e0       	ldi	r27, 0x04	; 4
    14e8:	a6 95       	lsr	r26
    14ea:	97 95       	ror	r25
    14ec:	87 95       	ror	r24
    14ee:	77 95       	ror	r23
    14f0:	67 95       	ror	r22
    14f2:	ba 95       	dec	r27
    14f4:	c9 f7       	brne	.-14     	; 0x14e8 <__ultoa_invert+0x86>
    14f6:	00 97       	sbiw	r24, 0x00	; 0
    14f8:	61 05       	cpc	r22, r1
    14fa:	71 05       	cpc	r23, r1
    14fc:	08 95       	ret
    14fe:	9b 01       	movw	r18, r22
    1500:	ac 01       	movw	r20, r24
    1502:	0a 2e       	mov	r0, r26
    1504:	06 94       	lsr	r0
    1506:	57 95       	ror	r21
    1508:	47 95       	ror	r20
    150a:	37 95       	ror	r19
    150c:	27 95       	ror	r18
    150e:	ba 95       	dec	r27
    1510:	c9 f7       	brne	.-14     	; 0x1504 <__ultoa_invert+0xa2>
    1512:	62 0f       	add	r22, r18
    1514:	73 1f       	adc	r23, r19
    1516:	84 1f       	adc	r24, r20
    1518:	95 1f       	adc	r25, r21
    151a:	a0 1d       	adc	r26, r0
    151c:	08 95       	ret

0000151e <_exit>:
    151e:	f8 94       	cli

00001520 <__stop_program>:
    1520:	ff cf       	rjmp	.-2      	; 0x1520 <__stop_program>
