
uCBoardBeispiele.elf:     file format elf32-avr

Sections:
Idx Name          Size      VMA       LMA       File off  Algn
  0 .data         00000090  00800200  000013be  00001452  2**0
                  CONTENTS, ALLOC, LOAD, DATA
  1 .text         000013be  00000000  00000000  00000094  2**1
                  CONTENTS, ALLOC, LOAD, READONLY, CODE
  2 .bss          000000c8  00800290  00800290  000014e2  2**0
                  ALLOC
  3 .comment      0000005c  00000000  00000000  000014e2  2**0
                  CONTENTS, READONLY
  4 .note.gnu.avr.deviceinfo 00000040  00000000  00000000  00001540  2**2
                  CONTENTS, READONLY
  5 .debug_aranges 000001e8  00000000  00000000  00001580  2**0
                  CONTENTS, READONLY, DEBUGGING
  6 .debug_info   00002552  00000000  00000000  00001768  2**0
                  CONTENTS, READONLY, DEBUGGING
  7 .debug_abbrev 00000ff9  00000000  00000000  00003cba  2**0
                  CONTENTS, READONLY, DEBUGGING
  8 .debug_line   00001417  00000000  00000000  00004cb3  2**0
                  CONTENTS, READONLY, DEBUGGING
  9 .debug_frame  0000068c  00000000  00000000  000060cc  2**2
                  CONTENTS, READONLY, DEBUGGING
 10 .debug_str    00000ce8  00000000  00000000  00006758  2**0
                  CONTENTS, READONLY, DEBUGGING
 11 .debug_loc    00001afb  00000000  00000000  00007440  2**0
                  CONTENTS, READONLY, DEBUGGING
 12 .debug_ranges 00000218  00000000  00000000  00008f3b  2**0
                  CONTENTS, READONLY, DEBUGGING

Disassembly of section .text:

00000000 <__vectors>:
       0:	71 c0       	rjmp	.+226    	; 0xe4 <__ctors_end>
       2:	00 00       	nop
       4:	8f c0       	rjmp	.+286    	; 0x124 <__bad_interrupt>
       6:	00 00       	nop
       8:	8d c0       	rjmp	.+282    	; 0x124 <__bad_interrupt>
       a:	00 00       	nop
       c:	8b c0       	rjmp	.+278    	; 0x124 <__bad_interrupt>
       e:	00 00       	nop
      10:	89 c0       	rjmp	.+274    	; 0x124 <__bad_interrupt>
      12:	00 00       	nop
      14:	87 c0       	rjmp	.+270    	; 0x124 <__bad_interrupt>
      16:	00 00       	nop
      18:	85 c0       	rjmp	.+266    	; 0x124 <__bad_interrupt>
      1a:	00 00       	nop
      1c:	83 c0       	rjmp	.+262    	; 0x124 <__bad_interrupt>
      1e:	00 00       	nop
      20:	81 c0       	rjmp	.+258    	; 0x124 <__bad_interrupt>
      22:	00 00       	nop
      24:	7f c0       	rjmp	.+254    	; 0x124 <__bad_interrupt>
      26:	00 00       	nop
      28:	7d c0       	rjmp	.+250    	; 0x124 <__bad_interrupt>
      2a:	00 00       	nop
      2c:	7b c0       	rjmp	.+246    	; 0x124 <__bad_interrupt>
      2e:	00 00       	nop
      30:	79 c0       	rjmp	.+242    	; 0x124 <__bad_interrupt>
      32:	00 00       	nop
      34:	77 c0       	rjmp	.+238    	; 0x124 <__bad_interrupt>
      36:	00 00       	nop
      38:	75 c0       	rjmp	.+234    	; 0x124 <__bad_interrupt>
      3a:	00 00       	nop
      3c:	73 c0       	rjmp	.+230    	; 0x124 <__bad_interrupt>
      3e:	00 00       	nop
      40:	71 c0       	rjmp	.+226    	; 0x124 <__bad_interrupt>
      42:	00 00       	nop
      44:	6f c0       	rjmp	.+222    	; 0x124 <__bad_interrupt>
      46:	00 00       	nop
      48:	6d c0       	rjmp	.+218    	; 0x124 <__bad_interrupt>
      4a:	00 00       	nop
      4c:	6b c0       	rjmp	.+214    	; 0x124 <__bad_interrupt>
      4e:	00 00       	nop
      50:	69 c0       	rjmp	.+210    	; 0x124 <__bad_interrupt>
      52:	00 00       	nop
      54:	67 c0       	rjmp	.+206    	; 0x124 <__bad_interrupt>
      56:	00 00       	nop
      58:	65 c0       	rjmp	.+202    	; 0x124 <__bad_interrupt>
      5a:	00 00       	nop
      5c:	0a c6       	rjmp	.+3092   	; 0xc72 <__vector_23>
      5e:	00 00       	nop
      60:	61 c0       	rjmp	.+194    	; 0x124 <__bad_interrupt>
      62:	00 00       	nop
      64:	5f c0       	rjmp	.+190    	; 0x124 <__bad_interrupt>
      66:	00 00       	nop
      68:	5d c0       	rjmp	.+186    	; 0x124 <__bad_interrupt>
      6a:	00 00       	nop
      6c:	5b c0       	rjmp	.+182    	; 0x124 <__bad_interrupt>
      6e:	00 00       	nop
      70:	59 c0       	rjmp	.+178    	; 0x124 <__bad_interrupt>
      72:	00 00       	nop
      74:	57 c0       	rjmp	.+174    	; 0x124 <__bad_interrupt>
      76:	00 00       	nop
      78:	55 c0       	rjmp	.+170    	; 0x124 <__bad_interrupt>
      7a:	00 00       	nop
      7c:	53 c0       	rjmp	.+166    	; 0x124 <__bad_interrupt>
      7e:	00 00       	nop
      80:	51 c0       	rjmp	.+162    	; 0x124 <__bad_interrupt>
      82:	00 00       	nop
      84:	4f c0       	rjmp	.+158    	; 0x124 <__bad_interrupt>
      86:	00 00       	nop
      88:	4d c0       	rjmp	.+154    	; 0x124 <__bad_interrupt>
      8a:	00 00       	nop
      8c:	4b c0       	rjmp	.+150    	; 0x124 <__bad_interrupt>
      8e:	00 00       	nop
      90:	49 c0       	rjmp	.+146    	; 0x124 <__bad_interrupt>
      92:	00 00       	nop
      94:	47 c0       	rjmp	.+142    	; 0x124 <__bad_interrupt>
      96:	00 00       	nop
      98:	45 c0       	rjmp	.+138    	; 0x124 <__bad_interrupt>
      9a:	00 00       	nop
      9c:	43 c0       	rjmp	.+134    	; 0x124 <__bad_interrupt>
      9e:	00 00       	nop
      a0:	41 c0       	rjmp	.+130    	; 0x124 <__bad_interrupt>
      a2:	00 00       	nop
      a4:	3f c0       	rjmp	.+126    	; 0x124 <__bad_interrupt>
      a6:	00 00       	nop
      a8:	3d c0       	rjmp	.+122    	; 0x124 <__bad_interrupt>
      aa:	00 00       	nop
      ac:	3b c0       	rjmp	.+118    	; 0x124 <__bad_interrupt>
      ae:	00 00       	nop
      b0:	39 c0       	rjmp	.+114    	; 0x124 <__bad_interrupt>
      b2:	00 00       	nop
      b4:	37 c0       	rjmp	.+110    	; 0x124 <__bad_interrupt>
      b6:	00 00       	nop
      b8:	35 c0       	rjmp	.+106    	; 0x124 <__bad_interrupt>
      ba:	00 00       	nop
      bc:	33 c0       	rjmp	.+102    	; 0x124 <__bad_interrupt>
      be:	00 00       	nop
      c0:	31 c0       	rjmp	.+98     	; 0x124 <__bad_interrupt>
      c2:	00 00       	nop
      c4:	2f c0       	rjmp	.+94     	; 0x124 <__bad_interrupt>
      c6:	00 00       	nop
      c8:	2d c0       	rjmp	.+90     	; 0x124 <__bad_interrupt>
      ca:	00 00       	nop
      cc:	2b c0       	rjmp	.+86     	; 0x124 <__bad_interrupt>
      ce:	00 00       	nop
      d0:	29 c0       	rjmp	.+82     	; 0x124 <__bad_interrupt>
      d2:	00 00       	nop
      d4:	27 c0       	rjmp	.+78     	; 0x124 <__bad_interrupt>
      d6:	00 00       	nop
      d8:	25 c0       	rjmp	.+74     	; 0x124 <__bad_interrupt>
      da:	00 00       	nop
      dc:	23 c0       	rjmp	.+70     	; 0x124 <__bad_interrupt>
      de:	00 00       	nop
      e0:	21 c0       	rjmp	.+66     	; 0x124 <__bad_interrupt>
	...

000000e4 <__ctors_end>:
      e4:	11 24       	eor	r1, r1
      e6:	1f be       	out	0x3f, r1	; 63
      e8:	cf ef       	ldi	r28, 0xFF	; 255
      ea:	d1 e2       	ldi	r29, 0x21	; 33
      ec:	de bf       	out	0x3e, r29	; 62
      ee:	cd bf       	out	0x3d, r28	; 61
      f0:	00 e0       	ldi	r16, 0x00	; 0
      f2:	0c bf       	out	0x3c, r16	; 60

000000f4 <__do_copy_data>:
      f4:	12 e0       	ldi	r17, 0x02	; 2
      f6:	a0 e0       	ldi	r26, 0x00	; 0
      f8:	b2 e0       	ldi	r27, 0x02	; 2
      fa:	ee eb       	ldi	r30, 0xBE	; 190
      fc:	f3 e1       	ldi	r31, 0x13	; 19
      fe:	00 e0       	ldi	r16, 0x00	; 0
     100:	0b bf       	out	0x3b, r16	; 59
     102:	02 c0       	rjmp	.+4      	; 0x108 <__do_copy_data+0x14>
     104:	07 90       	elpm	r0, Z+
     106:	0d 92       	st	X+, r0
     108:	a0 39       	cpi	r26, 0x90	; 144
     10a:	b1 07       	cpc	r27, r17
     10c:	d9 f7       	brne	.-10     	; 0x104 <__do_copy_data+0x10>

0000010e <__do_clear_bss>:
     10e:	23 e0       	ldi	r18, 0x03	; 3
     110:	a0 e9       	ldi	r26, 0x90	; 144
     112:	b2 e0       	ldi	r27, 0x02	; 2
     114:	01 c0       	rjmp	.+2      	; 0x118 <.do_clear_bss_start>

00000116 <.do_clear_bss_loop>:
     116:	1d 92       	st	X+, r1

00000118 <.do_clear_bss_start>:
     118:	a8 35       	cpi	r26, 0x58	; 88
     11a:	b2 07       	cpc	r27, r18
     11c:	e1 f7       	brne	.-8      	; 0x116 <.do_clear_bss_loop>
     11e:	03 d0       	rcall	.+6      	; 0x126 <main>
     120:	0c 94 dd 09 	jmp	0x13ba	; 0x13ba <_exit>

00000124 <__bad_interrupt>:
     124:	6d cf       	rjmp	.-294    	; 0x0 <__vectors>

00000126 <main>:

#define ANZAHL  256

//Hauptprogramm
int main(void)
{
     126:	cf 93       	push	r28
     128:	df 93       	push	r29
     12a:	cd b7       	in	r28, 0x3d	; 61
     12c:	de b7       	in	r29, 0x3e	; 62
     12e:	d2 50       	subi	r29, 0x02	; 2
     130:	0f b6       	in	r0, 0x3f	; 63
     132:	f8 94       	cli
     134:	de bf       	out	0x3e, r29	; 62
     136:	0f be       	out	0x3f, r0	; 63
     138:	cd bf       	out	0x3d, r28	; 61
    uint8_t inTasterAlt=0;
    uint8_t posWrite=0;
    uint8_t posRead=0;
    
    //Initialisieren
    initBoard(1);
     13a:	81 e0       	ldi	r24, 0x01	; 1
     13c:	e9 d2       	rcall	.+1490   	; 0x710 <initBoard>
     13e:	fe 01       	movw	r30, r28
     140:	31 96       	adiw	r30, 0x01	; 1
     142:	ce 01       	movw	r24, r28
     144:	8f 5f       	subi	r24, 0xFF	; 255
     146:	9d 4f       	sbci	r25, 0xFD	; 253
    //alle Muster auf 0 setzen
    for (uint16_t i = 0; i < ANZAHL; i=i+1)
    {
        muster[i] = 0;
     148:	11 92       	st	Z+, r1
     14a:	11 92       	st	Z+, r1
    uint8_t posRead=0;
    
    //Initialisieren
    initBoard(1);
    //alle Muster auf 0 setzen
    for (uint16_t i = 0; i < ANZAHL; i=i+1)
     14c:	e8 17       	cp	r30, r24
     14e:	f9 07       	cpc	r31, r25
     150:	d9 f7       	brne	.-10     	; 0x148 <main+0x22>
     152:	10 e0       	ldi	r17, 0x00	; 0
        
        //Verarbeitung-------------------------------------------------------------
        
        if (posRead)
        {
            lcdLog("RI: %u W: %u",adresse,muster[adresse]);
     154:	0f 2e       	mov	r0, r31
     156:	fa e0       	ldi	r31, 0x0A	; 10
     158:	cf 2e       	mov	r12, r31
     15a:	f2 e0       	ldi	r31, 0x02	; 2
     15c:	df 2e       	mov	r13, r31
     15e:	f0 2d       	mov	r31, r0
        if (posWrite)
        {
            //Wert von ADC08 (Poti0) im Array speichern
            //(Adresse von den Schaltern)
            muster[adresse] = adcRead(ADC_08_POTI_1);
            lcdLog("WI: %u W: %u",adresse,muster[adresse]);
     160:	0f 2e       	mov	r0, r31
     162:	f7 e1       	ldi	r31, 0x17	; 23
     164:	ef 2e       	mov	r14, r31
     166:	f2 e0       	ldi	r31, 0x02	; 2
     168:	ff 2e       	mov	r15, r31
     16a:	f0 2d       	mov	r31, r0
     16c:	01 c0       	rjmp	.+2      	; 0x170 <main+0x4a>
    //Unendlichschlaufe
    while(1)
    {
        //Eingabe------------------------------------------------------------------
        inTasterAlt=inTaster;
        inTaster=buttonReadAllPL();
     16e:	1b 2d       	mov	r17, r11
     170:	46 d0       	rcall	.+140    	; 0x1fe <buttonReadAllPL>
     172:	b8 2e       	mov	r11, r24
        posRead=(inTasterAlt^inTaster)&inTaster&1;
     174:	10 95       	com	r17
     176:	18 23       	and	r17, r24
        posWrite=(inTasterAlt^inTaster)&inTaster&2;
     178:	01 2f       	mov	r16, r17
        adresse = switchReadAll();
     17a:	02 70       	andi	r16, 0x02	; 2
     17c:	3e d0       	rcall	.+124    	; 0x1fa <switchReadAll>
     17e:	a8 2e       	mov	r10, r24
        
        //Verarbeitung-------------------------------------------------------------
        
        if (posRead)
     180:	10 ff       	sbrs	r17, 0
     182:	19 c0       	rjmp	.+50     	; 0x1b6 <main+0x90>
        {
            lcdLog("RI: %u W: %u",adresse,muster[adresse]);
     184:	e8 2f       	mov	r30, r24
     186:	f0 e0       	ldi	r31, 0x00	; 0
     188:	ee 0f       	add	r30, r30
     18a:	ff 1f       	adc	r31, r31
     18c:	21 e0       	ldi	r18, 0x01	; 1
     18e:	30 e0       	ldi	r19, 0x00	; 0
     190:	2c 0f       	add	r18, r28
     192:	3d 1f       	adc	r19, r29
     194:	e2 0f       	add	r30, r18
     196:	f3 1f       	adc	r31, r19
     198:	81 81       	ldd	r24, Z+1	; 0x01
     19a:	8f 93       	push	r24
     19c:	80 81       	ld	r24, Z
     19e:	8f 93       	push	r24
     1a0:	1f 92       	push	r1
     1a2:	af 92       	push	r10
     1a4:	df 92       	push	r13
     1a6:	cf 92       	push	r12
     1a8:	be d3       	rcall	.+1916   	; 0x926 <lcdLog>
     1aa:	0f 90       	pop	r0
     1ac:	0f 90       	pop	r0
     1ae:	0f 90       	pop	r0
     1b0:	0f 90       	pop	r0
     1b2:	0f 90       	pop	r0
     1b4:	0f 90       	pop	r0
        }
        if (posWrite)
     1b6:	00 23       	and	r16, r16
        {
            //Wert von ADC08 (Poti0) im Array speichern
            //(Adresse von den Schaltern)
            muster[adresse] = adcRead(ADC_08_POTI_1);
     1b8:	d1 f2       	breq	.-76     	; 0x16e <main+0x48>
     1ba:	0a 2d       	mov	r16, r10
     1bc:	10 e0       	ldi	r17, 0x00	; 0
     1be:	88 e0       	ldi	r24, 0x08	; 8
     1c0:	4c d0       	rcall	.+152    	; 0x25a <adcRead>
     1c2:	f8 01       	movw	r30, r16
     1c4:	ee 0f       	add	r30, r30
     1c6:	ff 1f       	adc	r31, r31
     1c8:	21 e0       	ldi	r18, 0x01	; 1
     1ca:	30 e0       	ldi	r19, 0x00	; 0
     1cc:	2c 0f       	add	r18, r28
     1ce:	3d 1f       	adc	r19, r29
     1d0:	e2 0f       	add	r30, r18
     1d2:	f3 1f       	adc	r31, r19
     1d4:	80 83       	st	Z, r24
     1d6:	91 83       	std	Z+1, r25	; 0x01
            lcdLog("WI: %u W: %u",adresse,muster[adresse]);
     1d8:	9f 93       	push	r25
     1da:	8f 93       	push	r24
     1dc:	1f 92       	push	r1
     1de:	af 92       	push	r10
     1e0:	ff 92       	push	r15
     1e2:	ef 92       	push	r14
     1e4:	a0 d3       	rcall	.+1856   	; 0x926 <lcdLog>
     1e6:	0f 90       	pop	r0
     1e8:	0f 90       	pop	r0
     1ea:	0f 90       	pop	r0
     1ec:	0f 90       	pop	r0
     1ee:	0f 90       	pop	r0
     1f0:	0f 90       	pop	r0
     1f2:	bd cf       	rjmp	.-134    	; 0x16e <main+0x48>

000001f4 <ledWriteAll>:
            }
        }
        matrix_buffer_pos += breite + Zeichenabstand;           // Position für das nächste Zeichen berechnen
        str_p++;                                                // Zeichen-Zeiger auf das nächste Zeichen richten
    }
}
     1f4:	82 b9       	out	0x02, r24	; 2
     1f6:	95 b9       	out	0x05, r25	; 5
     1f8:	08 95       	ret

000001fa <switchReadAll>:
     1fa:	86 b1       	in	r24, 0x06	; 6
     1fc:	08 95       	ret

000001fe <buttonReadAllPL>:
     1fe:	80 91 09 01 	lds	r24, 0x0109	; 0x800109 <__TEXT_REGION_LENGTH__+0x700109>
     202:	08 95       	ret

00000204 <startSystemTimeMs>:
     204:	83 e0       	ldi	r24, 0x03	; 3
     206:	84 bd       	out	0x24, r24	; 36
     208:	8b e0       	ldi	r24, 0x0B	; 11
     20a:	85 bd       	out	0x25, r24	; 37
     20c:	81 e0       	ldi	r24, 0x01	; 1
     20e:	80 93 6e 00 	sts	0x006E, r24	; 0x80006e <__TEXT_REGION_LENGTH__+0x70006e>
     212:	89 ef       	ldi	r24, 0xF9	; 249
     214:	87 bd       	out	0x27, r24	; 39
     216:	08 95       	ret

00000218 <initAdc>:
     218:	11 ba       	out	0x11, r1	; 17
     21a:	10 ba       	out	0x10, r1	; 16
     21c:	10 92 08 01 	sts	0x0108, r1	; 0x800108 <__TEXT_REGION_LENGTH__+0x700108>
     220:	10 92 07 01 	sts	0x0107, r1	; 0x800107 <__TEXT_REGION_LENGTH__+0x700107>
     224:	80 e4       	ldi	r24, 0x40	; 64
     226:	80 93 7c 00 	sts	0x007C, r24	; 0x80007c <__TEXT_REGION_LENGTH__+0x70007c>
     22a:	8f e0       	ldi	r24, 0x0F	; 15
     22c:	80 93 7e 00 	sts	0x007E, r24	; 0x80007e <__TEXT_REGION_LENGTH__+0x70007e>
     230:	8f ef       	ldi	r24, 0xFF	; 255
     232:	80 93 7d 00 	sts	0x007D, r24	; 0x80007d <__TEXT_REGION_LENGTH__+0x70007d>
     236:	ea e7       	ldi	r30, 0x7A	; 122
     238:	f0 e0       	ldi	r31, 0x00	; 0
     23a:	87 ea       	ldi	r24, 0xA7	; 167
     23c:	80 83       	st	Z, r24
     23e:	10 92 7b 00 	sts	0x007B, r1	; 0x80007b <__TEXT_REGION_LENGTH__+0x70007b>
     242:	80 81       	ld	r24, Z
     244:	80 64       	ori	r24, 0x40	; 64
     246:	80 83       	st	Z, r24
     248:	80 81       	ld	r24, Z
     24a:	84 ff       	sbrs	r24, 4
     24c:	fd cf       	rjmp	.-6      	; 0x248 <initAdc+0x30>
     24e:	ea e7       	ldi	r30, 0x7A	; 122
     250:	f0 e0       	ldi	r31, 0x00	; 0
     252:	80 81       	ld	r24, Z
     254:	8f 7e       	andi	r24, 0xEF	; 239
     256:	80 83       	st	Z, r24
     258:	08 95       	ret

0000025a <adcRead>:
     25a:	90 e4       	ldi	r25, 0x40	; 64
     25c:	90 93 7c 00 	sts	0x007C, r25	; 0x80007c <__TEXT_REGION_LENGTH__+0x70007c>
     260:	88 30       	cpi	r24, 0x08	; 8
     262:	60 f0       	brcs	.+24     	; 0x27c <adcRead+0x22>
     264:	ec e7       	ldi	r30, 0x7C	; 124
     266:	f0 e0       	ldi	r31, 0x00	; 0
     268:	90 81       	ld	r25, Z
     26a:	88 50       	subi	r24, 0x08	; 8
     26c:	89 2b       	or	r24, r25
     26e:	80 83       	st	Z, r24
     270:	eb e7       	ldi	r30, 0x7B	; 123
     272:	f0 e0       	ldi	r31, 0x00	; 0
     274:	80 81       	ld	r24, Z
     276:	88 61       	ori	r24, 0x18	; 24
     278:	80 83       	st	Z, r24
     27a:	0a c0       	rjmp	.+20     	; 0x290 <adcRead+0x36>
     27c:	ec e7       	ldi	r30, 0x7C	; 124
     27e:	f0 e0       	ldi	r31, 0x00	; 0
     280:	90 81       	ld	r25, Z
     282:	89 2b       	or	r24, r25
     284:	80 83       	st	Z, r24
     286:	eb e7       	ldi	r30, 0x7B	; 123
     288:	f0 e0       	ldi	r31, 0x00	; 0
     28a:	80 81       	ld	r24, Z
     28c:	87 7e       	andi	r24, 0xE7	; 231
     28e:	80 83       	st	Z, r24
     290:	ea e7       	ldi	r30, 0x7A	; 122
     292:	f0 e0       	ldi	r31, 0x00	; 0
     294:	80 81       	ld	r24, Z
     296:	80 64       	ori	r24, 0x40	; 64
     298:	80 83       	st	Z, r24
     29a:	80 81       	ld	r24, Z
     29c:	84 ff       	sbrs	r24, 4
     29e:	fd cf       	rjmp	.-6      	; 0x29a <adcRead+0x40>
     2a0:	8f ea       	ldi	r24, 0xAF	; 175
     2a2:	94 e0       	ldi	r25, 0x04	; 4
     2a4:	01 97       	sbiw	r24, 0x01	; 1
     2a6:	f1 f7       	brne	.-4      	; 0x2a4 <adcRead+0x4a>
     2a8:	00 c0       	rjmp	.+0      	; 0x2aa <adcRead+0x50>
     2aa:	00 00       	nop
     2ac:	80 91 78 00 	lds	r24, 0x0078	; 0x800078 <__TEXT_REGION_LENGTH__+0x700078>
     2b0:	20 91 79 00 	lds	r18, 0x0079	; 0x800079 <__TEXT_REGION_LENGTH__+0x700079>
     2b4:	ea e7       	ldi	r30, 0x7A	; 122
     2b6:	f0 e0       	ldi	r31, 0x00	; 0
     2b8:	90 81       	ld	r25, Z
     2ba:	9f 7e       	andi	r25, 0xEF	; 239
     2bc:	90 83       	st	Z, r25
     2be:	90 e0       	ldi	r25, 0x00	; 0
     2c0:	92 2b       	or	r25, r18
     2c2:	08 95       	ret

000002c4 <rgbWrite>:
     2c4:	2f ef       	ldi	r18, 0xFF	; 255
     2c6:	33 e0       	ldi	r19, 0x03	; 3
     2c8:	f9 01       	movw	r30, r18
     2ca:	e8 1b       	sub	r30, r24
     2cc:	f9 0b       	sbc	r31, r25
     2ce:	c9 01       	movw	r24, r18
     2d0:	86 1b       	sub	r24, r22
     2d2:	97 0b       	sbc	r25, r23
     2d4:	24 1b       	sub	r18, r20
     2d6:	35 0b       	sbc	r19, r21
     2d8:	f0 93 a9 00 	sts	0x00A9, r31	; 0x8000a9 <__TEXT_REGION_LENGTH__+0x7000a9>
     2dc:	e0 93 a8 00 	sts	0x00A8, r30	; 0x8000a8 <__TEXT_REGION_LENGTH__+0x7000a8>
     2e0:	90 93 ab 00 	sts	0x00AB, r25	; 0x8000ab <__TEXT_REGION_LENGTH__+0x7000ab>
     2e4:	80 93 aa 00 	sts	0x00AA, r24	; 0x8000aa <__TEXT_REGION_LENGTH__+0x7000aa>
     2e8:	30 93 ad 00 	sts	0x00AD, r19	; 0x8000ad <__TEXT_REGION_LENGTH__+0x7000ad>
     2ec:	20 93 ac 00 	sts	0x00AC, r18	; 0x8000ac <__TEXT_REGION_LENGTH__+0x7000ac>
     2f0:	08 95       	ret

000002f2 <initRgb>:
     2f2:	8e ef       	ldi	r24, 0xFE	; 254
     2f4:	80 93 a0 00 	sts	0x00A0, r24	; 0x8000a0 <__TEXT_REGION_LENGTH__+0x7000a0>
     2f8:	8b e1       	ldi	r24, 0x1B	; 27
     2fa:	80 93 a1 00 	sts	0x00A1, r24	; 0x8000a1 <__TEXT_REGION_LENGTH__+0x7000a1>
     2fe:	83 e0       	ldi	r24, 0x03	; 3
     300:	80 93 a7 00 	sts	0x00A7, r24	; 0x8000a7 <__TEXT_REGION_LENGTH__+0x7000a7>
     304:	8f ef       	ldi	r24, 0xFF	; 255
     306:	80 93 a6 00 	sts	0x00A6, r24	; 0x8000a6 <__TEXT_REGION_LENGTH__+0x7000a6>
     30a:	40 e0       	ldi	r20, 0x00	; 0
     30c:	50 e0       	ldi	r21, 0x00	; 0
     30e:	60 e0       	ldi	r22, 0x00	; 0
     310:	70 e0       	ldi	r23, 0x00	; 0
     312:	80 e0       	ldi	r24, 0x00	; 0
     314:	90 e0       	ldi	r25, 0x00	; 0
     316:	d6 cf       	rjmp	.-84     	; 0x2c4 <rgbWrite>
     318:	08 95       	ret

0000031a <lcdSid>:
     31a:	88 23       	and	r24, r24
     31c:	11 f0       	breq	.+4      	; 0x322 <lcdSid+0x8>
     31e:	a0 9a       	sbi	0x14, 0	; 20
     320:	08 95       	ret
     322:	a0 98       	cbi	0x14, 0	; 20
     324:	08 95       	ret

00000326 <lcdSclk>:
     326:	88 23       	and	r24, r24
     328:	11 f0       	breq	.+4      	; 0x32e <lcdSclk+0x8>
     32a:	a1 9a       	sbi	0x14, 1	; 20
     32c:	08 95       	ret
     32e:	a1 98       	cbi	0x14, 1	; 20
     330:	08 95       	ret

00000332 <lcdLight>:
     332:	81 11       	cpse	r24, r1
     334:	04 c0       	rjmp	.+8      	; 0x33e <lcdLight+0xc>
     336:	84 b5       	in	r24, 0x24	; 36
     338:	8f 7d       	andi	r24, 0xDF	; 223
     33a:	84 bd       	out	0x24, r24	; 36
     33c:	08 95       	ret
     33e:	94 b5       	in	r25, 0x24	; 36
     340:	90 62       	ori	r25, 0x20	; 32
     342:	94 bd       	out	0x24, r25	; 36
     344:	88 bd       	out	0x28, r24	; 40
     346:	08 95       	ret

00000348 <writeLcdF>:
     348:	ef 92       	push	r14
     34a:	ff 92       	push	r15
     34c:	0f 93       	push	r16
     34e:	1f 93       	push	r17
     350:	cf 93       	push	r28
     352:	df 93       	push	r29
     354:	7c 01       	movw	r14, r24
     356:	eb 01       	movw	r28, r22
     358:	81 e0       	ldi	r24, 0x01	; 1
     35a:	df df       	rcall	.-66     	; 0x31a <lcdSid>
     35c:	05 e0       	ldi	r16, 0x05	; 5
     35e:	10 e0       	ldi	r17, 0x00	; 0
     360:	80 e0       	ldi	r24, 0x00	; 0
     362:	e1 df       	rcall	.-62     	; 0x326 <lcdSclk>
     364:	81 e0       	ldi	r24, 0x01	; 1
     366:	df df       	rcall	.-66     	; 0x326 <lcdSclk>
     368:	01 50       	subi	r16, 0x01	; 1
     36a:	11 09       	sbc	r17, r1
     36c:	c9 f7       	brne	.-14     	; 0x360 <writeLcdF+0x18>
     36e:	80 e0       	ldi	r24, 0x00	; 0
     370:	d4 df       	rcall	.-88     	; 0x31a <lcdSid>
     372:	80 e0       	ldi	r24, 0x00	; 0
     374:	d8 df       	rcall	.-80     	; 0x326 <lcdSclk>
     376:	81 e0       	ldi	r24, 0x01	; 1
     378:	d6 df       	rcall	.-84     	; 0x326 <lcdSclk>
     37a:	83 e4       	ldi	r24, 0x43	; 67
     37c:	e8 16       	cp	r14, r24
     37e:	f1 04       	cpc	r15, r1
     380:	19 f4       	brne	.+6      	; 0x388 <writeLcdF+0x40>
     382:	80 e0       	ldi	r24, 0x00	; 0
     384:	ca df       	rcall	.-108    	; 0x31a <lcdSid>
     386:	02 c0       	rjmp	.+4      	; 0x38c <writeLcdF+0x44>
     388:	81 e0       	ldi	r24, 0x01	; 1
     38a:	c7 df       	rcall	.-114    	; 0x31a <lcdSid>
     38c:	80 e0       	ldi	r24, 0x00	; 0
     38e:	cb df       	rcall	.-106    	; 0x326 <lcdSclk>
     390:	81 e0       	ldi	r24, 0x01	; 1
     392:	c9 df       	rcall	.-110    	; 0x326 <lcdSclk>
     394:	80 e0       	ldi	r24, 0x00	; 0
     396:	c1 df       	rcall	.-126    	; 0x31a <lcdSid>
     398:	80 e0       	ldi	r24, 0x00	; 0
     39a:	c5 df       	rcall	.-118    	; 0x326 <lcdSclk>
     39c:	81 e0       	ldi	r24, 0x01	; 1
     39e:	c3 df       	rcall	.-122    	; 0x326 <lcdSclk>
     3a0:	04 e0       	ldi	r16, 0x04	; 4
     3a2:	10 e0       	ldi	r17, 0x00	; 0
     3a4:	80 e0       	ldi	r24, 0x00	; 0
     3a6:	bf df       	rcall	.-130    	; 0x326 <lcdSclk>
     3a8:	c0 ff       	sbrs	r28, 0
     3aa:	03 c0       	rjmp	.+6      	; 0x3b2 <writeLcdF+0x6a>
     3ac:	81 e0       	ldi	r24, 0x01	; 1
     3ae:	b5 df       	rcall	.-150    	; 0x31a <lcdSid>
     3b0:	02 c0       	rjmp	.+4      	; 0x3b6 <writeLcdF+0x6e>
     3b2:	80 e0       	ldi	r24, 0x00	; 0
     3b4:	b2 df       	rcall	.-156    	; 0x31a <lcdSid>
     3b6:	d6 95       	lsr	r29
     3b8:	c7 95       	ror	r28
     3ba:	80 e0       	ldi	r24, 0x00	; 0
     3bc:	b4 df       	rcall	.-152    	; 0x326 <lcdSclk>
     3be:	81 e0       	ldi	r24, 0x01	; 1
     3c0:	b2 df       	rcall	.-156    	; 0x326 <lcdSclk>
     3c2:	01 50       	subi	r16, 0x01	; 1
     3c4:	11 09       	sbc	r17, r1
     3c6:	71 f7       	brne	.-36     	; 0x3a4 <writeLcdF+0x5c>
     3c8:	80 e0       	ldi	r24, 0x00	; 0
     3ca:	a7 df       	rcall	.-178    	; 0x31a <lcdSid>
     3cc:	04 e0       	ldi	r16, 0x04	; 4
     3ce:	10 e0       	ldi	r17, 0x00	; 0
     3d0:	80 e0       	ldi	r24, 0x00	; 0
     3d2:	a9 df       	rcall	.-174    	; 0x326 <lcdSclk>
     3d4:	81 e0       	ldi	r24, 0x01	; 1
     3d6:	a7 df       	rcall	.-178    	; 0x326 <lcdSclk>
     3d8:	01 50       	subi	r16, 0x01	; 1
     3da:	11 09       	sbc	r17, r1
     3dc:	c9 f7       	brne	.-14     	; 0x3d0 <writeLcdF+0x88>
     3de:	04 e0       	ldi	r16, 0x04	; 4
     3e0:	10 e0       	ldi	r17, 0x00	; 0
     3e2:	80 e0       	ldi	r24, 0x00	; 0
     3e4:	a0 df       	rcall	.-192    	; 0x326 <lcdSclk>
     3e6:	c0 ff       	sbrs	r28, 0
     3e8:	03 c0       	rjmp	.+6      	; 0x3f0 <writeLcdF+0xa8>
     3ea:	81 e0       	ldi	r24, 0x01	; 1
     3ec:	96 df       	rcall	.-212    	; 0x31a <lcdSid>
     3ee:	02 c0       	rjmp	.+4      	; 0x3f4 <writeLcdF+0xac>
     3f0:	80 e0       	ldi	r24, 0x00	; 0
     3f2:	93 df       	rcall	.-218    	; 0x31a <lcdSid>
     3f4:	d6 95       	lsr	r29
     3f6:	c7 95       	ror	r28
     3f8:	80 e0       	ldi	r24, 0x00	; 0
     3fa:	95 df       	rcall	.-214    	; 0x326 <lcdSclk>
     3fc:	81 e0       	ldi	r24, 0x01	; 1
     3fe:	93 df       	rcall	.-218    	; 0x326 <lcdSclk>
     400:	01 50       	subi	r16, 0x01	; 1
     402:	11 09       	sbc	r17, r1
     404:	71 f7       	brne	.-36     	; 0x3e2 <writeLcdF+0x9a>
     406:	80 e0       	ldi	r24, 0x00	; 0
     408:	88 df       	rcall	.-240    	; 0x31a <lcdSid>
     40a:	c4 e0       	ldi	r28, 0x04	; 4
     40c:	d0 e0       	ldi	r29, 0x00	; 0
     40e:	80 e0       	ldi	r24, 0x00	; 0
     410:	8a df       	rcall	.-236    	; 0x326 <lcdSclk>
     412:	81 e0       	ldi	r24, 0x01	; 1
     414:	88 df       	rcall	.-240    	; 0x326 <lcdSclk>
     416:	21 97       	sbiw	r28, 0x01	; 1
     418:	d1 f7       	brne	.-12     	; 0x40e <__LOCK_REGION_LENGTH__+0xe>
     41a:	81 e0       	ldi	r24, 0x01	; 1
     41c:	7e df       	rcall	.-260    	; 0x31a <lcdSid>
     41e:	87 ec       	ldi	r24, 0xC7	; 199
     420:	90 e0       	ldi	r25, 0x00	; 0
     422:	01 97       	sbiw	r24, 0x01	; 1
     424:	f1 f7       	brne	.-4      	; 0x422 <__LOCK_REGION_LENGTH__+0x22>
     426:	00 c0       	rjmp	.+0      	; 0x428 <__LOCK_REGION_LENGTH__+0x28>
     428:	00 00       	nop
     42a:	df 91       	pop	r29
     42c:	cf 91       	pop	r28
     42e:	1f 91       	pop	r17
     430:	0f 91       	pop	r16
     432:	ff 90       	pop	r15
     434:	ef 90       	pop	r14
     436:	08 95       	ret

00000438 <lcdWriteText>:
     438:	1f 93       	push	r17
     43a:	cf 93       	push	r28
     43c:	df 93       	push	r29
     43e:	cd b7       	in	r28, 0x3d	; 61
     440:	de b7       	in	r29, 0x3e	; 62
     442:	65 97       	sbiw	r28, 0x15	; 21
     444:	0f b6       	in	r0, 0x3f	; 63
     446:	f8 94       	cli
     448:	de bf       	out	0x3e, r29	; 62
     44a:	0f be       	out	0x3f, r0	; 63
     44c:	cd bf       	out	0x3d, r28	; 61
     44e:	9e 01       	movw	r18, r28
     450:	20 5e       	subi	r18, 0xE0	; 224
     452:	3f 4f       	sbci	r19, 0xFF	; 255
     454:	4e 8d       	ldd	r20, Y+30	; 0x1e
     456:	5f 8d       	ldd	r21, Y+31	; 0x1f
     458:	65 e1       	ldi	r22, 0x15	; 21
     45a:	70 e0       	ldi	r23, 0x00	; 0
     45c:	ce 01       	movw	r24, r28
     45e:	01 96       	adiw	r24, 0x01	; 1
     460:	c7 d4       	rcall	.+2446   	; 0xdf0 <vsnprintf>
     462:	6d 8d       	ldd	r22, Y+29	; 0x1d
     464:	8c 8d       	ldd	r24, Y+28	; 0x1c
     466:	90 e2       	ldi	r25, 0x20	; 32
     468:	89 9f       	mul	r24, r25
     46a:	60 0d       	add	r22, r0
     46c:	11 24       	eor	r1, r1
     46e:	60 68       	ori	r22, 0x80	; 128
     470:	70 e0       	ldi	r23, 0x00	; 0
     472:	83 e4       	ldi	r24, 0x43	; 67
     474:	90 e0       	ldi	r25, 0x00	; 0
     476:	68 df       	rcall	.-304    	; 0x348 <writeLcdF>
     478:	69 81       	ldd	r22, Y+1	; 0x01
     47a:	66 23       	and	r22, r22
     47c:	79 f0       	breq	.+30     	; 0x49c <lcdWriteText+0x64>
     47e:	10 e0       	ldi	r17, 0x00	; 0
     480:	1f 5f       	subi	r17, 0xFF	; 255
     482:	70 e0       	ldi	r23, 0x00	; 0
     484:	84 e4       	ldi	r24, 0x44	; 68
     486:	90 e0       	ldi	r25, 0x00	; 0
     488:	5f df       	rcall	.-322    	; 0x348 <writeLcdF>
     48a:	e1 e0       	ldi	r30, 0x01	; 1
     48c:	f0 e0       	ldi	r31, 0x00	; 0
     48e:	ec 0f       	add	r30, r28
     490:	fd 1f       	adc	r31, r29
     492:	e1 0f       	add	r30, r17
     494:	f1 1d       	adc	r31, r1
     496:	60 81       	ld	r22, Z
     498:	61 11       	cpse	r22, r1
     49a:	f2 cf       	rjmp	.-28     	; 0x480 <lcdWriteText+0x48>
     49c:	65 96       	adiw	r28, 0x15	; 21
     49e:	0f b6       	in	r0, 0x3f	; 63
     4a0:	f8 94       	cli
     4a2:	de bf       	out	0x3e, r29	; 62
     4a4:	0f be       	out	0x3f, r0	; 63
     4a6:	cd bf       	out	0x3d, r28	; 61
     4a8:	df 91       	pop	r29
     4aa:	cf 91       	pop	r28
     4ac:	1f 91       	pop	r17
     4ae:	08 95       	ret

000004b0 <lcdWriteZahl>:
     4b0:	2f 92       	push	r2
     4b2:	3f 92       	push	r3
     4b4:	4f 92       	push	r4
     4b6:	5f 92       	push	r5
     4b8:	6f 92       	push	r6
     4ba:	7f 92       	push	r7
     4bc:	8f 92       	push	r8
     4be:	9f 92       	push	r9
     4c0:	af 92       	push	r10
     4c2:	bf 92       	push	r11
     4c4:	cf 92       	push	r12
     4c6:	df 92       	push	r13
     4c8:	ef 92       	push	r14
     4ca:	ff 92       	push	r15
     4cc:	0f 93       	push	r16
     4ce:	1f 93       	push	r17
     4d0:	cf 93       	push	r28
     4d2:	df 93       	push	r29
     4d4:	cd b7       	in	r28, 0x3d	; 61
     4d6:	de b7       	in	r29, 0x3e	; 62
     4d8:	e3 97       	sbiw	r28, 0x33	; 51
     4da:	0f b6       	in	r0, 0x3f	; 63
     4dc:	f8 94       	cli
     4de:	de bf       	out	0x3e, r29	; 62
     4e0:	0f be       	out	0x3f, r0	; 63
     4e2:	cd bf       	out	0x3d, r28	; 61
     4e4:	8a ab       	std	Y+50, r24	; 0x32
     4e6:	6b ab       	std	Y+51, r22	; 0x33
     4e8:	ed a6       	std	Y+45, r14	; 0x2d
     4ea:	fe a6       	std	Y+46, r15	; 0x2e
     4ec:	70 2e       	mov	r7, r16
     4ee:	61 2e       	mov	r6, r17
     4f0:	52 2e       	mov	r5, r18
     4f2:	43 2e       	mov	r4, r19
     4f4:	cf a6       	std	Y+47, r12	; 0x2f
     4f6:	a8 aa       	std	Y+48, r10	; 0x30
     4f8:	8c 2d       	mov	r24, r12
     4fa:	8a 0d       	add	r24, r10
     4fc:	89 ab       	std	Y+49, r24	; 0x31
     4fe:	85 31       	cpi	r24, 0x15	; 21
     500:	70 f0       	brcs	.+28     	; 0x51e <lcdWriteZahl+0x6e>
     502:	84 e2       	ldi	r24, 0x24	; 36
     504:	92 e0       	ldi	r25, 0x02	; 2
     506:	9f 93       	push	r25
     508:	8f 93       	push	r24
     50a:	9b a9       	ldd	r25, Y+51	; 0x33
     50c:	9f 93       	push	r25
     50e:	ea a9       	ldd	r30, Y+50	; 0x32
     510:	ef 93       	push	r30
     512:	92 df       	rcall	.-220    	; 0x438 <lcdWriteText>
     514:	0f 90       	pop	r0
     516:	0f 90       	pop	r0
     518:	0f 90       	pop	r0
     51a:	0f 90       	pop	r0
     51c:	a8 c0       	rjmp	.+336    	; 0x66e <lcdWriteZahl+0x1be>
     51e:	4e 01       	movw	r8, r28
     520:	f5 e1       	ldi	r31, 0x15	; 21
     522:	8f 0e       	add	r8, r31
     524:	91 1c       	adc	r9, r1
     526:	ce 01       	movw	r24, r28
     528:	01 96       	adiw	r24, 0x01	; 1
     52a:	9c a7       	std	Y+44, r25	; 0x2c
     52c:	8b a7       	std	Y+43, r24	; 0x2b
     52e:	24 2e       	mov	r2, r20
     530:	35 2e       	mov	r3, r21
     532:	0f 2e       	mov	r0, r31
     534:	fa e0       	ldi	r31, 0x0A	; 10
     536:	af 2e       	mov	r10, r31
     538:	f0 2d       	mov	r31, r0
     53a:	b1 2c       	mov	r11, r1
     53c:	c1 2c       	mov	r12, r1
     53e:	d1 2c       	mov	r13, r1
     540:	e1 2c       	mov	r14, r1
     542:	f1 2c       	mov	r15, r1
     544:	00 e0       	ldi	r16, 0x00	; 0
     546:	10 e0       	ldi	r17, 0x00	; 0
     548:	2d a5       	ldd	r18, Y+45	; 0x2d
     54a:	3e a5       	ldd	r19, Y+46	; 0x2e
     54c:	47 2d       	mov	r20, r7
     54e:	56 2d       	mov	r21, r6
     550:	65 2d       	mov	r22, r5
     552:	74 2d       	mov	r23, r4
     554:	82 2d       	mov	r24, r2
     556:	93 2d       	mov	r25, r3
     558:	d8 d3       	rcall	.+1968   	; 0xd0a <__umoddi3>
     55a:	20 5d       	subi	r18, 0xD0	; 208
     55c:	f4 01       	movw	r30, r8
     55e:	22 93       	st	-Z, r18
     560:	4f 01       	movw	r8, r30
     562:	2d a5       	ldd	r18, Y+45	; 0x2d
     564:	3e a5       	ldd	r19, Y+46	; 0x2e
     566:	47 2d       	mov	r20, r7
     568:	56 2d       	mov	r21, r6
     56a:	65 2d       	mov	r22, r5
     56c:	74 2d       	mov	r23, r4
     56e:	82 2d       	mov	r24, r2
     570:	93 2d       	mov	r25, r3
     572:	cd d3       	rcall	.+1946   	; 0xd0e <__udivdi3>
     574:	2d a7       	std	Y+45, r18	; 0x2d
     576:	3e a7       	std	Y+46, r19	; 0x2e
     578:	74 2e       	mov	r7, r20
     57a:	65 2e       	mov	r6, r21
     57c:	56 2e       	mov	r5, r22
     57e:	47 2e       	mov	r4, r23
     580:	28 2e       	mov	r2, r24
     582:	39 2e       	mov	r3, r25
     584:	8b a5       	ldd	r24, Y+43	; 0x2b
     586:	9c a5       	ldd	r25, Y+44	; 0x2c
     588:	88 15       	cp	r24, r8
     58a:	99 05       	cpc	r25, r9
     58c:	91 f6       	brne	.-92     	; 0x532 <lcdWriteZahl+0x82>
     58e:	84 e1       	ldi	r24, 0x14	; 20
     590:	99 a9       	ldd	r25, Y+49	; 0x31
     592:	89 1b       	sub	r24, r25
     594:	ef a5       	ldd	r30, Y+47	; 0x2f
     596:	ee 23       	and	r30, r30
     598:	89 f0       	breq	.+34     	; 0x5bc <lcdWriteZahl+0x10c>
     59a:	fe 01       	movw	r30, r28
     59c:	75 96       	adiw	r30, 0x15	; 21
     59e:	2f a5       	ldd	r18, Y+47	; 0x2f
     5a0:	28 0f       	add	r18, r24
     5a2:	a1 e0       	ldi	r26, 0x01	; 1
     5a4:	b0 e0       	ldi	r27, 0x00	; 0
     5a6:	ac 0f       	add	r26, r28
     5a8:	bd 1f       	adc	r27, r29
     5aa:	a8 0f       	add	r26, r24
     5ac:	b1 1d       	adc	r27, r1
     5ae:	9c 91       	ld	r25, X
     5b0:	91 93       	st	Z+, r25
     5b2:	8f 5f       	subi	r24, 0xFF	; 255
     5b4:	82 13       	cpse	r24, r18
     5b6:	f5 cf       	rjmp	.-22     	; 0x5a2 <lcdWriteZahl+0xf2>
     5b8:	3f a5       	ldd	r19, Y+47	; 0x2f
     5ba:	02 c0       	rjmp	.+4      	; 0x5c0 <lcdWriteZahl+0x110>
     5bc:	28 2f       	mov	r18, r24
     5be:	3f a5       	ldd	r19, Y+47	; 0x2f
     5c0:	f8 a9       	ldd	r31, Y+48	; 0x30
     5c2:	ff 23       	and	r31, r31
     5c4:	f1 f0       	breq	.+60     	; 0x602 <lcdWriteZahl+0x152>
     5c6:	fe 01       	movw	r30, r28
     5c8:	e3 0f       	add	r30, r19
     5ca:	f1 1d       	adc	r31, r1
     5cc:	8e e2       	ldi	r24, 0x2E	; 46
     5ce:	85 8b       	std	Z+21, r24	; 0x15
     5d0:	91 e0       	ldi	r25, 0x01	; 1
     5d2:	93 0f       	add	r25, r19
     5d4:	38 a9       	ldd	r19, Y+48	; 0x30
     5d6:	39 0f       	add	r19, r25
     5d8:	89 2f       	mov	r24, r25
     5da:	29 1b       	sub	r18, r25
     5dc:	e5 e1       	ldi	r30, 0x15	; 21
     5de:	f0 e0       	ldi	r31, 0x00	; 0
     5e0:	ec 0f       	add	r30, r28
     5e2:	fd 1f       	adc	r31, r29
     5e4:	e8 0f       	add	r30, r24
     5e6:	f1 1d       	adc	r31, r1
     5e8:	92 2f       	mov	r25, r18
     5ea:	98 0f       	add	r25, r24
     5ec:	a1 e0       	ldi	r26, 0x01	; 1
     5ee:	b0 e0       	ldi	r27, 0x00	; 0
     5f0:	ac 0f       	add	r26, r28
     5f2:	bd 1f       	adc	r27, r29
     5f4:	a9 0f       	add	r26, r25
     5f6:	b1 1d       	adc	r27, r1
     5f8:	9c 91       	ld	r25, X
     5fa:	90 83       	st	Z, r25
     5fc:	8f 5f       	subi	r24, 0xFF	; 255
     5fe:	38 13       	cpse	r19, r24
     600:	ed cf       	rjmp	.-38     	; 0x5dc <lcdWriteZahl+0x12c>
     602:	fe 01       	movw	r30, r28
     604:	e3 0f       	add	r30, r19
     606:	f1 1d       	adc	r31, r1
     608:	15 8a       	std	Z+21, r1	; 0x15
     60a:	8d 89       	ldd	r24, Y+21	; 0x15
     60c:	80 33       	cpi	r24, 0x30	; 48
     60e:	11 f5       	brne	.+68     	; 0x654 <lcdWriteZahl+0x1a4>
     610:	8f a5       	ldd	r24, Y+47	; 0x2f
     612:	48 2f       	mov	r20, r24
     614:	50 e0       	ldi	r21, 0x00	; 0
     616:	41 50       	subi	r20, 0x01	; 1
     618:	51 09       	sbc	r21, r1
     61a:	14 16       	cp	r1, r20
     61c:	15 06       	cpc	r1, r21
     61e:	d4 f4       	brge	.+52     	; 0x654 <lcdWriteZahl+0x1a4>
     620:	80 e0       	ldi	r24, 0x00	; 0
     622:	90 e0       	ldi	r25, 0x00	; 0
     624:	20 e0       	ldi	r18, 0x00	; 0
     626:	60 e2       	ldi	r22, 0x20	; 32
     628:	2f 5f       	subi	r18, 0xFF	; 255
     62a:	e5 e1       	ldi	r30, 0x15	; 21
     62c:	f0 e0       	ldi	r31, 0x00	; 0
     62e:	ec 0f       	add	r30, r28
     630:	fd 1f       	adc	r31, r29
     632:	e8 0f       	add	r30, r24
     634:	f9 1f       	adc	r31, r25
     636:	60 83       	st	Z, r22
     638:	82 2f       	mov	r24, r18
     63a:	90 e0       	ldi	r25, 0x00	; 0
     63c:	e5 e1       	ldi	r30, 0x15	; 21
     63e:	f0 e0       	ldi	r31, 0x00	; 0
     640:	ec 0f       	add	r30, r28
     642:	fd 1f       	adc	r31, r29
     644:	e8 0f       	add	r30, r24
     646:	f9 1f       	adc	r31, r25
     648:	30 81       	ld	r19, Z
     64a:	30 33       	cpi	r19, 0x30	; 48
     64c:	19 f4       	brne	.+6      	; 0x654 <lcdWriteZahl+0x1a4>
     64e:	84 17       	cp	r24, r20
     650:	95 07       	cpc	r25, r21
     652:	54 f3       	brlt	.-44     	; 0x628 <lcdWriteZahl+0x178>
     654:	ce 01       	movw	r24, r28
     656:	45 96       	adiw	r24, 0x15	; 21
     658:	9f 93       	push	r25
     65a:	8f 93       	push	r24
     65c:	9b a9       	ldd	r25, Y+51	; 0x33
     65e:	9f 93       	push	r25
     660:	ea a9       	ldd	r30, Y+50	; 0x32
     662:	ef 93       	push	r30
     664:	e9 de       	rcall	.-558    	; 0x438 <lcdWriteText>
     666:	0f 90       	pop	r0
     668:	0f 90       	pop	r0
     66a:	0f 90       	pop	r0
     66c:	0f 90       	pop	r0
     66e:	e3 96       	adiw	r28, 0x33	; 51
     670:	0f b6       	in	r0, 0x3f	; 63
     672:	f8 94       	cli
     674:	de bf       	out	0x3e, r29	; 62
     676:	0f be       	out	0x3f, r0	; 63
     678:	cd bf       	out	0x3d, r28	; 61
     67a:	df 91       	pop	r29
     67c:	cf 91       	pop	r28
     67e:	1f 91       	pop	r17
     680:	0f 91       	pop	r16
     682:	ff 90       	pop	r15
     684:	ef 90       	pop	r14
     686:	df 90       	pop	r13
     688:	cf 90       	pop	r12
     68a:	bf 90       	pop	r11
     68c:	af 90       	pop	r10
     68e:	9f 90       	pop	r9
     690:	8f 90       	pop	r8
     692:	7f 90       	pop	r7
     694:	6f 90       	pop	r6
     696:	5f 90       	pop	r5
     698:	4f 90       	pop	r4
     69a:	3f 90       	pop	r3
     69c:	2f 90       	pop	r2
     69e:	08 95       	ret

000006a0 <lcdClear>:
     6a0:	61 e0       	ldi	r22, 0x01	; 1
     6a2:	70 e0       	ldi	r23, 0x00	; 0
     6a4:	83 e4       	ldi	r24, 0x43	; 67
     6a6:	90 e0       	ldi	r25, 0x00	; 0
     6a8:	4f de       	rcall	.-866    	; 0x348 <writeLcdF>
     6aa:	8f e3       	ldi	r24, 0x3F	; 63
     6ac:	9f e1       	ldi	r25, 0x1F	; 31
     6ae:	01 97       	sbiw	r24, 0x01	; 1
     6b0:	f1 f7       	brne	.-4      	; 0x6ae <lcdClear+0xe>
     6b2:	00 c0       	rjmp	.+0      	; 0x6b4 <lcdClear+0x14>
     6b4:	00 00       	nop
     6b6:	8c e4       	ldi	r24, 0x4C	; 76
     6b8:	92 e0       	ldi	r25, 0x02	; 2
     6ba:	9f 93       	push	r25
     6bc:	8f 93       	push	r24
     6be:	1f 92       	push	r1
     6c0:	1f 92       	push	r1
     6c2:	ba de       	rcall	.-652    	; 0x438 <lcdWriteText>
     6c4:	0f 90       	pop	r0
     6c6:	0f 90       	pop	r0
     6c8:	0f 90       	pop	r0
     6ca:	0f 90       	pop	r0
     6cc:	08 95       	ret

000006ce <initLcd>:
     6ce:	81 e0       	ldi	r24, 0x01	; 1
     6d0:	2a de       	rcall	.-940    	; 0x326 <lcdSclk>
     6d2:	80 e0       	ldi	r24, 0x00	; 0
     6d4:	22 de       	rcall	.-956    	; 0x31a <lcdSid>
     6d6:	64 e3       	ldi	r22, 0x34	; 52
     6d8:	70 e0       	ldi	r23, 0x00	; 0
     6da:	83 e4       	ldi	r24, 0x43	; 67
     6dc:	90 e0       	ldi	r25, 0x00	; 0
     6de:	34 de       	rcall	.-920    	; 0x348 <writeLcdF>
     6e0:	69 e0       	ldi	r22, 0x09	; 9
     6e2:	70 e0       	ldi	r23, 0x00	; 0
     6e4:	83 e4       	ldi	r24, 0x43	; 67
     6e6:	90 e0       	ldi	r25, 0x00	; 0
     6e8:	2f de       	rcall	.-930    	; 0x348 <writeLcdF>
     6ea:	60 e3       	ldi	r22, 0x30	; 48
     6ec:	70 e0       	ldi	r23, 0x00	; 0
     6ee:	83 e4       	ldi	r24, 0x43	; 67
     6f0:	90 e0       	ldi	r25, 0x00	; 0
     6f2:	2a de       	rcall	.-940    	; 0x348 <writeLcdF>
     6f4:	6c e0       	ldi	r22, 0x0C	; 12
     6f6:	70 e0       	ldi	r23, 0x00	; 0
     6f8:	83 e4       	ldi	r24, 0x43	; 67
     6fa:	90 e0       	ldi	r25, 0x00	; 0
     6fc:	25 de       	rcall	.-950    	; 0x348 <writeLcdF>
     6fe:	d0 df       	rcall	.-96     	; 0x6a0 <lcdClear>
     700:	67 e0       	ldi	r22, 0x07	; 7
     702:	70 e0       	ldi	r23, 0x00	; 0
     704:	83 e4       	ldi	r24, 0x43	; 67
     706:	90 e0       	ldi	r25, 0x00	; 0
     708:	1f de       	rcall	.-962    	; 0x348 <writeLcdF>
     70a:	80 e0       	ldi	r24, 0x00	; 0
     70c:	12 ce       	rjmp	.-988    	; 0x332 <lcdLight>
     70e:	08 95       	ret

00000710 <initBoard>:
     710:	4f 92       	push	r4
     712:	5f 92       	push	r5
     714:	6f 92       	push	r6
     716:	7f 92       	push	r7
     718:	8f 92       	push	r8
     71a:	9f 92       	push	r9
     71c:	af 92       	push	r10
     71e:	bf 92       	push	r11
     720:	cf 92       	push	r12
     722:	df 92       	push	r13
     724:	ef 92       	push	r14
     726:	ff 92       	push	r15
     728:	0f 93       	push	r16
     72a:	1f 93       	push	r17
     72c:	cf 93       	push	r28
     72e:	df 93       	push	r29
     730:	c8 2f       	mov	r28, r24
     732:	85 b7       	in	r24, 0x35	; 53
     734:	85 bf       	out	0x35, r24	; 53
     736:	12 b8       	out	0x02, r1	; 2
     738:	8f ef       	ldi	r24, 0xFF	; 255
     73a:	81 b9       	out	0x01, r24	; 1
     73c:	15 b8       	out	0x05, r1	; 5
     73e:	84 b9       	out	0x04, r24	; 4
     740:	88 b9       	out	0x08, r24	; 8
     742:	17 b8       	out	0x07, r1	; 7
     744:	8b b9       	out	0x0b, r24	; 11
     746:	1a b8       	out	0x0a, r1	; 10
     748:	8e b9       	out	0x0e, r24	; 14
     74a:	1d b8       	out	0x0d, r1	; 13
     74c:	72 98       	cbi	0x0e, 2	; 14
     74e:	11 ba       	out	0x11, r1	; 17
     750:	10 ba       	out	0x10, r1	; 16
     752:	94 e0       	ldi	r25, 0x04	; 4
     754:	94 bb       	out	0x14, r25	; 20
     756:	93 b3       	in	r25, 0x13	; 19
     758:	93 60       	ori	r25, 0x03	; 3
     75a:	93 bb       	out	0x13, r25	; 19
     75c:	9d 9a       	sbi	0x13, 5	; 19
     75e:	97 ec       	ldi	r25, 0xC7	; 199
     760:	90 93 02 01 	sts	0x0102, r25	; 0x800102 <__TEXT_REGION_LENGTH__+0x700102>
     764:	98 e3       	ldi	r25, 0x38	; 56
     766:	90 93 01 01 	sts	0x0101, r25	; 0x800101 <__TEXT_REGION_LENGTH__+0x700101>
     76a:	10 92 05 01 	sts	0x0105, r1	; 0x800105 <__TEXT_REGION_LENGTH__+0x700105>
     76e:	80 93 04 01 	sts	0x0104, r24	; 0x800104 <__TEXT_REGION_LENGTH__+0x700104>
     772:	10 92 08 01 	sts	0x0108, r1	; 0x800108 <__TEXT_REGION_LENGTH__+0x700108>
     776:	10 92 07 01 	sts	0x0107, r1	; 0x800107 <__TEXT_REGION_LENGTH__+0x700107>
     77a:	8c e3       	ldi	r24, 0x3C	; 60
     77c:	80 93 0b 01 	sts	0x010B, r24	; 0x80010b <__TEXT_REGION_LENGTH__+0x70010b>
     780:	10 92 0a 01 	sts	0x010A, r1	; 0x80010a <__TEXT_REGION_LENGTH__+0x70010a>
     784:	78 94       	sei
     786:	3e dd       	rcall	.-1412   	; 0x204 <startSystemTimeMs>
     788:	a2 df       	rcall	.-188    	; 0x6ce <initLcd>
     78a:	46 dd       	rcall	.-1396   	; 0x218 <initAdc>
     78c:	b2 dd       	rcall	.-1180   	; 0x2f2 <initRgb>
     78e:	cc 23       	and	r28, r28
     790:	09 f4       	brne	.+2      	; 0x794 <initBoard+0x84>
     792:	b8 c0       	rjmp	.+368    	; 0x904 <initBoard+0x1f4>
     794:	8f ef       	ldi	r24, 0xFF	; 255
     796:	cd dd       	rcall	.-1126   	; 0x332 <lcdLight>
     798:	40 e0       	ldi	r20, 0x00	; 0
     79a:	50 e0       	ldi	r21, 0x00	; 0
     79c:	6f ef       	ldi	r22, 0xFF	; 255
     79e:	73 e0       	ldi	r23, 0x03	; 3
     7a0:	80 e0       	ldi	r24, 0x00	; 0
     7a2:	90 e0       	ldi	r25, 0x00	; 0
     7a4:	8f dd       	rcall	.-1250   	; 0x2c4 <rgbWrite>
     7a6:	89 e3       	ldi	r24, 0x39	; 57
     7a8:	92 e0       	ldi	r25, 0x02	; 2
     7aa:	9f 93       	push	r25
     7ac:	8f 93       	push	r24
     7ae:	1f 92       	push	r1
     7b0:	1f 92       	push	r1
     7b2:	42 de       	rcall	.-892    	; 0x438 <lcdWriteText>
     7b4:	8e e4       	ldi	r24, 0x4E	; 78
     7b6:	92 e0       	ldi	r25, 0x02	; 2
     7b8:	9f 93       	push	r25
     7ba:	8f 93       	push	r24
     7bc:	1f 92       	push	r1
     7be:	81 e0       	ldi	r24, 0x01	; 1
     7c0:	8f 93       	push	r24
     7c2:	3a de       	rcall	.-908    	; 0x438 <lcdWriteText>
     7c4:	84 e2       	ldi	r24, 0x24	; 36
     7c6:	92 e0       	ldi	r25, 0x02	; 2
     7c8:	9f 93       	push	r25
     7ca:	8f 93       	push	r24
     7cc:	1f 92       	push	r1
     7ce:	82 e0       	ldi	r24, 0x02	; 2
     7d0:	8f 93       	push	r24
     7d2:	32 de       	rcall	.-924    	; 0x438 <lcdWriteText>
     7d4:	83 e6       	ldi	r24, 0x63	; 99
     7d6:	92 e0       	ldi	r25, 0x02	; 2
     7d8:	9f 93       	push	r25
     7da:	8f 93       	push	r24
     7dc:	1f 92       	push	r1
     7de:	83 e0       	ldi	r24, 0x03	; 3
     7e0:	8f 93       	push	r24
     7e2:	2a de       	rcall	.-940    	; 0x438 <lcdWriteText>
     7e4:	8d b7       	in	r24, 0x3d	; 61
     7e6:	9e b7       	in	r25, 0x3e	; 62
     7e8:	40 96       	adiw	r24, 0x10	; 16
     7ea:	0f b6       	in	r0, 0x3f	; 63
     7ec:	f8 94       	cli
     7ee:	9e bf       	out	0x3e, r25	; 62
     7f0:	0f be       	out	0x3f, r0	; 63
     7f2:	8d bf       	out	0x3d, r24	; 61
     7f4:	88 24       	eor	r8, r8
     7f6:	83 94       	inc	r8
     7f8:	c0 e0       	ldi	r28, 0x00	; 0
     7fa:	71 2c       	mov	r7, r1
     7fc:	99 24       	eor	r9, r9
     7fe:	93 94       	inc	r9
     800:	d0 e0       	ldi	r29, 0x00	; 0
     802:	cc 24       	eor	r12, r12
     804:	c3 94       	inc	r12
     806:	d1 2c       	mov	r13, r1
     808:	e1 2c       	mov	r14, r1
     80a:	68 94       	set
     80c:	ff 24       	eor	r15, r15
     80e:	f7 f8       	bld	r15, 7
     810:	66 24       	eor	r6, r6
     812:	63 94       	inc	r6
     814:	51 2c       	mov	r5, r1
     816:	09 e0       	ldi	r16, 0x09	; 9
     818:	11 e0       	ldi	r17, 0x01	; 1
     81a:	0f 2e       	mov	r0, r31
     81c:	f8 e7       	ldi	r31, 0x78	; 120
     81e:	af 2e       	mov	r10, r31
     820:	f2 e0       	ldi	r31, 0x02	; 2
     822:	bf 2e       	mov	r11, r31
     824:	f0 2d       	mov	r31, r0
     826:	0f 2e       	mov	r0, r31
     828:	f3 e0       	ldi	r31, 0x03	; 3
     82a:	4f 2e       	mov	r4, r31
     82c:	f0 2d       	mov	r31, r0
     82e:	99 20       	and	r9, r9
     830:	49 f0       	breq	.+18     	; 0x844 <initBoard+0x134>
     832:	c7 01       	movw	r24, r14
     834:	0d 2e       	mov	r0, r29
     836:	02 c0       	rjmp	.+4      	; 0x83c <initBoard+0x12c>
     838:	96 95       	lsr	r25
     83a:	87 95       	ror	r24
     83c:	0a 94       	dec	r0
     83e:	e2 f7       	brpl	.-8      	; 0x838 <initBoard+0x128>
     840:	d9 dc       	rcall	.-1614   	; 0x1f4 <ledWriteAll>
     842:	08 c0       	rjmp	.+16     	; 0x854 <initBoard+0x144>
     844:	c6 01       	movw	r24, r12
     846:	0d 2e       	mov	r0, r29
     848:	02 c0       	rjmp	.+4      	; 0x84e <initBoard+0x13e>
     84a:	88 0f       	add	r24, r24
     84c:	99 1f       	adc	r25, r25
     84e:	0a 94       	dec	r0
     850:	e2 f7       	brpl	.-8      	; 0x84a <initBoard+0x13a>
     852:	d0 dc       	rcall	.-1632   	; 0x1f4 <ledWriteAll>
     854:	df 5f       	subi	r29, 0xFF	; 255
     856:	d1 31       	cpi	r29, 0x11	; 17
     858:	28 f0       	brcs	.+10     	; 0x864 <initBoard+0x154>
     85a:	86 2d       	mov	r24, r6
     85c:	91 10       	cpse	r9, r1
     85e:	85 2d       	mov	r24, r5
     860:	98 2e       	mov	r9, r24
     862:	d0 e0       	ldi	r29, 0x00	; 0
     864:	88 20       	and	r8, r8
     866:	11 f0       	breq	.+4      	; 0x86c <initBoard+0x15c>
     868:	ce 5f       	subi	r28, 0xFE	; 254
     86a:	01 c0       	rjmp	.+2      	; 0x86e <initBoard+0x15e>
     86c:	c2 50       	subi	r28, 0x02	; 2
     86e:	8c 2f       	mov	r24, r28
     870:	60 dd       	rcall	.-1344   	; 0x332 <lcdLight>
     872:	ce 3f       	cpi	r28, 0xFE	; 254
     874:	21 f0       	breq	.+8      	; 0x87e <initBoard+0x16e>
     876:	c8 37       	cpi	r28, 0x78	; 120
     878:	19 f4       	brne	.+6      	; 0x880 <initBoard+0x170>
     87a:	86 2c       	mov	r8, r6
     87c:	01 c0       	rjmp	.+2      	; 0x880 <initBoard+0x170>
     87e:	85 2c       	mov	r8, r5
     880:	71 10       	cpse	r7, r1
     882:	3b c0       	rjmp	.+118    	; 0x8fa <initBoard+0x1ea>
     884:	f8 01       	movw	r30, r16
     886:	80 81       	ld	r24, Z
     888:	83 7c       	andi	r24, 0xC3	; 195
     88a:	91 f0       	breq	.+36     	; 0x8b0 <initBoard+0x1a0>
     88c:	40 e0       	ldi	r20, 0x00	; 0
     88e:	50 e0       	ldi	r21, 0x00	; 0
     890:	66 e2       	ldi	r22, 0x26	; 38
     892:	72 e0       	ldi	r23, 0x02	; 2
     894:	8f ef       	ldi	r24, 0xFF	; 255
     896:	93 e0       	ldi	r25, 0x03	; 3
     898:	15 dd       	rcall	.-1494   	; 0x2c4 <rgbWrite>
     89a:	bf 92       	push	r11
     89c:	af 92       	push	r10
     89e:	1f 92       	push	r1
     8a0:	4f 92       	push	r4
     8a2:	ca dd       	rcall	.-1132   	; 0x438 <lcdWriteText>
     8a4:	0f 90       	pop	r0
     8a6:	0f 90       	pop	r0
     8a8:	0f 90       	pop	r0
     8aa:	0f 90       	pop	r0
     8ac:	76 2c       	mov	r7, r6
     8ae:	25 c0       	rjmp	.+74     	; 0x8fa <initBoard+0x1ea>
     8b0:	8f ef       	ldi	r24, 0xFF	; 255
     8b2:	9c e7       	ldi	r25, 0x7C	; 124
     8b4:	01 97       	sbiw	r24, 0x01	; 1
     8b6:	f1 f7       	brne	.-4      	; 0x8b4 <initBoard+0x1a4>
     8b8:	00 c0       	rjmp	.+0      	; 0x8ba <initBoard+0x1aa>
     8ba:	00 00       	nop
     8bc:	b8 cf       	rjmp	.-144    	; 0x82e <initBoard+0x11e>
     8be:	f0 de       	rcall	.-544    	; 0x6a0 <lcdClear>
     8c0:	80 e0       	ldi	r24, 0x00	; 0
     8c2:	37 dd       	rcall	.-1426   	; 0x332 <lcdLight>
     8c4:	80 e0       	ldi	r24, 0x00	; 0
     8c6:	90 e0       	ldi	r25, 0x00	; 0
     8c8:	95 dc       	rcall	.-1750   	; 0x1f4 <ledWriteAll>
     8ca:	40 e0       	ldi	r20, 0x00	; 0
     8cc:	50 e0       	ldi	r21, 0x00	; 0
     8ce:	60 e0       	ldi	r22, 0x00	; 0
     8d0:	70 e0       	ldi	r23, 0x00	; 0
     8d2:	80 e0       	ldi	r24, 0x00	; 0
     8d4:	90 e0       	ldi	r25, 0x00	; 0
     8d6:	f6 dc       	rcall	.-1556   	; 0x2c4 <rgbWrite>
     8d8:	10 92 df 02 	sts	0x02DF, r1	; 0x8002df <systemTimeMs>
     8dc:	10 92 e0 02 	sts	0x02E0, r1	; 0x8002e0 <systemTimeMs+0x1>
     8e0:	10 92 e1 02 	sts	0x02E1, r1	; 0x8002e1 <systemTimeMs+0x2>
     8e4:	10 92 e2 02 	sts	0x02E2, r1	; 0x8002e2 <systemTimeMs+0x3>
     8e8:	10 92 e3 02 	sts	0x02E3, r1	; 0x8002e3 <systemTimeMs+0x4>
     8ec:	10 92 e4 02 	sts	0x02E4, r1	; 0x8002e4 <systemTimeMs+0x5>
     8f0:	10 92 e5 02 	sts	0x02E5, r1	; 0x8002e5 <systemTimeMs+0x6>
     8f4:	10 92 e6 02 	sts	0x02E6, r1	; 0x8002e6 <systemTimeMs+0x7>
     8f8:	05 c0       	rjmp	.+10     	; 0x904 <initBoard+0x1f4>
     8fa:	f8 01       	movw	r30, r16
     8fc:	80 81       	ld	r24, Z
     8fe:	83 7c       	andi	r24, 0xC3	; 195
     900:	b9 f6       	brne	.-82     	; 0x8b0 <initBoard+0x1a0>
     902:	dd cf       	rjmp	.-70     	; 0x8be <initBoard+0x1ae>
     904:	df 91       	pop	r29
     906:	cf 91       	pop	r28
     908:	1f 91       	pop	r17
     90a:	0f 91       	pop	r16
     90c:	ff 90       	pop	r15
     90e:	ef 90       	pop	r14
     910:	df 90       	pop	r13
     912:	cf 90       	pop	r12
     914:	bf 90       	pop	r11
     916:	af 90       	pop	r10
     918:	9f 90       	pop	r9
     91a:	8f 90       	pop	r8
     91c:	7f 90       	pop	r7
     91e:	6f 90       	pop	r6
     920:	5f 90       	pop	r5
     922:	4f 90       	pop	r4
     924:	08 95       	ret

00000926 <lcdLog>:
     926:	6f 92       	push	r6
     928:	7f 92       	push	r7
     92a:	8f 92       	push	r8
     92c:	9f 92       	push	r9
     92e:	af 92       	push	r10
     930:	bf 92       	push	r11
     932:	cf 92       	push	r12
     934:	df 92       	push	r13
     936:	ef 92       	push	r14
     938:	ff 92       	push	r15
     93a:	0f 93       	push	r16
     93c:	1f 93       	push	r17
     93e:	cf 93       	push	r28
     940:	df 93       	push	r29
     942:	cd b7       	in	r28, 0x3d	; 61
     944:	de b7       	in	r29, 0x3e	; 62
     946:	60 97       	sbiw	r28, 0x10	; 16
     948:	0f b6       	in	r0, 0x3f	; 63
     94a:	f8 94       	cli
     94c:	de bf       	out	0x3e, r29	; 62
     94e:	0f be       	out	0x3f, r0	; 63
     950:	cd bf       	out	0x3d, r28	; 61
     952:	80 91 00 02 	lds	r24, 0x0200	; 0x800200 <__DATA_REGION_ORIGIN__>
     956:	88 23       	and	r24, r24
     958:	b1 f1       	breq	.+108    	; 0x9c6 <lcdLog+0xa0>
     95a:	a2 de       	rcall	.-700    	; 0x6a0 <lcdClear>
     95c:	10 92 00 02 	sts	0x0200, r1	; 0x800200 <__DATA_REGION_ORIGIN__>
     960:	10 92 dd 02 	sts	0x02DD, r1	; 0x8002dd <nummer.2616+0x1>
     964:	10 92 dc 02 	sts	0x02DC, r1	; 0x8002dc <nummer.2616>
     968:	0f 2e       	mov	r0, r31
     96a:	f4 ed       	ldi	r31, 0xD4	; 212
     96c:	8f 2e       	mov	r8, r31
     96e:	f2 e0       	ldi	r31, 0x02	; 2
     970:	9f 2e       	mov	r9, r31
     972:	f0 2d       	mov	r31, r0
     974:	04 e9       	ldi	r16, 0x94	; 148
     976:	12 e0       	ldi	r17, 0x02	; 2
     978:	a0 e0       	ldi	r26, 0x00	; 0
     97a:	b0 e0       	ldi	r27, 0x00	; 0
     97c:	40 e2       	ldi	r20, 0x20	; 32
     97e:	bd 01       	movw	r22, r26
     980:	f4 01       	movw	r30, r8
     982:	11 92       	st	Z+, r1
     984:	11 92       	st	Z+, r1
     986:	4f 01       	movw	r8, r30
     988:	f8 01       	movw	r30, r16
     98a:	41 93       	st	Z+, r20
     98c:	81 e0       	ldi	r24, 0x01	; 1
     98e:	90 e0       	ldi	r25, 0x00	; 0
     990:	13 c0       	rjmp	.+38     	; 0x9b8 <lcdLog+0x92>
     992:	62 95       	swap	r22
     994:	72 95       	swap	r23
     996:	70 7f       	andi	r23, 0xF0	; 240
     998:	76 27       	eor	r23, r22
     99a:	60 7f       	andi	r22, 0xF0	; 240
     99c:	76 27       	eor	r23, r22
     99e:	6c 56       	subi	r22, 0x6C	; 108
     9a0:	7d 4f       	sbci	r23, 0xFD	; 253
     9a2:	fb 01       	movw	r30, r22
     9a4:	e2 0f       	add	r30, r18
     9a6:	f3 1f       	adc	r31, r19
     9a8:	10 82       	st	Z, r1
     9aa:	11 96       	adiw	r26, 0x01	; 1
     9ac:	00 5f       	subi	r16, 0xF0	; 240
     9ae:	1f 4f       	sbci	r17, 0xFF	; 255
     9b0:	a4 30       	cpi	r26, 0x04	; 4
     9b2:	b1 05       	cpc	r27, r1
     9b4:	21 f7       	brne	.-56     	; 0x97e <lcdLog+0x58>
     9b6:	07 c0       	rjmp	.+14     	; 0x9c6 <lcdLog+0xa0>
     9b8:	9c 01       	movw	r18, r24
     9ba:	41 93       	st	Z+, r20
     9bc:	01 96       	adiw	r24, 0x01	; 1
     9be:	80 31       	cpi	r24, 0x10	; 16
     9c0:	91 05       	cpc	r25, r1
     9c2:	d1 f7       	brne	.-12     	; 0x9b8 <lcdLog+0x92>
     9c4:	e6 cf       	rjmp	.-52     	; 0x992 <lcdLog+0x6c>
     9c6:	80 91 dc 02 	lds	r24, 0x02DC	; 0x8002dc <nummer.2616>
     9ca:	90 91 dd 02 	lds	r25, 0x02DD	; 0x8002dd <nummer.2616+0x1>
     9ce:	01 96       	adiw	r24, 0x01	; 1
     9d0:	90 93 dd 02 	sts	0x02DD, r25	; 0x8002dd <nummer.2616+0x1>
     9d4:	80 93 dc 02 	sts	0x02DC, r24	; 0x8002dc <nummer.2616>
     9d8:	9e 01       	movw	r18, r28
     9da:	2c 5d       	subi	r18, 0xDC	; 220
     9dc:	3f 4f       	sbci	r19, 0xFF	; 255
     9de:	4a a1       	ldd	r20, Y+34	; 0x22
     9e0:	5b a1       	ldd	r21, Y+35	; 0x23
     9e2:	60 e1       	ldi	r22, 0x10	; 16
     9e4:	70 e0       	ldi	r23, 0x00	; 0
     9e6:	ce 01       	movw	r24, r28
     9e8:	01 96       	adiw	r24, 0x01	; 1
     9ea:	02 d2       	rcall	.+1028   	; 0xdf0 <vsnprintf>
     9ec:	8e 01       	movw	r16, r28
     9ee:	0f 5f       	subi	r16, 0xFF	; 255
     9f0:	1f 4f       	sbci	r17, 0xFF	; 255
     9f2:	4e 01       	movw	r8, r28
     9f4:	f1 e1       	ldi	r31, 0x11	; 17
     9f6:	8f 0e       	add	r8, r31
     9f8:	91 1c       	adc	r9, r1
     9fa:	f8 01       	movw	r30, r16
     9fc:	90 e0       	ldi	r25, 0x00	; 0
     9fe:	30 e2       	ldi	r19, 0x20	; 32
     a00:	21 e0       	ldi	r18, 0x01	; 1
     a02:	df 01       	movw	r26, r30
     a04:	80 81       	ld	r24, Z
     a06:	88 23       	and	r24, r24
     a08:	19 f0       	breq	.+6      	; 0xa10 <lcdLog+0xea>
     a0a:	99 23       	and	r25, r25
     a0c:	19 f0       	breq	.+6      	; 0xa14 <lcdLog+0xee>
     a0e:	01 c0       	rjmp	.+2      	; 0xa12 <lcdLog+0xec>
     a10:	92 2f       	mov	r25, r18
     a12:	3c 93       	st	X, r19
     a14:	31 96       	adiw	r30, 0x01	; 1
     a16:	e8 15       	cp	r30, r8
     a18:	f9 05       	cpc	r31, r9
     a1a:	99 f7       	brne	.-26     	; 0xa02 <lcdLog+0xdc>
     a1c:	18 8a       	std	Y+16, r1	; 0x10
     a1e:	64 e9       	ldi	r22, 0x94	; 148
     a20:	72 e0       	ldi	r23, 0x02	; 2
     a22:	ce 01       	movw	r24, r28
     a24:	01 96       	adiw	r24, 0x01	; 1
     a26:	db d1       	rcall	.+950    	; 0xdde <strcmp>
     a28:	88 23       	and	r24, r24
     a2a:	09 f4       	brne	.+2      	; 0xa2e <lcdLog+0x108>
     a2c:	7e c0       	rjmp	.+252    	; 0xb2a <lcdLog+0x204>
     a2e:	0f 2e       	mov	r0, r31
     a30:	fa ed       	ldi	r31, 0xDA	; 218
     a32:	6f 2e       	mov	r6, r31
     a34:	f2 e0       	ldi	r31, 0x02	; 2
     a36:	7f 2e       	mov	r7, r31
     a38:	f0 2d       	mov	r31, r0
     a3a:	64 ec       	ldi	r22, 0xC4	; 196
     a3c:	72 e0       	ldi	r23, 0x02	; 2
     a3e:	44 e9       	ldi	r20, 0x94	; 148
     a40:	52 e0       	ldi	r21, 0x02	; 2
     a42:	f3 01       	movw	r30, r6
     a44:	92 91       	ld	r25, -Z
     a46:	82 91       	ld	r24, -Z
     a48:	3f 01       	movw	r6, r30
     a4a:	93 83       	std	Z+3, r25	; 0x03
     a4c:	82 83       	std	Z+2, r24	; 0x02
     a4e:	db 01       	movw	r26, r22
     a50:	50 97       	sbiw	r26, 0x10	; 16
     a52:	9b 01       	movw	r18, r22
     a54:	20 5f       	subi	r18, 0xF0	; 240
     a56:	3f 4f       	sbci	r19, 0xFF	; 255
     a58:	fb 01       	movw	r30, r22
     a5a:	8d 91       	ld	r24, X+
     a5c:	81 93       	st	Z+, r24
     a5e:	e2 17       	cp	r30, r18
     a60:	f3 07       	cpc	r31, r19
     a62:	d9 f7       	brne	.-10     	; 0xa5a <lcdLog+0x134>
     a64:	60 51       	subi	r22, 0x10	; 16
     a66:	71 09       	sbc	r23, r1
     a68:	64 17       	cp	r22, r20
     a6a:	75 07       	cpc	r23, r21
     a6c:	51 f7       	brne	.-44     	; 0xa42 <lcdLog+0x11c>
     a6e:	f8 01       	movw	r30, r16
     a70:	81 91       	ld	r24, Z+
     a72:	8f 01       	movw	r16, r30
     a74:	fa 01       	movw	r30, r20
     a76:	81 93       	st	Z+, r24
     a78:	af 01       	movw	r20, r30
     a7a:	08 15       	cp	r16, r8
     a7c:	19 05       	cpc	r17, r9
     a7e:	b9 f7       	brne	.-18     	; 0xa6e <lcdLog+0x148>
     a80:	80 91 dc 02 	lds	r24, 0x02DC	; 0x8002dc <nummer.2616>
     a84:	90 91 dd 02 	lds	r25, 0x02DD	; 0x8002dd <nummer.2616+0x1>
     a88:	90 93 d5 02 	sts	0x02D5, r25	; 0x8002d5 <lcdPrintNr.2614+0x1>
     a8c:	80 93 d4 02 	sts	0x02D4, r24	; 0x8002d4 <lcdPrintNr.2614>
     a90:	80 91 01 02 	lds	r24, 0x0201	; 0x800201 <lcdLogZeilen>
     a94:	94 e0       	ldi	r25, 0x04	; 4
     a96:	d9 2e       	mov	r13, r25
     a98:	d8 1a       	sub	r13, r24
     a9a:	f3 e0       	ldi	r31, 0x03	; 3
     a9c:	fd 15       	cp	r31, r13
     a9e:	08 f4       	brcc	.+2      	; 0xaa2 <lcdLog+0x17c>
     aa0:	5b c0       	rjmp	.+182    	; 0xb58 <lcdLog+0x232>
     aa2:	83 e0       	ldi	r24, 0x03	; 3
     aa4:	b8 2e       	mov	r11, r24
     aa6:	bd 18       	sub	r11, r13
     aa8:	0f 2e       	mov	r0, r31
     aaa:	f5 e0       	ldi	r31, 0x05	; 5
     aac:	6f 2e       	mov	r6, r31
     aae:	f0 2d       	mov	r31, r0
     ab0:	0f 2e       	mov	r0, r31
     ab2:	fd e8       	ldi	r31, 0x8D	; 141
     ab4:	8f 2e       	mov	r8, r31
     ab6:	f2 e0       	ldi	r31, 0x02	; 2
     ab8:	9f 2e       	mov	r9, r31
     aba:	f0 2d       	mov	r31, r0
     abc:	68 94       	set
     abe:	77 24       	eor	r7, r7
     ac0:	72 f8       	bld	r7, 2
     ac2:	0b 2d       	mov	r16, r11
     ac4:	10 e0       	ldi	r17, 0x00	; 0
     ac6:	c8 01       	movw	r24, r16
     ac8:	82 95       	swap	r24
     aca:	92 95       	swap	r25
     acc:	90 7f       	andi	r25, 0xF0	; 240
     ace:	98 27       	eor	r25, r24
     ad0:	80 7f       	andi	r24, 0xF0	; 240
     ad2:	98 27       	eor	r25, r24
     ad4:	8c 56       	subi	r24, 0x6C	; 108
     ad6:	9d 4f       	sbci	r25, 0xFD	; 253
     ad8:	9f 93       	push	r25
     ada:	8f 93       	push	r24
     adc:	6f 92       	push	r6
     ade:	df 92       	push	r13
     ae0:	ab dc       	rcall	.-1706   	; 0x438 <lcdWriteText>
     ae2:	9f 92       	push	r9
     ae4:	8f 92       	push	r8
     ae6:	7f 92       	push	r7
     ae8:	df 92       	push	r13
     aea:	a6 dc       	rcall	.-1716   	; 0x438 <lcdWriteText>
     aec:	00 0f       	add	r16, r16
     aee:	11 1f       	adc	r17, r17
     af0:	f8 01       	movw	r30, r16
     af2:	ec 52       	subi	r30, 0x2C	; 44
     af4:	fd 4f       	sbci	r31, 0xFD	; 253
     af6:	00 81       	ld	r16, Z
     af8:	11 81       	ldd	r17, Z+1	; 0x01
     afa:	a1 2c       	mov	r10, r1
     afc:	c7 2c       	mov	r12, r7
     afe:	e0 2e       	mov	r14, r16
     b00:	f1 2e       	mov	r15, r17
     b02:	00 e0       	ldi	r16, 0x00	; 0
     b04:	10 e0       	ldi	r17, 0x00	; 0
     b06:	20 e0       	ldi	r18, 0x00	; 0
     b08:	30 e0       	ldi	r19, 0x00	; 0
     b0a:	40 e0       	ldi	r20, 0x00	; 0
     b0c:	50 e0       	ldi	r21, 0x00	; 0
     b0e:	60 e0       	ldi	r22, 0x00	; 0
     b10:	8d 2d       	mov	r24, r13
     b12:	ce dc       	rcall	.-1636   	; 0x4b0 <lcdWriteZahl>
     b14:	d3 94       	inc	r13
     b16:	ba 94       	dec	r11
     b18:	0f b6       	in	r0, 0x3f	; 63
     b1a:	f8 94       	cli
     b1c:	de bf       	out	0x3e, r29	; 62
     b1e:	0f be       	out	0x3f, r0	; 63
     b20:	cd bf       	out	0x3d, r28	; 61
     b22:	94 e0       	ldi	r25, 0x04	; 4
     b24:	d9 12       	cpse	r13, r25
     b26:	cd cf       	rjmp	.-102    	; 0xac2 <lcdLog+0x19c>
     b28:	17 c0       	rjmp	.+46     	; 0xb58 <lcdLog+0x232>
     b2a:	00 91 dc 02 	lds	r16, 0x02DC	; 0x8002dc <nummer.2616>
     b2e:	10 91 dd 02 	lds	r17, 0x02DD	; 0x8002dd <nummer.2616+0x1>
     b32:	10 93 d5 02 	sts	0x02D5, r17	; 0x8002d5 <lcdPrintNr.2614+0x1>
     b36:	00 93 d4 02 	sts	0x02D4, r16	; 0x8002d4 <lcdPrintNr.2614>
     b3a:	a1 2c       	mov	r10, r1
     b3c:	68 94       	set
     b3e:	cc 24       	eor	r12, r12
     b40:	c2 f8       	bld	r12, 2
     b42:	e0 2e       	mov	r14, r16
     b44:	f1 2e       	mov	r15, r17
     b46:	00 e0       	ldi	r16, 0x00	; 0
     b48:	10 e0       	ldi	r17, 0x00	; 0
     b4a:	20 e0       	ldi	r18, 0x00	; 0
     b4c:	30 e0       	ldi	r19, 0x00	; 0
     b4e:	40 e0       	ldi	r20, 0x00	; 0
     b50:	50 e0       	ldi	r21, 0x00	; 0
     b52:	60 e0       	ldi	r22, 0x00	; 0
     b54:	83 e0       	ldi	r24, 0x03	; 3
     b56:	ac dc       	rcall	.-1704   	; 0x4b0 <lcdWriteZahl>
     b58:	60 96       	adiw	r28, 0x10	; 16
     b5a:	0f b6       	in	r0, 0x3f	; 63
     b5c:	f8 94       	cli
     b5e:	de bf       	out	0x3e, r29	; 62
     b60:	0f be       	out	0x3f, r0	; 63
     b62:	cd bf       	out	0x3d, r28	; 61
     b64:	df 91       	pop	r29
     b66:	cf 91       	pop	r28
     b68:	1f 91       	pop	r17
     b6a:	0f 91       	pop	r16
     b6c:	ff 90       	pop	r15
     b6e:	ef 90       	pop	r14
     b70:	df 90       	pop	r13
     b72:	cf 90       	pop	r12
     b74:	bf 90       	pop	r11
     b76:	af 90       	pop	r10
     b78:	9f 90       	pop	r9
     b7a:	8f 90       	pop	r8
     b7c:	7f 90       	pop	r7
     b7e:	6f 90       	pop	r6
     b80:	08 95       	ret

00000b82 <matrixWriteNextLine>:




void matrixWriteNextLine(void)
{
     b82:	cf 93       	push	r28
     b84:	df 93       	push	r29
     b86:	cd b7       	in	r28, 0x3d	; 61
     b88:	de b7       	in	r29, 0x3e	; 62
     b8a:	28 97       	sbiw	r28, 0x08	; 8
     b8c:	0f b6       	in	r0, 0x3f	; 63
     b8e:	f8 94       	cli
     b90:	de bf       	out	0x3e, r29	; 62
     b92:	0f be       	out	0x3f, r0	; 63
     b94:	cd bf       	out	0x3d, r28	; 61
    const  uint8_t Bit_Muster_Tab[8] = {1,2,4,8,16,32,64,128};
     b96:	88 e0       	ldi	r24, 0x08	; 8
     b98:	e2 e0       	ldi	r30, 0x02	; 2
     b9a:	f2 e0       	ldi	r31, 0x02	; 2
     b9c:	de 01       	movw	r26, r28
     b9e:	11 96       	adiw	r26, 0x01	; 1
     ba0:	01 90       	ld	r0, Z+
     ba2:	0d 92       	st	X+, r0
     ba4:	8a 95       	dec	r24
     ba6:	e1 f7       	brne	.-8      	; 0xba0 <matrixWriteNextLine+0x1e>
    static uint16_t Zeilen_Nr, Bit_Muster;
    uint8_t i;
    
    STROBE_0;                             // Daten des Scheiberegisters nicht ins Latch schreiben
     ba8:	e5 e0       	ldi	r30, 0x05	; 5
     baa:	f1 e0       	ldi	r31, 0x01	; 1
     bac:	80 81       	ld	r24, Z
     bae:	8f 7b       	andi	r24, 0xBF	; 191
     bb0:	80 83       	st	Z, r24

    Bit_Muster = Bit_Muster_Tab[Zeilen_Nr]; // Bitmuster aus Tabelle holen, um mit Daten in matrix[] zu vergleichen.
     bb2:	e0 91 92 02 	lds	r30, 0x0292	; 0x800292 <Zeilen_Nr.2731>
     bb6:	f0 91 93 02 	lds	r31, 0x0293	; 0x800293 <Zeilen_Nr.2731+0x1>
     bba:	81 e0       	ldi	r24, 0x01	; 1
     bbc:	90 e0       	ldi	r25, 0x00	; 0
     bbe:	8c 0f       	add	r24, r28
     bc0:	9d 1f       	adc	r25, r29
     bc2:	e8 0f       	add	r30, r24
     bc4:	f9 1f       	adc	r31, r25
     bc6:	80 81       	ld	r24, Z
     bc8:	90 e0       	ldi	r25, 0x00	; 0
     bca:	90 93 91 02 	sts	0x0291, r25	; 0x800291 <__data_end+0x1>
     bce:	80 93 90 02 	sts	0x0290, r24	; 0x800290 <__data_end>
     bd2:	a8 e5       	ldi	r26, 0x58	; 88
     bd4:	b3 e0       	ldi	r27, 0x03	; 3
     bd6:	28 ee       	ldi	r18, 0xE8	; 232
     bd8:	32 e0       	ldi	r19, 0x02	; 2
    {                                       // Vergleicht Bit-Muster der aktuellen Zeile mit Daten in matrix[]
        if((matrix[Anzahl_Spalten-1- i] & Bit_Muster) != 0)     // Ist in matrix[] das entsprechende Bit gesetzt?
        { DATA_Modul_1_ON;                    //   JA:   ==> Datenbit "1" ins Schieberegister schreiben
        }
        else
        { DATA_Modul_1_OFF;                   //   NEIN: ==> Datenbit "0" ins Schieberegister schreiben
     bda:	e5 e0       	ldi	r30, 0x05	; 5
     bdc:	f1 e0       	ldi	r31, 0x01	; 1
    Bit_Muster = Bit_Muster_Tab[Zeilen_Nr]; // Bitmuster aus Tabelle holen, um mit Daten in matrix[] zu vergleichen.
    
    // Alle Bits seriell ins Schieberegister hineinschreiben
    for(i=0; i<Anzahl_Spalten; i++)         // Alle Spalten durchgehen und überpüfen, ob Bit gesetzt ist
    {                                       // Vergleicht Bit-Muster der aktuellen Zeile mit Daten in matrix[]
        if((matrix[Anzahl_Spalten-1- i] & Bit_Muster) != 0)     // Ist in matrix[] das entsprechende Bit gesetzt?
     bde:	5e 91       	ld	r21, -X
     be0:	4e 91       	ld	r20, -X
     be2:	80 91 90 02 	lds	r24, 0x0290	; 0x800290 <__data_end>
     be6:	90 91 91 02 	lds	r25, 0x0291	; 0x800291 <__data_end+0x1>
     bea:	84 23       	and	r24, r20
     bec:	95 23       	and	r25, r21
     bee:	89 2b       	or	r24, r25
     bf0:	21 f0       	breq	.+8      	; 0xbfa <matrixWriteNextLine+0x78>
        { DATA_Modul_1_ON;                    //   JA:   ==> Datenbit "1" ins Schieberegister schreiben
     bf2:	80 81       	ld	r24, Z
     bf4:	80 62       	ori	r24, 0x20	; 32
     bf6:	80 83       	st	Z, r24
     bf8:	03 c0       	rjmp	.+6      	; 0xc00 <matrixWriteNextLine+0x7e>
        }
        else
        { DATA_Modul_1_OFF;                   //   NEIN: ==> Datenbit "0" ins Schieberegister schreiben
     bfa:	80 81       	ld	r24, Z
     bfc:	8f 7d       	andi	r24, 0xDF	; 223
     bfe:	80 83       	st	Z, r24
        }
        CLOCK_1;
     c00:	80 81       	ld	r24, Z
     c02:	80 61       	ori	r24, 0x10	; 16
     c04:	80 83       	st	Z, r24
        CLOCK_0;                            // Datenbit wird bei der negativen Flanke des Clock-Signals übernommen
     c06:	80 81       	ld	r24, Z
     c08:	8f 7e       	andi	r24, 0xEF	; 239
     c0a:	80 83       	st	Z, r24
    STROBE_0;                             // Daten des Scheiberegisters nicht ins Latch schreiben

    Bit_Muster = Bit_Muster_Tab[Zeilen_Nr]; // Bitmuster aus Tabelle holen, um mit Daten in matrix[] zu vergleichen.
    
    // Alle Bits seriell ins Schieberegister hineinschreiben
    for(i=0; i<Anzahl_Spalten; i++)         // Alle Spalten durchgehen und überpüfen, ob Bit gesetzt ist
     c0c:	a2 17       	cp	r26, r18
     c0e:	b3 07       	cpc	r27, r19
     c10:	31 f7       	brne	.-52     	; 0xbde <matrixWriteNextLine+0x5c>
        }
        CLOCK_1;
        CLOCK_0;                            // Datenbit wird bei der negativen Flanke des Clock-Signals übernommen
    }
    
    ENABLE_0;                                // +5V aller Zeilen abschalten
     c12:	e5 e0       	ldi	r30, 0x05	; 5
     c14:	f1 e0       	ldi	r31, 0x01	; 1
     c16:	80 81       	ld	r24, Z
     c18:	87 7f       	andi	r24, 0xF7	; 247
     c1a:	80 83       	st	Z, r24
    PORTJ &= ~0x07;
     c1c:	80 81       	ld	r24, Z
     c1e:	88 7f       	andi	r24, 0xF8	; 248
     c20:	80 83       	st	Z, r24
    PORTJ |= Zeilen_Nr;                     // gewünschte Zeile einstellen
     c22:	90 81       	ld	r25, Z
     c24:	80 91 92 02 	lds	r24, 0x0292	; 0x800292 <Zeilen_Nr.2731>
     c28:	89 2b       	or	r24, r25
     c2a:	80 83       	st	Z, r24
    STROBE_1;                             // Daten ins Latch schreiben
     c2c:	80 81       	ld	r24, Z
     c2e:	80 64       	ori	r24, 0x40	; 64
     c30:	80 83       	st	Z, r24
    ENABLE_1;                             // +5V Speisung der eingestellten Zeile einschalten
     c32:	80 81       	ld	r24, Z
     c34:	88 60       	ori	r24, 0x08	; 8
     c36:	80 83       	st	Z, r24

    // Die Zeilen werden nacheinander eingeschaltet --> zyklisch 0,1,2,3,4,5,6,7, 0,1,2,3, ...
    if (Zeilen_Nr < 7)
     c38:	80 91 92 02 	lds	r24, 0x0292	; 0x800292 <Zeilen_Nr.2731>
     c3c:	90 91 93 02 	lds	r25, 0x0293	; 0x800293 <Zeilen_Nr.2731+0x1>
     c40:	87 30       	cpi	r24, 0x07	; 7
     c42:	91 05       	cpc	r25, r1
     c44:	30 f4       	brcc	.+12     	; 0xc52 <matrixWriteNextLine+0xd0>
    {
        Zeilen_Nr++;
     c46:	01 96       	adiw	r24, 0x01	; 1
     c48:	90 93 93 02 	sts	0x0293, r25	; 0x800293 <Zeilen_Nr.2731+0x1>
     c4c:	80 93 92 02 	sts	0x0292, r24	; 0x800292 <Zeilen_Nr.2731>
     c50:	07 c0       	rjmp	.+14     	; 0xc60 <matrixWriteNextLine+0xde>
    }
    else
    {
        Zeilen_Nr = 0;
     c52:	10 92 93 02 	sts	0x0293, r1	; 0x800293 <Zeilen_Nr.2731+0x1>
     c56:	10 92 92 02 	sts	0x0292, r1	; 0x800292 <Zeilen_Nr.2731>
        writeTextFinished = 1;
     c5a:	81 e0       	ldi	r24, 0x01	; 1
     c5c:	80 93 de 02 	sts	0x02DE, r24	; 0x8002de <writeTextFinished>
    }
    
     c60:	28 96       	adiw	r28, 0x08	; 8
     c62:	0f b6       	in	r0, 0x3f	; 63
     c64:	f8 94       	cli
     c66:	de bf       	out	0x3e, r29	; 62
     c68:	0f be       	out	0x3f, r0	; 63
     c6a:	cd bf       	out	0x3d, r28	; 61
     c6c:	df 91       	pop	r29
     c6e:	cf 91       	pop	r28
     c70:	08 95       	ret

00000c72 <__vector_23>:
//--------------------------------------------------------------------------------------------
// Timer 0 Overflow Interrupt ->  Wird alle 1ms aufgerufen
//--------------------------------------------------------------------------------------------

ISR(TIMER0_OVF_vect)
{
     c72:	1f 92       	push	r1
     c74:	0f 92       	push	r0
     c76:	0f b6       	in	r0, 0x3f	; 63
     c78:	0f 92       	push	r0
     c7a:	11 24       	eor	r1, r1
     c7c:	0b b6       	in	r0, 0x3b	; 59
     c7e:	0f 92       	push	r0
     c80:	2f 93       	push	r18
     c82:	3f 93       	push	r19
     c84:	4f 93       	push	r20
     c86:	5f 93       	push	r21
     c88:	6f 93       	push	r22
     c8a:	7f 93       	push	r23
     c8c:	8f 93       	push	r24
     c8e:	9f 93       	push	r25
     c90:	af 93       	push	r26
     c92:	bf 93       	push	r27
     c94:	ef 93       	push	r30
     c96:	ff 93       	push	r31
    systemTimeMs += 1;
     c98:	20 91 df 02 	lds	r18, 0x02DF	; 0x8002df <systemTimeMs>
     c9c:	30 91 e0 02 	lds	r19, 0x02E0	; 0x8002e0 <systemTimeMs+0x1>
     ca0:	40 91 e1 02 	lds	r20, 0x02E1	; 0x8002e1 <systemTimeMs+0x2>
     ca4:	50 91 e2 02 	lds	r21, 0x02E2	; 0x8002e2 <systemTimeMs+0x3>
     ca8:	60 91 e3 02 	lds	r22, 0x02E3	; 0x8002e3 <systemTimeMs+0x4>
     cac:	70 91 e4 02 	lds	r23, 0x02E4	; 0x8002e4 <systemTimeMs+0x5>
     cb0:	80 91 e5 02 	lds	r24, 0x02E5	; 0x8002e5 <systemTimeMs+0x6>
     cb4:	90 91 e6 02 	lds	r25, 0x02E6	; 0x8002e6 <systemTimeMs+0x7>
     cb8:	a1 e0       	ldi	r26, 0x01	; 1
     cba:	85 d0       	rcall	.+266    	; 0xdc6 <__adddi3_s8>
     cbc:	20 93 df 02 	sts	0x02DF, r18	; 0x8002df <systemTimeMs>
     cc0:	30 93 e0 02 	sts	0x02E0, r19	; 0x8002e0 <systemTimeMs+0x1>
     cc4:	40 93 e1 02 	sts	0x02E1, r20	; 0x8002e1 <systemTimeMs+0x2>
     cc8:	50 93 e2 02 	sts	0x02E2, r21	; 0x8002e2 <systemTimeMs+0x3>
     ccc:	60 93 e3 02 	sts	0x02E3, r22	; 0x8002e3 <systemTimeMs+0x4>
     cd0:	70 93 e4 02 	sts	0x02E4, r23	; 0x8002e4 <systemTimeMs+0x5>
     cd4:	80 93 e5 02 	sts	0x02E5, r24	; 0x8002e5 <systemTimeMs+0x6>
     cd8:	90 93 e6 02 	sts	0x02E6, r25	; 0x8002e6 <systemTimeMs+0x7>

    if(matrixRunning)matrixWriteNextLine();
     cdc:	80 91 e7 02 	lds	r24, 0x02E7	; 0x8002e7 <matrixRunning>
     ce0:	81 11       	cpse	r24, r1
     ce2:	4f df       	rcall	.-354    	; 0xb82 <matrixWriteNextLine>
}
     ce4:	ff 91       	pop	r31
     ce6:	ef 91       	pop	r30
     ce8:	bf 91       	pop	r27
     cea:	af 91       	pop	r26
     cec:	9f 91       	pop	r25
     cee:	8f 91       	pop	r24
     cf0:	7f 91       	pop	r23
     cf2:	6f 91       	pop	r22
     cf4:	5f 91       	pop	r21
     cf6:	4f 91       	pop	r20
     cf8:	3f 91       	pop	r19
     cfa:	2f 91       	pop	r18
     cfc:	0f 90       	pop	r0
     cfe:	0b be       	out	0x3b, r0	; 59
     d00:	0f 90       	pop	r0
     d02:	0f be       	out	0x3f, r0	; 63
     d04:	0f 90       	pop	r0
     d06:	1f 90       	pop	r1
     d08:	18 95       	reti

00000d0a <__umoddi3>:
     d0a:	68 94       	set
     d0c:	01 c0       	rjmp	.+2      	; 0xd10 <__udivdi3_umoddi3>

00000d0e <__udivdi3>:
     d0e:	e8 94       	clt

00000d10 <__udivdi3_umoddi3>:
     d10:	8f 92       	push	r8
     d12:	9f 92       	push	r9
     d14:	cf 93       	push	r28
     d16:	df 93       	push	r29
     d18:	05 d0       	rcall	.+10     	; 0xd24 <__udivmod64>
     d1a:	df 91       	pop	r29
     d1c:	cf 91       	pop	r28
     d1e:	9f 90       	pop	r9
     d20:	8f 90       	pop	r8
     d22:	08 95       	ret

00000d24 <__udivmod64>:
     d24:	88 24       	eor	r8, r8
     d26:	99 24       	eor	r9, r9
     d28:	f4 01       	movw	r30, r8
     d2a:	e4 01       	movw	r28, r8
     d2c:	b0 e4       	ldi	r27, 0x40	; 64
     d2e:	9f 93       	push	r25
     d30:	aa 27       	eor	r26, r26
     d32:	9a 15       	cp	r25, r10
     d34:	8b 04       	cpc	r8, r11
     d36:	9c 04       	cpc	r9, r12
     d38:	ed 05       	cpc	r30, r13
     d3a:	fe 05       	cpc	r31, r14
     d3c:	cf 05       	cpc	r28, r15
     d3e:	d0 07       	cpc	r29, r16
     d40:	a1 07       	cpc	r26, r17
     d42:	98 f4       	brcc	.+38     	; 0xd6a <__udivmod64+0x46>
     d44:	ad 2f       	mov	r26, r29
     d46:	dc 2f       	mov	r29, r28
     d48:	cf 2f       	mov	r28, r31
     d4a:	fe 2f       	mov	r31, r30
     d4c:	e9 2d       	mov	r30, r9
     d4e:	98 2c       	mov	r9, r8
     d50:	89 2e       	mov	r8, r25
     d52:	98 2f       	mov	r25, r24
     d54:	87 2f       	mov	r24, r23
     d56:	76 2f       	mov	r23, r22
     d58:	65 2f       	mov	r22, r21
     d5a:	54 2f       	mov	r21, r20
     d5c:	43 2f       	mov	r20, r19
     d5e:	32 2f       	mov	r19, r18
     d60:	22 27       	eor	r18, r18
     d62:	b8 50       	subi	r27, 0x08	; 8
     d64:	31 f7       	brne	.-52     	; 0xd32 <__udivmod64+0xe>
     d66:	bf 91       	pop	r27
     d68:	27 c0       	rjmp	.+78     	; 0xdb8 <__udivmod64+0x94>
     d6a:	1b 2e       	mov	r1, r27
     d6c:	bf 91       	pop	r27
     d6e:	bb 27       	eor	r27, r27
     d70:	22 0f       	add	r18, r18
     d72:	33 1f       	adc	r19, r19
     d74:	44 1f       	adc	r20, r20
     d76:	55 1f       	adc	r21, r21
     d78:	66 1f       	adc	r22, r22
     d7a:	77 1f       	adc	r23, r23
     d7c:	88 1f       	adc	r24, r24
     d7e:	99 1f       	adc	r25, r25
     d80:	88 1c       	adc	r8, r8
     d82:	99 1c       	adc	r9, r9
     d84:	ee 1f       	adc	r30, r30
     d86:	ff 1f       	adc	r31, r31
     d88:	cc 1f       	adc	r28, r28
     d8a:	dd 1f       	adc	r29, r29
     d8c:	aa 1f       	adc	r26, r26
     d8e:	bb 1f       	adc	r27, r27
     d90:	8a 14       	cp	r8, r10
     d92:	9b 04       	cpc	r9, r11
     d94:	ec 05       	cpc	r30, r12
     d96:	fd 05       	cpc	r31, r13
     d98:	ce 05       	cpc	r28, r14
     d9a:	df 05       	cpc	r29, r15
     d9c:	a0 07       	cpc	r26, r16
     d9e:	b1 07       	cpc	r27, r17
     da0:	48 f0       	brcs	.+18     	; 0xdb4 <__udivmod64+0x90>
     da2:	8a 18       	sub	r8, r10
     da4:	9b 08       	sbc	r9, r11
     da6:	ec 09       	sbc	r30, r12
     da8:	fd 09       	sbc	r31, r13
     daa:	ce 09       	sbc	r28, r14
     dac:	df 09       	sbc	r29, r15
     dae:	a0 0b       	sbc	r26, r16
     db0:	b1 0b       	sbc	r27, r17
     db2:	21 60       	ori	r18, 0x01	; 1
     db4:	1a 94       	dec	r1
     db6:	e1 f6       	brne	.-72     	; 0xd70 <__udivmod64+0x4c>
     db8:	2e f4       	brtc	.+10     	; 0xdc4 <__udivmod64+0xa0>
     dba:	94 01       	movw	r18, r8
     dbc:	af 01       	movw	r20, r30
     dbe:	be 01       	movw	r22, r28
     dc0:	cd 01       	movw	r24, r26
     dc2:	00 0c       	add	r0, r0
     dc4:	08 95       	ret

00000dc6 <__adddi3_s8>:
     dc6:	00 24       	eor	r0, r0
     dc8:	a7 fd       	sbrc	r26, 7
     dca:	00 94       	com	r0
     dcc:	2a 0f       	add	r18, r26
     dce:	30 1d       	adc	r19, r0
     dd0:	40 1d       	adc	r20, r0
     dd2:	50 1d       	adc	r21, r0
     dd4:	60 1d       	adc	r22, r0
     dd6:	70 1d       	adc	r23, r0
     dd8:	80 1d       	adc	r24, r0
     dda:	90 1d       	adc	r25, r0
     ddc:	08 95       	ret

00000dde <strcmp>:
     dde:	fb 01       	movw	r30, r22
     de0:	dc 01       	movw	r26, r24
     de2:	8d 91       	ld	r24, X+
     de4:	01 90       	ld	r0, Z+
     de6:	80 19       	sub	r24, r0
     de8:	01 10       	cpse	r0, r1
     dea:	d9 f3       	breq	.-10     	; 0xde2 <strcmp+0x4>
     dec:	99 0b       	sbc	r25, r25
     dee:	08 95       	ret

00000df0 <vsnprintf>:
     df0:	0f 93       	push	r16
     df2:	1f 93       	push	r17
     df4:	cf 93       	push	r28
     df6:	df 93       	push	r29
     df8:	cd b7       	in	r28, 0x3d	; 61
     dfa:	de b7       	in	r29, 0x3e	; 62
     dfc:	2e 97       	sbiw	r28, 0x0e	; 14
     dfe:	0f b6       	in	r0, 0x3f	; 63
     e00:	f8 94       	cli
     e02:	de bf       	out	0x3e, r29	; 62
     e04:	0f be       	out	0x3f, r0	; 63
     e06:	cd bf       	out	0x3d, r28	; 61
     e08:	8c 01       	movw	r16, r24
     e0a:	fa 01       	movw	r30, r20
     e0c:	86 e0       	ldi	r24, 0x06	; 6
     e0e:	8c 83       	std	Y+4, r24	; 0x04
     e10:	1a 83       	std	Y+2, r17	; 0x02
     e12:	09 83       	std	Y+1, r16	; 0x01
     e14:	77 ff       	sbrs	r23, 7
     e16:	02 c0       	rjmp	.+4      	; 0xe1c <vsnprintf+0x2c>
     e18:	60 e0       	ldi	r22, 0x00	; 0
     e1a:	70 e8       	ldi	r23, 0x80	; 128
     e1c:	cb 01       	movw	r24, r22
     e1e:	01 97       	sbiw	r24, 0x01	; 1
     e20:	9e 83       	std	Y+6, r25	; 0x06
     e22:	8d 83       	std	Y+5, r24	; 0x05
     e24:	a9 01       	movw	r20, r18
     e26:	bf 01       	movw	r22, r30
     e28:	ce 01       	movw	r24, r28
     e2a:	01 96       	adiw	r24, 0x01	; 1
     e2c:	19 d0       	rcall	.+50     	; 0xe60 <vfprintf>
     e2e:	4d 81       	ldd	r20, Y+5	; 0x05
     e30:	5e 81       	ldd	r21, Y+6	; 0x06
     e32:	57 fd       	sbrc	r21, 7
     e34:	0a c0       	rjmp	.+20     	; 0xe4a <vsnprintf+0x5a>
     e36:	2f 81       	ldd	r18, Y+7	; 0x07
     e38:	38 85       	ldd	r19, Y+8	; 0x08
     e3a:	42 17       	cp	r20, r18
     e3c:	53 07       	cpc	r21, r19
     e3e:	0c f4       	brge	.+2      	; 0xe42 <vsnprintf+0x52>
     e40:	9a 01       	movw	r18, r20
     e42:	f8 01       	movw	r30, r16
     e44:	e2 0f       	add	r30, r18
     e46:	f3 1f       	adc	r31, r19
     e48:	10 82       	st	Z, r1
     e4a:	2e 96       	adiw	r28, 0x0e	; 14
     e4c:	0f b6       	in	r0, 0x3f	; 63
     e4e:	f8 94       	cli
     e50:	de bf       	out	0x3e, r29	; 62
     e52:	0f be       	out	0x3f, r0	; 63
     e54:	cd bf       	out	0x3d, r28	; 61
     e56:	df 91       	pop	r29
     e58:	cf 91       	pop	r28
     e5a:	1f 91       	pop	r17
     e5c:	0f 91       	pop	r16
     e5e:	08 95       	ret

00000e60 <vfprintf>:
     e60:	2f 92       	push	r2
     e62:	3f 92       	push	r3
     e64:	4f 92       	push	r4
     e66:	5f 92       	push	r5
     e68:	6f 92       	push	r6
     e6a:	7f 92       	push	r7
     e6c:	8f 92       	push	r8
     e6e:	9f 92       	push	r9
     e70:	af 92       	push	r10
     e72:	bf 92       	push	r11
     e74:	cf 92       	push	r12
     e76:	df 92       	push	r13
     e78:	ef 92       	push	r14
     e7a:	ff 92       	push	r15
     e7c:	0f 93       	push	r16
     e7e:	1f 93       	push	r17
     e80:	cf 93       	push	r28
     e82:	df 93       	push	r29
     e84:	cd b7       	in	r28, 0x3d	; 61
     e86:	de b7       	in	r29, 0x3e	; 62
     e88:	2b 97       	sbiw	r28, 0x0b	; 11
     e8a:	0f b6       	in	r0, 0x3f	; 63
     e8c:	f8 94       	cli
     e8e:	de bf       	out	0x3e, r29	; 62
     e90:	0f be       	out	0x3f, r0	; 63
     e92:	cd bf       	out	0x3d, r28	; 61
     e94:	6c 01       	movw	r12, r24
     e96:	7b 01       	movw	r14, r22
     e98:	8a 01       	movw	r16, r20
     e9a:	fc 01       	movw	r30, r24
     e9c:	17 82       	std	Z+7, r1	; 0x07
     e9e:	16 82       	std	Z+6, r1	; 0x06
     ea0:	83 81       	ldd	r24, Z+3	; 0x03
     ea2:	81 ff       	sbrs	r24, 1
     ea4:	bf c1       	rjmp	.+894    	; 0x1224 <vfprintf+0x3c4>
     ea6:	ce 01       	movw	r24, r28
     ea8:	01 96       	adiw	r24, 0x01	; 1
     eaa:	3c 01       	movw	r6, r24
     eac:	f6 01       	movw	r30, r12
     eae:	93 81       	ldd	r25, Z+3	; 0x03
     eb0:	f7 01       	movw	r30, r14
     eb2:	93 fd       	sbrc	r25, 3
     eb4:	85 91       	lpm	r24, Z+
     eb6:	93 ff       	sbrs	r25, 3
     eb8:	81 91       	ld	r24, Z+
     eba:	7f 01       	movw	r14, r30
     ebc:	88 23       	and	r24, r24
     ebe:	09 f4       	brne	.+2      	; 0xec2 <vfprintf+0x62>
     ec0:	ad c1       	rjmp	.+858    	; 0x121c <vfprintf+0x3bc>
     ec2:	85 32       	cpi	r24, 0x25	; 37
     ec4:	39 f4       	brne	.+14     	; 0xed4 <vfprintf+0x74>
     ec6:	93 fd       	sbrc	r25, 3
     ec8:	85 91       	lpm	r24, Z+
     eca:	93 ff       	sbrs	r25, 3
     ecc:	81 91       	ld	r24, Z+
     ece:	7f 01       	movw	r14, r30
     ed0:	85 32       	cpi	r24, 0x25	; 37
     ed2:	21 f4       	brne	.+8      	; 0xedc <vfprintf+0x7c>
     ed4:	b6 01       	movw	r22, r12
     ed6:	90 e0       	ldi	r25, 0x00	; 0
     ed8:	d6 d1       	rcall	.+940    	; 0x1286 <fputc>
     eda:	e8 cf       	rjmp	.-48     	; 0xeac <vfprintf+0x4c>
     edc:	91 2c       	mov	r9, r1
     ede:	21 2c       	mov	r2, r1
     ee0:	31 2c       	mov	r3, r1
     ee2:	ff e1       	ldi	r31, 0x1F	; 31
     ee4:	f3 15       	cp	r31, r3
     ee6:	d8 f0       	brcs	.+54     	; 0xf1e <vfprintf+0xbe>
     ee8:	8b 32       	cpi	r24, 0x2B	; 43
     eea:	79 f0       	breq	.+30     	; 0xf0a <vfprintf+0xaa>
     eec:	38 f4       	brcc	.+14     	; 0xefc <vfprintf+0x9c>
     eee:	80 32       	cpi	r24, 0x20	; 32
     ef0:	79 f0       	breq	.+30     	; 0xf10 <vfprintf+0xb0>
     ef2:	83 32       	cpi	r24, 0x23	; 35
     ef4:	a1 f4       	brne	.+40     	; 0xf1e <vfprintf+0xbe>
     ef6:	23 2d       	mov	r18, r3
     ef8:	20 61       	ori	r18, 0x10	; 16
     efa:	1d c0       	rjmp	.+58     	; 0xf36 <vfprintf+0xd6>
     efc:	8d 32       	cpi	r24, 0x2D	; 45
     efe:	61 f0       	breq	.+24     	; 0xf18 <vfprintf+0xb8>
     f00:	80 33       	cpi	r24, 0x30	; 48
     f02:	69 f4       	brne	.+26     	; 0xf1e <vfprintf+0xbe>
     f04:	23 2d       	mov	r18, r3
     f06:	21 60       	ori	r18, 0x01	; 1
     f08:	16 c0       	rjmp	.+44     	; 0xf36 <vfprintf+0xd6>
     f0a:	83 2d       	mov	r24, r3
     f0c:	82 60       	ori	r24, 0x02	; 2
     f0e:	38 2e       	mov	r3, r24
     f10:	e3 2d       	mov	r30, r3
     f12:	e4 60       	ori	r30, 0x04	; 4
     f14:	3e 2e       	mov	r3, r30
     f16:	2a c0       	rjmp	.+84     	; 0xf6c <vfprintf+0x10c>
     f18:	f3 2d       	mov	r31, r3
     f1a:	f8 60       	ori	r31, 0x08	; 8
     f1c:	1d c0       	rjmp	.+58     	; 0xf58 <vfprintf+0xf8>
     f1e:	37 fc       	sbrc	r3, 7
     f20:	2d c0       	rjmp	.+90     	; 0xf7c <vfprintf+0x11c>
     f22:	20 ed       	ldi	r18, 0xD0	; 208
     f24:	28 0f       	add	r18, r24
     f26:	2a 30       	cpi	r18, 0x0A	; 10
     f28:	40 f0       	brcs	.+16     	; 0xf3a <vfprintf+0xda>
     f2a:	8e 32       	cpi	r24, 0x2E	; 46
     f2c:	b9 f4       	brne	.+46     	; 0xf5c <vfprintf+0xfc>
     f2e:	36 fc       	sbrc	r3, 6
     f30:	75 c1       	rjmp	.+746    	; 0x121c <vfprintf+0x3bc>
     f32:	23 2d       	mov	r18, r3
     f34:	20 64       	ori	r18, 0x40	; 64
     f36:	32 2e       	mov	r3, r18
     f38:	19 c0       	rjmp	.+50     	; 0xf6c <vfprintf+0x10c>
     f3a:	36 fe       	sbrs	r3, 6
     f3c:	06 c0       	rjmp	.+12     	; 0xf4a <vfprintf+0xea>
     f3e:	8a e0       	ldi	r24, 0x0A	; 10
     f40:	98 9e       	mul	r9, r24
     f42:	20 0d       	add	r18, r0
     f44:	11 24       	eor	r1, r1
     f46:	92 2e       	mov	r9, r18
     f48:	11 c0       	rjmp	.+34     	; 0xf6c <vfprintf+0x10c>
     f4a:	ea e0       	ldi	r30, 0x0A	; 10
     f4c:	2e 9e       	mul	r2, r30
     f4e:	20 0d       	add	r18, r0
     f50:	11 24       	eor	r1, r1
     f52:	22 2e       	mov	r2, r18
     f54:	f3 2d       	mov	r31, r3
     f56:	f0 62       	ori	r31, 0x20	; 32
     f58:	3f 2e       	mov	r3, r31
     f5a:	08 c0       	rjmp	.+16     	; 0xf6c <vfprintf+0x10c>
     f5c:	8c 36       	cpi	r24, 0x6C	; 108
     f5e:	21 f4       	brne	.+8      	; 0xf68 <vfprintf+0x108>
     f60:	83 2d       	mov	r24, r3
     f62:	80 68       	ori	r24, 0x80	; 128
     f64:	38 2e       	mov	r3, r24
     f66:	02 c0       	rjmp	.+4      	; 0xf6c <vfprintf+0x10c>
     f68:	88 36       	cpi	r24, 0x68	; 104
     f6a:	41 f4       	brne	.+16     	; 0xf7c <vfprintf+0x11c>
     f6c:	f7 01       	movw	r30, r14
     f6e:	93 fd       	sbrc	r25, 3
     f70:	85 91       	lpm	r24, Z+
     f72:	93 ff       	sbrs	r25, 3
     f74:	81 91       	ld	r24, Z+
     f76:	7f 01       	movw	r14, r30
     f78:	81 11       	cpse	r24, r1
     f7a:	b3 cf       	rjmp	.-154    	; 0xee2 <vfprintf+0x82>
     f7c:	98 2f       	mov	r25, r24
     f7e:	9f 7d       	andi	r25, 0xDF	; 223
     f80:	95 54       	subi	r25, 0x45	; 69
     f82:	93 30       	cpi	r25, 0x03	; 3
     f84:	28 f4       	brcc	.+10     	; 0xf90 <vfprintf+0x130>
     f86:	0c 5f       	subi	r16, 0xFC	; 252
     f88:	1f 4f       	sbci	r17, 0xFF	; 255
     f8a:	9f e3       	ldi	r25, 0x3F	; 63
     f8c:	99 83       	std	Y+1, r25	; 0x01
     f8e:	0d c0       	rjmp	.+26     	; 0xfaa <vfprintf+0x14a>
     f90:	83 36       	cpi	r24, 0x63	; 99
     f92:	31 f0       	breq	.+12     	; 0xfa0 <vfprintf+0x140>
     f94:	83 37       	cpi	r24, 0x73	; 115
     f96:	71 f0       	breq	.+28     	; 0xfb4 <vfprintf+0x154>
     f98:	83 35       	cpi	r24, 0x53	; 83
     f9a:	09 f0       	breq	.+2      	; 0xf9e <vfprintf+0x13e>
     f9c:	55 c0       	rjmp	.+170    	; 0x1048 <vfprintf+0x1e8>
     f9e:	20 c0       	rjmp	.+64     	; 0xfe0 <vfprintf+0x180>
     fa0:	f8 01       	movw	r30, r16
     fa2:	80 81       	ld	r24, Z
     fa4:	89 83       	std	Y+1, r24	; 0x01
     fa6:	0e 5f       	subi	r16, 0xFE	; 254
     fa8:	1f 4f       	sbci	r17, 0xFF	; 255
     faa:	88 24       	eor	r8, r8
     fac:	83 94       	inc	r8
     fae:	91 2c       	mov	r9, r1
     fb0:	53 01       	movw	r10, r6
     fb2:	12 c0       	rjmp	.+36     	; 0xfd8 <vfprintf+0x178>
     fb4:	28 01       	movw	r4, r16
     fb6:	f2 e0       	ldi	r31, 0x02	; 2
     fb8:	4f 0e       	add	r4, r31
     fba:	51 1c       	adc	r5, r1
     fbc:	f8 01       	movw	r30, r16
     fbe:	a0 80       	ld	r10, Z
     fc0:	b1 80       	ldd	r11, Z+1	; 0x01
     fc2:	36 fe       	sbrs	r3, 6
     fc4:	03 c0       	rjmp	.+6      	; 0xfcc <vfprintf+0x16c>
     fc6:	69 2d       	mov	r22, r9
     fc8:	70 e0       	ldi	r23, 0x00	; 0
     fca:	02 c0       	rjmp	.+4      	; 0xfd0 <vfprintf+0x170>
     fcc:	6f ef       	ldi	r22, 0xFF	; 255
     fce:	7f ef       	ldi	r23, 0xFF	; 255
     fd0:	c5 01       	movw	r24, r10
     fd2:	4e d1       	rcall	.+668    	; 0x1270 <strnlen>
     fd4:	4c 01       	movw	r8, r24
     fd6:	82 01       	movw	r16, r4
     fd8:	f3 2d       	mov	r31, r3
     fda:	ff 77       	andi	r31, 0x7F	; 127
     fdc:	3f 2e       	mov	r3, r31
     fde:	15 c0       	rjmp	.+42     	; 0x100a <vfprintf+0x1aa>
     fe0:	28 01       	movw	r4, r16
     fe2:	22 e0       	ldi	r18, 0x02	; 2
     fe4:	42 0e       	add	r4, r18
     fe6:	51 1c       	adc	r5, r1
     fe8:	f8 01       	movw	r30, r16
     fea:	a0 80       	ld	r10, Z
     fec:	b1 80       	ldd	r11, Z+1	; 0x01
     fee:	36 fe       	sbrs	r3, 6
     ff0:	03 c0       	rjmp	.+6      	; 0xff8 <vfprintf+0x198>
     ff2:	69 2d       	mov	r22, r9
     ff4:	70 e0       	ldi	r23, 0x00	; 0
     ff6:	02 c0       	rjmp	.+4      	; 0xffc <vfprintf+0x19c>
     ff8:	6f ef       	ldi	r22, 0xFF	; 255
     ffa:	7f ef       	ldi	r23, 0xFF	; 255
     ffc:	c5 01       	movw	r24, r10
     ffe:	2d d1       	rcall	.+602    	; 0x125a <strnlen_P>
    1000:	4c 01       	movw	r8, r24
    1002:	f3 2d       	mov	r31, r3
    1004:	f0 68       	ori	r31, 0x80	; 128
    1006:	3f 2e       	mov	r3, r31
    1008:	82 01       	movw	r16, r4
    100a:	33 fc       	sbrc	r3, 3
    100c:	19 c0       	rjmp	.+50     	; 0x1040 <vfprintf+0x1e0>
    100e:	82 2d       	mov	r24, r2
    1010:	90 e0       	ldi	r25, 0x00	; 0
    1012:	88 16       	cp	r8, r24
    1014:	99 06       	cpc	r9, r25
    1016:	a0 f4       	brcc	.+40     	; 0x1040 <vfprintf+0x1e0>
    1018:	b6 01       	movw	r22, r12
    101a:	80 e2       	ldi	r24, 0x20	; 32
    101c:	90 e0       	ldi	r25, 0x00	; 0
    101e:	33 d1       	rcall	.+614    	; 0x1286 <fputc>
    1020:	2a 94       	dec	r2
    1022:	f5 cf       	rjmp	.-22     	; 0x100e <vfprintf+0x1ae>
    1024:	f5 01       	movw	r30, r10
    1026:	37 fc       	sbrc	r3, 7
    1028:	85 91       	lpm	r24, Z+
    102a:	37 fe       	sbrs	r3, 7
    102c:	81 91       	ld	r24, Z+
    102e:	5f 01       	movw	r10, r30
    1030:	b6 01       	movw	r22, r12
    1032:	90 e0       	ldi	r25, 0x00	; 0
    1034:	28 d1       	rcall	.+592    	; 0x1286 <fputc>
    1036:	21 10       	cpse	r2, r1
    1038:	2a 94       	dec	r2
    103a:	21 e0       	ldi	r18, 0x01	; 1
    103c:	82 1a       	sub	r8, r18
    103e:	91 08       	sbc	r9, r1
    1040:	81 14       	cp	r8, r1
    1042:	91 04       	cpc	r9, r1
    1044:	79 f7       	brne	.-34     	; 0x1024 <vfprintf+0x1c4>
    1046:	e1 c0       	rjmp	.+450    	; 0x120a <vfprintf+0x3aa>
    1048:	84 36       	cpi	r24, 0x64	; 100
    104a:	11 f0       	breq	.+4      	; 0x1050 <vfprintf+0x1f0>
    104c:	89 36       	cpi	r24, 0x69	; 105
    104e:	39 f5       	brne	.+78     	; 0x109e <vfprintf+0x23e>
    1050:	f8 01       	movw	r30, r16
    1052:	37 fe       	sbrs	r3, 7
    1054:	07 c0       	rjmp	.+14     	; 0x1064 <vfprintf+0x204>
    1056:	60 81       	ld	r22, Z
    1058:	71 81       	ldd	r23, Z+1	; 0x01
    105a:	82 81       	ldd	r24, Z+2	; 0x02
    105c:	93 81       	ldd	r25, Z+3	; 0x03
    105e:	0c 5f       	subi	r16, 0xFC	; 252
    1060:	1f 4f       	sbci	r17, 0xFF	; 255
    1062:	08 c0       	rjmp	.+16     	; 0x1074 <vfprintf+0x214>
    1064:	60 81       	ld	r22, Z
    1066:	71 81       	ldd	r23, Z+1	; 0x01
    1068:	07 2e       	mov	r0, r23
    106a:	00 0c       	add	r0, r0
    106c:	88 0b       	sbc	r24, r24
    106e:	99 0b       	sbc	r25, r25
    1070:	0e 5f       	subi	r16, 0xFE	; 254
    1072:	1f 4f       	sbci	r17, 0xFF	; 255
    1074:	f3 2d       	mov	r31, r3
    1076:	ff 76       	andi	r31, 0x6F	; 111
    1078:	3f 2e       	mov	r3, r31
    107a:	97 ff       	sbrs	r25, 7
    107c:	09 c0       	rjmp	.+18     	; 0x1090 <vfprintf+0x230>
    107e:	90 95       	com	r25
    1080:	80 95       	com	r24
    1082:	70 95       	com	r23
    1084:	61 95       	neg	r22
    1086:	7f 4f       	sbci	r23, 0xFF	; 255
    1088:	8f 4f       	sbci	r24, 0xFF	; 255
    108a:	9f 4f       	sbci	r25, 0xFF	; 255
    108c:	f0 68       	ori	r31, 0x80	; 128
    108e:	3f 2e       	mov	r3, r31
    1090:	2a e0       	ldi	r18, 0x0A	; 10
    1092:	30 e0       	ldi	r19, 0x00	; 0
    1094:	a3 01       	movw	r20, r6
    1096:	33 d1       	rcall	.+614    	; 0x12fe <__ultoa_invert>
    1098:	88 2e       	mov	r8, r24
    109a:	86 18       	sub	r8, r6
    109c:	44 c0       	rjmp	.+136    	; 0x1126 <vfprintf+0x2c6>
    109e:	85 37       	cpi	r24, 0x75	; 117
    10a0:	31 f4       	brne	.+12     	; 0x10ae <vfprintf+0x24e>
    10a2:	23 2d       	mov	r18, r3
    10a4:	2f 7e       	andi	r18, 0xEF	; 239
    10a6:	b2 2e       	mov	r11, r18
    10a8:	2a e0       	ldi	r18, 0x0A	; 10
    10aa:	30 e0       	ldi	r19, 0x00	; 0
    10ac:	25 c0       	rjmp	.+74     	; 0x10f8 <vfprintf+0x298>
    10ae:	93 2d       	mov	r25, r3
    10b0:	99 7f       	andi	r25, 0xF9	; 249
    10b2:	b9 2e       	mov	r11, r25
    10b4:	8f 36       	cpi	r24, 0x6F	; 111
    10b6:	c1 f0       	breq	.+48     	; 0x10e8 <vfprintf+0x288>
    10b8:	18 f4       	brcc	.+6      	; 0x10c0 <vfprintf+0x260>
    10ba:	88 35       	cpi	r24, 0x58	; 88
    10bc:	79 f0       	breq	.+30     	; 0x10dc <vfprintf+0x27c>
    10be:	ae c0       	rjmp	.+348    	; 0x121c <vfprintf+0x3bc>
    10c0:	80 37       	cpi	r24, 0x70	; 112
    10c2:	19 f0       	breq	.+6      	; 0x10ca <vfprintf+0x26a>
    10c4:	88 37       	cpi	r24, 0x78	; 120
    10c6:	21 f0       	breq	.+8      	; 0x10d0 <vfprintf+0x270>
    10c8:	a9 c0       	rjmp	.+338    	; 0x121c <vfprintf+0x3bc>
    10ca:	e9 2f       	mov	r30, r25
    10cc:	e0 61       	ori	r30, 0x10	; 16
    10ce:	be 2e       	mov	r11, r30
    10d0:	b4 fe       	sbrs	r11, 4
    10d2:	0d c0       	rjmp	.+26     	; 0x10ee <vfprintf+0x28e>
    10d4:	fb 2d       	mov	r31, r11
    10d6:	f4 60       	ori	r31, 0x04	; 4
    10d8:	bf 2e       	mov	r11, r31
    10da:	09 c0       	rjmp	.+18     	; 0x10ee <vfprintf+0x28e>
    10dc:	34 fe       	sbrs	r3, 4
    10de:	0a c0       	rjmp	.+20     	; 0x10f4 <vfprintf+0x294>
    10e0:	29 2f       	mov	r18, r25
    10e2:	26 60       	ori	r18, 0x06	; 6
    10e4:	b2 2e       	mov	r11, r18
    10e6:	06 c0       	rjmp	.+12     	; 0x10f4 <vfprintf+0x294>
    10e8:	28 e0       	ldi	r18, 0x08	; 8
    10ea:	30 e0       	ldi	r19, 0x00	; 0
    10ec:	05 c0       	rjmp	.+10     	; 0x10f8 <vfprintf+0x298>
    10ee:	20 e1       	ldi	r18, 0x10	; 16
    10f0:	30 e0       	ldi	r19, 0x00	; 0
    10f2:	02 c0       	rjmp	.+4      	; 0x10f8 <vfprintf+0x298>
    10f4:	20 e1       	ldi	r18, 0x10	; 16
    10f6:	32 e0       	ldi	r19, 0x02	; 2
    10f8:	f8 01       	movw	r30, r16
    10fa:	b7 fe       	sbrs	r11, 7
    10fc:	07 c0       	rjmp	.+14     	; 0x110c <vfprintf+0x2ac>
    10fe:	60 81       	ld	r22, Z
    1100:	71 81       	ldd	r23, Z+1	; 0x01
    1102:	82 81       	ldd	r24, Z+2	; 0x02
    1104:	93 81       	ldd	r25, Z+3	; 0x03
    1106:	0c 5f       	subi	r16, 0xFC	; 252
    1108:	1f 4f       	sbci	r17, 0xFF	; 255
    110a:	06 c0       	rjmp	.+12     	; 0x1118 <vfprintf+0x2b8>
    110c:	60 81       	ld	r22, Z
    110e:	71 81       	ldd	r23, Z+1	; 0x01
    1110:	80 e0       	ldi	r24, 0x00	; 0
    1112:	90 e0       	ldi	r25, 0x00	; 0
    1114:	0e 5f       	subi	r16, 0xFE	; 254
    1116:	1f 4f       	sbci	r17, 0xFF	; 255
    1118:	a3 01       	movw	r20, r6
    111a:	f1 d0       	rcall	.+482    	; 0x12fe <__ultoa_invert>
    111c:	88 2e       	mov	r8, r24
    111e:	86 18       	sub	r8, r6
    1120:	fb 2d       	mov	r31, r11
    1122:	ff 77       	andi	r31, 0x7F	; 127
    1124:	3f 2e       	mov	r3, r31
    1126:	36 fe       	sbrs	r3, 6
    1128:	0d c0       	rjmp	.+26     	; 0x1144 <vfprintf+0x2e4>
    112a:	23 2d       	mov	r18, r3
    112c:	2e 7f       	andi	r18, 0xFE	; 254
    112e:	a2 2e       	mov	r10, r18
    1130:	89 14       	cp	r8, r9
    1132:	58 f4       	brcc	.+22     	; 0x114a <vfprintf+0x2ea>
    1134:	34 fe       	sbrs	r3, 4
    1136:	0b c0       	rjmp	.+22     	; 0x114e <vfprintf+0x2ee>
    1138:	32 fc       	sbrc	r3, 2
    113a:	09 c0       	rjmp	.+18     	; 0x114e <vfprintf+0x2ee>
    113c:	83 2d       	mov	r24, r3
    113e:	8e 7e       	andi	r24, 0xEE	; 238
    1140:	a8 2e       	mov	r10, r24
    1142:	05 c0       	rjmp	.+10     	; 0x114e <vfprintf+0x2ee>
    1144:	b8 2c       	mov	r11, r8
    1146:	a3 2c       	mov	r10, r3
    1148:	03 c0       	rjmp	.+6      	; 0x1150 <vfprintf+0x2f0>
    114a:	b8 2c       	mov	r11, r8
    114c:	01 c0       	rjmp	.+2      	; 0x1150 <vfprintf+0x2f0>
    114e:	b9 2c       	mov	r11, r9
    1150:	a4 fe       	sbrs	r10, 4
    1152:	0f c0       	rjmp	.+30     	; 0x1172 <vfprintf+0x312>
    1154:	fe 01       	movw	r30, r28
    1156:	e8 0d       	add	r30, r8
    1158:	f1 1d       	adc	r31, r1
    115a:	80 81       	ld	r24, Z
    115c:	80 33       	cpi	r24, 0x30	; 48
    115e:	21 f4       	brne	.+8      	; 0x1168 <vfprintf+0x308>
    1160:	9a 2d       	mov	r25, r10
    1162:	99 7e       	andi	r25, 0xE9	; 233
    1164:	a9 2e       	mov	r10, r25
    1166:	09 c0       	rjmp	.+18     	; 0x117a <vfprintf+0x31a>
    1168:	a2 fe       	sbrs	r10, 2
    116a:	06 c0       	rjmp	.+12     	; 0x1178 <vfprintf+0x318>
    116c:	b3 94       	inc	r11
    116e:	b3 94       	inc	r11
    1170:	04 c0       	rjmp	.+8      	; 0x117a <vfprintf+0x31a>
    1172:	8a 2d       	mov	r24, r10
    1174:	86 78       	andi	r24, 0x86	; 134
    1176:	09 f0       	breq	.+2      	; 0x117a <vfprintf+0x31a>
    1178:	b3 94       	inc	r11
    117a:	a3 fc       	sbrc	r10, 3
    117c:	10 c0       	rjmp	.+32     	; 0x119e <vfprintf+0x33e>
    117e:	a0 fe       	sbrs	r10, 0
    1180:	06 c0       	rjmp	.+12     	; 0x118e <vfprintf+0x32e>
    1182:	b2 14       	cp	r11, r2
    1184:	80 f4       	brcc	.+32     	; 0x11a6 <vfprintf+0x346>
    1186:	28 0c       	add	r2, r8
    1188:	92 2c       	mov	r9, r2
    118a:	9b 18       	sub	r9, r11
    118c:	0d c0       	rjmp	.+26     	; 0x11a8 <vfprintf+0x348>
    118e:	b2 14       	cp	r11, r2
    1190:	58 f4       	brcc	.+22     	; 0x11a8 <vfprintf+0x348>
    1192:	b6 01       	movw	r22, r12
    1194:	80 e2       	ldi	r24, 0x20	; 32
    1196:	90 e0       	ldi	r25, 0x00	; 0
    1198:	76 d0       	rcall	.+236    	; 0x1286 <fputc>
    119a:	b3 94       	inc	r11
    119c:	f8 cf       	rjmp	.-16     	; 0x118e <vfprintf+0x32e>
    119e:	b2 14       	cp	r11, r2
    11a0:	18 f4       	brcc	.+6      	; 0x11a8 <vfprintf+0x348>
    11a2:	2b 18       	sub	r2, r11
    11a4:	02 c0       	rjmp	.+4      	; 0x11aa <vfprintf+0x34a>
    11a6:	98 2c       	mov	r9, r8
    11a8:	21 2c       	mov	r2, r1
    11aa:	a4 fe       	sbrs	r10, 4
    11ac:	0f c0       	rjmp	.+30     	; 0x11cc <vfprintf+0x36c>
    11ae:	b6 01       	movw	r22, r12
    11b0:	80 e3       	ldi	r24, 0x30	; 48
    11b2:	90 e0       	ldi	r25, 0x00	; 0
    11b4:	68 d0       	rcall	.+208    	; 0x1286 <fputc>
    11b6:	a2 fe       	sbrs	r10, 2
    11b8:	16 c0       	rjmp	.+44     	; 0x11e6 <vfprintf+0x386>
    11ba:	a1 fc       	sbrc	r10, 1
    11bc:	03 c0       	rjmp	.+6      	; 0x11c4 <vfprintf+0x364>
    11be:	88 e7       	ldi	r24, 0x78	; 120
    11c0:	90 e0       	ldi	r25, 0x00	; 0
    11c2:	02 c0       	rjmp	.+4      	; 0x11c8 <vfprintf+0x368>
    11c4:	88 e5       	ldi	r24, 0x58	; 88
    11c6:	90 e0       	ldi	r25, 0x00	; 0
    11c8:	b6 01       	movw	r22, r12
    11ca:	0c c0       	rjmp	.+24     	; 0x11e4 <vfprintf+0x384>
    11cc:	8a 2d       	mov	r24, r10
    11ce:	86 78       	andi	r24, 0x86	; 134
    11d0:	51 f0       	breq	.+20     	; 0x11e6 <vfprintf+0x386>
    11d2:	a1 fe       	sbrs	r10, 1
    11d4:	02 c0       	rjmp	.+4      	; 0x11da <vfprintf+0x37a>
    11d6:	8b e2       	ldi	r24, 0x2B	; 43
    11d8:	01 c0       	rjmp	.+2      	; 0x11dc <vfprintf+0x37c>
    11da:	80 e2       	ldi	r24, 0x20	; 32
    11dc:	a7 fc       	sbrc	r10, 7
    11de:	8d e2       	ldi	r24, 0x2D	; 45
    11e0:	b6 01       	movw	r22, r12
    11e2:	90 e0       	ldi	r25, 0x00	; 0
    11e4:	50 d0       	rcall	.+160    	; 0x1286 <fputc>
    11e6:	89 14       	cp	r8, r9
    11e8:	30 f4       	brcc	.+12     	; 0x11f6 <vfprintf+0x396>
    11ea:	b6 01       	movw	r22, r12
    11ec:	80 e3       	ldi	r24, 0x30	; 48
    11ee:	90 e0       	ldi	r25, 0x00	; 0
    11f0:	4a d0       	rcall	.+148    	; 0x1286 <fputc>
    11f2:	9a 94       	dec	r9
    11f4:	f8 cf       	rjmp	.-16     	; 0x11e6 <vfprintf+0x386>
    11f6:	8a 94       	dec	r8
    11f8:	f3 01       	movw	r30, r6
    11fa:	e8 0d       	add	r30, r8
    11fc:	f1 1d       	adc	r31, r1
    11fe:	80 81       	ld	r24, Z
    1200:	b6 01       	movw	r22, r12
    1202:	90 e0       	ldi	r25, 0x00	; 0
    1204:	40 d0       	rcall	.+128    	; 0x1286 <fputc>
    1206:	81 10       	cpse	r8, r1
    1208:	f6 cf       	rjmp	.-20     	; 0x11f6 <vfprintf+0x396>
    120a:	22 20       	and	r2, r2
    120c:	09 f4       	brne	.+2      	; 0x1210 <vfprintf+0x3b0>
    120e:	4e ce       	rjmp	.-868    	; 0xeac <vfprintf+0x4c>
    1210:	b6 01       	movw	r22, r12
    1212:	80 e2       	ldi	r24, 0x20	; 32
    1214:	90 e0       	ldi	r25, 0x00	; 0
    1216:	37 d0       	rcall	.+110    	; 0x1286 <fputc>
    1218:	2a 94       	dec	r2
    121a:	f7 cf       	rjmp	.-18     	; 0x120a <vfprintf+0x3aa>
    121c:	f6 01       	movw	r30, r12
    121e:	86 81       	ldd	r24, Z+6	; 0x06
    1220:	97 81       	ldd	r25, Z+7	; 0x07
    1222:	02 c0       	rjmp	.+4      	; 0x1228 <vfprintf+0x3c8>
    1224:	8f ef       	ldi	r24, 0xFF	; 255
    1226:	9f ef       	ldi	r25, 0xFF	; 255
    1228:	2b 96       	adiw	r28, 0x0b	; 11
    122a:	0f b6       	in	r0, 0x3f	; 63
    122c:	f8 94       	cli
    122e:	de bf       	out	0x3e, r29	; 62
    1230:	0f be       	out	0x3f, r0	; 63
    1232:	cd bf       	out	0x3d, r28	; 61
    1234:	df 91       	pop	r29
    1236:	cf 91       	pop	r28
    1238:	1f 91       	pop	r17
    123a:	0f 91       	pop	r16
    123c:	ff 90       	pop	r15
    123e:	ef 90       	pop	r14
    1240:	df 90       	pop	r13
    1242:	cf 90       	pop	r12
    1244:	bf 90       	pop	r11
    1246:	af 90       	pop	r10
    1248:	9f 90       	pop	r9
    124a:	8f 90       	pop	r8
    124c:	7f 90       	pop	r7
    124e:	6f 90       	pop	r6
    1250:	5f 90       	pop	r5
    1252:	4f 90       	pop	r4
    1254:	3f 90       	pop	r3
    1256:	2f 90       	pop	r2
    1258:	08 95       	ret

0000125a <strnlen_P>:
    125a:	fc 01       	movw	r30, r24
    125c:	05 90       	lpm	r0, Z+
    125e:	61 50       	subi	r22, 0x01	; 1
    1260:	70 40       	sbci	r23, 0x00	; 0
    1262:	01 10       	cpse	r0, r1
    1264:	d8 f7       	brcc	.-10     	; 0x125c <strnlen_P+0x2>
    1266:	80 95       	com	r24
    1268:	90 95       	com	r25
    126a:	8e 0f       	add	r24, r30
    126c:	9f 1f       	adc	r25, r31
    126e:	08 95       	ret

00001270 <strnlen>:
    1270:	fc 01       	movw	r30, r24
    1272:	61 50       	subi	r22, 0x01	; 1
    1274:	70 40       	sbci	r23, 0x00	; 0
    1276:	01 90       	ld	r0, Z+
    1278:	01 10       	cpse	r0, r1
    127a:	d8 f7       	brcc	.-10     	; 0x1272 <strnlen+0x2>
    127c:	80 95       	com	r24
    127e:	90 95       	com	r25
    1280:	8e 0f       	add	r24, r30
    1282:	9f 1f       	adc	r25, r31
    1284:	08 95       	ret

00001286 <fputc>:
    1286:	0f 93       	push	r16
    1288:	1f 93       	push	r17
    128a:	cf 93       	push	r28
    128c:	df 93       	push	r29
    128e:	fb 01       	movw	r30, r22
    1290:	23 81       	ldd	r18, Z+3	; 0x03
    1292:	21 fd       	sbrc	r18, 1
    1294:	03 c0       	rjmp	.+6      	; 0x129c <fputc+0x16>
    1296:	8f ef       	ldi	r24, 0xFF	; 255
    1298:	9f ef       	ldi	r25, 0xFF	; 255
    129a:	2c c0       	rjmp	.+88     	; 0x12f4 <fputc+0x6e>
    129c:	22 ff       	sbrs	r18, 2
    129e:	16 c0       	rjmp	.+44     	; 0x12cc <fputc+0x46>
    12a0:	46 81       	ldd	r20, Z+6	; 0x06
    12a2:	57 81       	ldd	r21, Z+7	; 0x07
    12a4:	24 81       	ldd	r18, Z+4	; 0x04
    12a6:	35 81       	ldd	r19, Z+5	; 0x05
    12a8:	42 17       	cp	r20, r18
    12aa:	53 07       	cpc	r21, r19
    12ac:	44 f4       	brge	.+16     	; 0x12be <fputc+0x38>
    12ae:	a0 81       	ld	r26, Z
    12b0:	b1 81       	ldd	r27, Z+1	; 0x01
    12b2:	9d 01       	movw	r18, r26
    12b4:	2f 5f       	subi	r18, 0xFF	; 255
    12b6:	3f 4f       	sbci	r19, 0xFF	; 255
    12b8:	31 83       	std	Z+1, r19	; 0x01
    12ba:	20 83       	st	Z, r18
    12bc:	8c 93       	st	X, r24
    12be:	26 81       	ldd	r18, Z+6	; 0x06
    12c0:	37 81       	ldd	r19, Z+7	; 0x07
    12c2:	2f 5f       	subi	r18, 0xFF	; 255
    12c4:	3f 4f       	sbci	r19, 0xFF	; 255
    12c6:	37 83       	std	Z+7, r19	; 0x07
    12c8:	26 83       	std	Z+6, r18	; 0x06
    12ca:	14 c0       	rjmp	.+40     	; 0x12f4 <fputc+0x6e>
    12cc:	8b 01       	movw	r16, r22
    12ce:	ec 01       	movw	r28, r24
    12d0:	fb 01       	movw	r30, r22
    12d2:	00 84       	ldd	r0, Z+8	; 0x08
    12d4:	f1 85       	ldd	r31, Z+9	; 0x09
    12d6:	e0 2d       	mov	r30, r0
    12d8:	19 95       	eicall
    12da:	89 2b       	or	r24, r25
    12dc:	e1 f6       	brne	.-72     	; 0x1296 <fputc+0x10>
    12de:	d8 01       	movw	r26, r16
    12e0:	16 96       	adiw	r26, 0x06	; 6
    12e2:	8d 91       	ld	r24, X+
    12e4:	9c 91       	ld	r25, X
    12e6:	17 97       	sbiw	r26, 0x07	; 7
    12e8:	01 96       	adiw	r24, 0x01	; 1
    12ea:	17 96       	adiw	r26, 0x07	; 7
    12ec:	9c 93       	st	X, r25
    12ee:	8e 93       	st	-X, r24
    12f0:	16 97       	sbiw	r26, 0x06	; 6
    12f2:	ce 01       	movw	r24, r28
    12f4:	df 91       	pop	r29
    12f6:	cf 91       	pop	r28
    12f8:	1f 91       	pop	r17
    12fa:	0f 91       	pop	r16
    12fc:	08 95       	ret

000012fe <__ultoa_invert>:
    12fe:	fa 01       	movw	r30, r20
    1300:	aa 27       	eor	r26, r26
    1302:	28 30       	cpi	r18, 0x08	; 8
    1304:	51 f1       	breq	.+84     	; 0x135a <__ultoa_invert+0x5c>
    1306:	20 31       	cpi	r18, 0x10	; 16
    1308:	81 f1       	breq	.+96     	; 0x136a <__ultoa_invert+0x6c>
    130a:	e8 94       	clt
    130c:	6f 93       	push	r22
    130e:	6e 7f       	andi	r22, 0xFE	; 254
    1310:	6e 5f       	subi	r22, 0xFE	; 254
    1312:	7f 4f       	sbci	r23, 0xFF	; 255
    1314:	8f 4f       	sbci	r24, 0xFF	; 255
    1316:	9f 4f       	sbci	r25, 0xFF	; 255
    1318:	af 4f       	sbci	r26, 0xFF	; 255
    131a:	b1 e0       	ldi	r27, 0x01	; 1
    131c:	3e d0       	rcall	.+124    	; 0x139a <__ultoa_invert+0x9c>
    131e:	b4 e0       	ldi	r27, 0x04	; 4
    1320:	3c d0       	rcall	.+120    	; 0x139a <__ultoa_invert+0x9c>
    1322:	67 0f       	add	r22, r23
    1324:	78 1f       	adc	r23, r24
    1326:	89 1f       	adc	r24, r25
    1328:	9a 1f       	adc	r25, r26
    132a:	a1 1d       	adc	r26, r1
    132c:	68 0f       	add	r22, r24
    132e:	79 1f       	adc	r23, r25
    1330:	8a 1f       	adc	r24, r26
    1332:	91 1d       	adc	r25, r1
    1334:	a1 1d       	adc	r26, r1
    1336:	6a 0f       	add	r22, r26
    1338:	71 1d       	adc	r23, r1
    133a:	81 1d       	adc	r24, r1
    133c:	91 1d       	adc	r25, r1
    133e:	a1 1d       	adc	r26, r1
    1340:	20 d0       	rcall	.+64     	; 0x1382 <__ultoa_invert+0x84>
    1342:	09 f4       	brne	.+2      	; 0x1346 <__ultoa_invert+0x48>
    1344:	68 94       	set
    1346:	3f 91       	pop	r19
    1348:	2a e0       	ldi	r18, 0x0A	; 10
    134a:	26 9f       	mul	r18, r22
    134c:	11 24       	eor	r1, r1
    134e:	30 19       	sub	r19, r0
    1350:	30 5d       	subi	r19, 0xD0	; 208
    1352:	31 93       	st	Z+, r19
    1354:	de f6       	brtc	.-74     	; 0x130c <__ultoa_invert+0xe>
    1356:	cf 01       	movw	r24, r30
    1358:	08 95       	ret
    135a:	46 2f       	mov	r20, r22
    135c:	47 70       	andi	r20, 0x07	; 7
    135e:	40 5d       	subi	r20, 0xD0	; 208
    1360:	41 93       	st	Z+, r20
    1362:	b3 e0       	ldi	r27, 0x03	; 3
    1364:	0f d0       	rcall	.+30     	; 0x1384 <__ultoa_invert+0x86>
    1366:	c9 f7       	brne	.-14     	; 0x135a <__ultoa_invert+0x5c>
    1368:	f6 cf       	rjmp	.-20     	; 0x1356 <__ultoa_invert+0x58>
    136a:	46 2f       	mov	r20, r22
    136c:	4f 70       	andi	r20, 0x0F	; 15
    136e:	40 5d       	subi	r20, 0xD0	; 208
    1370:	4a 33       	cpi	r20, 0x3A	; 58
    1372:	18 f0       	brcs	.+6      	; 0x137a <__ultoa_invert+0x7c>
    1374:	49 5d       	subi	r20, 0xD9	; 217
    1376:	31 fd       	sbrc	r19, 1
    1378:	40 52       	subi	r20, 0x20	; 32
    137a:	41 93       	st	Z+, r20
    137c:	02 d0       	rcall	.+4      	; 0x1382 <__ultoa_invert+0x84>
    137e:	a9 f7       	brne	.-22     	; 0x136a <__ultoa_invert+0x6c>
    1380:	ea cf       	rjmp	.-44     	; 0x1356 <__ultoa_invert+0x58>
    1382:	b4 e0       	ldi	r27, 0x04	; 4
    1384:	a6 95       	lsr	r26
    1386:	97 95       	ror	r25
    1388:	87 95       	ror	r24
    138a:	77 95       	ror	r23
    138c:	67 95       	ror	r22
    138e:	ba 95       	dec	r27
    1390:	c9 f7       	brne	.-14     	; 0x1384 <__ultoa_invert+0x86>
    1392:	00 97       	sbiw	r24, 0x00	; 0
    1394:	61 05       	cpc	r22, r1
    1396:	71 05       	cpc	r23, r1
    1398:	08 95       	ret
    139a:	9b 01       	movw	r18, r22
    139c:	ac 01       	movw	r20, r24
    139e:	0a 2e       	mov	r0, r26
    13a0:	06 94       	lsr	r0
    13a2:	57 95       	ror	r21
    13a4:	47 95       	ror	r20
    13a6:	37 95       	ror	r19
    13a8:	27 95       	ror	r18
    13aa:	ba 95       	dec	r27
    13ac:	c9 f7       	brne	.-14     	; 0x13a0 <__ultoa_invert+0xa2>
    13ae:	62 0f       	add	r22, r18
    13b0:	73 1f       	adc	r23, r19
    13b2:	84 1f       	adc	r24, r20
    13b4:	95 1f       	adc	r25, r21
    13b6:	a0 1d       	adc	r26, r0
    13b8:	08 95       	ret

000013ba <_exit>:
    13ba:	f8 94       	cli

000013bc <__stop_program>:
    13bc:	ff cf       	rjmp	.-2      	; 0x13bc <__stop_program>
