
uCBoardBeispiele.elf:     file format elf32-avr

Sections:
Idx Name          Size      VMA       LMA       File off  Algn
  0 .data         0000007e  00800200  00001432  000014c6  2**0
                  CONTENTS, ALLOC, LOAD, DATA
  1 .text         00001432  00000000  00000000  00000094  2**1
                  CONTENTS, ALLOC, LOAD, READONLY, CODE
  2 .bss          000000c8  0080027e  0080027e  00001544  2**0
                  ALLOC
  3 .comment      0000005c  00000000  00000000  00001544  2**0
                  CONTENTS, READONLY
  4 .note.gnu.avr.deviceinfo 00000040  00000000  00000000  000015a0  2**2
                  CONTENTS, READONLY
  5 .debug_aranges 000001e8  00000000  00000000  000015e0  2**0
                  CONTENTS, READONLY, DEBUGGING
  6 .debug_info   0000249f  00000000  00000000  000017c8  2**0
                  CONTENTS, READONLY, DEBUGGING
  7 .debug_abbrev 00000fc1  00000000  00000000  00003c67  2**0
                  CONTENTS, READONLY, DEBUGGING
  8 .debug_line   00001435  00000000  00000000  00004c28  2**0
                  CONTENTS, READONLY, DEBUGGING
  9 .debug_frame  0000068c  00000000  00000000  00006060  2**2
                  CONTENTS, READONLY, DEBUGGING
 10 .debug_str    00000d2a  00000000  00000000  000066ec  2**0
                  CONTENTS, READONLY, DEBUGGING
 11 .debug_loc    00001a7b  00000000  00000000  00007416  2**0
                  CONTENTS, READONLY, DEBUGGING
 12 .debug_ranges 00000218  00000000  00000000  00008e91  2**0
                  CONTENTS, READONLY, DEBUGGING

Disassembly of section .text:

00000000 <__vectors>:
       0:	71 c0       	rjmp	.+226    	; 0xe4 <__ctors_end>
       2:	00 00       	nop
       4:	8f c0       	rjmp	.+286    	; 0x124 <__bad_interrupt>
       6:	00 00       	nop
       8:	8d c0       	rjmp	.+282    	; 0x124 <__bad_interrupt>
       a:	00 00       	nop
       c:	8b c0       	rjmp	.+278    	; 0x124 <__bad_interrupt>
       e:	00 00       	nop
      10:	89 c0       	rjmp	.+274    	; 0x124 <__bad_interrupt>
      12:	00 00       	nop
      14:	87 c0       	rjmp	.+270    	; 0x124 <__bad_interrupt>
      16:	00 00       	nop
      18:	85 c0       	rjmp	.+266    	; 0x124 <__bad_interrupt>
      1a:	00 00       	nop
      1c:	83 c0       	rjmp	.+262    	; 0x124 <__bad_interrupt>
      1e:	00 00       	nop
      20:	81 c0       	rjmp	.+258    	; 0x124 <__bad_interrupt>
      22:	00 00       	nop
      24:	7f c0       	rjmp	.+254    	; 0x124 <__bad_interrupt>
      26:	00 00       	nop
      28:	7d c0       	rjmp	.+250    	; 0x124 <__bad_interrupt>
      2a:	00 00       	nop
      2c:	7b c0       	rjmp	.+246    	; 0x124 <__bad_interrupt>
      2e:	00 00       	nop
      30:	79 c0       	rjmp	.+242    	; 0x124 <__bad_interrupt>
      32:	00 00       	nop
      34:	77 c0       	rjmp	.+238    	; 0x124 <__bad_interrupt>
      36:	00 00       	nop
      38:	75 c0       	rjmp	.+234    	; 0x124 <__bad_interrupt>
      3a:	00 00       	nop
      3c:	73 c0       	rjmp	.+230    	; 0x124 <__bad_interrupt>
      3e:	00 00       	nop
      40:	71 c0       	rjmp	.+226    	; 0x124 <__bad_interrupt>
      42:	00 00       	nop
      44:	6f c0       	rjmp	.+222    	; 0x124 <__bad_interrupt>
      46:	00 00       	nop
      48:	6d c0       	rjmp	.+218    	; 0x124 <__bad_interrupt>
      4a:	00 00       	nop
      4c:	6b c0       	rjmp	.+214    	; 0x124 <__bad_interrupt>
      4e:	00 00       	nop
      50:	69 c0       	rjmp	.+210    	; 0x124 <__bad_interrupt>
      52:	00 00       	nop
      54:	67 c0       	rjmp	.+206    	; 0x124 <__bad_interrupt>
      56:	00 00       	nop
      58:	65 c0       	rjmp	.+202    	; 0x124 <__bad_interrupt>
      5a:	00 00       	nop
      5c:	44 c6       	rjmp	.+3208   	; 0xce6 <__vector_23>
      5e:	00 00       	nop
      60:	61 c0       	rjmp	.+194    	; 0x124 <__bad_interrupt>
      62:	00 00       	nop
      64:	5f c0       	rjmp	.+190    	; 0x124 <__bad_interrupt>
      66:	00 00       	nop
      68:	5d c0       	rjmp	.+186    	; 0x124 <__bad_interrupt>
      6a:	00 00       	nop
      6c:	5b c0       	rjmp	.+182    	; 0x124 <__bad_interrupt>
      6e:	00 00       	nop
      70:	59 c0       	rjmp	.+178    	; 0x124 <__bad_interrupt>
      72:	00 00       	nop
      74:	57 c0       	rjmp	.+174    	; 0x124 <__bad_interrupt>
      76:	00 00       	nop
      78:	55 c0       	rjmp	.+170    	; 0x124 <__bad_interrupt>
      7a:	00 00       	nop
      7c:	53 c0       	rjmp	.+166    	; 0x124 <__bad_interrupt>
      7e:	00 00       	nop
      80:	51 c0       	rjmp	.+162    	; 0x124 <__bad_interrupt>
      82:	00 00       	nop
      84:	4f c0       	rjmp	.+158    	; 0x124 <__bad_interrupt>
      86:	00 00       	nop
      88:	4d c0       	rjmp	.+154    	; 0x124 <__bad_interrupt>
      8a:	00 00       	nop
      8c:	4b c0       	rjmp	.+150    	; 0x124 <__bad_interrupt>
      8e:	00 00       	nop
      90:	49 c0       	rjmp	.+146    	; 0x124 <__bad_interrupt>
      92:	00 00       	nop
      94:	47 c0       	rjmp	.+142    	; 0x124 <__bad_interrupt>
      96:	00 00       	nop
      98:	45 c0       	rjmp	.+138    	; 0x124 <__bad_interrupt>
      9a:	00 00       	nop
      9c:	43 c0       	rjmp	.+134    	; 0x124 <__bad_interrupt>
      9e:	00 00       	nop
      a0:	41 c0       	rjmp	.+130    	; 0x124 <__bad_interrupt>
      a2:	00 00       	nop
      a4:	3f c0       	rjmp	.+126    	; 0x124 <__bad_interrupt>
      a6:	00 00       	nop
      a8:	3d c0       	rjmp	.+122    	; 0x124 <__bad_interrupt>
      aa:	00 00       	nop
      ac:	3b c0       	rjmp	.+118    	; 0x124 <__bad_interrupt>
      ae:	00 00       	nop
      b0:	39 c0       	rjmp	.+114    	; 0x124 <__bad_interrupt>
      b2:	00 00       	nop
      b4:	37 c0       	rjmp	.+110    	; 0x124 <__bad_interrupt>
      b6:	00 00       	nop
      b8:	35 c0       	rjmp	.+106    	; 0x124 <__bad_interrupt>
      ba:	00 00       	nop
      bc:	33 c0       	rjmp	.+102    	; 0x124 <__bad_interrupt>
      be:	00 00       	nop
      c0:	31 c0       	rjmp	.+98     	; 0x124 <__bad_interrupt>
      c2:	00 00       	nop
      c4:	2f c0       	rjmp	.+94     	; 0x124 <__bad_interrupt>
      c6:	00 00       	nop
      c8:	2d c0       	rjmp	.+90     	; 0x124 <__bad_interrupt>
      ca:	00 00       	nop
      cc:	2b c0       	rjmp	.+86     	; 0x124 <__bad_interrupt>
      ce:	00 00       	nop
      d0:	29 c0       	rjmp	.+82     	; 0x124 <__bad_interrupt>
      d2:	00 00       	nop
      d4:	27 c0       	rjmp	.+78     	; 0x124 <__bad_interrupt>
      d6:	00 00       	nop
      d8:	25 c0       	rjmp	.+74     	; 0x124 <__bad_interrupt>
      da:	00 00       	nop
      dc:	23 c0       	rjmp	.+70     	; 0x124 <__bad_interrupt>
      de:	00 00       	nop
      e0:	21 c0       	rjmp	.+66     	; 0x124 <__bad_interrupt>
	...

000000e4 <__ctors_end>:
      e4:	11 24       	eor	r1, r1
      e6:	1f be       	out	0x3f, r1	; 63
      e8:	cf ef       	ldi	r28, 0xFF	; 255
      ea:	d1 e2       	ldi	r29, 0x21	; 33
      ec:	de bf       	out	0x3e, r29	; 62
      ee:	cd bf       	out	0x3d, r28	; 61
      f0:	00 e0       	ldi	r16, 0x00	; 0
      f2:	0c bf       	out	0x3c, r16	; 60

000000f4 <__do_copy_data>:
      f4:	12 e0       	ldi	r17, 0x02	; 2
      f6:	a0 e0       	ldi	r26, 0x00	; 0
      f8:	b2 e0       	ldi	r27, 0x02	; 2
      fa:	e2 e3       	ldi	r30, 0x32	; 50
      fc:	f4 e1       	ldi	r31, 0x14	; 20
      fe:	00 e0       	ldi	r16, 0x00	; 0
     100:	0b bf       	out	0x3b, r16	; 59
     102:	02 c0       	rjmp	.+4      	; 0x108 <__do_copy_data+0x14>
     104:	07 90       	elpm	r0, Z+
     106:	0d 92       	st	X+, r0
     108:	ae 37       	cpi	r26, 0x7E	; 126
     10a:	b1 07       	cpc	r27, r17
     10c:	d9 f7       	brne	.-10     	; 0x104 <__do_copy_data+0x10>

0000010e <__do_clear_bss>:
     10e:	23 e0       	ldi	r18, 0x03	; 3
     110:	ae e7       	ldi	r26, 0x7E	; 126
     112:	b2 e0       	ldi	r27, 0x02	; 2
     114:	01 c0       	rjmp	.+2      	; 0x118 <.do_clear_bss_start>

00000116 <.do_clear_bss_loop>:
     116:	1d 92       	st	X+, r1

00000118 <.do_clear_bss_start>:
     118:	a6 34       	cpi	r26, 0x46	; 70
     11a:	b2 07       	cpc	r27, r18
     11c:	e1 f7       	brne	.-8      	; 0x116 <.do_clear_bss_loop>
     11e:	03 d0       	rcall	.+6      	; 0x126 <main>
     120:	0c 94 17 0a 	jmp	0x142e	; 0x142e <_exit>

00000124 <__bad_interrupt>:
     124:	6d cf       	rjmp	.-294    	; 0x0 <__vectors>

00000126 <main>:
#include "ucBoardDriver.h"
#define SIZE 256
#pragma gcc optimize 0
//Hauptprogramm
int main(void)
{
     126:	cf 93       	push	r28
     128:	df 93       	push	r29
     12a:	cd b7       	in	r28, 0x3d	; 61
     12c:	de b7       	in	r29, 0x3e	; 62
     12e:	d2 50       	subi	r29, 0x02	; 2
     130:	0f b6       	in	r0, 0x3f	; 63
     132:	f8 94       	cli
     134:	de bf       	out	0x3e, r29	; 62
     136:	0f be       	out	0x3f, r0	; 63
     138:	cd bf       	out	0x3d, r28	; 61
    //Variablen
    uint16_t meinArray [SIZE];
    //Initialisieren
    initBoard(1);
     13a:	81 e0       	ldi	r24, 0x01	; 1
     13c:	ce d2       	rcall	.+1436   	; 0x6da <initBoard>
    lcdLogWaitBtn(1,"Start:");
     13e:	8a e0       	ldi	r24, 0x0A	; 10
     140:	92 e0       	ldi	r25, 0x02	; 2
     142:	9f 93       	push	r25
     144:	8f 93       	push	r24
     146:	81 e0       	ldi	r24, 0x01	; 1
     148:	8f 93       	push	r24
     14a:	00 d5       	rcall	.+2560   	; 0xb4c <lcdLogWaitBtn>
     14c:	8e 01       	movw	r16, r28
     14e:	0f 5f       	subi	r16, 0xFF	; 255
     150:	1f 4f       	sbci	r17, 0xFF	; 255
     152:	0f 90       	pop	r0
     154:	0f 90       	pop	r0
     156:	0f 90       	pop	r0
     158:	f8 01       	movw	r30, r16
    for (uint16_t i=0;i<SIZE; i=i+1)
     15a:	80 e0       	ldi	r24, 0x00	; 0
     15c:	90 e0       	ldi	r25, 0x00	; 0
    {
        meinArray[i]=i;
     15e:	81 93       	st	Z+, r24
     160:	91 93       	st	Z+, r25
    //Variablen
    uint16_t meinArray [SIZE];
    //Initialisieren
    initBoard(1);
    lcdLogWaitBtn(1,"Start:");
    for (uint16_t i=0;i<SIZE; i=i+1)
     162:	01 96       	adiw	r24, 0x01	; 1
     164:	81 15       	cp	r24, r1
     166:	21 e0       	ldi	r18, 0x01	; 1
     168:	92 07       	cpc	r25, r18
     16a:	c9 f7       	brne	.-14     	; 0x15e <main+0x38>
    {
        meinArray[i]=i;
    }
    lcdLogWaitBtn(1,"%u:", meinArray[56]);
     16c:	e3 96       	adiw	r28, 0x33	; 51
     16e:	8f ad       	ldd	r24, Y+63	; 0x3f
     170:	e3 97       	sbiw	r28, 0x33	; 51
     172:	8f 93       	push	r24
     174:	e2 96       	adiw	r28, 0x32	; 50
     176:	8f ad       	ldd	r24, Y+63	; 0x3f
     178:	e2 97       	sbiw	r28, 0x32	; 50
     17a:	8f 93       	push	r24
     17c:	81 e1       	ldi	r24, 0x11	; 17
     17e:	92 e0       	ldi	r25, 0x02	; 2
     180:	9f 93       	push	r25
     182:	8f 93       	push	r24
     184:	81 e0       	ldi	r24, 0x01	; 1
     186:	8f 93       	push	r24
     188:	e1 d4       	rcall	.+2498   	; 0xb4c <lcdLogWaitBtn>
     18a:	7e 01       	movw	r14, r28
     18c:	8f ef       	ldi	r24, 0xFF	; 255
     18e:	e8 1a       	sub	r14, r24
     190:	8d ef       	ldi	r24, 0xFD	; 253
     192:	f8 0a       	sbc	r15, r24
     194:	0f 90       	pop	r0
     196:	0f 90       	pop	r0
     198:	0f 90       	pop	r0
     19a:	0f 90       	pop	r0
     19c:	0f 90       	pop	r0
     19e:	f8 01       	movw	r30, r16
    
    for (uint16_t i=0;i<SIZE; i=i+1)
    {
        meinArray[i]=meinArray[i+1];
     1a0:	82 81       	ldd	r24, Z+2	; 0x02
     1a2:	93 81       	ldd	r25, Z+3	; 0x03
     1a4:	81 93       	st	Z+, r24
     1a6:	91 93       	st	Z+, r25
    {
        meinArray[i]=i;
    }
    lcdLogWaitBtn(1,"%u:", meinArray[56]);
    
    for (uint16_t i=0;i<SIZE; i=i+1)
     1a8:	ee 16       	cp	r14, r30
     1aa:	ff 06       	cpc	r15, r31
     1ac:	c9 f7       	brne	.-14     	; 0x1a0 <main+0x7a>
    {
        meinArray[i]=meinArray[i+1];
    }
    lcdLogWaitBtn(1,"%u:", meinArray[10]);
     1ae:	8e 89       	ldd	r24, Y+22	; 0x16
     1b0:	8f 93       	push	r24
     1b2:	8d 89       	ldd	r24, Y+21	; 0x15
     1b4:	8f 93       	push	r24
     1b6:	81 e1       	ldi	r24, 0x11	; 17
     1b8:	92 e0       	ldi	r25, 0x02	; 2
     1ba:	9f 93       	push	r25
     1bc:	8f 93       	push	r24
     1be:	81 e0       	ldi	r24, 0x01	; 1
     1c0:	8f 93       	push	r24
     1c2:	c4 d4       	rcall	.+2440   	; 0xb4c <lcdLogWaitBtn>
     1c4:	0f 90       	pop	r0
     1c6:	0f 90       	pop	r0
     1c8:	0f 90       	pop	r0
     1ca:	0f 90       	pop	r0
     1cc:	0f 90       	pop	r0
     1ce:	f8 01       	movw	r30, r16
    
    for (uint16_t i=0;i<SIZE; i=i+1)
    {
        meinArray[i]=meinArray[i+5];
     1d0:	82 85       	ldd	r24, Z+10	; 0x0a
     1d2:	93 85       	ldd	r25, Z+11	; 0x0b
     1d4:	81 93       	st	Z+, r24
     1d6:	91 93       	st	Z+, r25
    {
        meinArray[i]=meinArray[i+1];
    }
    lcdLogWaitBtn(1,"%u:", meinArray[10]);
    
    for (uint16_t i=0;i<SIZE; i=i+1)
     1d8:	ee 16       	cp	r14, r30
     1da:	ff 06       	cpc	r15, r31
     1dc:	c9 f7       	brne	.-14     	; 0x1d0 <main+0xaa>
    {
        meinArray[i]=meinArray[i+5];
    }
    lcdLogWaitBtn(1,"%u:", meinArray[25]);
     1de:	8c a9       	ldd	r24, Y+52	; 0x34
     1e0:	8f 93       	push	r24
     1e2:	8b a9       	ldd	r24, Y+51	; 0x33
     1e4:	8f 93       	push	r24
     1e6:	81 e1       	ldi	r24, 0x11	; 17
     1e8:	92 e0       	ldi	r25, 0x02	; 2
     1ea:	9f 93       	push	r25
     1ec:	8f 93       	push	r24
     1ee:	81 e0       	ldi	r24, 0x01	; 1
     1f0:	8f 93       	push	r24
     1f2:	ac d4       	rcall	.+2392   	; 0xb4c <lcdLogWaitBtn>
     1f4:	0f 90       	pop	r0
     1f6:	0f 90       	pop	r0
     1f8:	0f 90       	pop	r0
     1fa:	0f 90       	pop	r0
     1fc:	0f 90       	pop	r0
    
    for (uint16_t i=0;i<SIZE; i=i+1)
    {
        meinArray[i]=meinArray[i+5];
     1fe:	f8 01       	movw	r30, r16
     200:	82 85       	ldd	r24, Z+10	; 0x0a
     202:	93 85       	ldd	r25, Z+11	; 0x0b
     204:	81 93       	st	Z+, r24
     206:	91 93       	st	Z+, r25
     208:	8f 01       	movw	r16, r30
    {
        meinArray[i]=meinArray[i+5];
    }
    lcdLogWaitBtn(1,"%u:", meinArray[25]);
    
    for (uint16_t i=0;i<SIZE; i=i+1)
     20a:	ee 15       	cp	r30, r14
     20c:	ff 05       	cpc	r31, r15
     20e:	b9 f7       	brne	.-18     	; 0x1fe <main+0xd8>
    {
        meinArray[i]=meinArray[i+5];
    }
    lcdLogWaitBtn(1,"%u:", meinArray[15]);
     210:	88 a1       	ldd	r24, Y+32	; 0x20
     212:	8f 93       	push	r24
     214:	8f 8d       	ldd	r24, Y+31	; 0x1f
     216:	8f 93       	push	r24
     218:	81 e1       	ldi	r24, 0x11	; 17
     21a:	92 e0       	ldi	r25, 0x02	; 2
     21c:	9f 93       	push	r25
     21e:	8f 93       	push	r24
     220:	81 e0       	ldi	r24, 0x01	; 1
     222:	8f 93       	push	r24
     224:	93 d4       	rcall	.+2342   	; 0xb4c <lcdLogWaitBtn>
     226:	0f 90       	pop	r0
     228:	0f 90       	pop	r0
     22a:	0f 90       	pop	r0
     22c:	0f 90       	pop	r0
     22e:	0f 90       	pop	r0
     230:	ff cf       	rjmp	.-2      	; 0x230 <main+0x10a>

00000232 <ledWriteAll>:
     232:	82 b9       	out	0x02, r24	; 2
     234:	95 b9       	out	0x05, r25	; 5
     236:	08 95       	ret

00000238 <startSystemTimeMs>:
     238:	83 e0       	ldi	r24, 0x03	; 3
     23a:	84 bd       	out	0x24, r24	; 36
     23c:	8b e0       	ldi	r24, 0x0B	; 11
     23e:	85 bd       	out	0x25, r24	; 37
     240:	81 e0       	ldi	r24, 0x01	; 1
     242:	80 93 6e 00 	sts	0x006E, r24	; 0x80006e <__TEXT_REGION_LENGTH__+0x70006e>
     246:	89 ef       	ldi	r24, 0xF9	; 249
     248:	87 bd       	out	0x27, r24	; 39
     24a:	08 95       	ret

0000024c <initAdc>:
     24c:	11 ba       	out	0x11, r1	; 17
     24e:	10 ba       	out	0x10, r1	; 16
     250:	10 92 08 01 	sts	0x0108, r1	; 0x800108 <__TEXT_REGION_LENGTH__+0x700108>
     254:	10 92 07 01 	sts	0x0107, r1	; 0x800107 <__TEXT_REGION_LENGTH__+0x700107>
     258:	80 e4       	ldi	r24, 0x40	; 64
     25a:	80 93 7c 00 	sts	0x007C, r24	; 0x80007c <__TEXT_REGION_LENGTH__+0x70007c>
     25e:	8f e0       	ldi	r24, 0x0F	; 15
     260:	80 93 7e 00 	sts	0x007E, r24	; 0x80007e <__TEXT_REGION_LENGTH__+0x70007e>
     264:	8f ef       	ldi	r24, 0xFF	; 255
     266:	80 93 7d 00 	sts	0x007D, r24	; 0x80007d <__TEXT_REGION_LENGTH__+0x70007d>
     26a:	ea e7       	ldi	r30, 0x7A	; 122
     26c:	f0 e0       	ldi	r31, 0x00	; 0
     26e:	87 ea       	ldi	r24, 0xA7	; 167
     270:	80 83       	st	Z, r24
     272:	10 92 7b 00 	sts	0x007B, r1	; 0x80007b <__TEXT_REGION_LENGTH__+0x70007b>
     276:	80 81       	ld	r24, Z
     278:	80 64       	ori	r24, 0x40	; 64
     27a:	80 83       	st	Z, r24
     27c:	80 81       	ld	r24, Z
     27e:	84 ff       	sbrs	r24, 4
     280:	fd cf       	rjmp	.-6      	; 0x27c <initAdc+0x30>
     282:	ea e7       	ldi	r30, 0x7A	; 122
     284:	f0 e0       	ldi	r31, 0x00	; 0
     286:	80 81       	ld	r24, Z
     288:	8f 7e       	andi	r24, 0xEF	; 239
     28a:	80 83       	st	Z, r24
     28c:	08 95       	ret

0000028e <rgbWrite>:
     28e:	2f ef       	ldi	r18, 0xFF	; 255
     290:	33 e0       	ldi	r19, 0x03	; 3
     292:	f9 01       	movw	r30, r18
     294:	e8 1b       	sub	r30, r24
     296:	f9 0b       	sbc	r31, r25
     298:	c9 01       	movw	r24, r18
     29a:	86 1b       	sub	r24, r22
     29c:	97 0b       	sbc	r25, r23
     29e:	24 1b       	sub	r18, r20
     2a0:	35 0b       	sbc	r19, r21
     2a2:	f0 93 a9 00 	sts	0x00A9, r31	; 0x8000a9 <__TEXT_REGION_LENGTH__+0x7000a9>
     2a6:	e0 93 a8 00 	sts	0x00A8, r30	; 0x8000a8 <__TEXT_REGION_LENGTH__+0x7000a8>
     2aa:	90 93 ab 00 	sts	0x00AB, r25	; 0x8000ab <__TEXT_REGION_LENGTH__+0x7000ab>
     2ae:	80 93 aa 00 	sts	0x00AA, r24	; 0x8000aa <__TEXT_REGION_LENGTH__+0x7000aa>
     2b2:	30 93 ad 00 	sts	0x00AD, r19	; 0x8000ad <__TEXT_REGION_LENGTH__+0x7000ad>
     2b6:	20 93 ac 00 	sts	0x00AC, r18	; 0x8000ac <__TEXT_REGION_LENGTH__+0x7000ac>
     2ba:	08 95       	ret

000002bc <initRgb>:
     2bc:	8e ef       	ldi	r24, 0xFE	; 254
     2be:	80 93 a0 00 	sts	0x00A0, r24	; 0x8000a0 <__TEXT_REGION_LENGTH__+0x7000a0>
     2c2:	8b e1       	ldi	r24, 0x1B	; 27
     2c4:	80 93 a1 00 	sts	0x00A1, r24	; 0x8000a1 <__TEXT_REGION_LENGTH__+0x7000a1>
     2c8:	83 e0       	ldi	r24, 0x03	; 3
     2ca:	80 93 a7 00 	sts	0x00A7, r24	; 0x8000a7 <__TEXT_REGION_LENGTH__+0x7000a7>
     2ce:	8f ef       	ldi	r24, 0xFF	; 255
     2d0:	80 93 a6 00 	sts	0x00A6, r24	; 0x8000a6 <__TEXT_REGION_LENGTH__+0x7000a6>
     2d4:	40 e0       	ldi	r20, 0x00	; 0
     2d6:	50 e0       	ldi	r21, 0x00	; 0
     2d8:	60 e0       	ldi	r22, 0x00	; 0
     2da:	70 e0       	ldi	r23, 0x00	; 0
     2dc:	80 e0       	ldi	r24, 0x00	; 0
     2de:	90 e0       	ldi	r25, 0x00	; 0
     2e0:	d6 cf       	rjmp	.-84     	; 0x28e <rgbWrite>
     2e2:	08 95       	ret

000002e4 <lcdSid>:
     2e4:	88 23       	and	r24, r24
     2e6:	11 f0       	breq	.+4      	; 0x2ec <lcdSid+0x8>
     2e8:	a0 9a       	sbi	0x14, 0	; 20
     2ea:	08 95       	ret
     2ec:	a0 98       	cbi	0x14, 0	; 20
     2ee:	08 95       	ret

000002f0 <lcdSclk>:
     2f0:	88 23       	and	r24, r24
     2f2:	11 f0       	breq	.+4      	; 0x2f8 <lcdSclk+0x8>
     2f4:	a1 9a       	sbi	0x14, 1	; 20
     2f6:	08 95       	ret
     2f8:	a1 98       	cbi	0x14, 1	; 20
     2fa:	08 95       	ret

000002fc <lcdLight>:
     2fc:	81 11       	cpse	r24, r1
     2fe:	04 c0       	rjmp	.+8      	; 0x308 <lcdLight+0xc>
     300:	84 b5       	in	r24, 0x24	; 36
     302:	8f 7d       	andi	r24, 0xDF	; 223
     304:	84 bd       	out	0x24, r24	; 36
     306:	08 95       	ret
     308:	94 b5       	in	r25, 0x24	; 36
     30a:	90 62       	ori	r25, 0x20	; 32
     30c:	94 bd       	out	0x24, r25	; 36
     30e:	88 bd       	out	0x28, r24	; 40
     310:	08 95       	ret

00000312 <writeLcdF>:
     312:	ef 92       	push	r14
     314:	ff 92       	push	r15
     316:	0f 93       	push	r16
     318:	1f 93       	push	r17
     31a:	cf 93       	push	r28
     31c:	df 93       	push	r29
     31e:	7c 01       	movw	r14, r24
     320:	eb 01       	movw	r28, r22
     322:	81 e0       	ldi	r24, 0x01	; 1
     324:	df df       	rcall	.-66     	; 0x2e4 <lcdSid>
     326:	05 e0       	ldi	r16, 0x05	; 5
     328:	10 e0       	ldi	r17, 0x00	; 0
     32a:	80 e0       	ldi	r24, 0x00	; 0
     32c:	e1 df       	rcall	.-62     	; 0x2f0 <lcdSclk>
     32e:	81 e0       	ldi	r24, 0x01	; 1
     330:	df df       	rcall	.-66     	; 0x2f0 <lcdSclk>
     332:	01 50       	subi	r16, 0x01	; 1
     334:	11 09       	sbc	r17, r1
     336:	c9 f7       	brne	.-14     	; 0x32a <writeLcdF+0x18>
     338:	80 e0       	ldi	r24, 0x00	; 0
     33a:	d4 df       	rcall	.-88     	; 0x2e4 <lcdSid>
     33c:	80 e0       	ldi	r24, 0x00	; 0
     33e:	d8 df       	rcall	.-80     	; 0x2f0 <lcdSclk>
     340:	81 e0       	ldi	r24, 0x01	; 1
     342:	d6 df       	rcall	.-84     	; 0x2f0 <lcdSclk>
     344:	83 e4       	ldi	r24, 0x43	; 67
     346:	e8 16       	cp	r14, r24
     348:	f1 04       	cpc	r15, r1
     34a:	19 f4       	brne	.+6      	; 0x352 <writeLcdF+0x40>
     34c:	80 e0       	ldi	r24, 0x00	; 0
     34e:	ca df       	rcall	.-108    	; 0x2e4 <lcdSid>
     350:	02 c0       	rjmp	.+4      	; 0x356 <writeLcdF+0x44>
     352:	81 e0       	ldi	r24, 0x01	; 1
     354:	c7 df       	rcall	.-114    	; 0x2e4 <lcdSid>
     356:	80 e0       	ldi	r24, 0x00	; 0
     358:	cb df       	rcall	.-106    	; 0x2f0 <lcdSclk>
     35a:	81 e0       	ldi	r24, 0x01	; 1
     35c:	c9 df       	rcall	.-110    	; 0x2f0 <lcdSclk>
     35e:	80 e0       	ldi	r24, 0x00	; 0
     360:	c1 df       	rcall	.-126    	; 0x2e4 <lcdSid>
     362:	80 e0       	ldi	r24, 0x00	; 0
     364:	c5 df       	rcall	.-118    	; 0x2f0 <lcdSclk>
     366:	81 e0       	ldi	r24, 0x01	; 1
     368:	c3 df       	rcall	.-122    	; 0x2f0 <lcdSclk>
     36a:	04 e0       	ldi	r16, 0x04	; 4
     36c:	10 e0       	ldi	r17, 0x00	; 0
     36e:	80 e0       	ldi	r24, 0x00	; 0
     370:	bf df       	rcall	.-130    	; 0x2f0 <lcdSclk>
     372:	c0 ff       	sbrs	r28, 0
     374:	03 c0       	rjmp	.+6      	; 0x37c <writeLcdF+0x6a>
     376:	81 e0       	ldi	r24, 0x01	; 1
     378:	b5 df       	rcall	.-150    	; 0x2e4 <lcdSid>
     37a:	02 c0       	rjmp	.+4      	; 0x380 <writeLcdF+0x6e>
     37c:	80 e0       	ldi	r24, 0x00	; 0
     37e:	b2 df       	rcall	.-156    	; 0x2e4 <lcdSid>
     380:	d6 95       	lsr	r29
     382:	c7 95       	ror	r28
     384:	80 e0       	ldi	r24, 0x00	; 0
     386:	b4 df       	rcall	.-152    	; 0x2f0 <lcdSclk>
     388:	81 e0       	ldi	r24, 0x01	; 1
     38a:	b2 df       	rcall	.-156    	; 0x2f0 <lcdSclk>
     38c:	01 50       	subi	r16, 0x01	; 1
     38e:	11 09       	sbc	r17, r1
     390:	71 f7       	brne	.-36     	; 0x36e <writeLcdF+0x5c>
     392:	80 e0       	ldi	r24, 0x00	; 0
     394:	a7 df       	rcall	.-178    	; 0x2e4 <lcdSid>
     396:	04 e0       	ldi	r16, 0x04	; 4
     398:	10 e0       	ldi	r17, 0x00	; 0
     39a:	80 e0       	ldi	r24, 0x00	; 0
     39c:	a9 df       	rcall	.-174    	; 0x2f0 <lcdSclk>
     39e:	81 e0       	ldi	r24, 0x01	; 1
     3a0:	a7 df       	rcall	.-178    	; 0x2f0 <lcdSclk>
     3a2:	01 50       	subi	r16, 0x01	; 1
     3a4:	11 09       	sbc	r17, r1
     3a6:	c9 f7       	brne	.-14     	; 0x39a <writeLcdF+0x88>
     3a8:	04 e0       	ldi	r16, 0x04	; 4
     3aa:	10 e0       	ldi	r17, 0x00	; 0
     3ac:	80 e0       	ldi	r24, 0x00	; 0
     3ae:	a0 df       	rcall	.-192    	; 0x2f0 <lcdSclk>
     3b0:	c0 ff       	sbrs	r28, 0
     3b2:	03 c0       	rjmp	.+6      	; 0x3ba <writeLcdF+0xa8>
     3b4:	81 e0       	ldi	r24, 0x01	; 1
     3b6:	96 df       	rcall	.-212    	; 0x2e4 <lcdSid>
     3b8:	02 c0       	rjmp	.+4      	; 0x3be <writeLcdF+0xac>
     3ba:	80 e0       	ldi	r24, 0x00	; 0
     3bc:	93 df       	rcall	.-218    	; 0x2e4 <lcdSid>
     3be:	d6 95       	lsr	r29
     3c0:	c7 95       	ror	r28
     3c2:	80 e0       	ldi	r24, 0x00	; 0
     3c4:	95 df       	rcall	.-214    	; 0x2f0 <lcdSclk>
     3c6:	81 e0       	ldi	r24, 0x01	; 1
     3c8:	93 df       	rcall	.-218    	; 0x2f0 <lcdSclk>
     3ca:	01 50       	subi	r16, 0x01	; 1
     3cc:	11 09       	sbc	r17, r1
     3ce:	71 f7       	brne	.-36     	; 0x3ac <writeLcdF+0x9a>
     3d0:	80 e0       	ldi	r24, 0x00	; 0
     3d2:	88 df       	rcall	.-240    	; 0x2e4 <lcdSid>
     3d4:	c4 e0       	ldi	r28, 0x04	; 4
     3d6:	d0 e0       	ldi	r29, 0x00	; 0
     3d8:	80 e0       	ldi	r24, 0x00	; 0
     3da:	8a df       	rcall	.-236    	; 0x2f0 <lcdSclk>
     3dc:	81 e0       	ldi	r24, 0x01	; 1
     3de:	88 df       	rcall	.-240    	; 0x2f0 <lcdSclk>
     3e0:	21 97       	sbiw	r28, 0x01	; 1
     3e2:	d1 f7       	brne	.-12     	; 0x3d8 <writeLcdF+0xc6>
     3e4:	81 e0       	ldi	r24, 0x01	; 1
     3e6:	7e df       	rcall	.-260    	; 0x2e4 <lcdSid>
     3e8:	87 ec       	ldi	r24, 0xC7	; 199
     3ea:	90 e0       	ldi	r25, 0x00	; 0
     3ec:	01 97       	sbiw	r24, 0x01	; 1
     3ee:	f1 f7       	brne	.-4      	; 0x3ec <writeLcdF+0xda>
     3f0:	00 c0       	rjmp	.+0      	; 0x3f2 <writeLcdF+0xe0>
     3f2:	00 00       	nop
     3f4:	df 91       	pop	r29
     3f6:	cf 91       	pop	r28
     3f8:	1f 91       	pop	r17
     3fa:	0f 91       	pop	r16
     3fc:	ff 90       	pop	r15
     3fe:	ef 90       	pop	r14
     400:	08 95       	ret

00000402 <lcdWriteText>:
     402:	1f 93       	push	r17
     404:	cf 93       	push	r28
     406:	df 93       	push	r29
     408:	cd b7       	in	r28, 0x3d	; 61
     40a:	de b7       	in	r29, 0x3e	; 62
     40c:	65 97       	sbiw	r28, 0x15	; 21
     40e:	0f b6       	in	r0, 0x3f	; 63
     410:	f8 94       	cli
     412:	de bf       	out	0x3e, r29	; 62
     414:	0f be       	out	0x3f, r0	; 63
     416:	cd bf       	out	0x3d, r28	; 61
     418:	9e 01       	movw	r18, r28
     41a:	20 5e       	subi	r18, 0xE0	; 224
     41c:	3f 4f       	sbci	r19, 0xFF	; 255
     41e:	4e 8d       	ldd	r20, Y+30	; 0x1e
     420:	5f 8d       	ldd	r21, Y+31	; 0x1f
     422:	65 e1       	ldi	r22, 0x15	; 21
     424:	70 e0       	ldi	r23, 0x00	; 0
     426:	ce 01       	movw	r24, r28
     428:	01 96       	adiw	r24, 0x01	; 1
     42a:	1c d5       	rcall	.+2616   	; 0xe64 <vsnprintf>
     42c:	6d 8d       	ldd	r22, Y+29	; 0x1d
     42e:	8c 8d       	ldd	r24, Y+28	; 0x1c
     430:	90 e2       	ldi	r25, 0x20	; 32
     432:	89 9f       	mul	r24, r25
     434:	60 0d       	add	r22, r0
     436:	11 24       	eor	r1, r1
     438:	60 68       	ori	r22, 0x80	; 128
     43a:	70 e0       	ldi	r23, 0x00	; 0
     43c:	83 e4       	ldi	r24, 0x43	; 67
     43e:	90 e0       	ldi	r25, 0x00	; 0
     440:	68 df       	rcall	.-304    	; 0x312 <writeLcdF>
     442:	69 81       	ldd	r22, Y+1	; 0x01
     444:	66 23       	and	r22, r22
     446:	79 f0       	breq	.+30     	; 0x466 <lcdWriteText+0x64>
     448:	10 e0       	ldi	r17, 0x00	; 0
     44a:	1f 5f       	subi	r17, 0xFF	; 255
     44c:	70 e0       	ldi	r23, 0x00	; 0
     44e:	84 e4       	ldi	r24, 0x44	; 68
     450:	90 e0       	ldi	r25, 0x00	; 0
     452:	5f df       	rcall	.-322    	; 0x312 <writeLcdF>
     454:	e1 e0       	ldi	r30, 0x01	; 1
     456:	f0 e0       	ldi	r31, 0x00	; 0
     458:	ec 0f       	add	r30, r28
     45a:	fd 1f       	adc	r31, r29
     45c:	e1 0f       	add	r30, r17
     45e:	f1 1d       	adc	r31, r1
     460:	60 81       	ld	r22, Z
     462:	61 11       	cpse	r22, r1
     464:	f2 cf       	rjmp	.-28     	; 0x44a <lcdWriteText+0x48>
     466:	65 96       	adiw	r28, 0x15	; 21
     468:	0f b6       	in	r0, 0x3f	; 63
     46a:	f8 94       	cli
     46c:	de bf       	out	0x3e, r29	; 62
     46e:	0f be       	out	0x3f, r0	; 63
     470:	cd bf       	out	0x3d, r28	; 61
     472:	df 91       	pop	r29
     474:	cf 91       	pop	r28
     476:	1f 91       	pop	r17
     478:	08 95       	ret

0000047a <lcdWriteZahl>:
     47a:	2f 92       	push	r2
     47c:	3f 92       	push	r3
     47e:	4f 92       	push	r4
     480:	5f 92       	push	r5
     482:	6f 92       	push	r6
     484:	7f 92       	push	r7
     486:	8f 92       	push	r8
     488:	9f 92       	push	r9
     48a:	af 92       	push	r10
     48c:	bf 92       	push	r11
     48e:	cf 92       	push	r12
     490:	df 92       	push	r13
     492:	ef 92       	push	r14
     494:	ff 92       	push	r15
     496:	0f 93       	push	r16
     498:	1f 93       	push	r17
     49a:	cf 93       	push	r28
     49c:	df 93       	push	r29
     49e:	cd b7       	in	r28, 0x3d	; 61
     4a0:	de b7       	in	r29, 0x3e	; 62
     4a2:	e3 97       	sbiw	r28, 0x33	; 51
     4a4:	0f b6       	in	r0, 0x3f	; 63
     4a6:	f8 94       	cli
     4a8:	de bf       	out	0x3e, r29	; 62
     4aa:	0f be       	out	0x3f, r0	; 63
     4ac:	cd bf       	out	0x3d, r28	; 61
     4ae:	8a ab       	std	Y+50, r24	; 0x32
     4b0:	6b ab       	std	Y+51, r22	; 0x33
     4b2:	ed a6       	std	Y+45, r14	; 0x2d
     4b4:	fe a6       	std	Y+46, r15	; 0x2e
     4b6:	70 2e       	mov	r7, r16
     4b8:	61 2e       	mov	r6, r17
     4ba:	52 2e       	mov	r5, r18
     4bc:	43 2e       	mov	r4, r19
     4be:	cf a6       	std	Y+47, r12	; 0x2f
     4c0:	a8 aa       	std	Y+48, r10	; 0x30
     4c2:	8c 2d       	mov	r24, r12
     4c4:	8a 0d       	add	r24, r10
     4c6:	89 ab       	std	Y+49, r24	; 0x31
     4c8:	85 31       	cpi	r24, 0x15	; 21
     4ca:	70 f0       	brcs	.+28     	; 0x4e8 <lcdWriteZahl+0x6e>
     4cc:	85 e1       	ldi	r24, 0x15	; 21
     4ce:	92 e0       	ldi	r25, 0x02	; 2
     4d0:	9f 93       	push	r25
     4d2:	8f 93       	push	r24
     4d4:	9b a9       	ldd	r25, Y+51	; 0x33
     4d6:	9f 93       	push	r25
     4d8:	ea a9       	ldd	r30, Y+50	; 0x32
     4da:	ef 93       	push	r30
     4dc:	92 df       	rcall	.-220    	; 0x402 <lcdWriteText>
     4de:	0f 90       	pop	r0
     4e0:	0f 90       	pop	r0
     4e2:	0f 90       	pop	r0
     4e4:	0f 90       	pop	r0
     4e6:	a8 c0       	rjmp	.+336    	; 0x638 <lcdWriteZahl+0x1be>
     4e8:	4e 01       	movw	r8, r28
     4ea:	f5 e1       	ldi	r31, 0x15	; 21
     4ec:	8f 0e       	add	r8, r31
     4ee:	91 1c       	adc	r9, r1
     4f0:	ce 01       	movw	r24, r28
     4f2:	01 96       	adiw	r24, 0x01	; 1
     4f4:	9c a7       	std	Y+44, r25	; 0x2c
     4f6:	8b a7       	std	Y+43, r24	; 0x2b
     4f8:	24 2e       	mov	r2, r20
     4fa:	35 2e       	mov	r3, r21
     4fc:	0f 2e       	mov	r0, r31
     4fe:	fa e0       	ldi	r31, 0x0A	; 10
     500:	af 2e       	mov	r10, r31
     502:	f0 2d       	mov	r31, r0
     504:	b1 2c       	mov	r11, r1
     506:	c1 2c       	mov	r12, r1
     508:	d1 2c       	mov	r13, r1
     50a:	e1 2c       	mov	r14, r1
     50c:	f1 2c       	mov	r15, r1
     50e:	00 e0       	ldi	r16, 0x00	; 0
     510:	10 e0       	ldi	r17, 0x00	; 0
     512:	2d a5       	ldd	r18, Y+45	; 0x2d
     514:	3e a5       	ldd	r19, Y+46	; 0x2e
     516:	47 2d       	mov	r20, r7
     518:	56 2d       	mov	r21, r6
     51a:	65 2d       	mov	r22, r5
     51c:	74 2d       	mov	r23, r4
     51e:	82 2d       	mov	r24, r2
     520:	93 2d       	mov	r25, r3
     522:	2d d4       	rcall	.+2138   	; 0xd7e <__umoddi3>
     524:	20 5d       	subi	r18, 0xD0	; 208
     526:	f4 01       	movw	r30, r8
     528:	22 93       	st	-Z, r18
     52a:	4f 01       	movw	r8, r30
     52c:	2d a5       	ldd	r18, Y+45	; 0x2d
     52e:	3e a5       	ldd	r19, Y+46	; 0x2e
     530:	47 2d       	mov	r20, r7
     532:	56 2d       	mov	r21, r6
     534:	65 2d       	mov	r22, r5
     536:	74 2d       	mov	r23, r4
     538:	82 2d       	mov	r24, r2
     53a:	93 2d       	mov	r25, r3
     53c:	22 d4       	rcall	.+2116   	; 0xd82 <__udivdi3>
     53e:	2d a7       	std	Y+45, r18	; 0x2d
     540:	3e a7       	std	Y+46, r19	; 0x2e
     542:	74 2e       	mov	r7, r20
     544:	65 2e       	mov	r6, r21
     546:	56 2e       	mov	r5, r22
     548:	47 2e       	mov	r4, r23
     54a:	28 2e       	mov	r2, r24
     54c:	39 2e       	mov	r3, r25
     54e:	8b a5       	ldd	r24, Y+43	; 0x2b
     550:	9c a5       	ldd	r25, Y+44	; 0x2c
     552:	88 15       	cp	r24, r8
     554:	99 05       	cpc	r25, r9
     556:	91 f6       	brne	.-92     	; 0x4fc <lcdWriteZahl+0x82>
     558:	84 e1       	ldi	r24, 0x14	; 20
     55a:	99 a9       	ldd	r25, Y+49	; 0x31
     55c:	89 1b       	sub	r24, r25
     55e:	ef a5       	ldd	r30, Y+47	; 0x2f
     560:	ee 23       	and	r30, r30
     562:	89 f0       	breq	.+34     	; 0x586 <lcdWriteZahl+0x10c>
     564:	fe 01       	movw	r30, r28
     566:	75 96       	adiw	r30, 0x15	; 21
     568:	2f a5       	ldd	r18, Y+47	; 0x2f
     56a:	28 0f       	add	r18, r24
     56c:	a1 e0       	ldi	r26, 0x01	; 1
     56e:	b0 e0       	ldi	r27, 0x00	; 0
     570:	ac 0f       	add	r26, r28
     572:	bd 1f       	adc	r27, r29
     574:	a8 0f       	add	r26, r24
     576:	b1 1d       	adc	r27, r1
     578:	9c 91       	ld	r25, X
     57a:	91 93       	st	Z+, r25
     57c:	8f 5f       	subi	r24, 0xFF	; 255
     57e:	82 13       	cpse	r24, r18
     580:	f5 cf       	rjmp	.-22     	; 0x56c <lcdWriteZahl+0xf2>
     582:	3f a5       	ldd	r19, Y+47	; 0x2f
     584:	02 c0       	rjmp	.+4      	; 0x58a <lcdWriteZahl+0x110>
     586:	28 2f       	mov	r18, r24
     588:	3f a5       	ldd	r19, Y+47	; 0x2f
     58a:	f8 a9       	ldd	r31, Y+48	; 0x30
     58c:	ff 23       	and	r31, r31
     58e:	f1 f0       	breq	.+60     	; 0x5cc <lcdWriteZahl+0x152>
     590:	fe 01       	movw	r30, r28
     592:	e3 0f       	add	r30, r19
     594:	f1 1d       	adc	r31, r1
     596:	8e e2       	ldi	r24, 0x2E	; 46
     598:	85 8b       	std	Z+21, r24	; 0x15
     59a:	91 e0       	ldi	r25, 0x01	; 1
     59c:	93 0f       	add	r25, r19
     59e:	38 a9       	ldd	r19, Y+48	; 0x30
     5a0:	39 0f       	add	r19, r25
     5a2:	89 2f       	mov	r24, r25
     5a4:	29 1b       	sub	r18, r25
     5a6:	e5 e1       	ldi	r30, 0x15	; 21
     5a8:	f0 e0       	ldi	r31, 0x00	; 0
     5aa:	ec 0f       	add	r30, r28
     5ac:	fd 1f       	adc	r31, r29
     5ae:	e8 0f       	add	r30, r24
     5b0:	f1 1d       	adc	r31, r1
     5b2:	92 2f       	mov	r25, r18
     5b4:	98 0f       	add	r25, r24
     5b6:	a1 e0       	ldi	r26, 0x01	; 1
     5b8:	b0 e0       	ldi	r27, 0x00	; 0
     5ba:	ac 0f       	add	r26, r28
     5bc:	bd 1f       	adc	r27, r29
     5be:	a9 0f       	add	r26, r25
     5c0:	b1 1d       	adc	r27, r1
     5c2:	9c 91       	ld	r25, X
     5c4:	90 83       	st	Z, r25
     5c6:	8f 5f       	subi	r24, 0xFF	; 255
     5c8:	38 13       	cpse	r19, r24
     5ca:	ed cf       	rjmp	.-38     	; 0x5a6 <lcdWriteZahl+0x12c>
     5cc:	fe 01       	movw	r30, r28
     5ce:	e3 0f       	add	r30, r19
     5d0:	f1 1d       	adc	r31, r1
     5d2:	15 8a       	std	Z+21, r1	; 0x15
     5d4:	8d 89       	ldd	r24, Y+21	; 0x15
     5d6:	80 33       	cpi	r24, 0x30	; 48
     5d8:	11 f5       	brne	.+68     	; 0x61e <lcdWriteZahl+0x1a4>
     5da:	8f a5       	ldd	r24, Y+47	; 0x2f
     5dc:	48 2f       	mov	r20, r24
     5de:	50 e0       	ldi	r21, 0x00	; 0
     5e0:	41 50       	subi	r20, 0x01	; 1
     5e2:	51 09       	sbc	r21, r1
     5e4:	14 16       	cp	r1, r20
     5e6:	15 06       	cpc	r1, r21
     5e8:	d4 f4       	brge	.+52     	; 0x61e <lcdWriteZahl+0x1a4>
     5ea:	80 e0       	ldi	r24, 0x00	; 0
     5ec:	90 e0       	ldi	r25, 0x00	; 0
     5ee:	20 e0       	ldi	r18, 0x00	; 0
     5f0:	60 e2       	ldi	r22, 0x20	; 32
     5f2:	2f 5f       	subi	r18, 0xFF	; 255
     5f4:	e5 e1       	ldi	r30, 0x15	; 21
     5f6:	f0 e0       	ldi	r31, 0x00	; 0
     5f8:	ec 0f       	add	r30, r28
     5fa:	fd 1f       	adc	r31, r29
     5fc:	e8 0f       	add	r30, r24
     5fe:	f9 1f       	adc	r31, r25
     600:	60 83       	st	Z, r22
     602:	82 2f       	mov	r24, r18
     604:	90 e0       	ldi	r25, 0x00	; 0
     606:	e5 e1       	ldi	r30, 0x15	; 21
     608:	f0 e0       	ldi	r31, 0x00	; 0
     60a:	ec 0f       	add	r30, r28
     60c:	fd 1f       	adc	r31, r29
     60e:	e8 0f       	add	r30, r24
     610:	f9 1f       	adc	r31, r25
     612:	30 81       	ld	r19, Z
     614:	30 33       	cpi	r19, 0x30	; 48
     616:	19 f4       	brne	.+6      	; 0x61e <lcdWriteZahl+0x1a4>
     618:	84 17       	cp	r24, r20
     61a:	95 07       	cpc	r25, r21
     61c:	54 f3       	brlt	.-44     	; 0x5f2 <lcdWriteZahl+0x178>
     61e:	ce 01       	movw	r24, r28
     620:	45 96       	adiw	r24, 0x15	; 21
     622:	9f 93       	push	r25
     624:	8f 93       	push	r24
     626:	9b a9       	ldd	r25, Y+51	; 0x33
     628:	9f 93       	push	r25
     62a:	ea a9       	ldd	r30, Y+50	; 0x32
     62c:	ef 93       	push	r30
     62e:	e9 de       	rcall	.-558    	; 0x402 <lcdWriteText>
     630:	0f 90       	pop	r0
     632:	0f 90       	pop	r0
     634:	0f 90       	pop	r0
     636:	0f 90       	pop	r0
     638:	e3 96       	adiw	r28, 0x33	; 51
     63a:	0f b6       	in	r0, 0x3f	; 63
     63c:	f8 94       	cli
     63e:	de bf       	out	0x3e, r29	; 62
     640:	0f be       	out	0x3f, r0	; 63
     642:	cd bf       	out	0x3d, r28	; 61
     644:	df 91       	pop	r29
     646:	cf 91       	pop	r28
     648:	1f 91       	pop	r17
     64a:	0f 91       	pop	r16
     64c:	ff 90       	pop	r15
     64e:	ef 90       	pop	r14
     650:	df 90       	pop	r13
     652:	cf 90       	pop	r12
     654:	bf 90       	pop	r11
     656:	af 90       	pop	r10
     658:	9f 90       	pop	r9
     65a:	8f 90       	pop	r8
     65c:	7f 90       	pop	r7
     65e:	6f 90       	pop	r6
     660:	5f 90       	pop	r5
     662:	4f 90       	pop	r4
     664:	3f 90       	pop	r3
     666:	2f 90       	pop	r2
     668:	08 95       	ret

0000066a <lcdClear>:
     66a:	61 e0       	ldi	r22, 0x01	; 1
     66c:	70 e0       	ldi	r23, 0x00	; 0
     66e:	83 e4       	ldi	r24, 0x43	; 67
     670:	90 e0       	ldi	r25, 0x00	; 0
     672:	4f de       	rcall	.-866    	; 0x312 <writeLcdF>
     674:	8f e3       	ldi	r24, 0x3F	; 63
     676:	9f e1       	ldi	r25, 0x1F	; 31
     678:	01 97       	sbiw	r24, 0x01	; 1
     67a:	f1 f7       	brne	.-4      	; 0x678 <lcdClear+0xe>
     67c:	00 c0       	rjmp	.+0      	; 0x67e <lcdClear+0x14>
     67e:	00 00       	nop
     680:	8d e3       	ldi	r24, 0x3D	; 61
     682:	92 e0       	ldi	r25, 0x02	; 2
     684:	9f 93       	push	r25
     686:	8f 93       	push	r24
     688:	1f 92       	push	r1
     68a:	1f 92       	push	r1
     68c:	ba de       	rcall	.-652    	; 0x402 <lcdWriteText>
     68e:	0f 90       	pop	r0
     690:	0f 90       	pop	r0
     692:	0f 90       	pop	r0
     694:	0f 90       	pop	r0
     696:	08 95       	ret

00000698 <initLcd>:
     698:	81 e0       	ldi	r24, 0x01	; 1
     69a:	2a de       	rcall	.-940    	; 0x2f0 <lcdSclk>
     69c:	80 e0       	ldi	r24, 0x00	; 0
     69e:	22 de       	rcall	.-956    	; 0x2e4 <lcdSid>
     6a0:	64 e3       	ldi	r22, 0x34	; 52
     6a2:	70 e0       	ldi	r23, 0x00	; 0
     6a4:	83 e4       	ldi	r24, 0x43	; 67
     6a6:	90 e0       	ldi	r25, 0x00	; 0
     6a8:	34 de       	rcall	.-920    	; 0x312 <writeLcdF>
     6aa:	69 e0       	ldi	r22, 0x09	; 9
     6ac:	70 e0       	ldi	r23, 0x00	; 0
     6ae:	83 e4       	ldi	r24, 0x43	; 67
     6b0:	90 e0       	ldi	r25, 0x00	; 0
     6b2:	2f de       	rcall	.-930    	; 0x312 <writeLcdF>
     6b4:	60 e3       	ldi	r22, 0x30	; 48
     6b6:	70 e0       	ldi	r23, 0x00	; 0
     6b8:	83 e4       	ldi	r24, 0x43	; 67
     6ba:	90 e0       	ldi	r25, 0x00	; 0
     6bc:	2a de       	rcall	.-940    	; 0x312 <writeLcdF>
     6be:	6c e0       	ldi	r22, 0x0C	; 12
     6c0:	70 e0       	ldi	r23, 0x00	; 0
     6c2:	83 e4       	ldi	r24, 0x43	; 67
     6c4:	90 e0       	ldi	r25, 0x00	; 0
     6c6:	25 de       	rcall	.-950    	; 0x312 <writeLcdF>
     6c8:	d0 df       	rcall	.-96     	; 0x66a <lcdClear>
     6ca:	67 e0       	ldi	r22, 0x07	; 7
     6cc:	70 e0       	ldi	r23, 0x00	; 0
     6ce:	83 e4       	ldi	r24, 0x43	; 67
     6d0:	90 e0       	ldi	r25, 0x00	; 0
     6d2:	1f de       	rcall	.-962    	; 0x312 <writeLcdF>
     6d4:	80 e0       	ldi	r24, 0x00	; 0
     6d6:	12 ce       	rjmp	.-988    	; 0x2fc <lcdLight>
     6d8:	08 95       	ret

000006da <initBoard>:
     6da:	4f 92       	push	r4
     6dc:	5f 92       	push	r5
     6de:	6f 92       	push	r6
     6e0:	7f 92       	push	r7
     6e2:	8f 92       	push	r8
     6e4:	9f 92       	push	r9
     6e6:	af 92       	push	r10
     6e8:	bf 92       	push	r11
     6ea:	cf 92       	push	r12
     6ec:	df 92       	push	r13
     6ee:	ef 92       	push	r14
     6f0:	ff 92       	push	r15
     6f2:	0f 93       	push	r16
     6f4:	1f 93       	push	r17
     6f6:	cf 93       	push	r28
     6f8:	df 93       	push	r29
     6fa:	c8 2f       	mov	r28, r24
     6fc:	85 b7       	in	r24, 0x35	; 53
     6fe:	85 bf       	out	0x35, r24	; 53
     700:	12 b8       	out	0x02, r1	; 2
     702:	8f ef       	ldi	r24, 0xFF	; 255
     704:	81 b9       	out	0x01, r24	; 1
     706:	15 b8       	out	0x05, r1	; 5
     708:	84 b9       	out	0x04, r24	; 4
     70a:	88 b9       	out	0x08, r24	; 8
     70c:	17 b8       	out	0x07, r1	; 7
     70e:	8b b9       	out	0x0b, r24	; 11
     710:	1a b8       	out	0x0a, r1	; 10
     712:	8e b9       	out	0x0e, r24	; 14
     714:	1d b8       	out	0x0d, r1	; 13
     716:	72 98       	cbi	0x0e, 2	; 14
     718:	11 ba       	out	0x11, r1	; 17
     71a:	10 ba       	out	0x10, r1	; 16
     71c:	94 e0       	ldi	r25, 0x04	; 4
     71e:	94 bb       	out	0x14, r25	; 20
     720:	93 b3       	in	r25, 0x13	; 19
     722:	93 60       	ori	r25, 0x03	; 3
     724:	93 bb       	out	0x13, r25	; 19
     726:	9d 9a       	sbi	0x13, 5	; 19
     728:	97 ec       	ldi	r25, 0xC7	; 199
     72a:	90 93 02 01 	sts	0x0102, r25	; 0x800102 <__TEXT_REGION_LENGTH__+0x700102>
     72e:	98 e3       	ldi	r25, 0x38	; 56
     730:	90 93 01 01 	sts	0x0101, r25	; 0x800101 <__TEXT_REGION_LENGTH__+0x700101>
     734:	10 92 05 01 	sts	0x0105, r1	; 0x800105 <__TEXT_REGION_LENGTH__+0x700105>
     738:	80 93 04 01 	sts	0x0104, r24	; 0x800104 <__TEXT_REGION_LENGTH__+0x700104>
     73c:	10 92 08 01 	sts	0x0108, r1	; 0x800108 <__TEXT_REGION_LENGTH__+0x700108>
     740:	10 92 07 01 	sts	0x0107, r1	; 0x800107 <__TEXT_REGION_LENGTH__+0x700107>
     744:	8c e3       	ldi	r24, 0x3C	; 60
     746:	80 93 0b 01 	sts	0x010B, r24	; 0x80010b <__TEXT_REGION_LENGTH__+0x70010b>
     74a:	10 92 0a 01 	sts	0x010A, r1	; 0x80010a <__TEXT_REGION_LENGTH__+0x70010a>
     74e:	78 94       	sei
     750:	73 dd       	rcall	.-1306   	; 0x238 <startSystemTimeMs>
     752:	a2 df       	rcall	.-188    	; 0x698 <initLcd>
     754:	7b dd       	rcall	.-1290   	; 0x24c <initAdc>
     756:	b2 dd       	rcall	.-1180   	; 0x2bc <initRgb>
     758:	cc 23       	and	r28, r28
     75a:	09 f4       	brne	.+2      	; 0x75e <initBoard+0x84>
     75c:	b8 c0       	rjmp	.+368    	; 0x8ce <initBoard+0x1f4>
     75e:	8f ef       	ldi	r24, 0xFF	; 255
     760:	cd dd       	rcall	.-1126   	; 0x2fc <lcdLight>
     762:	40 e0       	ldi	r20, 0x00	; 0
     764:	50 e0       	ldi	r21, 0x00	; 0
     766:	6f ef       	ldi	r22, 0xFF	; 255
     768:	73 e0       	ldi	r23, 0x03	; 3
     76a:	80 e0       	ldi	r24, 0x00	; 0
     76c:	90 e0       	ldi	r25, 0x00	; 0
     76e:	8f dd       	rcall	.-1250   	; 0x28e <rgbWrite>
     770:	8a e2       	ldi	r24, 0x2A	; 42
     772:	92 e0       	ldi	r25, 0x02	; 2
     774:	9f 93       	push	r25
     776:	8f 93       	push	r24
     778:	1f 92       	push	r1
     77a:	1f 92       	push	r1
     77c:	42 de       	rcall	.-892    	; 0x402 <lcdWriteText>
     77e:	8f e3       	ldi	r24, 0x3F	; 63
     780:	92 e0       	ldi	r25, 0x02	; 2
     782:	9f 93       	push	r25
     784:	8f 93       	push	r24
     786:	1f 92       	push	r1
     788:	81 e0       	ldi	r24, 0x01	; 1
     78a:	8f 93       	push	r24
     78c:	3a de       	rcall	.-908    	; 0x402 <lcdWriteText>
     78e:	85 e1       	ldi	r24, 0x15	; 21
     790:	92 e0       	ldi	r25, 0x02	; 2
     792:	9f 93       	push	r25
     794:	8f 93       	push	r24
     796:	1f 92       	push	r1
     798:	82 e0       	ldi	r24, 0x02	; 2
     79a:	8f 93       	push	r24
     79c:	32 de       	rcall	.-924    	; 0x402 <lcdWriteText>
     79e:	84 e5       	ldi	r24, 0x54	; 84
     7a0:	92 e0       	ldi	r25, 0x02	; 2
     7a2:	9f 93       	push	r25
     7a4:	8f 93       	push	r24
     7a6:	1f 92       	push	r1
     7a8:	83 e0       	ldi	r24, 0x03	; 3
     7aa:	8f 93       	push	r24
     7ac:	2a de       	rcall	.-940    	; 0x402 <lcdWriteText>
     7ae:	8d b7       	in	r24, 0x3d	; 61
     7b0:	9e b7       	in	r25, 0x3e	; 62
     7b2:	40 96       	adiw	r24, 0x10	; 16
     7b4:	0f b6       	in	r0, 0x3f	; 63
     7b6:	f8 94       	cli
     7b8:	9e bf       	out	0x3e, r25	; 62
     7ba:	0f be       	out	0x3f, r0	; 63
     7bc:	8d bf       	out	0x3d, r24	; 61
     7be:	88 24       	eor	r8, r8
     7c0:	83 94       	inc	r8
     7c2:	c0 e0       	ldi	r28, 0x00	; 0
     7c4:	71 2c       	mov	r7, r1
     7c6:	99 24       	eor	r9, r9
     7c8:	93 94       	inc	r9
     7ca:	d0 e0       	ldi	r29, 0x00	; 0
     7cc:	cc 24       	eor	r12, r12
     7ce:	c3 94       	inc	r12
     7d0:	d1 2c       	mov	r13, r1
     7d2:	e1 2c       	mov	r14, r1
     7d4:	68 94       	set
     7d6:	ff 24       	eor	r15, r15
     7d8:	f7 f8       	bld	r15, 7
     7da:	66 24       	eor	r6, r6
     7dc:	63 94       	inc	r6
     7de:	51 2c       	mov	r5, r1
     7e0:	09 e0       	ldi	r16, 0x09	; 9
     7e2:	11 e0       	ldi	r17, 0x01	; 1
     7e4:	0f 2e       	mov	r0, r31
     7e6:	f9 e6       	ldi	r31, 0x69	; 105
     7e8:	af 2e       	mov	r10, r31
     7ea:	f2 e0       	ldi	r31, 0x02	; 2
     7ec:	bf 2e       	mov	r11, r31
     7ee:	f0 2d       	mov	r31, r0
     7f0:	0f 2e       	mov	r0, r31
     7f2:	f3 e0       	ldi	r31, 0x03	; 3
     7f4:	4f 2e       	mov	r4, r31
     7f6:	f0 2d       	mov	r31, r0
     7f8:	99 20       	and	r9, r9
     7fa:	49 f0       	breq	.+18     	; 0x80e <initBoard+0x134>
     7fc:	c7 01       	movw	r24, r14
     7fe:	0d 2e       	mov	r0, r29
     800:	02 c0       	rjmp	.+4      	; 0x806 <initBoard+0x12c>
     802:	96 95       	lsr	r25
     804:	87 95       	ror	r24
     806:	0a 94       	dec	r0
     808:	e2 f7       	brpl	.-8      	; 0x802 <initBoard+0x128>
     80a:	13 dd       	rcall	.-1498   	; 0x232 <ledWriteAll>
     80c:	08 c0       	rjmp	.+16     	; 0x81e <initBoard+0x144>
     80e:	c6 01       	movw	r24, r12
     810:	0d 2e       	mov	r0, r29
     812:	02 c0       	rjmp	.+4      	; 0x818 <initBoard+0x13e>
     814:	88 0f       	add	r24, r24
     816:	99 1f       	adc	r25, r25
     818:	0a 94       	dec	r0
     81a:	e2 f7       	brpl	.-8      	; 0x814 <initBoard+0x13a>
     81c:	0a dd       	rcall	.-1516   	; 0x232 <ledWriteAll>
     81e:	df 5f       	subi	r29, 0xFF	; 255
     820:	d1 31       	cpi	r29, 0x11	; 17
     822:	28 f0       	brcs	.+10     	; 0x82e <initBoard+0x154>
     824:	86 2d       	mov	r24, r6
     826:	91 10       	cpse	r9, r1
     828:	85 2d       	mov	r24, r5
     82a:	98 2e       	mov	r9, r24
     82c:	d0 e0       	ldi	r29, 0x00	; 0
     82e:	88 20       	and	r8, r8
     830:	11 f0       	breq	.+4      	; 0x836 <initBoard+0x15c>
     832:	ce 5f       	subi	r28, 0xFE	; 254
     834:	01 c0       	rjmp	.+2      	; 0x838 <initBoard+0x15e>
     836:	c2 50       	subi	r28, 0x02	; 2
     838:	8c 2f       	mov	r24, r28
     83a:	60 dd       	rcall	.-1344   	; 0x2fc <lcdLight>
     83c:	ce 3f       	cpi	r28, 0xFE	; 254
     83e:	21 f0       	breq	.+8      	; 0x848 <initBoard+0x16e>
     840:	c8 37       	cpi	r28, 0x78	; 120
     842:	19 f4       	brne	.+6      	; 0x84a <initBoard+0x170>
     844:	86 2c       	mov	r8, r6
     846:	01 c0       	rjmp	.+2      	; 0x84a <initBoard+0x170>
     848:	85 2c       	mov	r8, r5
     84a:	71 10       	cpse	r7, r1
     84c:	3b c0       	rjmp	.+118    	; 0x8c4 <initBoard+0x1ea>
     84e:	f8 01       	movw	r30, r16
     850:	80 81       	ld	r24, Z
     852:	83 7c       	andi	r24, 0xC3	; 195
     854:	91 f0       	breq	.+36     	; 0x87a <initBoard+0x1a0>
     856:	40 e0       	ldi	r20, 0x00	; 0
     858:	50 e0       	ldi	r21, 0x00	; 0
     85a:	66 e2       	ldi	r22, 0x26	; 38
     85c:	72 e0       	ldi	r23, 0x02	; 2
     85e:	8f ef       	ldi	r24, 0xFF	; 255
     860:	93 e0       	ldi	r25, 0x03	; 3
     862:	15 dd       	rcall	.-1494   	; 0x28e <rgbWrite>
     864:	bf 92       	push	r11
     866:	af 92       	push	r10
     868:	1f 92       	push	r1
     86a:	4f 92       	push	r4
     86c:	ca dd       	rcall	.-1132   	; 0x402 <lcdWriteText>
     86e:	0f 90       	pop	r0
     870:	0f 90       	pop	r0
     872:	0f 90       	pop	r0
     874:	0f 90       	pop	r0
     876:	76 2c       	mov	r7, r6
     878:	25 c0       	rjmp	.+74     	; 0x8c4 <initBoard+0x1ea>
     87a:	8f ef       	ldi	r24, 0xFF	; 255
     87c:	9c e7       	ldi	r25, 0x7C	; 124
     87e:	01 97       	sbiw	r24, 0x01	; 1
     880:	f1 f7       	brne	.-4      	; 0x87e <initBoard+0x1a4>
     882:	00 c0       	rjmp	.+0      	; 0x884 <initBoard+0x1aa>
     884:	00 00       	nop
     886:	b8 cf       	rjmp	.-144    	; 0x7f8 <initBoard+0x11e>
     888:	f0 de       	rcall	.-544    	; 0x66a <lcdClear>
     88a:	80 e0       	ldi	r24, 0x00	; 0
     88c:	37 dd       	rcall	.-1426   	; 0x2fc <lcdLight>
     88e:	80 e0       	ldi	r24, 0x00	; 0
     890:	90 e0       	ldi	r25, 0x00	; 0
     892:	cf dc       	rcall	.-1634   	; 0x232 <ledWriteAll>
     894:	40 e0       	ldi	r20, 0x00	; 0
     896:	50 e0       	ldi	r21, 0x00	; 0
     898:	60 e0       	ldi	r22, 0x00	; 0
     89a:	70 e0       	ldi	r23, 0x00	; 0
     89c:	80 e0       	ldi	r24, 0x00	; 0
     89e:	90 e0       	ldi	r25, 0x00	; 0
     8a0:	f6 dc       	rcall	.-1556   	; 0x28e <rgbWrite>
     8a2:	10 92 cd 02 	sts	0x02CD, r1	; 0x8002cd <systemTimeMs>
     8a6:	10 92 ce 02 	sts	0x02CE, r1	; 0x8002ce <systemTimeMs+0x1>
     8aa:	10 92 cf 02 	sts	0x02CF, r1	; 0x8002cf <systemTimeMs+0x2>
     8ae:	10 92 d0 02 	sts	0x02D0, r1	; 0x8002d0 <systemTimeMs+0x3>
     8b2:	10 92 d1 02 	sts	0x02D1, r1	; 0x8002d1 <systemTimeMs+0x4>
     8b6:	10 92 d2 02 	sts	0x02D2, r1	; 0x8002d2 <systemTimeMs+0x5>
     8ba:	10 92 d3 02 	sts	0x02D3, r1	; 0x8002d3 <systemTimeMs+0x6>
     8be:	10 92 d4 02 	sts	0x02D4, r1	; 0x8002d4 <systemTimeMs+0x7>
     8c2:	05 c0       	rjmp	.+10     	; 0x8ce <initBoard+0x1f4>
     8c4:	f8 01       	movw	r30, r16
     8c6:	80 81       	ld	r24, Z
     8c8:	83 7c       	andi	r24, 0xC3	; 195
     8ca:	b9 f6       	brne	.-82     	; 0x87a <initBoard+0x1a0>
     8cc:	dd cf       	rjmp	.-70     	; 0x888 <initBoard+0x1ae>
     8ce:	df 91       	pop	r29
     8d0:	cf 91       	pop	r28
     8d2:	1f 91       	pop	r17
     8d4:	0f 91       	pop	r16
     8d6:	ff 90       	pop	r15
     8d8:	ef 90       	pop	r14
     8da:	df 90       	pop	r13
     8dc:	cf 90       	pop	r12
     8de:	bf 90       	pop	r11
     8e0:	af 90       	pop	r10
     8e2:	9f 90       	pop	r9
     8e4:	8f 90       	pop	r8
     8e6:	7f 90       	pop	r7
     8e8:	6f 90       	pop	r6
     8ea:	5f 90       	pop	r5
     8ec:	4f 90       	pop	r4
     8ee:	08 95       	ret

000008f0 <lcdLog>:
     8f0:	6f 92       	push	r6
     8f2:	7f 92       	push	r7
     8f4:	8f 92       	push	r8
     8f6:	9f 92       	push	r9
     8f8:	af 92       	push	r10
     8fa:	bf 92       	push	r11
     8fc:	cf 92       	push	r12
     8fe:	df 92       	push	r13
     900:	ef 92       	push	r14
     902:	ff 92       	push	r15
     904:	0f 93       	push	r16
     906:	1f 93       	push	r17
     908:	cf 93       	push	r28
     90a:	df 93       	push	r29
     90c:	cd b7       	in	r28, 0x3d	; 61
     90e:	de b7       	in	r29, 0x3e	; 62
     910:	60 97       	sbiw	r28, 0x10	; 16
     912:	0f b6       	in	r0, 0x3f	; 63
     914:	f8 94       	cli
     916:	de bf       	out	0x3e, r29	; 62
     918:	0f be       	out	0x3f, r0	; 63
     91a:	cd bf       	out	0x3d, r28	; 61
     91c:	80 91 00 02 	lds	r24, 0x0200	; 0x800200 <__data_start>
     920:	88 23       	and	r24, r24
     922:	b1 f1       	breq	.+108    	; 0x990 <lcdLog+0xa0>
     924:	a2 de       	rcall	.-700    	; 0x66a <lcdClear>
     926:	10 92 00 02 	sts	0x0200, r1	; 0x800200 <__data_start>
     92a:	10 92 cb 02 	sts	0x02CB, r1	; 0x8002cb <nummer.2616+0x1>
     92e:	10 92 ca 02 	sts	0x02CA, r1	; 0x8002ca <nummer.2616>
     932:	0f 2e       	mov	r0, r31
     934:	f2 ec       	ldi	r31, 0xC2	; 194
     936:	8f 2e       	mov	r8, r31
     938:	f2 e0       	ldi	r31, 0x02	; 2
     93a:	9f 2e       	mov	r9, r31
     93c:	f0 2d       	mov	r31, r0
     93e:	02 e8       	ldi	r16, 0x82	; 130
     940:	12 e0       	ldi	r17, 0x02	; 2
     942:	a0 e0       	ldi	r26, 0x00	; 0
     944:	b0 e0       	ldi	r27, 0x00	; 0
     946:	40 e2       	ldi	r20, 0x20	; 32
     948:	bd 01       	movw	r22, r26
     94a:	f4 01       	movw	r30, r8
     94c:	11 92       	st	Z+, r1
     94e:	11 92       	st	Z+, r1
     950:	4f 01       	movw	r8, r30
     952:	f8 01       	movw	r30, r16
     954:	41 93       	st	Z+, r20
     956:	81 e0       	ldi	r24, 0x01	; 1
     958:	90 e0       	ldi	r25, 0x00	; 0
     95a:	13 c0       	rjmp	.+38     	; 0x982 <lcdLog+0x92>
     95c:	62 95       	swap	r22
     95e:	72 95       	swap	r23
     960:	70 7f       	andi	r23, 0xF0	; 240
     962:	76 27       	eor	r23, r22
     964:	60 7f       	andi	r22, 0xF0	; 240
     966:	76 27       	eor	r23, r22
     968:	6e 57       	subi	r22, 0x7E	; 126
     96a:	7d 4f       	sbci	r23, 0xFD	; 253
     96c:	fb 01       	movw	r30, r22
     96e:	e2 0f       	add	r30, r18
     970:	f3 1f       	adc	r31, r19
     972:	10 82       	st	Z, r1
     974:	11 96       	adiw	r26, 0x01	; 1
     976:	00 5f       	subi	r16, 0xF0	; 240
     978:	1f 4f       	sbci	r17, 0xFF	; 255
     97a:	a4 30       	cpi	r26, 0x04	; 4
     97c:	b1 05       	cpc	r27, r1
     97e:	21 f7       	brne	.-56     	; 0x948 <lcdLog+0x58>
     980:	07 c0       	rjmp	.+14     	; 0x990 <lcdLog+0xa0>
     982:	9c 01       	movw	r18, r24
     984:	41 93       	st	Z+, r20
     986:	01 96       	adiw	r24, 0x01	; 1
     988:	80 31       	cpi	r24, 0x10	; 16
     98a:	91 05       	cpc	r25, r1
     98c:	d1 f7       	brne	.-12     	; 0x982 <lcdLog+0x92>
     98e:	e6 cf       	rjmp	.-52     	; 0x95c <lcdLog+0x6c>
     990:	80 91 ca 02 	lds	r24, 0x02CA	; 0x8002ca <nummer.2616>
     994:	90 91 cb 02 	lds	r25, 0x02CB	; 0x8002cb <nummer.2616+0x1>
     998:	01 96       	adiw	r24, 0x01	; 1
     99a:	90 93 cb 02 	sts	0x02CB, r25	; 0x8002cb <nummer.2616+0x1>
     99e:	80 93 ca 02 	sts	0x02CA, r24	; 0x8002ca <nummer.2616>
     9a2:	9e 01       	movw	r18, r28
     9a4:	2c 5d       	subi	r18, 0xDC	; 220
     9a6:	3f 4f       	sbci	r19, 0xFF	; 255
     9a8:	4a a1       	ldd	r20, Y+34	; 0x22
     9aa:	5b a1       	ldd	r21, Y+35	; 0x23
     9ac:	60 e1       	ldi	r22, 0x10	; 16
     9ae:	70 e0       	ldi	r23, 0x00	; 0
     9b0:	ce 01       	movw	r24, r28
     9b2:	01 96       	adiw	r24, 0x01	; 1
     9b4:	57 d2       	rcall	.+1198   	; 0xe64 <vsnprintf>
     9b6:	8e 01       	movw	r16, r28
     9b8:	0f 5f       	subi	r16, 0xFF	; 255
     9ba:	1f 4f       	sbci	r17, 0xFF	; 255
     9bc:	4e 01       	movw	r8, r28
     9be:	f1 e1       	ldi	r31, 0x11	; 17
     9c0:	8f 0e       	add	r8, r31
     9c2:	91 1c       	adc	r9, r1
     9c4:	f8 01       	movw	r30, r16
     9c6:	90 e0       	ldi	r25, 0x00	; 0
     9c8:	30 e2       	ldi	r19, 0x20	; 32
     9ca:	21 e0       	ldi	r18, 0x01	; 1
     9cc:	df 01       	movw	r26, r30
     9ce:	80 81       	ld	r24, Z
     9d0:	88 23       	and	r24, r24
     9d2:	19 f0       	breq	.+6      	; 0x9da <lcdLog+0xea>
     9d4:	99 23       	and	r25, r25
     9d6:	19 f0       	breq	.+6      	; 0x9de <lcdLog+0xee>
     9d8:	01 c0       	rjmp	.+2      	; 0x9dc <lcdLog+0xec>
     9da:	92 2f       	mov	r25, r18
     9dc:	3c 93       	st	X, r19
     9de:	31 96       	adiw	r30, 0x01	; 1
     9e0:	e8 15       	cp	r30, r8
     9e2:	f9 05       	cpc	r31, r9
     9e4:	99 f7       	brne	.-26     	; 0x9cc <lcdLog+0xdc>
     9e6:	18 8a       	std	Y+16, r1	; 0x10
     9e8:	62 e8       	ldi	r22, 0x82	; 130
     9ea:	72 e0       	ldi	r23, 0x02	; 2
     9ec:	ce 01       	movw	r24, r28
     9ee:	01 96       	adiw	r24, 0x01	; 1
     9f0:	30 d2       	rcall	.+1120   	; 0xe52 <strcmp>
     9f2:	88 23       	and	r24, r24
     9f4:	09 f4       	brne	.+2      	; 0x9f8 <lcdLog+0x108>
     9f6:	7e c0       	rjmp	.+252    	; 0xaf4 <lcdLog+0x204>
     9f8:	0f 2e       	mov	r0, r31
     9fa:	f8 ec       	ldi	r31, 0xC8	; 200
     9fc:	6f 2e       	mov	r6, r31
     9fe:	f2 e0       	ldi	r31, 0x02	; 2
     a00:	7f 2e       	mov	r7, r31
     a02:	f0 2d       	mov	r31, r0
     a04:	62 eb       	ldi	r22, 0xB2	; 178
     a06:	72 e0       	ldi	r23, 0x02	; 2
     a08:	42 e8       	ldi	r20, 0x82	; 130
     a0a:	52 e0       	ldi	r21, 0x02	; 2
     a0c:	f3 01       	movw	r30, r6
     a0e:	92 91       	ld	r25, -Z
     a10:	82 91       	ld	r24, -Z
     a12:	3f 01       	movw	r6, r30
     a14:	93 83       	std	Z+3, r25	; 0x03
     a16:	82 83       	std	Z+2, r24	; 0x02
     a18:	db 01       	movw	r26, r22
     a1a:	50 97       	sbiw	r26, 0x10	; 16
     a1c:	9b 01       	movw	r18, r22
     a1e:	20 5f       	subi	r18, 0xF0	; 240
     a20:	3f 4f       	sbci	r19, 0xFF	; 255
     a22:	fb 01       	movw	r30, r22
     a24:	8d 91       	ld	r24, X+
     a26:	81 93       	st	Z+, r24
     a28:	e2 17       	cp	r30, r18
     a2a:	f3 07       	cpc	r31, r19
     a2c:	d9 f7       	brne	.-10     	; 0xa24 <lcdLog+0x134>
     a2e:	60 51       	subi	r22, 0x10	; 16
     a30:	71 09       	sbc	r23, r1
     a32:	64 17       	cp	r22, r20
     a34:	75 07       	cpc	r23, r21
     a36:	51 f7       	brne	.-44     	; 0xa0c <lcdLog+0x11c>
     a38:	f8 01       	movw	r30, r16
     a3a:	81 91       	ld	r24, Z+
     a3c:	8f 01       	movw	r16, r30
     a3e:	fa 01       	movw	r30, r20
     a40:	81 93       	st	Z+, r24
     a42:	af 01       	movw	r20, r30
     a44:	08 15       	cp	r16, r8
     a46:	19 05       	cpc	r17, r9
     a48:	b9 f7       	brne	.-18     	; 0xa38 <lcdLog+0x148>
     a4a:	80 91 ca 02 	lds	r24, 0x02CA	; 0x8002ca <nummer.2616>
     a4e:	90 91 cb 02 	lds	r25, 0x02CB	; 0x8002cb <nummer.2616+0x1>
     a52:	90 93 c3 02 	sts	0x02C3, r25	; 0x8002c3 <lcdPrintNr.2614+0x1>
     a56:	80 93 c2 02 	sts	0x02C2, r24	; 0x8002c2 <lcdPrintNr.2614>
     a5a:	80 91 01 02 	lds	r24, 0x0201	; 0x800201 <lcdLogZeilen>
     a5e:	94 e0       	ldi	r25, 0x04	; 4
     a60:	d9 2e       	mov	r13, r25
     a62:	d8 1a       	sub	r13, r24
     a64:	f3 e0       	ldi	r31, 0x03	; 3
     a66:	fd 15       	cp	r31, r13
     a68:	08 f4       	brcc	.+2      	; 0xa6c <lcdLog+0x17c>
     a6a:	5b c0       	rjmp	.+182    	; 0xb22 <lcdLog+0x232>
     a6c:	83 e0       	ldi	r24, 0x03	; 3
     a6e:	b8 2e       	mov	r11, r24
     a70:	bd 18       	sub	r11, r13
     a72:	0f 2e       	mov	r0, r31
     a74:	f5 e0       	ldi	r31, 0x05	; 5
     a76:	6f 2e       	mov	r6, r31
     a78:	f0 2d       	mov	r31, r0
     a7a:	0f 2e       	mov	r0, r31
     a7c:	ff e0       	ldi	r31, 0x0F	; 15
     a7e:	8f 2e       	mov	r8, r31
     a80:	f2 e0       	ldi	r31, 0x02	; 2
     a82:	9f 2e       	mov	r9, r31
     a84:	f0 2d       	mov	r31, r0
     a86:	68 94       	set
     a88:	77 24       	eor	r7, r7
     a8a:	72 f8       	bld	r7, 2
     a8c:	0b 2d       	mov	r16, r11
     a8e:	10 e0       	ldi	r17, 0x00	; 0
     a90:	c8 01       	movw	r24, r16
     a92:	82 95       	swap	r24
     a94:	92 95       	swap	r25
     a96:	90 7f       	andi	r25, 0xF0	; 240
     a98:	98 27       	eor	r25, r24
     a9a:	80 7f       	andi	r24, 0xF0	; 240
     a9c:	98 27       	eor	r25, r24
     a9e:	8e 57       	subi	r24, 0x7E	; 126
     aa0:	9d 4f       	sbci	r25, 0xFD	; 253
     aa2:	9f 93       	push	r25
     aa4:	8f 93       	push	r24
     aa6:	6f 92       	push	r6
     aa8:	df 92       	push	r13
     aaa:	ab dc       	rcall	.-1706   	; 0x402 <lcdWriteText>
     aac:	9f 92       	push	r9
     aae:	8f 92       	push	r8
     ab0:	7f 92       	push	r7
     ab2:	df 92       	push	r13
     ab4:	a6 dc       	rcall	.-1716   	; 0x402 <lcdWriteText>
     ab6:	00 0f       	add	r16, r16
     ab8:	11 1f       	adc	r17, r17
     aba:	f8 01       	movw	r30, r16
     abc:	ee 53       	subi	r30, 0x3E	; 62
     abe:	fd 4f       	sbci	r31, 0xFD	; 253
     ac0:	00 81       	ld	r16, Z
     ac2:	11 81       	ldd	r17, Z+1	; 0x01
     ac4:	a1 2c       	mov	r10, r1
     ac6:	c7 2c       	mov	r12, r7
     ac8:	e0 2e       	mov	r14, r16
     aca:	f1 2e       	mov	r15, r17
     acc:	00 e0       	ldi	r16, 0x00	; 0
     ace:	10 e0       	ldi	r17, 0x00	; 0
     ad0:	20 e0       	ldi	r18, 0x00	; 0
     ad2:	30 e0       	ldi	r19, 0x00	; 0
     ad4:	40 e0       	ldi	r20, 0x00	; 0
     ad6:	50 e0       	ldi	r21, 0x00	; 0
     ad8:	60 e0       	ldi	r22, 0x00	; 0
     ada:	8d 2d       	mov	r24, r13
     adc:	ce dc       	rcall	.-1636   	; 0x47a <lcdWriteZahl>
     ade:	d3 94       	inc	r13
     ae0:	ba 94       	dec	r11
     ae2:	0f b6       	in	r0, 0x3f	; 63
     ae4:	f8 94       	cli
     ae6:	de bf       	out	0x3e, r29	; 62
     ae8:	0f be       	out	0x3f, r0	; 63
     aea:	cd bf       	out	0x3d, r28	; 61
     aec:	94 e0       	ldi	r25, 0x04	; 4
     aee:	d9 12       	cpse	r13, r25
     af0:	cd cf       	rjmp	.-102    	; 0xa8c <lcdLog+0x19c>
     af2:	17 c0       	rjmp	.+46     	; 0xb22 <lcdLog+0x232>
     af4:	00 91 ca 02 	lds	r16, 0x02CA	; 0x8002ca <nummer.2616>
     af8:	10 91 cb 02 	lds	r17, 0x02CB	; 0x8002cb <nummer.2616+0x1>
     afc:	10 93 c3 02 	sts	0x02C3, r17	; 0x8002c3 <lcdPrintNr.2614+0x1>
     b00:	00 93 c2 02 	sts	0x02C2, r16	; 0x8002c2 <lcdPrintNr.2614>
     b04:	a1 2c       	mov	r10, r1
     b06:	68 94       	set
     b08:	cc 24       	eor	r12, r12
     b0a:	c2 f8       	bld	r12, 2
     b0c:	e0 2e       	mov	r14, r16
     b0e:	f1 2e       	mov	r15, r17
     b10:	00 e0       	ldi	r16, 0x00	; 0
     b12:	10 e0       	ldi	r17, 0x00	; 0
     b14:	20 e0       	ldi	r18, 0x00	; 0
     b16:	30 e0       	ldi	r19, 0x00	; 0
     b18:	40 e0       	ldi	r20, 0x00	; 0
     b1a:	50 e0       	ldi	r21, 0x00	; 0
     b1c:	60 e0       	ldi	r22, 0x00	; 0
     b1e:	83 e0       	ldi	r24, 0x03	; 3
     b20:	ac dc       	rcall	.-1704   	; 0x47a <lcdWriteZahl>
     b22:	60 96       	adiw	r28, 0x10	; 16
     b24:	0f b6       	in	r0, 0x3f	; 63
     b26:	f8 94       	cli
     b28:	de bf       	out	0x3e, r29	; 62
     b2a:	0f be       	out	0x3f, r0	; 63
     b2c:	cd bf       	out	0x3d, r28	; 61
     b2e:	df 91       	pop	r29
     b30:	cf 91       	pop	r28
     b32:	1f 91       	pop	r17
     b34:	0f 91       	pop	r16
     b36:	ff 90       	pop	r15
     b38:	ef 90       	pop	r14
     b3a:	df 90       	pop	r13
     b3c:	cf 90       	pop	r12
     b3e:	bf 90       	pop	r11
     b40:	af 90       	pop	r10
     b42:	9f 90       	pop	r9
     b44:	8f 90       	pop	r8
     b46:	7f 90       	pop	r7
     b48:	6f 90       	pop	r6
     b4a:	08 95       	ret

00000b4c <lcdLogWaitBtn>:
     b4c:	0f 93       	push	r16
     b4e:	1f 93       	push	r17
     b50:	cf 93       	push	r28
     b52:	df 93       	push	r29
     b54:	cd b7       	in	r28, 0x3d	; 61
     b56:	de b7       	in	r29, 0x3e	; 62
     b58:	60 97       	sbiw	r28, 0x10	; 16
     b5a:	0f b6       	in	r0, 0x3f	; 63
     b5c:	f8 94       	cli
     b5e:	de bf       	out	0x3e, r29	; 62
     b60:	0f be       	out	0x3f, r0	; 63
     b62:	cd bf       	out	0x3d, r28	; 61
     b64:	9e 01       	movw	r18, r28
     b66:	25 5e       	subi	r18, 0xE5	; 229
     b68:	3f 4f       	sbci	r19, 0xFF	; 255
     b6a:	49 8d       	ldd	r20, Y+25	; 0x19
     b6c:	5a 8d       	ldd	r21, Y+26	; 0x1a
     b6e:	60 e1       	ldi	r22, 0x10	; 16
     b70:	70 e0       	ldi	r23, 0x00	; 0
     b72:	8e 01       	movw	r16, r28
     b74:	0f 5f       	subi	r16, 0xFF	; 255
     b76:	1f 4f       	sbci	r17, 0xFF	; 255
     b78:	c8 01       	movw	r24, r16
     b7a:	74 d1       	rcall	.+744    	; 0xe64 <vsnprintf>
     b7c:	1f 93       	push	r17
     b7e:	0f 93       	push	r16
     b80:	b7 de       	rcall	.-658    	; 0x8f0 <lcdLog>
     b82:	0f 90       	pop	r0
     b84:	0f 90       	pop	r0
     b86:	88 8d       	ldd	r24, Y+24	; 0x18
     b88:	88 23       	and	r24, r24
     b8a:	51 f1       	breq	.+84     	; 0xbe0 <lcdLogWaitBtn+0x94>
     b8c:	a0 91 cd 02 	lds	r26, 0x02CD	; 0x8002cd <systemTimeMs>
     b90:	70 91 ce 02 	lds	r23, 0x02CE	; 0x8002ce <systemTimeMs+0x1>
     b94:	60 91 cf 02 	lds	r22, 0x02CF	; 0x8002cf <systemTimeMs+0x2>
     b98:	50 91 d0 02 	lds	r21, 0x02D0	; 0x8002d0 <systemTimeMs+0x3>
     b9c:	40 91 d1 02 	lds	r20, 0x02D1	; 0x8002d1 <systemTimeMs+0x4>
     ba0:	30 91 d2 02 	lds	r19, 0x02D2	; 0x8002d2 <systemTimeMs+0x5>
     ba4:	20 91 d3 02 	lds	r18, 0x02D3	; 0x8002d3 <systemTimeMs+0x6>
     ba8:	90 91 d4 02 	lds	r25, 0x02D4	; 0x8002d4 <systemTimeMs+0x7>
     bac:	e9 e0       	ldi	r30, 0x09	; 9
     bae:	f1 e0       	ldi	r31, 0x01	; 1
     bb0:	80 81       	ld	r24, Z
     bb2:	83 7c       	andi	r24, 0xC3	; 195
     bb4:	e9 f3       	breq	.-6      	; 0xbb0 <lcdLogWaitBtn+0x64>
     bb6:	e9 e0       	ldi	r30, 0x09	; 9
     bb8:	f1 e0       	ldi	r31, 0x01	; 1
     bba:	80 81       	ld	r24, Z
     bbc:	83 7c       	andi	r24, 0xC3	; 195
     bbe:	e9 f7       	brne	.-6      	; 0xbba <lcdLogWaitBtn+0x6e>
     bc0:	a0 93 cd 02 	sts	0x02CD, r26	; 0x8002cd <systemTimeMs>
     bc4:	70 93 ce 02 	sts	0x02CE, r23	; 0x8002ce <systemTimeMs+0x1>
     bc8:	60 93 cf 02 	sts	0x02CF, r22	; 0x8002cf <systemTimeMs+0x2>
     bcc:	50 93 d0 02 	sts	0x02D0, r21	; 0x8002d0 <systemTimeMs+0x3>
     bd0:	40 93 d1 02 	sts	0x02D1, r20	; 0x8002d1 <systemTimeMs+0x4>
     bd4:	30 93 d2 02 	sts	0x02D2, r19	; 0x8002d2 <systemTimeMs+0x5>
     bd8:	20 93 d3 02 	sts	0x02D3, r18	; 0x8002d3 <systemTimeMs+0x6>
     bdc:	90 93 d4 02 	sts	0x02D4, r25	; 0x8002d4 <systemTimeMs+0x7>
     be0:	60 96       	adiw	r28, 0x10	; 16
     be2:	0f b6       	in	r0, 0x3f	; 63
     be4:	f8 94       	cli
     be6:	de bf       	out	0x3e, r29	; 62
     be8:	0f be       	out	0x3f, r0	; 63
     bea:	cd bf       	out	0x3d, r28	; 61
     bec:	df 91       	pop	r29
     bee:	cf 91       	pop	r28
     bf0:	1f 91       	pop	r17
     bf2:	0f 91       	pop	r16
     bf4:	08 95       	ret

00000bf6 <matrixWriteNextLine>:
     bf6:	cf 93       	push	r28
     bf8:	df 93       	push	r29
     bfa:	cd b7       	in	r28, 0x3d	; 61
     bfc:	de b7       	in	r29, 0x3e	; 62
     bfe:	28 97       	sbiw	r28, 0x08	; 8
     c00:	0f b6       	in	r0, 0x3f	; 63
     c02:	f8 94       	cli
     c04:	de bf       	out	0x3e, r29	; 62
     c06:	0f be       	out	0x3f, r0	; 63
     c08:	cd bf       	out	0x3d, r28	; 61
     c0a:	88 e0       	ldi	r24, 0x08	; 8
     c0c:	e2 e0       	ldi	r30, 0x02	; 2
     c0e:	f2 e0       	ldi	r31, 0x02	; 2
     c10:	de 01       	movw	r26, r28
     c12:	11 96       	adiw	r26, 0x01	; 1
     c14:	01 90       	ld	r0, Z+
     c16:	0d 92       	st	X+, r0
     c18:	8a 95       	dec	r24
     c1a:	e1 f7       	brne	.-8      	; 0xc14 <matrixWriteNextLine+0x1e>
     c1c:	e5 e0       	ldi	r30, 0x05	; 5
     c1e:	f1 e0       	ldi	r31, 0x01	; 1
     c20:	80 81       	ld	r24, Z
     c22:	8f 7b       	andi	r24, 0xBF	; 191
     c24:	80 83       	st	Z, r24
     c26:	e0 91 80 02 	lds	r30, 0x0280	; 0x800280 <Zeilen_Nr.2731>
     c2a:	f0 91 81 02 	lds	r31, 0x0281	; 0x800281 <Zeilen_Nr.2731+0x1>
     c2e:	81 e0       	ldi	r24, 0x01	; 1
     c30:	90 e0       	ldi	r25, 0x00	; 0
     c32:	8c 0f       	add	r24, r28
     c34:	9d 1f       	adc	r25, r29
     c36:	e8 0f       	add	r30, r24
     c38:	f9 1f       	adc	r31, r25
     c3a:	80 81       	ld	r24, Z
     c3c:	90 e0       	ldi	r25, 0x00	; 0
     c3e:	90 93 7f 02 	sts	0x027F, r25	; 0x80027f <__data_end+0x1>
     c42:	80 93 7e 02 	sts	0x027E, r24	; 0x80027e <__data_end>
     c46:	a6 e4       	ldi	r26, 0x46	; 70
     c48:	b3 e0       	ldi	r27, 0x03	; 3
     c4a:	26 ed       	ldi	r18, 0xD6	; 214
     c4c:	32 e0       	ldi	r19, 0x02	; 2
     c4e:	e5 e0       	ldi	r30, 0x05	; 5
     c50:	f1 e0       	ldi	r31, 0x01	; 1
     c52:	5e 91       	ld	r21, -X
     c54:	4e 91       	ld	r20, -X
     c56:	80 91 7e 02 	lds	r24, 0x027E	; 0x80027e <__data_end>
     c5a:	90 91 7f 02 	lds	r25, 0x027F	; 0x80027f <__data_end+0x1>
     c5e:	84 23       	and	r24, r20
     c60:	95 23       	and	r25, r21
     c62:	89 2b       	or	r24, r25
     c64:	21 f0       	breq	.+8      	; 0xc6e <matrixWriteNextLine+0x78>
     c66:	80 81       	ld	r24, Z
     c68:	80 62       	ori	r24, 0x20	; 32
     c6a:	80 83       	st	Z, r24
     c6c:	03 c0       	rjmp	.+6      	; 0xc74 <matrixWriteNextLine+0x7e>
     c6e:	80 81       	ld	r24, Z
     c70:	8f 7d       	andi	r24, 0xDF	; 223
     c72:	80 83       	st	Z, r24
     c74:	80 81       	ld	r24, Z
     c76:	80 61       	ori	r24, 0x10	; 16
     c78:	80 83       	st	Z, r24
     c7a:	80 81       	ld	r24, Z
     c7c:	8f 7e       	andi	r24, 0xEF	; 239
     c7e:	80 83       	st	Z, r24
     c80:	a2 17       	cp	r26, r18
     c82:	b3 07       	cpc	r27, r19
     c84:	31 f7       	brne	.-52     	; 0xc52 <matrixWriteNextLine+0x5c>
     c86:	e5 e0       	ldi	r30, 0x05	; 5
     c88:	f1 e0       	ldi	r31, 0x01	; 1
     c8a:	80 81       	ld	r24, Z
     c8c:	87 7f       	andi	r24, 0xF7	; 247
     c8e:	80 83       	st	Z, r24
     c90:	80 81       	ld	r24, Z
     c92:	88 7f       	andi	r24, 0xF8	; 248
     c94:	80 83       	st	Z, r24
     c96:	90 81       	ld	r25, Z
     c98:	80 91 80 02 	lds	r24, 0x0280	; 0x800280 <Zeilen_Nr.2731>
     c9c:	89 2b       	or	r24, r25
     c9e:	80 83       	st	Z, r24
     ca0:	80 81       	ld	r24, Z
     ca2:	80 64       	ori	r24, 0x40	; 64
     ca4:	80 83       	st	Z, r24
     ca6:	80 81       	ld	r24, Z
     ca8:	88 60       	ori	r24, 0x08	; 8
     caa:	80 83       	st	Z, r24
     cac:	80 91 80 02 	lds	r24, 0x0280	; 0x800280 <Zeilen_Nr.2731>
     cb0:	90 91 81 02 	lds	r25, 0x0281	; 0x800281 <Zeilen_Nr.2731+0x1>
     cb4:	87 30       	cpi	r24, 0x07	; 7
     cb6:	91 05       	cpc	r25, r1
     cb8:	30 f4       	brcc	.+12     	; 0xcc6 <matrixWriteNextLine+0xd0>
     cba:	01 96       	adiw	r24, 0x01	; 1
     cbc:	90 93 81 02 	sts	0x0281, r25	; 0x800281 <Zeilen_Nr.2731+0x1>
     cc0:	80 93 80 02 	sts	0x0280, r24	; 0x800280 <Zeilen_Nr.2731>
     cc4:	07 c0       	rjmp	.+14     	; 0xcd4 <matrixWriteNextLine+0xde>
     cc6:	10 92 81 02 	sts	0x0281, r1	; 0x800281 <Zeilen_Nr.2731+0x1>
     cca:	10 92 80 02 	sts	0x0280, r1	; 0x800280 <Zeilen_Nr.2731>
     cce:	81 e0       	ldi	r24, 0x01	; 1
     cd0:	80 93 cc 02 	sts	0x02CC, r24	; 0x8002cc <writeTextFinished>
     cd4:	28 96       	adiw	r28, 0x08	; 8
     cd6:	0f b6       	in	r0, 0x3f	; 63
     cd8:	f8 94       	cli
     cda:	de bf       	out	0x3e, r29	; 62
     cdc:	0f be       	out	0x3f, r0	; 63
     cde:	cd bf       	out	0x3d, r28	; 61
     ce0:	df 91       	pop	r29
     ce2:	cf 91       	pop	r28
     ce4:	08 95       	ret

00000ce6 <__vector_23>:
     ce6:	1f 92       	push	r1
     ce8:	0f 92       	push	r0
     cea:	0f b6       	in	r0, 0x3f	; 63
     cec:	0f 92       	push	r0
     cee:	11 24       	eor	r1, r1
     cf0:	0b b6       	in	r0, 0x3b	; 59
     cf2:	0f 92       	push	r0
     cf4:	2f 93       	push	r18
     cf6:	3f 93       	push	r19
     cf8:	4f 93       	push	r20
     cfa:	5f 93       	push	r21
     cfc:	6f 93       	push	r22
     cfe:	7f 93       	push	r23
     d00:	8f 93       	push	r24
     d02:	9f 93       	push	r25
     d04:	af 93       	push	r26
     d06:	bf 93       	push	r27
     d08:	ef 93       	push	r30
     d0a:	ff 93       	push	r31
     d0c:	20 91 cd 02 	lds	r18, 0x02CD	; 0x8002cd <systemTimeMs>
     d10:	30 91 ce 02 	lds	r19, 0x02CE	; 0x8002ce <systemTimeMs+0x1>
     d14:	40 91 cf 02 	lds	r20, 0x02CF	; 0x8002cf <systemTimeMs+0x2>
     d18:	50 91 d0 02 	lds	r21, 0x02D0	; 0x8002d0 <systemTimeMs+0x3>
     d1c:	60 91 d1 02 	lds	r22, 0x02D1	; 0x8002d1 <systemTimeMs+0x4>
     d20:	70 91 d2 02 	lds	r23, 0x02D2	; 0x8002d2 <systemTimeMs+0x5>
     d24:	80 91 d3 02 	lds	r24, 0x02D3	; 0x8002d3 <systemTimeMs+0x6>
     d28:	90 91 d4 02 	lds	r25, 0x02D4	; 0x8002d4 <systemTimeMs+0x7>
     d2c:	a1 e0       	ldi	r26, 0x01	; 1
     d2e:	85 d0       	rcall	.+266    	; 0xe3a <__adddi3_s8>
     d30:	20 93 cd 02 	sts	0x02CD, r18	; 0x8002cd <systemTimeMs>
     d34:	30 93 ce 02 	sts	0x02CE, r19	; 0x8002ce <systemTimeMs+0x1>
     d38:	40 93 cf 02 	sts	0x02CF, r20	; 0x8002cf <systemTimeMs+0x2>
     d3c:	50 93 d0 02 	sts	0x02D0, r21	; 0x8002d0 <systemTimeMs+0x3>
     d40:	60 93 d1 02 	sts	0x02D1, r22	; 0x8002d1 <systemTimeMs+0x4>
     d44:	70 93 d2 02 	sts	0x02D2, r23	; 0x8002d2 <systemTimeMs+0x5>
     d48:	80 93 d3 02 	sts	0x02D3, r24	; 0x8002d3 <systemTimeMs+0x6>
     d4c:	90 93 d4 02 	sts	0x02D4, r25	; 0x8002d4 <systemTimeMs+0x7>
     d50:	80 91 d5 02 	lds	r24, 0x02D5	; 0x8002d5 <matrixRunning>
     d54:	81 11       	cpse	r24, r1
     d56:	4f df       	rcall	.-354    	; 0xbf6 <matrixWriteNextLine>
     d58:	ff 91       	pop	r31
     d5a:	ef 91       	pop	r30
     d5c:	bf 91       	pop	r27
     d5e:	af 91       	pop	r26
     d60:	9f 91       	pop	r25
     d62:	8f 91       	pop	r24
     d64:	7f 91       	pop	r23
     d66:	6f 91       	pop	r22
     d68:	5f 91       	pop	r21
     d6a:	4f 91       	pop	r20
     d6c:	3f 91       	pop	r19
     d6e:	2f 91       	pop	r18
     d70:	0f 90       	pop	r0
     d72:	0b be       	out	0x3b, r0	; 59
     d74:	0f 90       	pop	r0
     d76:	0f be       	out	0x3f, r0	; 63
     d78:	0f 90       	pop	r0
     d7a:	1f 90       	pop	r1
     d7c:	18 95       	reti

00000d7e <__umoddi3>:
     d7e:	68 94       	set
     d80:	01 c0       	rjmp	.+2      	; 0xd84 <__udivdi3_umoddi3>

00000d82 <__udivdi3>:
     d82:	e8 94       	clt

00000d84 <__udivdi3_umoddi3>:
     d84:	8f 92       	push	r8
     d86:	9f 92       	push	r9
     d88:	cf 93       	push	r28
     d8a:	df 93       	push	r29
     d8c:	05 d0       	rcall	.+10     	; 0xd98 <__udivmod64>
     d8e:	df 91       	pop	r29
     d90:	cf 91       	pop	r28
     d92:	9f 90       	pop	r9
     d94:	8f 90       	pop	r8
     d96:	08 95       	ret

00000d98 <__udivmod64>:
     d98:	88 24       	eor	r8, r8
     d9a:	99 24       	eor	r9, r9
     d9c:	f4 01       	movw	r30, r8
     d9e:	e4 01       	movw	r28, r8
     da0:	b0 e4       	ldi	r27, 0x40	; 64
     da2:	9f 93       	push	r25
     da4:	aa 27       	eor	r26, r26
     da6:	9a 15       	cp	r25, r10
     da8:	8b 04       	cpc	r8, r11
     daa:	9c 04       	cpc	r9, r12
     dac:	ed 05       	cpc	r30, r13
     dae:	fe 05       	cpc	r31, r14
     db0:	cf 05       	cpc	r28, r15
     db2:	d0 07       	cpc	r29, r16
     db4:	a1 07       	cpc	r26, r17
     db6:	98 f4       	brcc	.+38     	; 0xdde <__udivmod64+0x46>
     db8:	ad 2f       	mov	r26, r29
     dba:	dc 2f       	mov	r29, r28
     dbc:	cf 2f       	mov	r28, r31
     dbe:	fe 2f       	mov	r31, r30
     dc0:	e9 2d       	mov	r30, r9
     dc2:	98 2c       	mov	r9, r8
     dc4:	89 2e       	mov	r8, r25
     dc6:	98 2f       	mov	r25, r24
     dc8:	87 2f       	mov	r24, r23
     dca:	76 2f       	mov	r23, r22
     dcc:	65 2f       	mov	r22, r21
     dce:	54 2f       	mov	r21, r20
     dd0:	43 2f       	mov	r20, r19
     dd2:	32 2f       	mov	r19, r18
     dd4:	22 27       	eor	r18, r18
     dd6:	b8 50       	subi	r27, 0x08	; 8
     dd8:	31 f7       	brne	.-52     	; 0xda6 <__udivmod64+0xe>
     dda:	bf 91       	pop	r27
     ddc:	27 c0       	rjmp	.+78     	; 0xe2c <__udivmod64+0x94>
     dde:	1b 2e       	mov	r1, r27
     de0:	bf 91       	pop	r27
     de2:	bb 27       	eor	r27, r27
     de4:	22 0f       	add	r18, r18
     de6:	33 1f       	adc	r19, r19
     de8:	44 1f       	adc	r20, r20
     dea:	55 1f       	adc	r21, r21
     dec:	66 1f       	adc	r22, r22
     dee:	77 1f       	adc	r23, r23
     df0:	88 1f       	adc	r24, r24
     df2:	99 1f       	adc	r25, r25
     df4:	88 1c       	adc	r8, r8
     df6:	99 1c       	adc	r9, r9
     df8:	ee 1f       	adc	r30, r30
     dfa:	ff 1f       	adc	r31, r31
     dfc:	cc 1f       	adc	r28, r28
     dfe:	dd 1f       	adc	r29, r29
     e00:	aa 1f       	adc	r26, r26
     e02:	bb 1f       	adc	r27, r27
     e04:	8a 14       	cp	r8, r10
     e06:	9b 04       	cpc	r9, r11
     e08:	ec 05       	cpc	r30, r12
     e0a:	fd 05       	cpc	r31, r13
     e0c:	ce 05       	cpc	r28, r14
     e0e:	df 05       	cpc	r29, r15
     e10:	a0 07       	cpc	r26, r16
     e12:	b1 07       	cpc	r27, r17
     e14:	48 f0       	brcs	.+18     	; 0xe28 <__udivmod64+0x90>
     e16:	8a 18       	sub	r8, r10
     e18:	9b 08       	sbc	r9, r11
     e1a:	ec 09       	sbc	r30, r12
     e1c:	fd 09       	sbc	r31, r13
     e1e:	ce 09       	sbc	r28, r14
     e20:	df 09       	sbc	r29, r15
     e22:	a0 0b       	sbc	r26, r16
     e24:	b1 0b       	sbc	r27, r17
     e26:	21 60       	ori	r18, 0x01	; 1
     e28:	1a 94       	dec	r1
     e2a:	e1 f6       	brne	.-72     	; 0xde4 <__udivmod64+0x4c>
     e2c:	2e f4       	brtc	.+10     	; 0xe38 <__udivmod64+0xa0>
     e2e:	94 01       	movw	r18, r8
     e30:	af 01       	movw	r20, r30
     e32:	be 01       	movw	r22, r28
     e34:	cd 01       	movw	r24, r26
     e36:	00 0c       	add	r0, r0
     e38:	08 95       	ret

00000e3a <__adddi3_s8>:
     e3a:	00 24       	eor	r0, r0
     e3c:	a7 fd       	sbrc	r26, 7
     e3e:	00 94       	com	r0
     e40:	2a 0f       	add	r18, r26
     e42:	30 1d       	adc	r19, r0
     e44:	40 1d       	adc	r20, r0
     e46:	50 1d       	adc	r21, r0
     e48:	60 1d       	adc	r22, r0
     e4a:	70 1d       	adc	r23, r0
     e4c:	80 1d       	adc	r24, r0
     e4e:	90 1d       	adc	r25, r0
     e50:	08 95       	ret

00000e52 <strcmp>:
     e52:	fb 01       	movw	r30, r22
     e54:	dc 01       	movw	r26, r24
     e56:	8d 91       	ld	r24, X+
     e58:	01 90       	ld	r0, Z+
     e5a:	80 19       	sub	r24, r0
     e5c:	01 10       	cpse	r0, r1
     e5e:	d9 f3       	breq	.-10     	; 0xe56 <strcmp+0x4>
     e60:	99 0b       	sbc	r25, r25
     e62:	08 95       	ret

00000e64 <vsnprintf>:
     e64:	0f 93       	push	r16
     e66:	1f 93       	push	r17
     e68:	cf 93       	push	r28
     e6a:	df 93       	push	r29
     e6c:	cd b7       	in	r28, 0x3d	; 61
     e6e:	de b7       	in	r29, 0x3e	; 62
     e70:	2e 97       	sbiw	r28, 0x0e	; 14
     e72:	0f b6       	in	r0, 0x3f	; 63
     e74:	f8 94       	cli
     e76:	de bf       	out	0x3e, r29	; 62
     e78:	0f be       	out	0x3f, r0	; 63
     e7a:	cd bf       	out	0x3d, r28	; 61
     e7c:	8c 01       	movw	r16, r24
     e7e:	fa 01       	movw	r30, r20
     e80:	86 e0       	ldi	r24, 0x06	; 6
     e82:	8c 83       	std	Y+4, r24	; 0x04
     e84:	1a 83       	std	Y+2, r17	; 0x02
     e86:	09 83       	std	Y+1, r16	; 0x01
     e88:	77 ff       	sbrs	r23, 7
     e8a:	02 c0       	rjmp	.+4      	; 0xe90 <vsnprintf+0x2c>
     e8c:	60 e0       	ldi	r22, 0x00	; 0
     e8e:	70 e8       	ldi	r23, 0x80	; 128
     e90:	cb 01       	movw	r24, r22
     e92:	01 97       	sbiw	r24, 0x01	; 1
     e94:	9e 83       	std	Y+6, r25	; 0x06
     e96:	8d 83       	std	Y+5, r24	; 0x05
     e98:	a9 01       	movw	r20, r18
     e9a:	bf 01       	movw	r22, r30
     e9c:	ce 01       	movw	r24, r28
     e9e:	01 96       	adiw	r24, 0x01	; 1
     ea0:	19 d0       	rcall	.+50     	; 0xed4 <vfprintf>
     ea2:	4d 81       	ldd	r20, Y+5	; 0x05
     ea4:	5e 81       	ldd	r21, Y+6	; 0x06
     ea6:	57 fd       	sbrc	r21, 7
     ea8:	0a c0       	rjmp	.+20     	; 0xebe <vsnprintf+0x5a>
     eaa:	2f 81       	ldd	r18, Y+7	; 0x07
     eac:	38 85       	ldd	r19, Y+8	; 0x08
     eae:	42 17       	cp	r20, r18
     eb0:	53 07       	cpc	r21, r19
     eb2:	0c f4       	brge	.+2      	; 0xeb6 <vsnprintf+0x52>
     eb4:	9a 01       	movw	r18, r20
     eb6:	f8 01       	movw	r30, r16
     eb8:	e2 0f       	add	r30, r18
     eba:	f3 1f       	adc	r31, r19
     ebc:	10 82       	st	Z, r1
     ebe:	2e 96       	adiw	r28, 0x0e	; 14
     ec0:	0f b6       	in	r0, 0x3f	; 63
     ec2:	f8 94       	cli
     ec4:	de bf       	out	0x3e, r29	; 62
     ec6:	0f be       	out	0x3f, r0	; 63
     ec8:	cd bf       	out	0x3d, r28	; 61
     eca:	df 91       	pop	r29
     ecc:	cf 91       	pop	r28
     ece:	1f 91       	pop	r17
     ed0:	0f 91       	pop	r16
     ed2:	08 95       	ret

00000ed4 <vfprintf>:
     ed4:	2f 92       	push	r2
     ed6:	3f 92       	push	r3
     ed8:	4f 92       	push	r4
     eda:	5f 92       	push	r5
     edc:	6f 92       	push	r6
     ede:	7f 92       	push	r7
     ee0:	8f 92       	push	r8
     ee2:	9f 92       	push	r9
     ee4:	af 92       	push	r10
     ee6:	bf 92       	push	r11
     ee8:	cf 92       	push	r12
     eea:	df 92       	push	r13
     eec:	ef 92       	push	r14
     eee:	ff 92       	push	r15
     ef0:	0f 93       	push	r16
     ef2:	1f 93       	push	r17
     ef4:	cf 93       	push	r28
     ef6:	df 93       	push	r29
     ef8:	cd b7       	in	r28, 0x3d	; 61
     efa:	de b7       	in	r29, 0x3e	; 62
     efc:	2b 97       	sbiw	r28, 0x0b	; 11
     efe:	0f b6       	in	r0, 0x3f	; 63
     f00:	f8 94       	cli
     f02:	de bf       	out	0x3e, r29	; 62
     f04:	0f be       	out	0x3f, r0	; 63
     f06:	cd bf       	out	0x3d, r28	; 61
     f08:	6c 01       	movw	r12, r24
     f0a:	7b 01       	movw	r14, r22
     f0c:	8a 01       	movw	r16, r20
     f0e:	fc 01       	movw	r30, r24
     f10:	17 82       	std	Z+7, r1	; 0x07
     f12:	16 82       	std	Z+6, r1	; 0x06
     f14:	83 81       	ldd	r24, Z+3	; 0x03
     f16:	81 ff       	sbrs	r24, 1
     f18:	bf c1       	rjmp	.+894    	; 0x1298 <vfprintf+0x3c4>
     f1a:	ce 01       	movw	r24, r28
     f1c:	01 96       	adiw	r24, 0x01	; 1
     f1e:	3c 01       	movw	r6, r24
     f20:	f6 01       	movw	r30, r12
     f22:	93 81       	ldd	r25, Z+3	; 0x03
     f24:	f7 01       	movw	r30, r14
     f26:	93 fd       	sbrc	r25, 3
     f28:	85 91       	lpm	r24, Z+
     f2a:	93 ff       	sbrs	r25, 3
     f2c:	81 91       	ld	r24, Z+
     f2e:	7f 01       	movw	r14, r30
     f30:	88 23       	and	r24, r24
     f32:	09 f4       	brne	.+2      	; 0xf36 <vfprintf+0x62>
     f34:	ad c1       	rjmp	.+858    	; 0x1290 <vfprintf+0x3bc>
     f36:	85 32       	cpi	r24, 0x25	; 37
     f38:	39 f4       	brne	.+14     	; 0xf48 <vfprintf+0x74>
     f3a:	93 fd       	sbrc	r25, 3
     f3c:	85 91       	lpm	r24, Z+
     f3e:	93 ff       	sbrs	r25, 3
     f40:	81 91       	ld	r24, Z+
     f42:	7f 01       	movw	r14, r30
     f44:	85 32       	cpi	r24, 0x25	; 37
     f46:	21 f4       	brne	.+8      	; 0xf50 <vfprintf+0x7c>
     f48:	b6 01       	movw	r22, r12
     f4a:	90 e0       	ldi	r25, 0x00	; 0
     f4c:	d6 d1       	rcall	.+940    	; 0x12fa <fputc>
     f4e:	e8 cf       	rjmp	.-48     	; 0xf20 <vfprintf+0x4c>
     f50:	91 2c       	mov	r9, r1
     f52:	21 2c       	mov	r2, r1
     f54:	31 2c       	mov	r3, r1
     f56:	ff e1       	ldi	r31, 0x1F	; 31
     f58:	f3 15       	cp	r31, r3
     f5a:	d8 f0       	brcs	.+54     	; 0xf92 <vfprintf+0xbe>
     f5c:	8b 32       	cpi	r24, 0x2B	; 43
     f5e:	79 f0       	breq	.+30     	; 0xf7e <vfprintf+0xaa>
     f60:	38 f4       	brcc	.+14     	; 0xf70 <vfprintf+0x9c>
     f62:	80 32       	cpi	r24, 0x20	; 32
     f64:	79 f0       	breq	.+30     	; 0xf84 <vfprintf+0xb0>
     f66:	83 32       	cpi	r24, 0x23	; 35
     f68:	a1 f4       	brne	.+40     	; 0xf92 <vfprintf+0xbe>
     f6a:	23 2d       	mov	r18, r3
     f6c:	20 61       	ori	r18, 0x10	; 16
     f6e:	1d c0       	rjmp	.+58     	; 0xfaa <vfprintf+0xd6>
     f70:	8d 32       	cpi	r24, 0x2D	; 45
     f72:	61 f0       	breq	.+24     	; 0xf8c <vfprintf+0xb8>
     f74:	80 33       	cpi	r24, 0x30	; 48
     f76:	69 f4       	brne	.+26     	; 0xf92 <vfprintf+0xbe>
     f78:	23 2d       	mov	r18, r3
     f7a:	21 60       	ori	r18, 0x01	; 1
     f7c:	16 c0       	rjmp	.+44     	; 0xfaa <vfprintf+0xd6>
     f7e:	83 2d       	mov	r24, r3
     f80:	82 60       	ori	r24, 0x02	; 2
     f82:	38 2e       	mov	r3, r24
     f84:	e3 2d       	mov	r30, r3
     f86:	e4 60       	ori	r30, 0x04	; 4
     f88:	3e 2e       	mov	r3, r30
     f8a:	2a c0       	rjmp	.+84     	; 0xfe0 <vfprintf+0x10c>
     f8c:	f3 2d       	mov	r31, r3
     f8e:	f8 60       	ori	r31, 0x08	; 8
     f90:	1d c0       	rjmp	.+58     	; 0xfcc <vfprintf+0xf8>
     f92:	37 fc       	sbrc	r3, 7
     f94:	2d c0       	rjmp	.+90     	; 0xff0 <vfprintf+0x11c>
     f96:	20 ed       	ldi	r18, 0xD0	; 208
     f98:	28 0f       	add	r18, r24
     f9a:	2a 30       	cpi	r18, 0x0A	; 10
     f9c:	40 f0       	brcs	.+16     	; 0xfae <vfprintf+0xda>
     f9e:	8e 32       	cpi	r24, 0x2E	; 46
     fa0:	b9 f4       	brne	.+46     	; 0xfd0 <vfprintf+0xfc>
     fa2:	36 fc       	sbrc	r3, 6
     fa4:	75 c1       	rjmp	.+746    	; 0x1290 <vfprintf+0x3bc>
     fa6:	23 2d       	mov	r18, r3
     fa8:	20 64       	ori	r18, 0x40	; 64
     faa:	32 2e       	mov	r3, r18
     fac:	19 c0       	rjmp	.+50     	; 0xfe0 <vfprintf+0x10c>
     fae:	36 fe       	sbrs	r3, 6
     fb0:	06 c0       	rjmp	.+12     	; 0xfbe <vfprintf+0xea>
     fb2:	8a e0       	ldi	r24, 0x0A	; 10
     fb4:	98 9e       	mul	r9, r24
     fb6:	20 0d       	add	r18, r0
     fb8:	11 24       	eor	r1, r1
     fba:	92 2e       	mov	r9, r18
     fbc:	11 c0       	rjmp	.+34     	; 0xfe0 <vfprintf+0x10c>
     fbe:	ea e0       	ldi	r30, 0x0A	; 10
     fc0:	2e 9e       	mul	r2, r30
     fc2:	20 0d       	add	r18, r0
     fc4:	11 24       	eor	r1, r1
     fc6:	22 2e       	mov	r2, r18
     fc8:	f3 2d       	mov	r31, r3
     fca:	f0 62       	ori	r31, 0x20	; 32
     fcc:	3f 2e       	mov	r3, r31
     fce:	08 c0       	rjmp	.+16     	; 0xfe0 <vfprintf+0x10c>
     fd0:	8c 36       	cpi	r24, 0x6C	; 108
     fd2:	21 f4       	brne	.+8      	; 0xfdc <vfprintf+0x108>
     fd4:	83 2d       	mov	r24, r3
     fd6:	80 68       	ori	r24, 0x80	; 128
     fd8:	38 2e       	mov	r3, r24
     fda:	02 c0       	rjmp	.+4      	; 0xfe0 <vfprintf+0x10c>
     fdc:	88 36       	cpi	r24, 0x68	; 104
     fde:	41 f4       	brne	.+16     	; 0xff0 <vfprintf+0x11c>
     fe0:	f7 01       	movw	r30, r14
     fe2:	93 fd       	sbrc	r25, 3
     fe4:	85 91       	lpm	r24, Z+
     fe6:	93 ff       	sbrs	r25, 3
     fe8:	81 91       	ld	r24, Z+
     fea:	7f 01       	movw	r14, r30
     fec:	81 11       	cpse	r24, r1
     fee:	b3 cf       	rjmp	.-154    	; 0xf56 <vfprintf+0x82>
     ff0:	98 2f       	mov	r25, r24
     ff2:	9f 7d       	andi	r25, 0xDF	; 223
     ff4:	95 54       	subi	r25, 0x45	; 69
     ff6:	93 30       	cpi	r25, 0x03	; 3
     ff8:	28 f4       	brcc	.+10     	; 0x1004 <vfprintf+0x130>
     ffa:	0c 5f       	subi	r16, 0xFC	; 252
     ffc:	1f 4f       	sbci	r17, 0xFF	; 255
     ffe:	9f e3       	ldi	r25, 0x3F	; 63
    1000:	99 83       	std	Y+1, r25	; 0x01
    1002:	0d c0       	rjmp	.+26     	; 0x101e <vfprintf+0x14a>
    1004:	83 36       	cpi	r24, 0x63	; 99
    1006:	31 f0       	breq	.+12     	; 0x1014 <vfprintf+0x140>
    1008:	83 37       	cpi	r24, 0x73	; 115
    100a:	71 f0       	breq	.+28     	; 0x1028 <vfprintf+0x154>
    100c:	83 35       	cpi	r24, 0x53	; 83
    100e:	09 f0       	breq	.+2      	; 0x1012 <vfprintf+0x13e>
    1010:	55 c0       	rjmp	.+170    	; 0x10bc <vfprintf+0x1e8>
    1012:	20 c0       	rjmp	.+64     	; 0x1054 <vfprintf+0x180>
    1014:	f8 01       	movw	r30, r16
    1016:	80 81       	ld	r24, Z
    1018:	89 83       	std	Y+1, r24	; 0x01
    101a:	0e 5f       	subi	r16, 0xFE	; 254
    101c:	1f 4f       	sbci	r17, 0xFF	; 255
    101e:	88 24       	eor	r8, r8
    1020:	83 94       	inc	r8
    1022:	91 2c       	mov	r9, r1
    1024:	53 01       	movw	r10, r6
    1026:	12 c0       	rjmp	.+36     	; 0x104c <vfprintf+0x178>
    1028:	28 01       	movw	r4, r16
    102a:	f2 e0       	ldi	r31, 0x02	; 2
    102c:	4f 0e       	add	r4, r31
    102e:	51 1c       	adc	r5, r1
    1030:	f8 01       	movw	r30, r16
    1032:	a0 80       	ld	r10, Z
    1034:	b1 80       	ldd	r11, Z+1	; 0x01
    1036:	36 fe       	sbrs	r3, 6
    1038:	03 c0       	rjmp	.+6      	; 0x1040 <vfprintf+0x16c>
    103a:	69 2d       	mov	r22, r9
    103c:	70 e0       	ldi	r23, 0x00	; 0
    103e:	02 c0       	rjmp	.+4      	; 0x1044 <vfprintf+0x170>
    1040:	6f ef       	ldi	r22, 0xFF	; 255
    1042:	7f ef       	ldi	r23, 0xFF	; 255
    1044:	c5 01       	movw	r24, r10
    1046:	4e d1       	rcall	.+668    	; 0x12e4 <strnlen>
    1048:	4c 01       	movw	r8, r24
    104a:	82 01       	movw	r16, r4
    104c:	f3 2d       	mov	r31, r3
    104e:	ff 77       	andi	r31, 0x7F	; 127
    1050:	3f 2e       	mov	r3, r31
    1052:	15 c0       	rjmp	.+42     	; 0x107e <vfprintf+0x1aa>
    1054:	28 01       	movw	r4, r16
    1056:	22 e0       	ldi	r18, 0x02	; 2
    1058:	42 0e       	add	r4, r18
    105a:	51 1c       	adc	r5, r1
    105c:	f8 01       	movw	r30, r16
    105e:	a0 80       	ld	r10, Z
    1060:	b1 80       	ldd	r11, Z+1	; 0x01
    1062:	36 fe       	sbrs	r3, 6
    1064:	03 c0       	rjmp	.+6      	; 0x106c <vfprintf+0x198>
    1066:	69 2d       	mov	r22, r9
    1068:	70 e0       	ldi	r23, 0x00	; 0
    106a:	02 c0       	rjmp	.+4      	; 0x1070 <vfprintf+0x19c>
    106c:	6f ef       	ldi	r22, 0xFF	; 255
    106e:	7f ef       	ldi	r23, 0xFF	; 255
    1070:	c5 01       	movw	r24, r10
    1072:	2d d1       	rcall	.+602    	; 0x12ce <strnlen_P>
    1074:	4c 01       	movw	r8, r24
    1076:	f3 2d       	mov	r31, r3
    1078:	f0 68       	ori	r31, 0x80	; 128
    107a:	3f 2e       	mov	r3, r31
    107c:	82 01       	movw	r16, r4
    107e:	33 fc       	sbrc	r3, 3
    1080:	19 c0       	rjmp	.+50     	; 0x10b4 <vfprintf+0x1e0>
    1082:	82 2d       	mov	r24, r2
    1084:	90 e0       	ldi	r25, 0x00	; 0
    1086:	88 16       	cp	r8, r24
    1088:	99 06       	cpc	r9, r25
    108a:	a0 f4       	brcc	.+40     	; 0x10b4 <vfprintf+0x1e0>
    108c:	b6 01       	movw	r22, r12
    108e:	80 e2       	ldi	r24, 0x20	; 32
    1090:	90 e0       	ldi	r25, 0x00	; 0
    1092:	33 d1       	rcall	.+614    	; 0x12fa <fputc>
    1094:	2a 94       	dec	r2
    1096:	f5 cf       	rjmp	.-22     	; 0x1082 <vfprintf+0x1ae>
    1098:	f5 01       	movw	r30, r10
    109a:	37 fc       	sbrc	r3, 7
    109c:	85 91       	lpm	r24, Z+
    109e:	37 fe       	sbrs	r3, 7
    10a0:	81 91       	ld	r24, Z+
    10a2:	5f 01       	movw	r10, r30
    10a4:	b6 01       	movw	r22, r12
    10a6:	90 e0       	ldi	r25, 0x00	; 0
    10a8:	28 d1       	rcall	.+592    	; 0x12fa <fputc>
    10aa:	21 10       	cpse	r2, r1
    10ac:	2a 94       	dec	r2
    10ae:	21 e0       	ldi	r18, 0x01	; 1
    10b0:	82 1a       	sub	r8, r18
    10b2:	91 08       	sbc	r9, r1
    10b4:	81 14       	cp	r8, r1
    10b6:	91 04       	cpc	r9, r1
    10b8:	79 f7       	brne	.-34     	; 0x1098 <vfprintf+0x1c4>
    10ba:	e1 c0       	rjmp	.+450    	; 0x127e <vfprintf+0x3aa>
    10bc:	84 36       	cpi	r24, 0x64	; 100
    10be:	11 f0       	breq	.+4      	; 0x10c4 <vfprintf+0x1f0>
    10c0:	89 36       	cpi	r24, 0x69	; 105
    10c2:	39 f5       	brne	.+78     	; 0x1112 <vfprintf+0x23e>
    10c4:	f8 01       	movw	r30, r16
    10c6:	37 fe       	sbrs	r3, 7
    10c8:	07 c0       	rjmp	.+14     	; 0x10d8 <vfprintf+0x204>
    10ca:	60 81       	ld	r22, Z
    10cc:	71 81       	ldd	r23, Z+1	; 0x01
    10ce:	82 81       	ldd	r24, Z+2	; 0x02
    10d0:	93 81       	ldd	r25, Z+3	; 0x03
    10d2:	0c 5f       	subi	r16, 0xFC	; 252
    10d4:	1f 4f       	sbci	r17, 0xFF	; 255
    10d6:	08 c0       	rjmp	.+16     	; 0x10e8 <vfprintf+0x214>
    10d8:	60 81       	ld	r22, Z
    10da:	71 81       	ldd	r23, Z+1	; 0x01
    10dc:	07 2e       	mov	r0, r23
    10de:	00 0c       	add	r0, r0
    10e0:	88 0b       	sbc	r24, r24
    10e2:	99 0b       	sbc	r25, r25
    10e4:	0e 5f       	subi	r16, 0xFE	; 254
    10e6:	1f 4f       	sbci	r17, 0xFF	; 255
    10e8:	f3 2d       	mov	r31, r3
    10ea:	ff 76       	andi	r31, 0x6F	; 111
    10ec:	3f 2e       	mov	r3, r31
    10ee:	97 ff       	sbrs	r25, 7
    10f0:	09 c0       	rjmp	.+18     	; 0x1104 <vfprintf+0x230>
    10f2:	90 95       	com	r25
    10f4:	80 95       	com	r24
    10f6:	70 95       	com	r23
    10f8:	61 95       	neg	r22
    10fa:	7f 4f       	sbci	r23, 0xFF	; 255
    10fc:	8f 4f       	sbci	r24, 0xFF	; 255
    10fe:	9f 4f       	sbci	r25, 0xFF	; 255
    1100:	f0 68       	ori	r31, 0x80	; 128
    1102:	3f 2e       	mov	r3, r31
    1104:	2a e0       	ldi	r18, 0x0A	; 10
    1106:	30 e0       	ldi	r19, 0x00	; 0
    1108:	a3 01       	movw	r20, r6
    110a:	33 d1       	rcall	.+614    	; 0x1372 <__ultoa_invert>
    110c:	88 2e       	mov	r8, r24
    110e:	86 18       	sub	r8, r6
    1110:	44 c0       	rjmp	.+136    	; 0x119a <vfprintf+0x2c6>
    1112:	85 37       	cpi	r24, 0x75	; 117
    1114:	31 f4       	brne	.+12     	; 0x1122 <vfprintf+0x24e>
    1116:	23 2d       	mov	r18, r3
    1118:	2f 7e       	andi	r18, 0xEF	; 239
    111a:	b2 2e       	mov	r11, r18
    111c:	2a e0       	ldi	r18, 0x0A	; 10
    111e:	30 e0       	ldi	r19, 0x00	; 0
    1120:	25 c0       	rjmp	.+74     	; 0x116c <vfprintf+0x298>
    1122:	93 2d       	mov	r25, r3
    1124:	99 7f       	andi	r25, 0xF9	; 249
    1126:	b9 2e       	mov	r11, r25
    1128:	8f 36       	cpi	r24, 0x6F	; 111
    112a:	c1 f0       	breq	.+48     	; 0x115c <vfprintf+0x288>
    112c:	18 f4       	brcc	.+6      	; 0x1134 <vfprintf+0x260>
    112e:	88 35       	cpi	r24, 0x58	; 88
    1130:	79 f0       	breq	.+30     	; 0x1150 <vfprintf+0x27c>
    1132:	ae c0       	rjmp	.+348    	; 0x1290 <vfprintf+0x3bc>
    1134:	80 37       	cpi	r24, 0x70	; 112
    1136:	19 f0       	breq	.+6      	; 0x113e <vfprintf+0x26a>
    1138:	88 37       	cpi	r24, 0x78	; 120
    113a:	21 f0       	breq	.+8      	; 0x1144 <vfprintf+0x270>
    113c:	a9 c0       	rjmp	.+338    	; 0x1290 <vfprintf+0x3bc>
    113e:	e9 2f       	mov	r30, r25
    1140:	e0 61       	ori	r30, 0x10	; 16
    1142:	be 2e       	mov	r11, r30
    1144:	b4 fe       	sbrs	r11, 4
    1146:	0d c0       	rjmp	.+26     	; 0x1162 <vfprintf+0x28e>
    1148:	fb 2d       	mov	r31, r11
    114a:	f4 60       	ori	r31, 0x04	; 4
    114c:	bf 2e       	mov	r11, r31
    114e:	09 c0       	rjmp	.+18     	; 0x1162 <vfprintf+0x28e>
    1150:	34 fe       	sbrs	r3, 4
    1152:	0a c0       	rjmp	.+20     	; 0x1168 <vfprintf+0x294>
    1154:	29 2f       	mov	r18, r25
    1156:	26 60       	ori	r18, 0x06	; 6
    1158:	b2 2e       	mov	r11, r18
    115a:	06 c0       	rjmp	.+12     	; 0x1168 <vfprintf+0x294>
    115c:	28 e0       	ldi	r18, 0x08	; 8
    115e:	30 e0       	ldi	r19, 0x00	; 0
    1160:	05 c0       	rjmp	.+10     	; 0x116c <vfprintf+0x298>
    1162:	20 e1       	ldi	r18, 0x10	; 16
    1164:	30 e0       	ldi	r19, 0x00	; 0
    1166:	02 c0       	rjmp	.+4      	; 0x116c <vfprintf+0x298>
    1168:	20 e1       	ldi	r18, 0x10	; 16
    116a:	32 e0       	ldi	r19, 0x02	; 2
    116c:	f8 01       	movw	r30, r16
    116e:	b7 fe       	sbrs	r11, 7
    1170:	07 c0       	rjmp	.+14     	; 0x1180 <vfprintf+0x2ac>
    1172:	60 81       	ld	r22, Z
    1174:	71 81       	ldd	r23, Z+1	; 0x01
    1176:	82 81       	ldd	r24, Z+2	; 0x02
    1178:	93 81       	ldd	r25, Z+3	; 0x03
    117a:	0c 5f       	subi	r16, 0xFC	; 252
    117c:	1f 4f       	sbci	r17, 0xFF	; 255
    117e:	06 c0       	rjmp	.+12     	; 0x118c <vfprintf+0x2b8>
    1180:	60 81       	ld	r22, Z
    1182:	71 81       	ldd	r23, Z+1	; 0x01
    1184:	80 e0       	ldi	r24, 0x00	; 0
    1186:	90 e0       	ldi	r25, 0x00	; 0
    1188:	0e 5f       	subi	r16, 0xFE	; 254
    118a:	1f 4f       	sbci	r17, 0xFF	; 255
    118c:	a3 01       	movw	r20, r6
    118e:	f1 d0       	rcall	.+482    	; 0x1372 <__ultoa_invert>
    1190:	88 2e       	mov	r8, r24
    1192:	86 18       	sub	r8, r6
    1194:	fb 2d       	mov	r31, r11
    1196:	ff 77       	andi	r31, 0x7F	; 127
    1198:	3f 2e       	mov	r3, r31
    119a:	36 fe       	sbrs	r3, 6
    119c:	0d c0       	rjmp	.+26     	; 0x11b8 <vfprintf+0x2e4>
    119e:	23 2d       	mov	r18, r3
    11a0:	2e 7f       	andi	r18, 0xFE	; 254
    11a2:	a2 2e       	mov	r10, r18
    11a4:	89 14       	cp	r8, r9
    11a6:	58 f4       	brcc	.+22     	; 0x11be <vfprintf+0x2ea>
    11a8:	34 fe       	sbrs	r3, 4
    11aa:	0b c0       	rjmp	.+22     	; 0x11c2 <vfprintf+0x2ee>
    11ac:	32 fc       	sbrc	r3, 2
    11ae:	09 c0       	rjmp	.+18     	; 0x11c2 <vfprintf+0x2ee>
    11b0:	83 2d       	mov	r24, r3
    11b2:	8e 7e       	andi	r24, 0xEE	; 238
    11b4:	a8 2e       	mov	r10, r24
    11b6:	05 c0       	rjmp	.+10     	; 0x11c2 <vfprintf+0x2ee>
    11b8:	b8 2c       	mov	r11, r8
    11ba:	a3 2c       	mov	r10, r3
    11bc:	03 c0       	rjmp	.+6      	; 0x11c4 <vfprintf+0x2f0>
    11be:	b8 2c       	mov	r11, r8
    11c0:	01 c0       	rjmp	.+2      	; 0x11c4 <vfprintf+0x2f0>
    11c2:	b9 2c       	mov	r11, r9
    11c4:	a4 fe       	sbrs	r10, 4
    11c6:	0f c0       	rjmp	.+30     	; 0x11e6 <vfprintf+0x312>
    11c8:	fe 01       	movw	r30, r28
    11ca:	e8 0d       	add	r30, r8
    11cc:	f1 1d       	adc	r31, r1
    11ce:	80 81       	ld	r24, Z
    11d0:	80 33       	cpi	r24, 0x30	; 48
    11d2:	21 f4       	brne	.+8      	; 0x11dc <vfprintf+0x308>
    11d4:	9a 2d       	mov	r25, r10
    11d6:	99 7e       	andi	r25, 0xE9	; 233
    11d8:	a9 2e       	mov	r10, r25
    11da:	09 c0       	rjmp	.+18     	; 0x11ee <vfprintf+0x31a>
    11dc:	a2 fe       	sbrs	r10, 2
    11de:	06 c0       	rjmp	.+12     	; 0x11ec <vfprintf+0x318>
    11e0:	b3 94       	inc	r11
    11e2:	b3 94       	inc	r11
    11e4:	04 c0       	rjmp	.+8      	; 0x11ee <vfprintf+0x31a>
    11e6:	8a 2d       	mov	r24, r10
    11e8:	86 78       	andi	r24, 0x86	; 134
    11ea:	09 f0       	breq	.+2      	; 0x11ee <vfprintf+0x31a>
    11ec:	b3 94       	inc	r11
    11ee:	a3 fc       	sbrc	r10, 3
    11f0:	10 c0       	rjmp	.+32     	; 0x1212 <vfprintf+0x33e>
    11f2:	a0 fe       	sbrs	r10, 0
    11f4:	06 c0       	rjmp	.+12     	; 0x1202 <vfprintf+0x32e>
    11f6:	b2 14       	cp	r11, r2
    11f8:	80 f4       	brcc	.+32     	; 0x121a <vfprintf+0x346>
    11fa:	28 0c       	add	r2, r8
    11fc:	92 2c       	mov	r9, r2
    11fe:	9b 18       	sub	r9, r11
    1200:	0d c0       	rjmp	.+26     	; 0x121c <vfprintf+0x348>
    1202:	b2 14       	cp	r11, r2
    1204:	58 f4       	brcc	.+22     	; 0x121c <vfprintf+0x348>
    1206:	b6 01       	movw	r22, r12
    1208:	80 e2       	ldi	r24, 0x20	; 32
    120a:	90 e0       	ldi	r25, 0x00	; 0
    120c:	76 d0       	rcall	.+236    	; 0x12fa <fputc>
    120e:	b3 94       	inc	r11
    1210:	f8 cf       	rjmp	.-16     	; 0x1202 <vfprintf+0x32e>
    1212:	b2 14       	cp	r11, r2
    1214:	18 f4       	brcc	.+6      	; 0x121c <vfprintf+0x348>
    1216:	2b 18       	sub	r2, r11
    1218:	02 c0       	rjmp	.+4      	; 0x121e <vfprintf+0x34a>
    121a:	98 2c       	mov	r9, r8
    121c:	21 2c       	mov	r2, r1
    121e:	a4 fe       	sbrs	r10, 4
    1220:	0f c0       	rjmp	.+30     	; 0x1240 <vfprintf+0x36c>
    1222:	b6 01       	movw	r22, r12
    1224:	80 e3       	ldi	r24, 0x30	; 48
    1226:	90 e0       	ldi	r25, 0x00	; 0
    1228:	68 d0       	rcall	.+208    	; 0x12fa <fputc>
    122a:	a2 fe       	sbrs	r10, 2
    122c:	16 c0       	rjmp	.+44     	; 0x125a <vfprintf+0x386>
    122e:	a1 fc       	sbrc	r10, 1
    1230:	03 c0       	rjmp	.+6      	; 0x1238 <vfprintf+0x364>
    1232:	88 e7       	ldi	r24, 0x78	; 120
    1234:	90 e0       	ldi	r25, 0x00	; 0
    1236:	02 c0       	rjmp	.+4      	; 0x123c <vfprintf+0x368>
    1238:	88 e5       	ldi	r24, 0x58	; 88
    123a:	90 e0       	ldi	r25, 0x00	; 0
    123c:	b6 01       	movw	r22, r12
    123e:	0c c0       	rjmp	.+24     	; 0x1258 <vfprintf+0x384>
    1240:	8a 2d       	mov	r24, r10
    1242:	86 78       	andi	r24, 0x86	; 134
    1244:	51 f0       	breq	.+20     	; 0x125a <vfprintf+0x386>
    1246:	a1 fe       	sbrs	r10, 1
    1248:	02 c0       	rjmp	.+4      	; 0x124e <vfprintf+0x37a>
    124a:	8b e2       	ldi	r24, 0x2B	; 43
    124c:	01 c0       	rjmp	.+2      	; 0x1250 <vfprintf+0x37c>
    124e:	80 e2       	ldi	r24, 0x20	; 32
    1250:	a7 fc       	sbrc	r10, 7
    1252:	8d e2       	ldi	r24, 0x2D	; 45
    1254:	b6 01       	movw	r22, r12
    1256:	90 e0       	ldi	r25, 0x00	; 0
    1258:	50 d0       	rcall	.+160    	; 0x12fa <fputc>
    125a:	89 14       	cp	r8, r9
    125c:	30 f4       	brcc	.+12     	; 0x126a <vfprintf+0x396>
    125e:	b6 01       	movw	r22, r12
    1260:	80 e3       	ldi	r24, 0x30	; 48
    1262:	90 e0       	ldi	r25, 0x00	; 0
    1264:	4a d0       	rcall	.+148    	; 0x12fa <fputc>
    1266:	9a 94       	dec	r9
    1268:	f8 cf       	rjmp	.-16     	; 0x125a <vfprintf+0x386>
    126a:	8a 94       	dec	r8
    126c:	f3 01       	movw	r30, r6
    126e:	e8 0d       	add	r30, r8
    1270:	f1 1d       	adc	r31, r1
    1272:	80 81       	ld	r24, Z
    1274:	b6 01       	movw	r22, r12
    1276:	90 e0       	ldi	r25, 0x00	; 0
    1278:	40 d0       	rcall	.+128    	; 0x12fa <fputc>
    127a:	81 10       	cpse	r8, r1
    127c:	f6 cf       	rjmp	.-20     	; 0x126a <vfprintf+0x396>
    127e:	22 20       	and	r2, r2
    1280:	09 f4       	brne	.+2      	; 0x1284 <vfprintf+0x3b0>
    1282:	4e ce       	rjmp	.-868    	; 0xf20 <vfprintf+0x4c>
    1284:	b6 01       	movw	r22, r12
    1286:	80 e2       	ldi	r24, 0x20	; 32
    1288:	90 e0       	ldi	r25, 0x00	; 0
    128a:	37 d0       	rcall	.+110    	; 0x12fa <fputc>
    128c:	2a 94       	dec	r2
    128e:	f7 cf       	rjmp	.-18     	; 0x127e <vfprintf+0x3aa>
    1290:	f6 01       	movw	r30, r12
    1292:	86 81       	ldd	r24, Z+6	; 0x06
    1294:	97 81       	ldd	r25, Z+7	; 0x07
    1296:	02 c0       	rjmp	.+4      	; 0x129c <vfprintf+0x3c8>
    1298:	8f ef       	ldi	r24, 0xFF	; 255
    129a:	9f ef       	ldi	r25, 0xFF	; 255
    129c:	2b 96       	adiw	r28, 0x0b	; 11
    129e:	0f b6       	in	r0, 0x3f	; 63
    12a0:	f8 94       	cli
    12a2:	de bf       	out	0x3e, r29	; 62
    12a4:	0f be       	out	0x3f, r0	; 63
    12a6:	cd bf       	out	0x3d, r28	; 61
    12a8:	df 91       	pop	r29
    12aa:	cf 91       	pop	r28
    12ac:	1f 91       	pop	r17
    12ae:	0f 91       	pop	r16
    12b0:	ff 90       	pop	r15
    12b2:	ef 90       	pop	r14
    12b4:	df 90       	pop	r13
    12b6:	cf 90       	pop	r12
    12b8:	bf 90       	pop	r11
    12ba:	af 90       	pop	r10
    12bc:	9f 90       	pop	r9
    12be:	8f 90       	pop	r8
    12c0:	7f 90       	pop	r7
    12c2:	6f 90       	pop	r6
    12c4:	5f 90       	pop	r5
    12c6:	4f 90       	pop	r4
    12c8:	3f 90       	pop	r3
    12ca:	2f 90       	pop	r2
    12cc:	08 95       	ret

000012ce <strnlen_P>:
    12ce:	fc 01       	movw	r30, r24
    12d0:	05 90       	lpm	r0, Z+
    12d2:	61 50       	subi	r22, 0x01	; 1
    12d4:	70 40       	sbci	r23, 0x00	; 0
    12d6:	01 10       	cpse	r0, r1
    12d8:	d8 f7       	brcc	.-10     	; 0x12d0 <strnlen_P+0x2>
    12da:	80 95       	com	r24
    12dc:	90 95       	com	r25
    12de:	8e 0f       	add	r24, r30
    12e0:	9f 1f       	adc	r25, r31
    12e2:	08 95       	ret

000012e4 <strnlen>:
    12e4:	fc 01       	movw	r30, r24
    12e6:	61 50       	subi	r22, 0x01	; 1
    12e8:	70 40       	sbci	r23, 0x00	; 0
    12ea:	01 90       	ld	r0, Z+
    12ec:	01 10       	cpse	r0, r1
    12ee:	d8 f7       	brcc	.-10     	; 0x12e6 <strnlen+0x2>
    12f0:	80 95       	com	r24
    12f2:	90 95       	com	r25
    12f4:	8e 0f       	add	r24, r30
    12f6:	9f 1f       	adc	r25, r31
    12f8:	08 95       	ret

000012fa <fputc>:
    12fa:	0f 93       	push	r16
    12fc:	1f 93       	push	r17
    12fe:	cf 93       	push	r28
    1300:	df 93       	push	r29
    1302:	fb 01       	movw	r30, r22
    1304:	23 81       	ldd	r18, Z+3	; 0x03
    1306:	21 fd       	sbrc	r18, 1
    1308:	03 c0       	rjmp	.+6      	; 0x1310 <fputc+0x16>
    130a:	8f ef       	ldi	r24, 0xFF	; 255
    130c:	9f ef       	ldi	r25, 0xFF	; 255
    130e:	2c c0       	rjmp	.+88     	; 0x1368 <fputc+0x6e>
    1310:	22 ff       	sbrs	r18, 2
    1312:	16 c0       	rjmp	.+44     	; 0x1340 <fputc+0x46>
    1314:	46 81       	ldd	r20, Z+6	; 0x06
    1316:	57 81       	ldd	r21, Z+7	; 0x07
    1318:	24 81       	ldd	r18, Z+4	; 0x04
    131a:	35 81       	ldd	r19, Z+5	; 0x05
    131c:	42 17       	cp	r20, r18
    131e:	53 07       	cpc	r21, r19
    1320:	44 f4       	brge	.+16     	; 0x1332 <fputc+0x38>
    1322:	a0 81       	ld	r26, Z
    1324:	b1 81       	ldd	r27, Z+1	; 0x01
    1326:	9d 01       	movw	r18, r26
    1328:	2f 5f       	subi	r18, 0xFF	; 255
    132a:	3f 4f       	sbci	r19, 0xFF	; 255
    132c:	31 83       	std	Z+1, r19	; 0x01
    132e:	20 83       	st	Z, r18
    1330:	8c 93       	st	X, r24
    1332:	26 81       	ldd	r18, Z+6	; 0x06
    1334:	37 81       	ldd	r19, Z+7	; 0x07
    1336:	2f 5f       	subi	r18, 0xFF	; 255
    1338:	3f 4f       	sbci	r19, 0xFF	; 255
    133a:	37 83       	std	Z+7, r19	; 0x07
    133c:	26 83       	std	Z+6, r18	; 0x06
    133e:	14 c0       	rjmp	.+40     	; 0x1368 <fputc+0x6e>
    1340:	8b 01       	movw	r16, r22
    1342:	ec 01       	movw	r28, r24
    1344:	fb 01       	movw	r30, r22
    1346:	00 84       	ldd	r0, Z+8	; 0x08
    1348:	f1 85       	ldd	r31, Z+9	; 0x09
    134a:	e0 2d       	mov	r30, r0
    134c:	19 95       	eicall
    134e:	89 2b       	or	r24, r25
    1350:	e1 f6       	brne	.-72     	; 0x130a <fputc+0x10>
    1352:	d8 01       	movw	r26, r16
    1354:	16 96       	adiw	r26, 0x06	; 6
    1356:	8d 91       	ld	r24, X+
    1358:	9c 91       	ld	r25, X
    135a:	17 97       	sbiw	r26, 0x07	; 7
    135c:	01 96       	adiw	r24, 0x01	; 1
    135e:	17 96       	adiw	r26, 0x07	; 7
    1360:	9c 93       	st	X, r25
    1362:	8e 93       	st	-X, r24
    1364:	16 97       	sbiw	r26, 0x06	; 6
    1366:	ce 01       	movw	r24, r28
    1368:	df 91       	pop	r29
    136a:	cf 91       	pop	r28
    136c:	1f 91       	pop	r17
    136e:	0f 91       	pop	r16
    1370:	08 95       	ret

00001372 <__ultoa_invert>:
    1372:	fa 01       	movw	r30, r20
    1374:	aa 27       	eor	r26, r26
    1376:	28 30       	cpi	r18, 0x08	; 8
    1378:	51 f1       	breq	.+84     	; 0x13ce <__ultoa_invert+0x5c>
    137a:	20 31       	cpi	r18, 0x10	; 16
    137c:	81 f1       	breq	.+96     	; 0x13de <__ultoa_invert+0x6c>
    137e:	e8 94       	clt
    1380:	6f 93       	push	r22
    1382:	6e 7f       	andi	r22, 0xFE	; 254
    1384:	6e 5f       	subi	r22, 0xFE	; 254
    1386:	7f 4f       	sbci	r23, 0xFF	; 255
    1388:	8f 4f       	sbci	r24, 0xFF	; 255
    138a:	9f 4f       	sbci	r25, 0xFF	; 255
    138c:	af 4f       	sbci	r26, 0xFF	; 255
    138e:	b1 e0       	ldi	r27, 0x01	; 1
    1390:	3e d0       	rcall	.+124    	; 0x140e <__ultoa_invert+0x9c>
    1392:	b4 e0       	ldi	r27, 0x04	; 4
    1394:	3c d0       	rcall	.+120    	; 0x140e <__ultoa_invert+0x9c>
    1396:	67 0f       	add	r22, r23
    1398:	78 1f       	adc	r23, r24
    139a:	89 1f       	adc	r24, r25
    139c:	9a 1f       	adc	r25, r26
    139e:	a1 1d       	adc	r26, r1
    13a0:	68 0f       	add	r22, r24
    13a2:	79 1f       	adc	r23, r25
    13a4:	8a 1f       	adc	r24, r26
    13a6:	91 1d       	adc	r25, r1
    13a8:	a1 1d       	adc	r26, r1
    13aa:	6a 0f       	add	r22, r26
    13ac:	71 1d       	adc	r23, r1
    13ae:	81 1d       	adc	r24, r1
    13b0:	91 1d       	adc	r25, r1
    13b2:	a1 1d       	adc	r26, r1
    13b4:	20 d0       	rcall	.+64     	; 0x13f6 <__ultoa_invert+0x84>
    13b6:	09 f4       	brne	.+2      	; 0x13ba <__ultoa_invert+0x48>
    13b8:	68 94       	set
    13ba:	3f 91       	pop	r19
    13bc:	2a e0       	ldi	r18, 0x0A	; 10
    13be:	26 9f       	mul	r18, r22
    13c0:	11 24       	eor	r1, r1
    13c2:	30 19       	sub	r19, r0
    13c4:	30 5d       	subi	r19, 0xD0	; 208
    13c6:	31 93       	st	Z+, r19
    13c8:	de f6       	brtc	.-74     	; 0x1380 <__ultoa_invert+0xe>
    13ca:	cf 01       	movw	r24, r30
    13cc:	08 95       	ret
    13ce:	46 2f       	mov	r20, r22
    13d0:	47 70       	andi	r20, 0x07	; 7
    13d2:	40 5d       	subi	r20, 0xD0	; 208
    13d4:	41 93       	st	Z+, r20
    13d6:	b3 e0       	ldi	r27, 0x03	; 3
    13d8:	0f d0       	rcall	.+30     	; 0x13f8 <__ultoa_invert+0x86>
    13da:	c9 f7       	brne	.-14     	; 0x13ce <__ultoa_invert+0x5c>
    13dc:	f6 cf       	rjmp	.-20     	; 0x13ca <__ultoa_invert+0x58>
    13de:	46 2f       	mov	r20, r22
    13e0:	4f 70       	andi	r20, 0x0F	; 15
    13e2:	40 5d       	subi	r20, 0xD0	; 208
    13e4:	4a 33       	cpi	r20, 0x3A	; 58
    13e6:	18 f0       	brcs	.+6      	; 0x13ee <__ultoa_invert+0x7c>
    13e8:	49 5d       	subi	r20, 0xD9	; 217
    13ea:	31 fd       	sbrc	r19, 1
    13ec:	40 52       	subi	r20, 0x20	; 32
    13ee:	41 93       	st	Z+, r20
    13f0:	02 d0       	rcall	.+4      	; 0x13f6 <__ultoa_invert+0x84>
    13f2:	a9 f7       	brne	.-22     	; 0x13de <__ultoa_invert+0x6c>
    13f4:	ea cf       	rjmp	.-44     	; 0x13ca <__ultoa_invert+0x58>
    13f6:	b4 e0       	ldi	r27, 0x04	; 4
    13f8:	a6 95       	lsr	r26
    13fa:	97 95       	ror	r25
    13fc:	87 95       	ror	r24
    13fe:	77 95       	ror	r23
    1400:	67 95       	ror	r22
    1402:	ba 95       	dec	r27
    1404:	c9 f7       	brne	.-14     	; 0x13f8 <__ultoa_invert+0x86>
    1406:	00 97       	sbiw	r24, 0x00	; 0
    1408:	61 05       	cpc	r22, r1
    140a:	71 05       	cpc	r23, r1
    140c:	08 95       	ret
    140e:	9b 01       	movw	r18, r22
    1410:	ac 01       	movw	r20, r24
    1412:	0a 2e       	mov	r0, r26
    1414:	06 94       	lsr	r0
    1416:	57 95       	ror	r21
    1418:	47 95       	ror	r20
    141a:	37 95       	ror	r19
    141c:	27 95       	ror	r18
    141e:	ba 95       	dec	r27
    1420:	c9 f7       	brne	.-14     	; 0x1414 <__ultoa_invert+0xa2>
    1422:	62 0f       	add	r22, r18
    1424:	73 1f       	adc	r23, r19
    1426:	84 1f       	adc	r24, r20
    1428:	95 1f       	adc	r25, r21
    142a:	a0 1d       	adc	r26, r0
    142c:	08 95       	ret

0000142e <_exit>:
    142e:	f8 94       	cli

00001430 <__stop_program>:
    1430:	ff cf       	rjmp	.-2      	; 0x1430 <__stop_program>
