
uCBoardBeispiele.elf:     file format elf32-avr

Sections:
Idx Name          Size      VMA       LMA       File off  Algn
  0 .data         00000074  00800200  00000db0  00000e44  2**0
                  CONTENTS, ALLOC, LOAD, DATA
  1 .text         00000db0  00000000  00000000  00000094  2**1
                  CONTENTS, ALLOC, LOAD, READONLY, CODE
  2 .bss          0000007e  00800274  00800274  00000eb8  2**0
                  ALLOC
  3 .comment      0000005c  00000000  00000000  00000eb8  2**0
                  CONTENTS, READONLY
  4 .note.gnu.avr.deviceinfo 00000040  00000000  00000000  00000f14  2**2
                  CONTENTS, READONLY
  5 .debug_aranges 000001e0  00000000  00000000  00000f54  2**0
                  CONTENTS, READONLY, DEBUGGING
  6 .debug_info   00002474  00000000  00000000  00001134  2**0
                  CONTENTS, READONLY, DEBUGGING
  7 .debug_abbrev 00000f83  00000000  00000000  000035a8  2**0
                  CONTENTS, READONLY, DEBUGGING
  8 .debug_line   00001422  00000000  00000000  0000452b  2**0
                  CONTENTS, READONLY, DEBUGGING
  9 .debug_frame  00000668  00000000  00000000  00005950  2**2
                  CONTENTS, READONLY, DEBUGGING
 10 .debug_str    00000ceb  00000000  00000000  00005fb8  2**0
                  CONTENTS, READONLY, DEBUGGING
 11 .debug_loc    00001b43  00000000  00000000  00006ca3  2**0
                  CONTENTS, READONLY, DEBUGGING
 12 .debug_ranges 00000210  00000000  00000000  000087e6  2**0
                  CONTENTS, READONLY, DEBUGGING

Disassembly of section .text:

00000000 <__vectors>:
   0:	71 c0       	rjmp	.+226    	; 0xe4 <__ctors_end>
   2:	00 00       	nop
   4:	8e c0       	rjmp	.+284    	; 0x122 <__bad_interrupt>
   6:	00 00       	nop
   8:	8c c0       	rjmp	.+280    	; 0x122 <__bad_interrupt>
   a:	00 00       	nop
   c:	8a c0       	rjmp	.+276    	; 0x122 <__bad_interrupt>
   e:	00 00       	nop
  10:	88 c0       	rjmp	.+272    	; 0x122 <__bad_interrupt>
  12:	00 00       	nop
  14:	86 c0       	rjmp	.+268    	; 0x122 <__bad_interrupt>
  16:	00 00       	nop
  18:	84 c0       	rjmp	.+264    	; 0x122 <__bad_interrupt>
  1a:	00 00       	nop
  1c:	82 c0       	rjmp	.+260    	; 0x122 <__bad_interrupt>
  1e:	00 00       	nop
  20:	80 c0       	rjmp	.+256    	; 0x122 <__bad_interrupt>
  22:	00 00       	nop
  24:	7e c0       	rjmp	.+252    	; 0x122 <__bad_interrupt>
  26:	00 00       	nop
  28:	7c c0       	rjmp	.+248    	; 0x122 <__bad_interrupt>
  2a:	00 00       	nop
  2c:	7a c0       	rjmp	.+244    	; 0x122 <__bad_interrupt>
  2e:	00 00       	nop
  30:	78 c0       	rjmp	.+240    	; 0x122 <__bad_interrupt>
  32:	00 00       	nop
  34:	76 c0       	rjmp	.+236    	; 0x122 <__bad_interrupt>
  36:	00 00       	nop
  38:	74 c0       	rjmp	.+232    	; 0x122 <__bad_interrupt>
  3a:	00 00       	nop
  3c:	72 c0       	rjmp	.+228    	; 0x122 <__bad_interrupt>
  3e:	00 00       	nop
  40:	70 c0       	rjmp	.+224    	; 0x122 <__bad_interrupt>
  42:	00 00       	nop
  44:	6e c0       	rjmp	.+220    	; 0x122 <__bad_interrupt>
  46:	00 00       	nop
  48:	6c c0       	rjmp	.+216    	; 0x122 <__bad_interrupt>
  4a:	00 00       	nop
  4c:	6a c0       	rjmp	.+212    	; 0x122 <__bad_interrupt>
  4e:	00 00       	nop
  50:	68 c0       	rjmp	.+208    	; 0x122 <__bad_interrupt>
  52:	00 00       	nop
  54:	66 c0       	rjmp	.+204    	; 0x122 <__bad_interrupt>
  56:	00 00       	nop
  58:	64 c0       	rjmp	.+200    	; 0x122 <__bad_interrupt>
  5a:	00 00       	nop
  5c:	6a c3       	rjmp	.+1748   	; 0x732 <__vector_23>
  5e:	00 00       	nop
  60:	60 c0       	rjmp	.+192    	; 0x122 <__bad_interrupt>
  62:	00 00       	nop
  64:	5e c0       	rjmp	.+188    	; 0x122 <__bad_interrupt>
  66:	00 00       	nop
  68:	5c c0       	rjmp	.+184    	; 0x122 <__bad_interrupt>
  6a:	00 00       	nop
  6c:	5a c0       	rjmp	.+180    	; 0x122 <__bad_interrupt>
  6e:	00 00       	nop
  70:	58 c0       	rjmp	.+176    	; 0x122 <__bad_interrupt>
  72:	00 00       	nop
  74:	56 c0       	rjmp	.+172    	; 0x122 <__bad_interrupt>
  76:	00 00       	nop
  78:	54 c0       	rjmp	.+168    	; 0x122 <__bad_interrupt>
  7a:	00 00       	nop
  7c:	52 c0       	rjmp	.+164    	; 0x122 <__bad_interrupt>
  7e:	00 00       	nop
  80:	50 c0       	rjmp	.+160    	; 0x122 <__bad_interrupt>
  82:	00 00       	nop
  84:	4e c0       	rjmp	.+156    	; 0x122 <__bad_interrupt>
  86:	00 00       	nop
  88:	4c c0       	rjmp	.+152    	; 0x122 <__bad_interrupt>
  8a:	00 00       	nop
  8c:	4a c0       	rjmp	.+148    	; 0x122 <__bad_interrupt>
  8e:	00 00       	nop
  90:	48 c0       	rjmp	.+144    	; 0x122 <__bad_interrupt>
  92:	00 00       	nop
  94:	46 c0       	rjmp	.+140    	; 0x122 <__bad_interrupt>
  96:	00 00       	nop
  98:	44 c0       	rjmp	.+136    	; 0x122 <__bad_interrupt>
  9a:	00 00       	nop
  9c:	42 c0       	rjmp	.+132    	; 0x122 <__bad_interrupt>
  9e:	00 00       	nop
  a0:	40 c0       	rjmp	.+128    	; 0x122 <__bad_interrupt>
  a2:	00 00       	nop
  a4:	3e c0       	rjmp	.+124    	; 0x122 <__bad_interrupt>
  a6:	00 00       	nop
  a8:	3c c0       	rjmp	.+120    	; 0x122 <__bad_interrupt>
  aa:	00 00       	nop
  ac:	3a c0       	rjmp	.+116    	; 0x122 <__bad_interrupt>
  ae:	00 00       	nop
  b0:	38 c0       	rjmp	.+112    	; 0x122 <__bad_interrupt>
  b2:	00 00       	nop
  b4:	36 c0       	rjmp	.+108    	; 0x122 <__bad_interrupt>
  b6:	00 00       	nop
  b8:	34 c0       	rjmp	.+104    	; 0x122 <__bad_interrupt>
  ba:	00 00       	nop
  bc:	32 c0       	rjmp	.+100    	; 0x122 <__bad_interrupt>
  be:	00 00       	nop
  c0:	30 c0       	rjmp	.+96     	; 0x122 <__bad_interrupt>
  c2:	00 00       	nop
  c4:	2e c0       	rjmp	.+92     	; 0x122 <__bad_interrupt>
  c6:	00 00       	nop
  c8:	2c c0       	rjmp	.+88     	; 0x122 <__bad_interrupt>
  ca:	00 00       	nop
  cc:	2a c0       	rjmp	.+84     	; 0x122 <__bad_interrupt>
  ce:	00 00       	nop
  d0:	28 c0       	rjmp	.+80     	; 0x122 <__bad_interrupt>
  d2:	00 00       	nop
  d4:	26 c0       	rjmp	.+76     	; 0x122 <__bad_interrupt>
  d6:	00 00       	nop
  d8:	24 c0       	rjmp	.+72     	; 0x122 <__bad_interrupt>
  da:	00 00       	nop
  dc:	22 c0       	rjmp	.+68     	; 0x122 <__bad_interrupt>
  de:	00 00       	nop
  e0:	20 c0       	rjmp	.+64     	; 0x122 <__bad_interrupt>
	...

000000e4 <__ctors_end>:
  e4:	11 24       	eor	r1, r1
  e6:	1f be       	out	0x3f, r1	; 63
  e8:	cf ef       	ldi	r28, 0xFF	; 255
  ea:	d1 e2       	ldi	r29, 0x21	; 33
  ec:	de bf       	out	0x3e, r29	; 62
  ee:	cd bf       	out	0x3d, r28	; 61
  f0:	00 e0       	ldi	r16, 0x00	; 0
  f2:	0c bf       	out	0x3c, r16	; 60

000000f4 <__do_copy_data>:
  f4:	12 e0       	ldi	r17, 0x02	; 2
  f6:	a0 e0       	ldi	r26, 0x00	; 0
  f8:	b2 e0       	ldi	r27, 0x02	; 2
  fa:	e0 eb       	ldi	r30, 0xB0	; 176
  fc:	fd e0       	ldi	r31, 0x0D	; 13
  fe:	00 e0       	ldi	r16, 0x00	; 0
 100:	0b bf       	out	0x3b, r16	; 59
 102:	02 c0       	rjmp	.+4      	; 0x108 <__do_copy_data+0x14>
 104:	07 90       	elpm	r0, Z+
 106:	0d 92       	st	X+, r0
 108:	a4 37       	cpi	r26, 0x74	; 116
 10a:	b1 07       	cpc	r27, r17
 10c:	d9 f7       	brne	.-10     	; 0x104 <__do_copy_data+0x10>

0000010e <__do_clear_bss>:
 10e:	22 e0       	ldi	r18, 0x02	; 2
 110:	a4 e7       	ldi	r26, 0x74	; 116
 112:	b2 e0       	ldi	r27, 0x02	; 2
 114:	01 c0       	rjmp	.+2      	; 0x118 <.do_clear_bss_start>

00000116 <.do_clear_bss_loop>:
 116:	1d 92       	st	X+, r1

00000118 <.do_clear_bss_start>:
 118:	a2 3f       	cpi	r26, 0xF2	; 242
 11a:	b2 07       	cpc	r27, r18
 11c:	e1 f7       	brne	.-8      	; 0x116 <.do_clear_bss_loop>
 11e:	02 d0       	rcall	.+4      	; 0x124 <main>
 120:	45 c6       	rjmp	.+3210   	; 0xdac <_exit>

00000122 <__bad_interrupt>:
 122:	6e cf       	rjmp	.-292    	; 0x0 <__vectors>

00000124 <main>:
    
    
    
    
    //Initialisieren
    initBoard(1);
 124:	81 e0       	ldi	r24, 0x01	; 1
 126:	82 d1       	rcall	.+772    	; 0x42c <initBoard>
             outWohnzimmer = 0;
        }
        if (inBad)
        {
            outBad = outBad | (0x02);
            outSpiegel = outSpiegel | (0x04);
 128:	04 e0       	ldi	r16, 0x04	; 4
        {  
             outWohnzimmer = 0;
        }
        if (inBad)
        {
            outBad = outBad | (0x02);
 12a:	12 e0       	ldi	r17, 0x02	; 2
            outSpiegel = outSpiegel | (0x04);
        } 
        else
        {
            outBad = outBad & ~(0x02);
            outSpiegel = outSpiegel & ~(0x04);
 12c:	c0 e0       	ldi	r28, 0x00	; 0
    
    //Unendlichschlaufe
    while(1)
    {
        //Eingabe------------------------------------------------------------------
        schalter = switchReadAll();
 12e:	d8 e0       	ldi	r29, 0x08	; 8
 130:	22 d0       	rcall	.+68     	; 0x176 <switchReadAll>
        inWohnzimmer = schalter & 0b00000001;
        inBad = schalter & 0b00000100; 
        in1Og = schalter & 0b00010000;
 132:	98 2f       	mov	r25, r24
 134:	90 71       	andi	r25, 0x10	; 16
        in2Og = schalter & 0b00100000;
 136:	38 2f       	mov	r19, r24
 138:	30 72       	andi	r19, 0x20	; 32
        inEg  = schalter & 0b01000000;
 13a:	48 2f       	mov	r20, r24
 13c:	40 74       	andi	r20, 0x40	; 64
        inLichtSens = schalter & 0b10000000;
 13e:	68 2f       	mov	r22, r24
 140:	60 78       	andi	r22, 0x80	; 128
        
        //Verarbeitung-------------------------------------------------------------
        if (inWohnzimmer)
        {   
            outWohnzimmer = 1;
 142:	28 2f       	mov	r18, r24
 144:	21 70       	andi	r18, 0x01	; 1
        } 
        else
        {  
             outWohnzimmer = 0;
        }
        if (inBad)
 146:	82 fd       	sbrc	r24, 2
 148:	03 c0       	rjmp	.+6      	; 0x150 <main+0x2c>
            outSpiegel = outSpiegel | (0x04);
        } 
        else
        {
            outBad = outBad & ~(0x02);
            outSpiegel = outSpiegel & ~(0x04);
 14a:	8c 2f       	mov	r24, r28
            outBad = outBad | (0x02);
            outSpiegel = outSpiegel | (0x04);
        } 
        else
        {
            outBad = outBad & ~(0x02);
 14c:	5c 2f       	mov	r21, r28
 14e:	02 c0       	rjmp	.+4      	; 0x154 <main+0x30>
             outWohnzimmer = 0;
        }
        if (inBad)
        {
            outBad = outBad | (0x02);
            outSpiegel = outSpiegel | (0x04);
 150:	80 2f       	mov	r24, r16
        {  
             outWohnzimmer = 0;
        }
        if (inBad)
        {
            outBad = outBad | (0x02);
 152:	51 2f       	mov	r21, r17
        else
        {
            outBad = outBad & ~(0x02);
            outSpiegel = outSpiegel & ~(0x04);
        }
        if (in1Og | in2Og | inEg  )
 154:	39 2b       	or	r19, r25
 156:	34 2b       	or	r19, r20
 158:	11 f4       	brne	.+4      	; 0x15e <main+0x3a>
            outOg = outOg | (0x08);
           
        } 
        else
        {
            outEg = outEg & ~(0x08);
 15a:	9c 2f       	mov	r25, r28
 15c:	01 c0       	rjmp	.+2      	; 0x160 <main+0x3c>
            outBad = outBad & ~(0x02);
            outSpiegel = outSpiegel & ~(0x04);
        }
        if (in1Og | in2Og | inEg  )
        {
            outEg = outEg | (0x08);
 15e:	9d 2f       	mov	r25, r29
        {
            outEg = outEg & ~(0x08);
            outOg = outOg & ~(0x08);
            
        }
        if (inLichtSens)
 160:	61 11       	cpse	r22, r1
        {
            outEg = outEg & ~(0x08);
 162:	9c 2f       	mov	r25, r28
            outOg = outOg & ~(0x08);
        } 
        
        //Ausgabe------------------------------------------------------------------
        ledWriteAll(outWohnzimmer | outBad | outSpiegel | outEg | outOg);
 164:	85 2b       	or	r24, r21
 166:	82 2b       	or	r24, r18
 168:	89 2b       	or	r24, r25
 16a:	90 e0       	ldi	r25, 0x00	; 0
 16c:	01 d0       	rcall	.+2      	; 0x170 <ledWriteAll>
    }
 16e:	e0 cf       	rjmp	.-64     	; 0x130 <main+0xc>

00000170 <ledWriteAll>:
            }
        }
        matrix_buffer_pos += breite + Zeichenabstand;           // Position für das nächste Zeichen berechnen
        str_p++;                                                // Zeichen-Zeiger auf das nächste Zeichen richten
    }
}
 170:	82 b9       	out	0x02, r24	; 2
 172:	95 b9       	out	0x05, r25	; 5
 174:	08 95       	ret

00000176 <switchReadAll>:
 176:	86 b1       	in	r24, 0x06	; 6
 178:	08 95       	ret

0000017a <startSystemTimeMs>:
 17a:	83 e0       	ldi	r24, 0x03	; 3
 17c:	84 bd       	out	0x24, r24	; 36
 17e:	8b e0       	ldi	r24, 0x0B	; 11
 180:	85 bd       	out	0x25, r24	; 37
 182:	81 e0       	ldi	r24, 0x01	; 1
 184:	80 93 6e 00 	sts	0x006E, r24	; 0x80006e <__TEXT_REGION_LENGTH__+0x70006e>
 188:	89 ef       	ldi	r24, 0xF9	; 249
 18a:	87 bd       	out	0x27, r24	; 39
 18c:	08 95       	ret

0000018e <initAdc>:
 18e:	11 ba       	out	0x11, r1	; 17
 190:	10 ba       	out	0x10, r1	; 16
 192:	10 92 08 01 	sts	0x0108, r1	; 0x800108 <__TEXT_REGION_LENGTH__+0x700108>
 196:	10 92 07 01 	sts	0x0107, r1	; 0x800107 <__TEXT_REGION_LENGTH__+0x700107>
 19a:	80 e4       	ldi	r24, 0x40	; 64
 19c:	80 93 7c 00 	sts	0x007C, r24	; 0x80007c <__TEXT_REGION_LENGTH__+0x70007c>
 1a0:	8f e0       	ldi	r24, 0x0F	; 15
 1a2:	80 93 7e 00 	sts	0x007E, r24	; 0x80007e <__TEXT_REGION_LENGTH__+0x70007e>
 1a6:	8f ef       	ldi	r24, 0xFF	; 255
 1a8:	80 93 7d 00 	sts	0x007D, r24	; 0x80007d <__TEXT_REGION_LENGTH__+0x70007d>
 1ac:	ea e7       	ldi	r30, 0x7A	; 122
 1ae:	f0 e0       	ldi	r31, 0x00	; 0
 1b0:	87 ea       	ldi	r24, 0xA7	; 167
 1b2:	80 83       	st	Z, r24
 1b4:	10 92 7b 00 	sts	0x007B, r1	; 0x80007b <__TEXT_REGION_LENGTH__+0x70007b>
 1b8:	80 81       	ld	r24, Z
 1ba:	80 64       	ori	r24, 0x40	; 64
 1bc:	80 83       	st	Z, r24
 1be:	80 81       	ld	r24, Z
 1c0:	84 ff       	sbrs	r24, 4
 1c2:	fd cf       	rjmp	.-6      	; 0x1be <initAdc+0x30>
 1c4:	ea e7       	ldi	r30, 0x7A	; 122
 1c6:	f0 e0       	ldi	r31, 0x00	; 0
 1c8:	80 81       	ld	r24, Z
 1ca:	8f 7e       	andi	r24, 0xEF	; 239
 1cc:	80 83       	st	Z, r24
 1ce:	08 95       	ret

000001d0 <rgbWrite>:
 1d0:	2f ef       	ldi	r18, 0xFF	; 255
 1d2:	33 e0       	ldi	r19, 0x03	; 3
 1d4:	f9 01       	movw	r30, r18
 1d6:	e8 1b       	sub	r30, r24
 1d8:	f9 0b       	sbc	r31, r25
 1da:	c9 01       	movw	r24, r18
 1dc:	86 1b       	sub	r24, r22
 1de:	97 0b       	sbc	r25, r23
 1e0:	24 1b       	sub	r18, r20
 1e2:	35 0b       	sbc	r19, r21
 1e4:	f0 93 a9 00 	sts	0x00A9, r31	; 0x8000a9 <__TEXT_REGION_LENGTH__+0x7000a9>
 1e8:	e0 93 a8 00 	sts	0x00A8, r30	; 0x8000a8 <__TEXT_REGION_LENGTH__+0x7000a8>
 1ec:	90 93 ab 00 	sts	0x00AB, r25	; 0x8000ab <__TEXT_REGION_LENGTH__+0x7000ab>
 1f0:	80 93 aa 00 	sts	0x00AA, r24	; 0x8000aa <__TEXT_REGION_LENGTH__+0x7000aa>
 1f4:	30 93 ad 00 	sts	0x00AD, r19	; 0x8000ad <__TEXT_REGION_LENGTH__+0x7000ad>
 1f8:	20 93 ac 00 	sts	0x00AC, r18	; 0x8000ac <__TEXT_REGION_LENGTH__+0x7000ac>
 1fc:	08 95       	ret

000001fe <initRgb>:
 1fe:	8e ef       	ldi	r24, 0xFE	; 254
 200:	80 93 a0 00 	sts	0x00A0, r24	; 0x8000a0 <__TEXT_REGION_LENGTH__+0x7000a0>
 204:	8b e1       	ldi	r24, 0x1B	; 27
 206:	80 93 a1 00 	sts	0x00A1, r24	; 0x8000a1 <__TEXT_REGION_LENGTH__+0x7000a1>
 20a:	83 e0       	ldi	r24, 0x03	; 3
 20c:	80 93 a7 00 	sts	0x00A7, r24	; 0x8000a7 <__TEXT_REGION_LENGTH__+0x7000a7>
 210:	8f ef       	ldi	r24, 0xFF	; 255
 212:	80 93 a6 00 	sts	0x00A6, r24	; 0x8000a6 <__TEXT_REGION_LENGTH__+0x7000a6>
 216:	40 e0       	ldi	r20, 0x00	; 0
 218:	50 e0       	ldi	r21, 0x00	; 0
 21a:	60 e0       	ldi	r22, 0x00	; 0
 21c:	70 e0       	ldi	r23, 0x00	; 0
 21e:	80 e0       	ldi	r24, 0x00	; 0
 220:	90 e0       	ldi	r25, 0x00	; 0
 222:	d6 cf       	rjmp	.-84     	; 0x1d0 <rgbWrite>
 224:	08 95       	ret

00000226 <lcdSid>:
 226:	88 23       	and	r24, r24
 228:	11 f0       	breq	.+4      	; 0x22e <lcdSid+0x8>
 22a:	a0 9a       	sbi	0x14, 0	; 20
 22c:	08 95       	ret
 22e:	a0 98       	cbi	0x14, 0	; 20
 230:	08 95       	ret

00000232 <lcdSclk>:
 232:	88 23       	and	r24, r24
 234:	11 f0       	breq	.+4      	; 0x23a <lcdSclk+0x8>
 236:	a1 9a       	sbi	0x14, 1	; 20
 238:	08 95       	ret
 23a:	a1 98       	cbi	0x14, 1	; 20
 23c:	08 95       	ret

0000023e <lcdLight>:
 23e:	81 11       	cpse	r24, r1
 240:	04 c0       	rjmp	.+8      	; 0x24a <lcdLight+0xc>
 242:	84 b5       	in	r24, 0x24	; 36
 244:	8f 7d       	andi	r24, 0xDF	; 223
 246:	84 bd       	out	0x24, r24	; 36
 248:	08 95       	ret
 24a:	94 b5       	in	r25, 0x24	; 36
 24c:	90 62       	ori	r25, 0x20	; 32
 24e:	94 bd       	out	0x24, r25	; 36
 250:	88 bd       	out	0x28, r24	; 40
 252:	08 95       	ret

00000254 <writeLcdF>:
 254:	ef 92       	push	r14
 256:	ff 92       	push	r15
 258:	0f 93       	push	r16
 25a:	1f 93       	push	r17
 25c:	cf 93       	push	r28
 25e:	df 93       	push	r29
 260:	7c 01       	movw	r14, r24
 262:	eb 01       	movw	r28, r22
 264:	81 e0       	ldi	r24, 0x01	; 1
 266:	df df       	rcall	.-66     	; 0x226 <lcdSid>
 268:	05 e0       	ldi	r16, 0x05	; 5
 26a:	10 e0       	ldi	r17, 0x00	; 0
 26c:	80 e0       	ldi	r24, 0x00	; 0
 26e:	e1 df       	rcall	.-62     	; 0x232 <lcdSclk>
 270:	81 e0       	ldi	r24, 0x01	; 1
 272:	df df       	rcall	.-66     	; 0x232 <lcdSclk>
 274:	01 50       	subi	r16, 0x01	; 1
 276:	11 09       	sbc	r17, r1
 278:	c9 f7       	brne	.-14     	; 0x26c <writeLcdF+0x18>
 27a:	80 e0       	ldi	r24, 0x00	; 0
 27c:	d4 df       	rcall	.-88     	; 0x226 <lcdSid>
 27e:	80 e0       	ldi	r24, 0x00	; 0
 280:	d8 df       	rcall	.-80     	; 0x232 <lcdSclk>
 282:	81 e0       	ldi	r24, 0x01	; 1
 284:	d6 df       	rcall	.-84     	; 0x232 <lcdSclk>
 286:	83 e4       	ldi	r24, 0x43	; 67
 288:	e8 16       	cp	r14, r24
 28a:	f1 04       	cpc	r15, r1
 28c:	19 f4       	brne	.+6      	; 0x294 <writeLcdF+0x40>
 28e:	80 e0       	ldi	r24, 0x00	; 0
 290:	ca df       	rcall	.-108    	; 0x226 <lcdSid>
 292:	02 c0       	rjmp	.+4      	; 0x298 <writeLcdF+0x44>
 294:	81 e0       	ldi	r24, 0x01	; 1
 296:	c7 df       	rcall	.-114    	; 0x226 <lcdSid>
 298:	80 e0       	ldi	r24, 0x00	; 0
 29a:	cb df       	rcall	.-106    	; 0x232 <lcdSclk>
 29c:	81 e0       	ldi	r24, 0x01	; 1
 29e:	c9 df       	rcall	.-110    	; 0x232 <lcdSclk>
 2a0:	80 e0       	ldi	r24, 0x00	; 0
 2a2:	c1 df       	rcall	.-126    	; 0x226 <lcdSid>
 2a4:	80 e0       	ldi	r24, 0x00	; 0
 2a6:	c5 df       	rcall	.-118    	; 0x232 <lcdSclk>
 2a8:	81 e0       	ldi	r24, 0x01	; 1
 2aa:	c3 df       	rcall	.-122    	; 0x232 <lcdSclk>
 2ac:	04 e0       	ldi	r16, 0x04	; 4
 2ae:	10 e0       	ldi	r17, 0x00	; 0
 2b0:	80 e0       	ldi	r24, 0x00	; 0
 2b2:	bf df       	rcall	.-130    	; 0x232 <lcdSclk>
 2b4:	c0 ff       	sbrs	r28, 0
 2b6:	03 c0       	rjmp	.+6      	; 0x2be <writeLcdF+0x6a>
 2b8:	81 e0       	ldi	r24, 0x01	; 1
 2ba:	b5 df       	rcall	.-150    	; 0x226 <lcdSid>
 2bc:	02 c0       	rjmp	.+4      	; 0x2c2 <writeLcdF+0x6e>
 2be:	80 e0       	ldi	r24, 0x00	; 0
 2c0:	b2 df       	rcall	.-156    	; 0x226 <lcdSid>
 2c2:	d6 95       	lsr	r29
 2c4:	c7 95       	ror	r28
 2c6:	80 e0       	ldi	r24, 0x00	; 0
 2c8:	b4 df       	rcall	.-152    	; 0x232 <lcdSclk>
 2ca:	81 e0       	ldi	r24, 0x01	; 1
 2cc:	b2 df       	rcall	.-156    	; 0x232 <lcdSclk>
 2ce:	01 50       	subi	r16, 0x01	; 1
 2d0:	11 09       	sbc	r17, r1
 2d2:	71 f7       	brne	.-36     	; 0x2b0 <writeLcdF+0x5c>
 2d4:	80 e0       	ldi	r24, 0x00	; 0
 2d6:	a7 df       	rcall	.-178    	; 0x226 <lcdSid>
 2d8:	04 e0       	ldi	r16, 0x04	; 4
 2da:	10 e0       	ldi	r17, 0x00	; 0
 2dc:	80 e0       	ldi	r24, 0x00	; 0
 2de:	a9 df       	rcall	.-174    	; 0x232 <lcdSclk>
 2e0:	81 e0       	ldi	r24, 0x01	; 1
 2e2:	a7 df       	rcall	.-178    	; 0x232 <lcdSclk>
 2e4:	01 50       	subi	r16, 0x01	; 1
 2e6:	11 09       	sbc	r17, r1
 2e8:	c9 f7       	brne	.-14     	; 0x2dc <writeLcdF+0x88>
 2ea:	04 e0       	ldi	r16, 0x04	; 4
 2ec:	10 e0       	ldi	r17, 0x00	; 0
 2ee:	80 e0       	ldi	r24, 0x00	; 0
 2f0:	a0 df       	rcall	.-192    	; 0x232 <lcdSclk>
 2f2:	c0 ff       	sbrs	r28, 0
 2f4:	03 c0       	rjmp	.+6      	; 0x2fc <writeLcdF+0xa8>
 2f6:	81 e0       	ldi	r24, 0x01	; 1
 2f8:	96 df       	rcall	.-212    	; 0x226 <lcdSid>
 2fa:	02 c0       	rjmp	.+4      	; 0x300 <writeLcdF+0xac>
 2fc:	80 e0       	ldi	r24, 0x00	; 0
 2fe:	93 df       	rcall	.-218    	; 0x226 <lcdSid>
 300:	d6 95       	lsr	r29
 302:	c7 95       	ror	r28
 304:	80 e0       	ldi	r24, 0x00	; 0
 306:	95 df       	rcall	.-214    	; 0x232 <lcdSclk>
 308:	81 e0       	ldi	r24, 0x01	; 1
 30a:	93 df       	rcall	.-218    	; 0x232 <lcdSclk>
 30c:	01 50       	subi	r16, 0x01	; 1
 30e:	11 09       	sbc	r17, r1
 310:	71 f7       	brne	.-36     	; 0x2ee <writeLcdF+0x9a>
 312:	80 e0       	ldi	r24, 0x00	; 0
 314:	88 df       	rcall	.-240    	; 0x226 <lcdSid>
 316:	c4 e0       	ldi	r28, 0x04	; 4
 318:	d0 e0       	ldi	r29, 0x00	; 0
 31a:	80 e0       	ldi	r24, 0x00	; 0
 31c:	8a df       	rcall	.-236    	; 0x232 <lcdSclk>
 31e:	81 e0       	ldi	r24, 0x01	; 1
 320:	88 df       	rcall	.-240    	; 0x232 <lcdSclk>
 322:	21 97       	sbiw	r28, 0x01	; 1
 324:	d1 f7       	brne	.-12     	; 0x31a <writeLcdF+0xc6>
 326:	81 e0       	ldi	r24, 0x01	; 1
 328:	7e df       	rcall	.-260    	; 0x226 <lcdSid>
 32a:	87 ec       	ldi	r24, 0xC7	; 199
 32c:	90 e0       	ldi	r25, 0x00	; 0
 32e:	01 97       	sbiw	r24, 0x01	; 1
 330:	f1 f7       	brne	.-4      	; 0x32e <writeLcdF+0xda>
 332:	00 c0       	rjmp	.+0      	; 0x334 <writeLcdF+0xe0>
 334:	00 00       	nop
 336:	df 91       	pop	r29
 338:	cf 91       	pop	r28
 33a:	1f 91       	pop	r17
 33c:	0f 91       	pop	r16
 33e:	ff 90       	pop	r15
 340:	ef 90       	pop	r14
 342:	08 95       	ret

00000344 <lcdWriteText>:
 344:	1f 93       	push	r17
 346:	cf 93       	push	r28
 348:	df 93       	push	r29
 34a:	cd b7       	in	r28, 0x3d	; 61
 34c:	de b7       	in	r29, 0x3e	; 62
 34e:	65 97       	sbiw	r28, 0x15	; 21
 350:	0f b6       	in	r0, 0x3f	; 63
 352:	f8 94       	cli
 354:	de bf       	out	0x3e, r29	; 62
 356:	0f be       	out	0x3f, r0	; 63
 358:	cd bf       	out	0x3d, r28	; 61
 35a:	9e 01       	movw	r18, r28
 35c:	20 5e       	subi	r18, 0xE0	; 224
 35e:	3f 4f       	sbci	r19, 0xFF	; 255
 360:	4e 8d       	ldd	r20, Y+30	; 0x1e
 362:	5f 8d       	ldd	r21, Y+31	; 0x1f
 364:	65 e1       	ldi	r22, 0x15	; 21
 366:	70 e0       	ldi	r23, 0x00	; 0
 368:	ce 01       	movw	r24, r28
 36a:	01 96       	adiw	r24, 0x01	; 1
 36c:	3a d2       	rcall	.+1140   	; 0x7e2 <vsnprintf>
 36e:	6d 8d       	ldd	r22, Y+29	; 0x1d
 370:	8c 8d       	ldd	r24, Y+28	; 0x1c
 372:	90 e2       	ldi	r25, 0x20	; 32
 374:	89 9f       	mul	r24, r25
 376:	60 0d       	add	r22, r0
 378:	11 24       	eor	r1, r1
 37a:	60 68       	ori	r22, 0x80	; 128
 37c:	70 e0       	ldi	r23, 0x00	; 0
 37e:	83 e4       	ldi	r24, 0x43	; 67
 380:	90 e0       	ldi	r25, 0x00	; 0
 382:	68 df       	rcall	.-304    	; 0x254 <writeLcdF>
 384:	69 81       	ldd	r22, Y+1	; 0x01
 386:	66 23       	and	r22, r22
 388:	79 f0       	breq	.+30     	; 0x3a8 <lcdWriteText+0x64>
 38a:	10 e0       	ldi	r17, 0x00	; 0
 38c:	1f 5f       	subi	r17, 0xFF	; 255
 38e:	70 e0       	ldi	r23, 0x00	; 0
 390:	84 e4       	ldi	r24, 0x44	; 68
 392:	90 e0       	ldi	r25, 0x00	; 0
 394:	5f df       	rcall	.-322    	; 0x254 <writeLcdF>
 396:	e1 e0       	ldi	r30, 0x01	; 1
 398:	f0 e0       	ldi	r31, 0x00	; 0
 39a:	ec 0f       	add	r30, r28
 39c:	fd 1f       	adc	r31, r29
 39e:	e1 0f       	add	r30, r17
 3a0:	f1 1d       	adc	r31, r1
 3a2:	60 81       	ld	r22, Z
 3a4:	61 11       	cpse	r22, r1
 3a6:	f2 cf       	rjmp	.-28     	; 0x38c <lcdWriteText+0x48>
 3a8:	65 96       	adiw	r28, 0x15	; 21
 3aa:	0f b6       	in	r0, 0x3f	; 63
 3ac:	f8 94       	cli
 3ae:	de bf       	out	0x3e, r29	; 62
 3b0:	0f be       	out	0x3f, r0	; 63
 3b2:	cd bf       	out	0x3d, r28	; 61
 3b4:	df 91       	pop	r29
 3b6:	cf 91       	pop	r28
 3b8:	1f 91       	pop	r17
 3ba:	08 95       	ret

000003bc <lcdClear>:
 3bc:	61 e0       	ldi	r22, 0x01	; 1
 3be:	70 e0       	ldi	r23, 0x00	; 0
 3c0:	83 e4       	ldi	r24, 0x43	; 67
 3c2:	90 e0       	ldi	r25, 0x00	; 0
 3c4:	47 df       	rcall	.-370    	; 0x254 <writeLcdF>
 3c6:	8f e3       	ldi	r24, 0x3F	; 63
 3c8:	9f e1       	ldi	r25, 0x1F	; 31
 3ca:	01 97       	sbiw	r24, 0x01	; 1
 3cc:	f1 f7       	brne	.-4      	; 0x3ca <lcdClear+0xe>
 3ce:	00 c0       	rjmp	.+0      	; 0x3d0 <lcdClear+0x14>
 3d0:	00 00       	nop
 3d2:	80 e3       	ldi	r24, 0x30	; 48
 3d4:	92 e0       	ldi	r25, 0x02	; 2
 3d6:	9f 93       	push	r25
 3d8:	8f 93       	push	r24
 3da:	1f 92       	push	r1
 3dc:	1f 92       	push	r1
 3de:	b2 df       	rcall	.-156    	; 0x344 <lcdWriteText>
 3e0:	0f 90       	pop	r0
 3e2:	0f 90       	pop	r0
 3e4:	0f 90       	pop	r0
 3e6:	0f 90       	pop	r0
 3e8:	08 95       	ret

000003ea <initLcd>:
 3ea:	81 e0       	ldi	r24, 0x01	; 1
 3ec:	22 df       	rcall	.-444    	; 0x232 <lcdSclk>
 3ee:	80 e0       	ldi	r24, 0x00	; 0
 3f0:	1a df       	rcall	.-460    	; 0x226 <lcdSid>
 3f2:	64 e3       	ldi	r22, 0x34	; 52
 3f4:	70 e0       	ldi	r23, 0x00	; 0
 3f6:	83 e4       	ldi	r24, 0x43	; 67
 3f8:	90 e0       	ldi	r25, 0x00	; 0
 3fa:	2c df       	rcall	.-424    	; 0x254 <writeLcdF>
 3fc:	69 e0       	ldi	r22, 0x09	; 9
 3fe:	70 e0       	ldi	r23, 0x00	; 0
 400:	83 e4       	ldi	r24, 0x43	; 67
 402:	90 e0       	ldi	r25, 0x00	; 0
 404:	27 df       	rcall	.-434    	; 0x254 <writeLcdF>
 406:	60 e3       	ldi	r22, 0x30	; 48
 408:	70 e0       	ldi	r23, 0x00	; 0
 40a:	83 e4       	ldi	r24, 0x43	; 67
 40c:	90 e0       	ldi	r25, 0x00	; 0
 40e:	22 df       	rcall	.-444    	; 0x254 <writeLcdF>
 410:	6c e0       	ldi	r22, 0x0C	; 12
 412:	70 e0       	ldi	r23, 0x00	; 0
 414:	83 e4       	ldi	r24, 0x43	; 67
 416:	90 e0       	ldi	r25, 0x00	; 0
 418:	1d df       	rcall	.-454    	; 0x254 <writeLcdF>
 41a:	d0 df       	rcall	.-96     	; 0x3bc <lcdClear>
 41c:	67 e0       	ldi	r22, 0x07	; 7
 41e:	70 e0       	ldi	r23, 0x00	; 0
 420:	83 e4       	ldi	r24, 0x43	; 67
 422:	90 e0       	ldi	r25, 0x00	; 0
 424:	17 df       	rcall	.-466    	; 0x254 <writeLcdF>
 426:	80 e0       	ldi	r24, 0x00	; 0
 428:	0a cf       	rjmp	.-492    	; 0x23e <lcdLight>
 42a:	08 95       	ret

0000042c <initBoard>:
 42c:	4f 92       	push	r4
 42e:	5f 92       	push	r5
 430:	6f 92       	push	r6
 432:	7f 92       	push	r7
 434:	8f 92       	push	r8
 436:	9f 92       	push	r9
 438:	af 92       	push	r10
 43a:	bf 92       	push	r11
 43c:	cf 92       	push	r12
 43e:	df 92       	push	r13
 440:	ef 92       	push	r14
 442:	ff 92       	push	r15
 444:	0f 93       	push	r16
 446:	1f 93       	push	r17
 448:	cf 93       	push	r28
 44a:	df 93       	push	r29
 44c:	c8 2f       	mov	r28, r24
 44e:	85 b7       	in	r24, 0x35	; 53
 450:	85 bf       	out	0x35, r24	; 53
 452:	12 b8       	out	0x02, r1	; 2
 454:	8f ef       	ldi	r24, 0xFF	; 255
 456:	81 b9       	out	0x01, r24	; 1
 458:	15 b8       	out	0x05, r1	; 5
 45a:	84 b9       	out	0x04, r24	; 4
 45c:	88 b9       	out	0x08, r24	; 8
 45e:	17 b8       	out	0x07, r1	; 7
 460:	8b b9       	out	0x0b, r24	; 11
 462:	1a b8       	out	0x0a, r1	; 10
 464:	8e b9       	out	0x0e, r24	; 14
 466:	1d b8       	out	0x0d, r1	; 13
 468:	72 98       	cbi	0x0e, 2	; 14
 46a:	11 ba       	out	0x11, r1	; 17
 46c:	10 ba       	out	0x10, r1	; 16
 46e:	94 e0       	ldi	r25, 0x04	; 4
 470:	94 bb       	out	0x14, r25	; 20
 472:	93 b3       	in	r25, 0x13	; 19
 474:	93 60       	ori	r25, 0x03	; 3
 476:	93 bb       	out	0x13, r25	; 19
 478:	9d 9a       	sbi	0x13, 5	; 19
 47a:	97 ec       	ldi	r25, 0xC7	; 199
 47c:	90 93 02 01 	sts	0x0102, r25	; 0x800102 <__TEXT_REGION_LENGTH__+0x700102>
 480:	98 e3       	ldi	r25, 0x38	; 56
 482:	90 93 01 01 	sts	0x0101, r25	; 0x800101 <__TEXT_REGION_LENGTH__+0x700101>
 486:	10 92 05 01 	sts	0x0105, r1	; 0x800105 <__TEXT_REGION_LENGTH__+0x700105>
 48a:	80 93 04 01 	sts	0x0104, r24	; 0x800104 <__TEXT_REGION_LENGTH__+0x700104>
 48e:	10 92 08 01 	sts	0x0108, r1	; 0x800108 <__TEXT_REGION_LENGTH__+0x700108>
 492:	10 92 07 01 	sts	0x0107, r1	; 0x800107 <__TEXT_REGION_LENGTH__+0x700107>
 496:	8c e3       	ldi	r24, 0x3C	; 60
 498:	80 93 0b 01 	sts	0x010B, r24	; 0x80010b <__TEXT_REGION_LENGTH__+0x70010b>
 49c:	10 92 0a 01 	sts	0x010A, r1	; 0x80010a <__TEXT_REGION_LENGTH__+0x70010a>
 4a0:	78 94       	sei
 4a2:	6b de       	rcall	.-810    	; 0x17a <startSystemTimeMs>
 4a4:	a2 df       	rcall	.-188    	; 0x3ea <initLcd>
 4a6:	73 de       	rcall	.-794    	; 0x18e <initAdc>
 4a8:	aa de       	rcall	.-684    	; 0x1fe <initRgb>
 4aa:	cc 23       	and	r28, r28
 4ac:	09 f4       	brne	.+2      	; 0x4b0 <initBoard+0x84>
 4ae:	b8 c0       	rjmp	.+368    	; 0x620 <initBoard+0x1f4>
 4b0:	8f ef       	ldi	r24, 0xFF	; 255
 4b2:	c5 de       	rcall	.-630    	; 0x23e <lcdLight>
 4b4:	40 e0       	ldi	r20, 0x00	; 0
 4b6:	50 e0       	ldi	r21, 0x00	; 0
 4b8:	6f ef       	ldi	r22, 0xFF	; 255
 4ba:	73 e0       	ldi	r23, 0x03	; 3
 4bc:	80 e0       	ldi	r24, 0x00	; 0
 4be:	90 e0       	ldi	r25, 0x00	; 0
 4c0:	87 de       	rcall	.-754    	; 0x1d0 <rgbWrite>
 4c2:	8d e1       	ldi	r24, 0x1D	; 29
 4c4:	92 e0       	ldi	r25, 0x02	; 2
 4c6:	9f 93       	push	r25
 4c8:	8f 93       	push	r24
 4ca:	1f 92       	push	r1
 4cc:	1f 92       	push	r1
 4ce:	3a df       	rcall	.-396    	; 0x344 <lcdWriteText>
 4d0:	82 e3       	ldi	r24, 0x32	; 50
 4d2:	92 e0       	ldi	r25, 0x02	; 2
 4d4:	9f 93       	push	r25
 4d6:	8f 93       	push	r24
 4d8:	1f 92       	push	r1
 4da:	81 e0       	ldi	r24, 0x01	; 1
 4dc:	8f 93       	push	r24
 4de:	32 df       	rcall	.-412    	; 0x344 <lcdWriteText>
 4e0:	88 e0       	ldi	r24, 0x08	; 8
 4e2:	92 e0       	ldi	r25, 0x02	; 2
 4e4:	9f 93       	push	r25
 4e6:	8f 93       	push	r24
 4e8:	1f 92       	push	r1
 4ea:	82 e0       	ldi	r24, 0x02	; 2
 4ec:	8f 93       	push	r24
 4ee:	2a df       	rcall	.-428    	; 0x344 <lcdWriteText>
 4f0:	87 e4       	ldi	r24, 0x47	; 71
 4f2:	92 e0       	ldi	r25, 0x02	; 2
 4f4:	9f 93       	push	r25
 4f6:	8f 93       	push	r24
 4f8:	1f 92       	push	r1
 4fa:	83 e0       	ldi	r24, 0x03	; 3
 4fc:	8f 93       	push	r24
 4fe:	22 df       	rcall	.-444    	; 0x344 <lcdWriteText>
 500:	8d b7       	in	r24, 0x3d	; 61
 502:	9e b7       	in	r25, 0x3e	; 62
 504:	40 96       	adiw	r24, 0x10	; 16
 506:	0f b6       	in	r0, 0x3f	; 63
 508:	f8 94       	cli
 50a:	9e bf       	out	0x3e, r25	; 62
 50c:	0f be       	out	0x3f, r0	; 63
 50e:	8d bf       	out	0x3d, r24	; 61
 510:	88 24       	eor	r8, r8
 512:	83 94       	inc	r8
 514:	c0 e0       	ldi	r28, 0x00	; 0
 516:	71 2c       	mov	r7, r1
 518:	99 24       	eor	r9, r9
 51a:	93 94       	inc	r9
 51c:	d0 e0       	ldi	r29, 0x00	; 0
 51e:	cc 24       	eor	r12, r12
 520:	c3 94       	inc	r12
 522:	d1 2c       	mov	r13, r1
 524:	e1 2c       	mov	r14, r1
 526:	68 94       	set
 528:	ff 24       	eor	r15, r15
 52a:	f7 f8       	bld	r15, 7
 52c:	66 24       	eor	r6, r6
 52e:	63 94       	inc	r6
 530:	51 2c       	mov	r5, r1
 532:	09 e0       	ldi	r16, 0x09	; 9
 534:	11 e0       	ldi	r17, 0x01	; 1
 536:	0f 2e       	mov	r0, r31
 538:	fc e5       	ldi	r31, 0x5C	; 92
 53a:	af 2e       	mov	r10, r31
 53c:	f2 e0       	ldi	r31, 0x02	; 2
 53e:	bf 2e       	mov	r11, r31
 540:	f0 2d       	mov	r31, r0
 542:	0f 2e       	mov	r0, r31
 544:	f3 e0       	ldi	r31, 0x03	; 3
 546:	4f 2e       	mov	r4, r31
 548:	f0 2d       	mov	r31, r0
 54a:	99 20       	and	r9, r9
 54c:	49 f0       	breq	.+18     	; 0x560 <initBoard+0x134>
 54e:	c7 01       	movw	r24, r14
 550:	0d 2e       	mov	r0, r29
 552:	02 c0       	rjmp	.+4      	; 0x558 <initBoard+0x12c>
 554:	96 95       	lsr	r25
 556:	87 95       	ror	r24
 558:	0a 94       	dec	r0
 55a:	e2 f7       	brpl	.-8      	; 0x554 <initBoard+0x128>
 55c:	09 de       	rcall	.-1006   	; 0x170 <ledWriteAll>
 55e:	08 c0       	rjmp	.+16     	; 0x570 <initBoard+0x144>
 560:	c6 01       	movw	r24, r12
 562:	0d 2e       	mov	r0, r29
 564:	02 c0       	rjmp	.+4      	; 0x56a <initBoard+0x13e>
 566:	88 0f       	add	r24, r24
 568:	99 1f       	adc	r25, r25
 56a:	0a 94       	dec	r0
 56c:	e2 f7       	brpl	.-8      	; 0x566 <initBoard+0x13a>
 56e:	00 de       	rcall	.-1024   	; 0x170 <ledWriteAll>
 570:	df 5f       	subi	r29, 0xFF	; 255
 572:	d1 31       	cpi	r29, 0x11	; 17
 574:	28 f0       	brcs	.+10     	; 0x580 <initBoard+0x154>
 576:	86 2d       	mov	r24, r6
 578:	91 10       	cpse	r9, r1
 57a:	85 2d       	mov	r24, r5
 57c:	98 2e       	mov	r9, r24
 57e:	d0 e0       	ldi	r29, 0x00	; 0
 580:	88 20       	and	r8, r8
 582:	11 f0       	breq	.+4      	; 0x588 <initBoard+0x15c>
 584:	ce 5f       	subi	r28, 0xFE	; 254
 586:	01 c0       	rjmp	.+2      	; 0x58a <initBoard+0x15e>
 588:	c2 50       	subi	r28, 0x02	; 2
 58a:	8c 2f       	mov	r24, r28
 58c:	58 de       	rcall	.-848    	; 0x23e <lcdLight>
 58e:	ce 3f       	cpi	r28, 0xFE	; 254
 590:	21 f0       	breq	.+8      	; 0x59a <initBoard+0x16e>
 592:	c8 37       	cpi	r28, 0x78	; 120
 594:	19 f4       	brne	.+6      	; 0x59c <initBoard+0x170>
 596:	86 2c       	mov	r8, r6
 598:	01 c0       	rjmp	.+2      	; 0x59c <initBoard+0x170>
 59a:	85 2c       	mov	r8, r5
 59c:	71 10       	cpse	r7, r1
 59e:	3b c0       	rjmp	.+118    	; 0x616 <initBoard+0x1ea>
 5a0:	f8 01       	movw	r30, r16
 5a2:	80 81       	ld	r24, Z
 5a4:	83 7c       	andi	r24, 0xC3	; 195
 5a6:	91 f0       	breq	.+36     	; 0x5cc <initBoard+0x1a0>
 5a8:	40 e0       	ldi	r20, 0x00	; 0
 5aa:	50 e0       	ldi	r21, 0x00	; 0
 5ac:	66 e2       	ldi	r22, 0x26	; 38
 5ae:	72 e0       	ldi	r23, 0x02	; 2
 5b0:	8f ef       	ldi	r24, 0xFF	; 255
 5b2:	93 e0       	ldi	r25, 0x03	; 3
 5b4:	0d de       	rcall	.-998    	; 0x1d0 <rgbWrite>
 5b6:	bf 92       	push	r11
 5b8:	af 92       	push	r10
 5ba:	1f 92       	push	r1
 5bc:	4f 92       	push	r4
 5be:	c2 de       	rcall	.-636    	; 0x344 <lcdWriteText>
 5c0:	0f 90       	pop	r0
 5c2:	0f 90       	pop	r0
 5c4:	0f 90       	pop	r0
 5c6:	0f 90       	pop	r0
 5c8:	76 2c       	mov	r7, r6
 5ca:	25 c0       	rjmp	.+74     	; 0x616 <initBoard+0x1ea>
 5cc:	8f ef       	ldi	r24, 0xFF	; 255
 5ce:	9c e7       	ldi	r25, 0x7C	; 124
 5d0:	01 97       	sbiw	r24, 0x01	; 1
 5d2:	f1 f7       	brne	.-4      	; 0x5d0 <initBoard+0x1a4>
 5d4:	00 c0       	rjmp	.+0      	; 0x5d6 <initBoard+0x1aa>
 5d6:	00 00       	nop
 5d8:	b8 cf       	rjmp	.-144    	; 0x54a <initBoard+0x11e>
 5da:	f0 de       	rcall	.-544    	; 0x3bc <lcdClear>
 5dc:	80 e0       	ldi	r24, 0x00	; 0
 5de:	2f de       	rcall	.-930    	; 0x23e <lcdLight>
 5e0:	80 e0       	ldi	r24, 0x00	; 0
 5e2:	90 e0       	ldi	r25, 0x00	; 0
 5e4:	c5 dd       	rcall	.-1142   	; 0x170 <ledWriteAll>
 5e6:	40 e0       	ldi	r20, 0x00	; 0
 5e8:	50 e0       	ldi	r21, 0x00	; 0
 5ea:	60 e0       	ldi	r22, 0x00	; 0
 5ec:	70 e0       	ldi	r23, 0x00	; 0
 5ee:	80 e0       	ldi	r24, 0x00	; 0
 5f0:	90 e0       	ldi	r25, 0x00	; 0
 5f2:	ee dd       	rcall	.-1060   	; 0x1d0 <rgbWrite>
 5f4:	10 92 79 02 	sts	0x0279, r1	; 0x800279 <systemTimeMs>
 5f8:	10 92 7a 02 	sts	0x027A, r1	; 0x80027a <systemTimeMs+0x1>
 5fc:	10 92 7b 02 	sts	0x027B, r1	; 0x80027b <systemTimeMs+0x2>
 600:	10 92 7c 02 	sts	0x027C, r1	; 0x80027c <systemTimeMs+0x3>
 604:	10 92 7d 02 	sts	0x027D, r1	; 0x80027d <systemTimeMs+0x4>
 608:	10 92 7e 02 	sts	0x027E, r1	; 0x80027e <systemTimeMs+0x5>
 60c:	10 92 7f 02 	sts	0x027F, r1	; 0x80027f <systemTimeMs+0x6>
 610:	10 92 80 02 	sts	0x0280, r1	; 0x800280 <systemTimeMs+0x7>
 614:	05 c0       	rjmp	.+10     	; 0x620 <initBoard+0x1f4>
 616:	f8 01       	movw	r30, r16
 618:	80 81       	ld	r24, Z
 61a:	83 7c       	andi	r24, 0xC3	; 195
 61c:	b9 f6       	brne	.-82     	; 0x5cc <initBoard+0x1a0>
 61e:	dd cf       	rjmp	.-70     	; 0x5da <initBoard+0x1ae>
 620:	df 91       	pop	r29
 622:	cf 91       	pop	r28
 624:	1f 91       	pop	r17
 626:	0f 91       	pop	r16
 628:	ff 90       	pop	r15
 62a:	ef 90       	pop	r14
 62c:	df 90       	pop	r13
 62e:	cf 90       	pop	r12
 630:	bf 90       	pop	r11
 632:	af 90       	pop	r10
 634:	9f 90       	pop	r9
 636:	8f 90       	pop	r8
 638:	7f 90       	pop	r7
 63a:	6f 90       	pop	r6
 63c:	5f 90       	pop	r5
 63e:	4f 90       	pop	r4
 640:	08 95       	ret

00000642 <matrixWriteNextLine>:




void matrixWriteNextLine(void)
{
 642:	cf 93       	push	r28
 644:	df 93       	push	r29
 646:	cd b7       	in	r28, 0x3d	; 61
 648:	de b7       	in	r29, 0x3e	; 62
 64a:	28 97       	sbiw	r28, 0x08	; 8
 64c:	0f b6       	in	r0, 0x3f	; 63
 64e:	f8 94       	cli
 650:	de bf       	out	0x3e, r29	; 62
 652:	0f be       	out	0x3f, r0	; 63
 654:	cd bf       	out	0x3d, r28	; 61
    const  uint8_t Bit_Muster_Tab[8] = {1,2,4,8,16,32,64,128};
 656:	88 e0       	ldi	r24, 0x08	; 8
 658:	e0 e0       	ldi	r30, 0x00	; 0
 65a:	f2 e0       	ldi	r31, 0x02	; 2
 65c:	de 01       	movw	r26, r28
 65e:	11 96       	adiw	r26, 0x01	; 1
 660:	01 90       	ld	r0, Z+
 662:	0d 92       	st	X+, r0
 664:	8a 95       	dec	r24
 666:	e1 f7       	brne	.-8      	; 0x660 <matrixWriteNextLine+0x1e>
    static uint16_t Zeilen_Nr, Bit_Muster;
    uint8_t i;
    
    STROBE_0;                             // Daten des Scheiberegisters nicht ins Latch schreiben
 668:	e5 e0       	ldi	r30, 0x05	; 5
 66a:	f1 e0       	ldi	r31, 0x01	; 1
 66c:	80 81       	ld	r24, Z
 66e:	8f 7b       	andi	r24, 0xBF	; 191
 670:	80 83       	st	Z, r24

    Bit_Muster = Bit_Muster_Tab[Zeilen_Nr]; // Bitmuster aus Tabelle holen, um mit Daten in matrix[] zu vergleichen.
 672:	e0 91 76 02 	lds	r30, 0x0276	; 0x800276 <Zeilen_Nr.2725>
 676:	f0 91 77 02 	lds	r31, 0x0277	; 0x800277 <Zeilen_Nr.2725+0x1>
 67a:	81 e0       	ldi	r24, 0x01	; 1
 67c:	90 e0       	ldi	r25, 0x00	; 0
 67e:	8c 0f       	add	r24, r28
 680:	9d 1f       	adc	r25, r29
 682:	e8 0f       	add	r30, r24
 684:	f9 1f       	adc	r31, r25
 686:	80 81       	ld	r24, Z
 688:	90 e0       	ldi	r25, 0x00	; 0
 68a:	90 93 75 02 	sts	0x0275, r25	; 0x800275 <__data_end+0x1>
 68e:	80 93 74 02 	sts	0x0274, r24	; 0x800274 <__data_end>
 692:	a2 ef       	ldi	r26, 0xF2	; 242
 694:	b2 e0       	ldi	r27, 0x02	; 2
 696:	22 e8       	ldi	r18, 0x82	; 130
 698:	32 e0       	ldi	r19, 0x02	; 2
    {                                       // Vergleicht Bit-Muster der aktuellen Zeile mit Daten in matrix[]
        if((matrix[Anzahl_Spalten-1- i] & Bit_Muster) != 0)     // Ist in matrix[] das entsprechende Bit gesetzt?
        { DATA_Modul_1_ON;                    //   JA:   ==> Datenbit "1" ins Schieberegister schreiben
        }
        else
        { DATA_Modul_1_OFF;                   //   NEIN: ==> Datenbit "0" ins Schieberegister schreiben
 69a:	e5 e0       	ldi	r30, 0x05	; 5
 69c:	f1 e0       	ldi	r31, 0x01	; 1
    Bit_Muster = Bit_Muster_Tab[Zeilen_Nr]; // Bitmuster aus Tabelle holen, um mit Daten in matrix[] zu vergleichen.
    
    // Alle Bits seriell ins Schieberegister hineinschreiben
    for(i=0; i<Anzahl_Spalten; i++)         // Alle Spalten durchgehen und überpüfen, ob Bit gesetzt ist
    {                                       // Vergleicht Bit-Muster der aktuellen Zeile mit Daten in matrix[]
        if((matrix[Anzahl_Spalten-1- i] & Bit_Muster) != 0)     // Ist in matrix[] das entsprechende Bit gesetzt?
 69e:	5e 91       	ld	r21, -X
 6a0:	4e 91       	ld	r20, -X
 6a2:	80 91 74 02 	lds	r24, 0x0274	; 0x800274 <__data_end>
 6a6:	90 91 75 02 	lds	r25, 0x0275	; 0x800275 <__data_end+0x1>
 6aa:	84 23       	and	r24, r20
 6ac:	95 23       	and	r25, r21
 6ae:	89 2b       	or	r24, r25
 6b0:	21 f0       	breq	.+8      	; 0x6ba <matrixWriteNextLine+0x78>
        { DATA_Modul_1_ON;                    //   JA:   ==> Datenbit "1" ins Schieberegister schreiben
 6b2:	80 81       	ld	r24, Z
 6b4:	80 62       	ori	r24, 0x20	; 32
 6b6:	80 83       	st	Z, r24
 6b8:	03 c0       	rjmp	.+6      	; 0x6c0 <matrixWriteNextLine+0x7e>
        }
        else
        { DATA_Modul_1_OFF;                   //   NEIN: ==> Datenbit "0" ins Schieberegister schreiben
 6ba:	80 81       	ld	r24, Z
 6bc:	8f 7d       	andi	r24, 0xDF	; 223
 6be:	80 83       	st	Z, r24
        }
        CLOCK_1;
 6c0:	80 81       	ld	r24, Z
 6c2:	80 61       	ori	r24, 0x10	; 16
 6c4:	80 83       	st	Z, r24
        CLOCK_0;                            // Datenbit wird bei der negativen Flanke des Clock-Signals übernommen
 6c6:	80 81       	ld	r24, Z
 6c8:	8f 7e       	andi	r24, 0xEF	; 239
 6ca:	80 83       	st	Z, r24
    STROBE_0;                             // Daten des Scheiberegisters nicht ins Latch schreiben

    Bit_Muster = Bit_Muster_Tab[Zeilen_Nr]; // Bitmuster aus Tabelle holen, um mit Daten in matrix[] zu vergleichen.
    
    // Alle Bits seriell ins Schieberegister hineinschreiben
    for(i=0; i<Anzahl_Spalten; i++)         // Alle Spalten durchgehen und überpüfen, ob Bit gesetzt ist
 6cc:	a2 17       	cp	r26, r18
 6ce:	b3 07       	cpc	r27, r19
 6d0:	31 f7       	brne	.-52     	; 0x69e <matrixWriteNextLine+0x5c>
        }
        CLOCK_1;
        CLOCK_0;                            // Datenbit wird bei der negativen Flanke des Clock-Signals übernommen
    }
    
    ENABLE_0;                                // +5V aller Zeilen abschalten
 6d2:	e5 e0       	ldi	r30, 0x05	; 5
 6d4:	f1 e0       	ldi	r31, 0x01	; 1
 6d6:	80 81       	ld	r24, Z
 6d8:	87 7f       	andi	r24, 0xF7	; 247
 6da:	80 83       	st	Z, r24
    PORTJ &= ~0x07;
 6dc:	80 81       	ld	r24, Z
 6de:	88 7f       	andi	r24, 0xF8	; 248
 6e0:	80 83       	st	Z, r24
    PORTJ |= Zeilen_Nr;                     // gewünschte Zeile einstellen
 6e2:	90 81       	ld	r25, Z
 6e4:	80 91 76 02 	lds	r24, 0x0276	; 0x800276 <Zeilen_Nr.2725>
 6e8:	89 2b       	or	r24, r25
 6ea:	80 83       	st	Z, r24
    STROBE_1;                             // Daten ins Latch schreiben
 6ec:	80 81       	ld	r24, Z
 6ee:	80 64       	ori	r24, 0x40	; 64
 6f0:	80 83       	st	Z, r24
    ENABLE_1;                             // +5V Speisung der eingestellten Zeile einschalten
 6f2:	80 81       	ld	r24, Z
 6f4:	88 60       	ori	r24, 0x08	; 8
 6f6:	80 83       	st	Z, r24

    // Die Zeilen werden nacheinander eingeschaltet --> zyklisch 0,1,2,3,4,5,6,7, 0,1,2,3, ...
    if (Zeilen_Nr < 7)
 6f8:	80 91 76 02 	lds	r24, 0x0276	; 0x800276 <Zeilen_Nr.2725>
 6fc:	90 91 77 02 	lds	r25, 0x0277	; 0x800277 <Zeilen_Nr.2725+0x1>
 700:	87 30       	cpi	r24, 0x07	; 7
 702:	91 05       	cpc	r25, r1
 704:	30 f4       	brcc	.+12     	; 0x712 <matrixWriteNextLine+0xd0>
    {
        Zeilen_Nr++;
 706:	01 96       	adiw	r24, 0x01	; 1
 708:	90 93 77 02 	sts	0x0277, r25	; 0x800277 <Zeilen_Nr.2725+0x1>
 70c:	80 93 76 02 	sts	0x0276, r24	; 0x800276 <Zeilen_Nr.2725>
 710:	07 c0       	rjmp	.+14     	; 0x720 <matrixWriteNextLine+0xde>
    }
    else
    {
        Zeilen_Nr = 0;
 712:	10 92 77 02 	sts	0x0277, r1	; 0x800277 <Zeilen_Nr.2725+0x1>
 716:	10 92 76 02 	sts	0x0276, r1	; 0x800276 <Zeilen_Nr.2725>
        writeTextFinished = 1;
 71a:	81 e0       	ldi	r24, 0x01	; 1
 71c:	80 93 78 02 	sts	0x0278, r24	; 0x800278 <writeTextFinished>
    }
    
 720:	28 96       	adiw	r28, 0x08	; 8
 722:	0f b6       	in	r0, 0x3f	; 63
 724:	f8 94       	cli
 726:	de bf       	out	0x3e, r29	; 62
 728:	0f be       	out	0x3f, r0	; 63
 72a:	cd bf       	out	0x3d, r28	; 61
 72c:	df 91       	pop	r29
 72e:	cf 91       	pop	r28
 730:	08 95       	ret

00000732 <__vector_23>:
//--------------------------------------------------------------------------------------------
// Timer 0 Overflow Interrupt ->  Wird alle 1ms aufgerufen
//--------------------------------------------------------------------------------------------

ISR(TIMER0_OVF_vect)
{
 732:	1f 92       	push	r1
 734:	0f 92       	push	r0
 736:	0f b6       	in	r0, 0x3f	; 63
 738:	0f 92       	push	r0
 73a:	11 24       	eor	r1, r1
 73c:	0b b6       	in	r0, 0x3b	; 59
 73e:	0f 92       	push	r0
 740:	2f 93       	push	r18
 742:	3f 93       	push	r19
 744:	4f 93       	push	r20
 746:	5f 93       	push	r21
 748:	6f 93       	push	r22
 74a:	7f 93       	push	r23
 74c:	8f 93       	push	r24
 74e:	9f 93       	push	r25
 750:	af 93       	push	r26
 752:	bf 93       	push	r27
 754:	ef 93       	push	r30
 756:	ff 93       	push	r31
    systemTimeMs += 1;
 758:	20 91 79 02 	lds	r18, 0x0279	; 0x800279 <systemTimeMs>
 75c:	30 91 7a 02 	lds	r19, 0x027A	; 0x80027a <systemTimeMs+0x1>
 760:	40 91 7b 02 	lds	r20, 0x027B	; 0x80027b <systemTimeMs+0x2>
 764:	50 91 7c 02 	lds	r21, 0x027C	; 0x80027c <systemTimeMs+0x3>
 768:	60 91 7d 02 	lds	r22, 0x027D	; 0x80027d <systemTimeMs+0x4>
 76c:	70 91 7e 02 	lds	r23, 0x027E	; 0x80027e <systemTimeMs+0x5>
 770:	80 91 7f 02 	lds	r24, 0x027F	; 0x80027f <systemTimeMs+0x6>
 774:	90 91 80 02 	lds	r25, 0x0280	; 0x800280 <systemTimeMs+0x7>
 778:	a1 e0       	ldi	r26, 0x01	; 1
 77a:	27 d0       	rcall	.+78     	; 0x7ca <__adddi3_s8>
 77c:	20 93 79 02 	sts	0x0279, r18	; 0x800279 <systemTimeMs>
 780:	30 93 7a 02 	sts	0x027A, r19	; 0x80027a <systemTimeMs+0x1>
 784:	40 93 7b 02 	sts	0x027B, r20	; 0x80027b <systemTimeMs+0x2>
 788:	50 93 7c 02 	sts	0x027C, r21	; 0x80027c <systemTimeMs+0x3>
 78c:	60 93 7d 02 	sts	0x027D, r22	; 0x80027d <systemTimeMs+0x4>
 790:	70 93 7e 02 	sts	0x027E, r23	; 0x80027e <systemTimeMs+0x5>
 794:	80 93 7f 02 	sts	0x027F, r24	; 0x80027f <systemTimeMs+0x6>
 798:	90 93 80 02 	sts	0x0280, r25	; 0x800280 <systemTimeMs+0x7>

    if(matrixRunning)matrixWriteNextLine();
 79c:	80 91 81 02 	lds	r24, 0x0281	; 0x800281 <matrixRunning>
 7a0:	81 11       	cpse	r24, r1
 7a2:	4f df       	rcall	.-354    	; 0x642 <matrixWriteNextLine>
}
 7a4:	ff 91       	pop	r31
 7a6:	ef 91       	pop	r30
 7a8:	bf 91       	pop	r27
 7aa:	af 91       	pop	r26
 7ac:	9f 91       	pop	r25
 7ae:	8f 91       	pop	r24
 7b0:	7f 91       	pop	r23
 7b2:	6f 91       	pop	r22
 7b4:	5f 91       	pop	r21
 7b6:	4f 91       	pop	r20
 7b8:	3f 91       	pop	r19
 7ba:	2f 91       	pop	r18
 7bc:	0f 90       	pop	r0
 7be:	0b be       	out	0x3b, r0	; 59
 7c0:	0f 90       	pop	r0
 7c2:	0f be       	out	0x3f, r0	; 63
 7c4:	0f 90       	pop	r0
 7c6:	1f 90       	pop	r1
 7c8:	18 95       	reti

000007ca <__adddi3_s8>:
 7ca:	00 24       	eor	r0, r0
 7cc:	a7 fd       	sbrc	r26, 7
 7ce:	00 94       	com	r0
 7d0:	2a 0f       	add	r18, r26
 7d2:	30 1d       	adc	r19, r0
 7d4:	40 1d       	adc	r20, r0
 7d6:	50 1d       	adc	r21, r0
 7d8:	60 1d       	adc	r22, r0
 7da:	70 1d       	adc	r23, r0
 7dc:	80 1d       	adc	r24, r0
 7de:	90 1d       	adc	r25, r0
 7e0:	08 95       	ret

000007e2 <vsnprintf>:
 7e2:	0f 93       	push	r16
 7e4:	1f 93       	push	r17
 7e6:	cf 93       	push	r28
 7e8:	df 93       	push	r29
 7ea:	cd b7       	in	r28, 0x3d	; 61
 7ec:	de b7       	in	r29, 0x3e	; 62
 7ee:	2e 97       	sbiw	r28, 0x0e	; 14
 7f0:	0f b6       	in	r0, 0x3f	; 63
 7f2:	f8 94       	cli
 7f4:	de bf       	out	0x3e, r29	; 62
 7f6:	0f be       	out	0x3f, r0	; 63
 7f8:	cd bf       	out	0x3d, r28	; 61
 7fa:	8c 01       	movw	r16, r24
 7fc:	fa 01       	movw	r30, r20
 7fe:	86 e0       	ldi	r24, 0x06	; 6
 800:	8c 83       	std	Y+4, r24	; 0x04
 802:	1a 83       	std	Y+2, r17	; 0x02
 804:	09 83       	std	Y+1, r16	; 0x01
 806:	77 ff       	sbrs	r23, 7
 808:	02 c0       	rjmp	.+4      	; 0x80e <vsnprintf+0x2c>
 80a:	60 e0       	ldi	r22, 0x00	; 0
 80c:	70 e8       	ldi	r23, 0x80	; 128
 80e:	cb 01       	movw	r24, r22
 810:	01 97       	sbiw	r24, 0x01	; 1
 812:	9e 83       	std	Y+6, r25	; 0x06
 814:	8d 83       	std	Y+5, r24	; 0x05
 816:	a9 01       	movw	r20, r18
 818:	bf 01       	movw	r22, r30
 81a:	ce 01       	movw	r24, r28
 81c:	01 96       	adiw	r24, 0x01	; 1
 81e:	19 d0       	rcall	.+50     	; 0x852 <vfprintf>
 820:	4d 81       	ldd	r20, Y+5	; 0x05
 822:	5e 81       	ldd	r21, Y+6	; 0x06
 824:	57 fd       	sbrc	r21, 7
 826:	0a c0       	rjmp	.+20     	; 0x83c <vsnprintf+0x5a>
 828:	2f 81       	ldd	r18, Y+7	; 0x07
 82a:	38 85       	ldd	r19, Y+8	; 0x08
 82c:	42 17       	cp	r20, r18
 82e:	53 07       	cpc	r21, r19
 830:	0c f4       	brge	.+2      	; 0x834 <vsnprintf+0x52>
 832:	9a 01       	movw	r18, r20
 834:	f8 01       	movw	r30, r16
 836:	e2 0f       	add	r30, r18
 838:	f3 1f       	adc	r31, r19
 83a:	10 82       	st	Z, r1
 83c:	2e 96       	adiw	r28, 0x0e	; 14
 83e:	0f b6       	in	r0, 0x3f	; 63
 840:	f8 94       	cli
 842:	de bf       	out	0x3e, r29	; 62
 844:	0f be       	out	0x3f, r0	; 63
 846:	cd bf       	out	0x3d, r28	; 61
 848:	df 91       	pop	r29
 84a:	cf 91       	pop	r28
 84c:	1f 91       	pop	r17
 84e:	0f 91       	pop	r16
 850:	08 95       	ret

00000852 <vfprintf>:
 852:	2f 92       	push	r2
 854:	3f 92       	push	r3
 856:	4f 92       	push	r4
 858:	5f 92       	push	r5
 85a:	6f 92       	push	r6
 85c:	7f 92       	push	r7
 85e:	8f 92       	push	r8
 860:	9f 92       	push	r9
 862:	af 92       	push	r10
 864:	bf 92       	push	r11
 866:	cf 92       	push	r12
 868:	df 92       	push	r13
 86a:	ef 92       	push	r14
 86c:	ff 92       	push	r15
 86e:	0f 93       	push	r16
 870:	1f 93       	push	r17
 872:	cf 93       	push	r28
 874:	df 93       	push	r29
 876:	cd b7       	in	r28, 0x3d	; 61
 878:	de b7       	in	r29, 0x3e	; 62
 87a:	2b 97       	sbiw	r28, 0x0b	; 11
 87c:	0f b6       	in	r0, 0x3f	; 63
 87e:	f8 94       	cli
 880:	de bf       	out	0x3e, r29	; 62
 882:	0f be       	out	0x3f, r0	; 63
 884:	cd bf       	out	0x3d, r28	; 61
 886:	6c 01       	movw	r12, r24
 888:	7b 01       	movw	r14, r22
 88a:	8a 01       	movw	r16, r20
 88c:	fc 01       	movw	r30, r24
 88e:	17 82       	std	Z+7, r1	; 0x07
 890:	16 82       	std	Z+6, r1	; 0x06
 892:	83 81       	ldd	r24, Z+3	; 0x03
 894:	81 ff       	sbrs	r24, 1
 896:	bf c1       	rjmp	.+894    	; 0xc16 <vfprintf+0x3c4>
 898:	ce 01       	movw	r24, r28
 89a:	01 96       	adiw	r24, 0x01	; 1
 89c:	3c 01       	movw	r6, r24
 89e:	f6 01       	movw	r30, r12
 8a0:	93 81       	ldd	r25, Z+3	; 0x03
 8a2:	f7 01       	movw	r30, r14
 8a4:	93 fd       	sbrc	r25, 3
 8a6:	85 91       	lpm	r24, Z+
 8a8:	93 ff       	sbrs	r25, 3
 8aa:	81 91       	ld	r24, Z+
 8ac:	7f 01       	movw	r14, r30
 8ae:	88 23       	and	r24, r24
 8b0:	09 f4       	brne	.+2      	; 0x8b4 <vfprintf+0x62>
 8b2:	ad c1       	rjmp	.+858    	; 0xc0e <vfprintf+0x3bc>
 8b4:	85 32       	cpi	r24, 0x25	; 37
 8b6:	39 f4       	brne	.+14     	; 0x8c6 <vfprintf+0x74>
 8b8:	93 fd       	sbrc	r25, 3
 8ba:	85 91       	lpm	r24, Z+
 8bc:	93 ff       	sbrs	r25, 3
 8be:	81 91       	ld	r24, Z+
 8c0:	7f 01       	movw	r14, r30
 8c2:	85 32       	cpi	r24, 0x25	; 37
 8c4:	21 f4       	brne	.+8      	; 0x8ce <vfprintf+0x7c>
 8c6:	b6 01       	movw	r22, r12
 8c8:	90 e0       	ldi	r25, 0x00	; 0
 8ca:	d6 d1       	rcall	.+940    	; 0xc78 <fputc>
 8cc:	e8 cf       	rjmp	.-48     	; 0x89e <vfprintf+0x4c>
 8ce:	91 2c       	mov	r9, r1
 8d0:	21 2c       	mov	r2, r1
 8d2:	31 2c       	mov	r3, r1
 8d4:	ff e1       	ldi	r31, 0x1F	; 31
 8d6:	f3 15       	cp	r31, r3
 8d8:	d8 f0       	brcs	.+54     	; 0x910 <vfprintf+0xbe>
 8da:	8b 32       	cpi	r24, 0x2B	; 43
 8dc:	79 f0       	breq	.+30     	; 0x8fc <vfprintf+0xaa>
 8de:	38 f4       	brcc	.+14     	; 0x8ee <vfprintf+0x9c>
 8e0:	80 32       	cpi	r24, 0x20	; 32
 8e2:	79 f0       	breq	.+30     	; 0x902 <vfprintf+0xb0>
 8e4:	83 32       	cpi	r24, 0x23	; 35
 8e6:	a1 f4       	brne	.+40     	; 0x910 <vfprintf+0xbe>
 8e8:	23 2d       	mov	r18, r3
 8ea:	20 61       	ori	r18, 0x10	; 16
 8ec:	1d c0       	rjmp	.+58     	; 0x928 <vfprintf+0xd6>
 8ee:	8d 32       	cpi	r24, 0x2D	; 45
 8f0:	61 f0       	breq	.+24     	; 0x90a <vfprintf+0xb8>
 8f2:	80 33       	cpi	r24, 0x30	; 48
 8f4:	69 f4       	brne	.+26     	; 0x910 <vfprintf+0xbe>
 8f6:	23 2d       	mov	r18, r3
 8f8:	21 60       	ori	r18, 0x01	; 1
 8fa:	16 c0       	rjmp	.+44     	; 0x928 <vfprintf+0xd6>
 8fc:	83 2d       	mov	r24, r3
 8fe:	82 60       	ori	r24, 0x02	; 2
 900:	38 2e       	mov	r3, r24
 902:	e3 2d       	mov	r30, r3
 904:	e4 60       	ori	r30, 0x04	; 4
 906:	3e 2e       	mov	r3, r30
 908:	2a c0       	rjmp	.+84     	; 0x95e <vfprintf+0x10c>
 90a:	f3 2d       	mov	r31, r3
 90c:	f8 60       	ori	r31, 0x08	; 8
 90e:	1d c0       	rjmp	.+58     	; 0x94a <vfprintf+0xf8>
 910:	37 fc       	sbrc	r3, 7
 912:	2d c0       	rjmp	.+90     	; 0x96e <vfprintf+0x11c>
 914:	20 ed       	ldi	r18, 0xD0	; 208
 916:	28 0f       	add	r18, r24
 918:	2a 30       	cpi	r18, 0x0A	; 10
 91a:	40 f0       	brcs	.+16     	; 0x92c <vfprintf+0xda>
 91c:	8e 32       	cpi	r24, 0x2E	; 46
 91e:	b9 f4       	brne	.+46     	; 0x94e <vfprintf+0xfc>
 920:	36 fc       	sbrc	r3, 6
 922:	75 c1       	rjmp	.+746    	; 0xc0e <vfprintf+0x3bc>
 924:	23 2d       	mov	r18, r3
 926:	20 64       	ori	r18, 0x40	; 64
 928:	32 2e       	mov	r3, r18
 92a:	19 c0       	rjmp	.+50     	; 0x95e <vfprintf+0x10c>
 92c:	36 fe       	sbrs	r3, 6
 92e:	06 c0       	rjmp	.+12     	; 0x93c <vfprintf+0xea>
 930:	8a e0       	ldi	r24, 0x0A	; 10
 932:	98 9e       	mul	r9, r24
 934:	20 0d       	add	r18, r0
 936:	11 24       	eor	r1, r1
 938:	92 2e       	mov	r9, r18
 93a:	11 c0       	rjmp	.+34     	; 0x95e <vfprintf+0x10c>
 93c:	ea e0       	ldi	r30, 0x0A	; 10
 93e:	2e 9e       	mul	r2, r30
 940:	20 0d       	add	r18, r0
 942:	11 24       	eor	r1, r1
 944:	22 2e       	mov	r2, r18
 946:	f3 2d       	mov	r31, r3
 948:	f0 62       	ori	r31, 0x20	; 32
 94a:	3f 2e       	mov	r3, r31
 94c:	08 c0       	rjmp	.+16     	; 0x95e <vfprintf+0x10c>
 94e:	8c 36       	cpi	r24, 0x6C	; 108
 950:	21 f4       	brne	.+8      	; 0x95a <vfprintf+0x108>
 952:	83 2d       	mov	r24, r3
 954:	80 68       	ori	r24, 0x80	; 128
 956:	38 2e       	mov	r3, r24
 958:	02 c0       	rjmp	.+4      	; 0x95e <vfprintf+0x10c>
 95a:	88 36       	cpi	r24, 0x68	; 104
 95c:	41 f4       	brne	.+16     	; 0x96e <vfprintf+0x11c>
 95e:	f7 01       	movw	r30, r14
 960:	93 fd       	sbrc	r25, 3
 962:	85 91       	lpm	r24, Z+
 964:	93 ff       	sbrs	r25, 3
 966:	81 91       	ld	r24, Z+
 968:	7f 01       	movw	r14, r30
 96a:	81 11       	cpse	r24, r1
 96c:	b3 cf       	rjmp	.-154    	; 0x8d4 <vfprintf+0x82>
 96e:	98 2f       	mov	r25, r24
 970:	9f 7d       	andi	r25, 0xDF	; 223
 972:	95 54       	subi	r25, 0x45	; 69
 974:	93 30       	cpi	r25, 0x03	; 3
 976:	28 f4       	brcc	.+10     	; 0x982 <vfprintf+0x130>
 978:	0c 5f       	subi	r16, 0xFC	; 252
 97a:	1f 4f       	sbci	r17, 0xFF	; 255
 97c:	9f e3       	ldi	r25, 0x3F	; 63
 97e:	99 83       	std	Y+1, r25	; 0x01
 980:	0d c0       	rjmp	.+26     	; 0x99c <vfprintf+0x14a>
 982:	83 36       	cpi	r24, 0x63	; 99
 984:	31 f0       	breq	.+12     	; 0x992 <vfprintf+0x140>
 986:	83 37       	cpi	r24, 0x73	; 115
 988:	71 f0       	breq	.+28     	; 0x9a6 <vfprintf+0x154>
 98a:	83 35       	cpi	r24, 0x53	; 83
 98c:	09 f0       	breq	.+2      	; 0x990 <vfprintf+0x13e>
 98e:	55 c0       	rjmp	.+170    	; 0xa3a <vfprintf+0x1e8>
 990:	20 c0       	rjmp	.+64     	; 0x9d2 <vfprintf+0x180>
 992:	f8 01       	movw	r30, r16
 994:	80 81       	ld	r24, Z
 996:	89 83       	std	Y+1, r24	; 0x01
 998:	0e 5f       	subi	r16, 0xFE	; 254
 99a:	1f 4f       	sbci	r17, 0xFF	; 255
 99c:	88 24       	eor	r8, r8
 99e:	83 94       	inc	r8
 9a0:	91 2c       	mov	r9, r1
 9a2:	53 01       	movw	r10, r6
 9a4:	12 c0       	rjmp	.+36     	; 0x9ca <vfprintf+0x178>
 9a6:	28 01       	movw	r4, r16
 9a8:	f2 e0       	ldi	r31, 0x02	; 2
 9aa:	4f 0e       	add	r4, r31
 9ac:	51 1c       	adc	r5, r1
 9ae:	f8 01       	movw	r30, r16
 9b0:	a0 80       	ld	r10, Z
 9b2:	b1 80       	ldd	r11, Z+1	; 0x01
 9b4:	36 fe       	sbrs	r3, 6
 9b6:	03 c0       	rjmp	.+6      	; 0x9be <vfprintf+0x16c>
 9b8:	69 2d       	mov	r22, r9
 9ba:	70 e0       	ldi	r23, 0x00	; 0
 9bc:	02 c0       	rjmp	.+4      	; 0x9c2 <vfprintf+0x170>
 9be:	6f ef       	ldi	r22, 0xFF	; 255
 9c0:	7f ef       	ldi	r23, 0xFF	; 255
 9c2:	c5 01       	movw	r24, r10
 9c4:	4e d1       	rcall	.+668    	; 0xc62 <strnlen>
 9c6:	4c 01       	movw	r8, r24
 9c8:	82 01       	movw	r16, r4
 9ca:	f3 2d       	mov	r31, r3
 9cc:	ff 77       	andi	r31, 0x7F	; 127
 9ce:	3f 2e       	mov	r3, r31
 9d0:	15 c0       	rjmp	.+42     	; 0x9fc <vfprintf+0x1aa>
 9d2:	28 01       	movw	r4, r16
 9d4:	22 e0       	ldi	r18, 0x02	; 2
 9d6:	42 0e       	add	r4, r18
 9d8:	51 1c       	adc	r5, r1
 9da:	f8 01       	movw	r30, r16
 9dc:	a0 80       	ld	r10, Z
 9de:	b1 80       	ldd	r11, Z+1	; 0x01
 9e0:	36 fe       	sbrs	r3, 6
 9e2:	03 c0       	rjmp	.+6      	; 0x9ea <vfprintf+0x198>
 9e4:	69 2d       	mov	r22, r9
 9e6:	70 e0       	ldi	r23, 0x00	; 0
 9e8:	02 c0       	rjmp	.+4      	; 0x9ee <vfprintf+0x19c>
 9ea:	6f ef       	ldi	r22, 0xFF	; 255
 9ec:	7f ef       	ldi	r23, 0xFF	; 255
 9ee:	c5 01       	movw	r24, r10
 9f0:	2d d1       	rcall	.+602    	; 0xc4c <strnlen_P>
 9f2:	4c 01       	movw	r8, r24
 9f4:	f3 2d       	mov	r31, r3
 9f6:	f0 68       	ori	r31, 0x80	; 128
 9f8:	3f 2e       	mov	r3, r31
 9fa:	82 01       	movw	r16, r4
 9fc:	33 fc       	sbrc	r3, 3
 9fe:	19 c0       	rjmp	.+50     	; 0xa32 <vfprintf+0x1e0>
 a00:	82 2d       	mov	r24, r2
 a02:	90 e0       	ldi	r25, 0x00	; 0
 a04:	88 16       	cp	r8, r24
 a06:	99 06       	cpc	r9, r25
 a08:	a0 f4       	brcc	.+40     	; 0xa32 <vfprintf+0x1e0>
 a0a:	b6 01       	movw	r22, r12
 a0c:	80 e2       	ldi	r24, 0x20	; 32
 a0e:	90 e0       	ldi	r25, 0x00	; 0
 a10:	33 d1       	rcall	.+614    	; 0xc78 <fputc>
 a12:	2a 94       	dec	r2
 a14:	f5 cf       	rjmp	.-22     	; 0xa00 <vfprintf+0x1ae>
 a16:	f5 01       	movw	r30, r10
 a18:	37 fc       	sbrc	r3, 7
 a1a:	85 91       	lpm	r24, Z+
 a1c:	37 fe       	sbrs	r3, 7
 a1e:	81 91       	ld	r24, Z+
 a20:	5f 01       	movw	r10, r30
 a22:	b6 01       	movw	r22, r12
 a24:	90 e0       	ldi	r25, 0x00	; 0
 a26:	28 d1       	rcall	.+592    	; 0xc78 <fputc>
 a28:	21 10       	cpse	r2, r1
 a2a:	2a 94       	dec	r2
 a2c:	21 e0       	ldi	r18, 0x01	; 1
 a2e:	82 1a       	sub	r8, r18
 a30:	91 08       	sbc	r9, r1
 a32:	81 14       	cp	r8, r1
 a34:	91 04       	cpc	r9, r1
 a36:	79 f7       	brne	.-34     	; 0xa16 <vfprintf+0x1c4>
 a38:	e1 c0       	rjmp	.+450    	; 0xbfc <vfprintf+0x3aa>
 a3a:	84 36       	cpi	r24, 0x64	; 100
 a3c:	11 f0       	breq	.+4      	; 0xa42 <vfprintf+0x1f0>
 a3e:	89 36       	cpi	r24, 0x69	; 105
 a40:	39 f5       	brne	.+78     	; 0xa90 <vfprintf+0x23e>
 a42:	f8 01       	movw	r30, r16
 a44:	37 fe       	sbrs	r3, 7
 a46:	07 c0       	rjmp	.+14     	; 0xa56 <vfprintf+0x204>
 a48:	60 81       	ld	r22, Z
 a4a:	71 81       	ldd	r23, Z+1	; 0x01
 a4c:	82 81       	ldd	r24, Z+2	; 0x02
 a4e:	93 81       	ldd	r25, Z+3	; 0x03
 a50:	0c 5f       	subi	r16, 0xFC	; 252
 a52:	1f 4f       	sbci	r17, 0xFF	; 255
 a54:	08 c0       	rjmp	.+16     	; 0xa66 <vfprintf+0x214>
 a56:	60 81       	ld	r22, Z
 a58:	71 81       	ldd	r23, Z+1	; 0x01
 a5a:	07 2e       	mov	r0, r23
 a5c:	00 0c       	add	r0, r0
 a5e:	88 0b       	sbc	r24, r24
 a60:	99 0b       	sbc	r25, r25
 a62:	0e 5f       	subi	r16, 0xFE	; 254
 a64:	1f 4f       	sbci	r17, 0xFF	; 255
 a66:	f3 2d       	mov	r31, r3
 a68:	ff 76       	andi	r31, 0x6F	; 111
 a6a:	3f 2e       	mov	r3, r31
 a6c:	97 ff       	sbrs	r25, 7
 a6e:	09 c0       	rjmp	.+18     	; 0xa82 <vfprintf+0x230>
 a70:	90 95       	com	r25
 a72:	80 95       	com	r24
 a74:	70 95       	com	r23
 a76:	61 95       	neg	r22
 a78:	7f 4f       	sbci	r23, 0xFF	; 255
 a7a:	8f 4f       	sbci	r24, 0xFF	; 255
 a7c:	9f 4f       	sbci	r25, 0xFF	; 255
 a7e:	f0 68       	ori	r31, 0x80	; 128
 a80:	3f 2e       	mov	r3, r31
 a82:	2a e0       	ldi	r18, 0x0A	; 10
 a84:	30 e0       	ldi	r19, 0x00	; 0
 a86:	a3 01       	movw	r20, r6
 a88:	33 d1       	rcall	.+614    	; 0xcf0 <__ultoa_invert>
 a8a:	88 2e       	mov	r8, r24
 a8c:	86 18       	sub	r8, r6
 a8e:	44 c0       	rjmp	.+136    	; 0xb18 <vfprintf+0x2c6>
 a90:	85 37       	cpi	r24, 0x75	; 117
 a92:	31 f4       	brne	.+12     	; 0xaa0 <vfprintf+0x24e>
 a94:	23 2d       	mov	r18, r3
 a96:	2f 7e       	andi	r18, 0xEF	; 239
 a98:	b2 2e       	mov	r11, r18
 a9a:	2a e0       	ldi	r18, 0x0A	; 10
 a9c:	30 e0       	ldi	r19, 0x00	; 0
 a9e:	25 c0       	rjmp	.+74     	; 0xaea <vfprintf+0x298>
 aa0:	93 2d       	mov	r25, r3
 aa2:	99 7f       	andi	r25, 0xF9	; 249
 aa4:	b9 2e       	mov	r11, r25
 aa6:	8f 36       	cpi	r24, 0x6F	; 111
 aa8:	c1 f0       	breq	.+48     	; 0xada <vfprintf+0x288>
 aaa:	18 f4       	brcc	.+6      	; 0xab2 <vfprintf+0x260>
 aac:	88 35       	cpi	r24, 0x58	; 88
 aae:	79 f0       	breq	.+30     	; 0xace <vfprintf+0x27c>
 ab0:	ae c0       	rjmp	.+348    	; 0xc0e <vfprintf+0x3bc>
 ab2:	80 37       	cpi	r24, 0x70	; 112
 ab4:	19 f0       	breq	.+6      	; 0xabc <vfprintf+0x26a>
 ab6:	88 37       	cpi	r24, 0x78	; 120
 ab8:	21 f0       	breq	.+8      	; 0xac2 <vfprintf+0x270>
 aba:	a9 c0       	rjmp	.+338    	; 0xc0e <vfprintf+0x3bc>
 abc:	e9 2f       	mov	r30, r25
 abe:	e0 61       	ori	r30, 0x10	; 16
 ac0:	be 2e       	mov	r11, r30
 ac2:	b4 fe       	sbrs	r11, 4
 ac4:	0d c0       	rjmp	.+26     	; 0xae0 <vfprintf+0x28e>
 ac6:	fb 2d       	mov	r31, r11
 ac8:	f4 60       	ori	r31, 0x04	; 4
 aca:	bf 2e       	mov	r11, r31
 acc:	09 c0       	rjmp	.+18     	; 0xae0 <vfprintf+0x28e>
 ace:	34 fe       	sbrs	r3, 4
 ad0:	0a c0       	rjmp	.+20     	; 0xae6 <vfprintf+0x294>
 ad2:	29 2f       	mov	r18, r25
 ad4:	26 60       	ori	r18, 0x06	; 6
 ad6:	b2 2e       	mov	r11, r18
 ad8:	06 c0       	rjmp	.+12     	; 0xae6 <vfprintf+0x294>
 ada:	28 e0       	ldi	r18, 0x08	; 8
 adc:	30 e0       	ldi	r19, 0x00	; 0
 ade:	05 c0       	rjmp	.+10     	; 0xaea <vfprintf+0x298>
 ae0:	20 e1       	ldi	r18, 0x10	; 16
 ae2:	30 e0       	ldi	r19, 0x00	; 0
 ae4:	02 c0       	rjmp	.+4      	; 0xaea <vfprintf+0x298>
 ae6:	20 e1       	ldi	r18, 0x10	; 16
 ae8:	32 e0       	ldi	r19, 0x02	; 2
 aea:	f8 01       	movw	r30, r16
 aec:	b7 fe       	sbrs	r11, 7
 aee:	07 c0       	rjmp	.+14     	; 0xafe <vfprintf+0x2ac>
 af0:	60 81       	ld	r22, Z
 af2:	71 81       	ldd	r23, Z+1	; 0x01
 af4:	82 81       	ldd	r24, Z+2	; 0x02
 af6:	93 81       	ldd	r25, Z+3	; 0x03
 af8:	0c 5f       	subi	r16, 0xFC	; 252
 afa:	1f 4f       	sbci	r17, 0xFF	; 255
 afc:	06 c0       	rjmp	.+12     	; 0xb0a <vfprintf+0x2b8>
 afe:	60 81       	ld	r22, Z
 b00:	71 81       	ldd	r23, Z+1	; 0x01
 b02:	80 e0       	ldi	r24, 0x00	; 0
 b04:	90 e0       	ldi	r25, 0x00	; 0
 b06:	0e 5f       	subi	r16, 0xFE	; 254
 b08:	1f 4f       	sbci	r17, 0xFF	; 255
 b0a:	a3 01       	movw	r20, r6
 b0c:	f1 d0       	rcall	.+482    	; 0xcf0 <__ultoa_invert>
 b0e:	88 2e       	mov	r8, r24
 b10:	86 18       	sub	r8, r6
 b12:	fb 2d       	mov	r31, r11
 b14:	ff 77       	andi	r31, 0x7F	; 127
 b16:	3f 2e       	mov	r3, r31
 b18:	36 fe       	sbrs	r3, 6
 b1a:	0d c0       	rjmp	.+26     	; 0xb36 <vfprintf+0x2e4>
 b1c:	23 2d       	mov	r18, r3
 b1e:	2e 7f       	andi	r18, 0xFE	; 254
 b20:	a2 2e       	mov	r10, r18
 b22:	89 14       	cp	r8, r9
 b24:	58 f4       	brcc	.+22     	; 0xb3c <vfprintf+0x2ea>
 b26:	34 fe       	sbrs	r3, 4
 b28:	0b c0       	rjmp	.+22     	; 0xb40 <vfprintf+0x2ee>
 b2a:	32 fc       	sbrc	r3, 2
 b2c:	09 c0       	rjmp	.+18     	; 0xb40 <vfprintf+0x2ee>
 b2e:	83 2d       	mov	r24, r3
 b30:	8e 7e       	andi	r24, 0xEE	; 238
 b32:	a8 2e       	mov	r10, r24
 b34:	05 c0       	rjmp	.+10     	; 0xb40 <vfprintf+0x2ee>
 b36:	b8 2c       	mov	r11, r8
 b38:	a3 2c       	mov	r10, r3
 b3a:	03 c0       	rjmp	.+6      	; 0xb42 <vfprintf+0x2f0>
 b3c:	b8 2c       	mov	r11, r8
 b3e:	01 c0       	rjmp	.+2      	; 0xb42 <vfprintf+0x2f0>
 b40:	b9 2c       	mov	r11, r9
 b42:	a4 fe       	sbrs	r10, 4
 b44:	0f c0       	rjmp	.+30     	; 0xb64 <vfprintf+0x312>
 b46:	fe 01       	movw	r30, r28
 b48:	e8 0d       	add	r30, r8
 b4a:	f1 1d       	adc	r31, r1
 b4c:	80 81       	ld	r24, Z
 b4e:	80 33       	cpi	r24, 0x30	; 48
 b50:	21 f4       	brne	.+8      	; 0xb5a <vfprintf+0x308>
 b52:	9a 2d       	mov	r25, r10
 b54:	99 7e       	andi	r25, 0xE9	; 233
 b56:	a9 2e       	mov	r10, r25
 b58:	09 c0       	rjmp	.+18     	; 0xb6c <vfprintf+0x31a>
 b5a:	a2 fe       	sbrs	r10, 2
 b5c:	06 c0       	rjmp	.+12     	; 0xb6a <vfprintf+0x318>
 b5e:	b3 94       	inc	r11
 b60:	b3 94       	inc	r11
 b62:	04 c0       	rjmp	.+8      	; 0xb6c <vfprintf+0x31a>
 b64:	8a 2d       	mov	r24, r10
 b66:	86 78       	andi	r24, 0x86	; 134
 b68:	09 f0       	breq	.+2      	; 0xb6c <vfprintf+0x31a>
 b6a:	b3 94       	inc	r11
 b6c:	a3 fc       	sbrc	r10, 3
 b6e:	10 c0       	rjmp	.+32     	; 0xb90 <vfprintf+0x33e>
 b70:	a0 fe       	sbrs	r10, 0
 b72:	06 c0       	rjmp	.+12     	; 0xb80 <vfprintf+0x32e>
 b74:	b2 14       	cp	r11, r2
 b76:	80 f4       	brcc	.+32     	; 0xb98 <vfprintf+0x346>
 b78:	28 0c       	add	r2, r8
 b7a:	92 2c       	mov	r9, r2
 b7c:	9b 18       	sub	r9, r11
 b7e:	0d c0       	rjmp	.+26     	; 0xb9a <vfprintf+0x348>
 b80:	b2 14       	cp	r11, r2
 b82:	58 f4       	brcc	.+22     	; 0xb9a <vfprintf+0x348>
 b84:	b6 01       	movw	r22, r12
 b86:	80 e2       	ldi	r24, 0x20	; 32
 b88:	90 e0       	ldi	r25, 0x00	; 0
 b8a:	76 d0       	rcall	.+236    	; 0xc78 <fputc>
 b8c:	b3 94       	inc	r11
 b8e:	f8 cf       	rjmp	.-16     	; 0xb80 <vfprintf+0x32e>
 b90:	b2 14       	cp	r11, r2
 b92:	18 f4       	brcc	.+6      	; 0xb9a <vfprintf+0x348>
 b94:	2b 18       	sub	r2, r11
 b96:	02 c0       	rjmp	.+4      	; 0xb9c <vfprintf+0x34a>
 b98:	98 2c       	mov	r9, r8
 b9a:	21 2c       	mov	r2, r1
 b9c:	a4 fe       	sbrs	r10, 4
 b9e:	0f c0       	rjmp	.+30     	; 0xbbe <vfprintf+0x36c>
 ba0:	b6 01       	movw	r22, r12
 ba2:	80 e3       	ldi	r24, 0x30	; 48
 ba4:	90 e0       	ldi	r25, 0x00	; 0
 ba6:	68 d0       	rcall	.+208    	; 0xc78 <fputc>
 ba8:	a2 fe       	sbrs	r10, 2
 baa:	16 c0       	rjmp	.+44     	; 0xbd8 <vfprintf+0x386>
 bac:	a1 fc       	sbrc	r10, 1
 bae:	03 c0       	rjmp	.+6      	; 0xbb6 <vfprintf+0x364>
 bb0:	88 e7       	ldi	r24, 0x78	; 120
 bb2:	90 e0       	ldi	r25, 0x00	; 0
 bb4:	02 c0       	rjmp	.+4      	; 0xbba <vfprintf+0x368>
 bb6:	88 e5       	ldi	r24, 0x58	; 88
 bb8:	90 e0       	ldi	r25, 0x00	; 0
 bba:	b6 01       	movw	r22, r12
 bbc:	0c c0       	rjmp	.+24     	; 0xbd6 <vfprintf+0x384>
 bbe:	8a 2d       	mov	r24, r10
 bc0:	86 78       	andi	r24, 0x86	; 134
 bc2:	51 f0       	breq	.+20     	; 0xbd8 <vfprintf+0x386>
 bc4:	a1 fe       	sbrs	r10, 1
 bc6:	02 c0       	rjmp	.+4      	; 0xbcc <vfprintf+0x37a>
 bc8:	8b e2       	ldi	r24, 0x2B	; 43
 bca:	01 c0       	rjmp	.+2      	; 0xbce <vfprintf+0x37c>
 bcc:	80 e2       	ldi	r24, 0x20	; 32
 bce:	a7 fc       	sbrc	r10, 7
 bd0:	8d e2       	ldi	r24, 0x2D	; 45
 bd2:	b6 01       	movw	r22, r12
 bd4:	90 e0       	ldi	r25, 0x00	; 0
 bd6:	50 d0       	rcall	.+160    	; 0xc78 <fputc>
 bd8:	89 14       	cp	r8, r9
 bda:	30 f4       	brcc	.+12     	; 0xbe8 <vfprintf+0x396>
 bdc:	b6 01       	movw	r22, r12
 bde:	80 e3       	ldi	r24, 0x30	; 48
 be0:	90 e0       	ldi	r25, 0x00	; 0
 be2:	4a d0       	rcall	.+148    	; 0xc78 <fputc>
 be4:	9a 94       	dec	r9
 be6:	f8 cf       	rjmp	.-16     	; 0xbd8 <vfprintf+0x386>
 be8:	8a 94       	dec	r8
 bea:	f3 01       	movw	r30, r6
 bec:	e8 0d       	add	r30, r8
 bee:	f1 1d       	adc	r31, r1
 bf0:	80 81       	ld	r24, Z
 bf2:	b6 01       	movw	r22, r12
 bf4:	90 e0       	ldi	r25, 0x00	; 0
 bf6:	40 d0       	rcall	.+128    	; 0xc78 <fputc>
 bf8:	81 10       	cpse	r8, r1
 bfa:	f6 cf       	rjmp	.-20     	; 0xbe8 <vfprintf+0x396>
 bfc:	22 20       	and	r2, r2
 bfe:	09 f4       	brne	.+2      	; 0xc02 <vfprintf+0x3b0>
 c00:	4e ce       	rjmp	.-868    	; 0x89e <vfprintf+0x4c>
 c02:	b6 01       	movw	r22, r12
 c04:	80 e2       	ldi	r24, 0x20	; 32
 c06:	90 e0       	ldi	r25, 0x00	; 0
 c08:	37 d0       	rcall	.+110    	; 0xc78 <fputc>
 c0a:	2a 94       	dec	r2
 c0c:	f7 cf       	rjmp	.-18     	; 0xbfc <vfprintf+0x3aa>
 c0e:	f6 01       	movw	r30, r12
 c10:	86 81       	ldd	r24, Z+6	; 0x06
 c12:	97 81       	ldd	r25, Z+7	; 0x07
 c14:	02 c0       	rjmp	.+4      	; 0xc1a <vfprintf+0x3c8>
 c16:	8f ef       	ldi	r24, 0xFF	; 255
 c18:	9f ef       	ldi	r25, 0xFF	; 255
 c1a:	2b 96       	adiw	r28, 0x0b	; 11
 c1c:	0f b6       	in	r0, 0x3f	; 63
 c1e:	f8 94       	cli
 c20:	de bf       	out	0x3e, r29	; 62
 c22:	0f be       	out	0x3f, r0	; 63
 c24:	cd bf       	out	0x3d, r28	; 61
 c26:	df 91       	pop	r29
 c28:	cf 91       	pop	r28
 c2a:	1f 91       	pop	r17
 c2c:	0f 91       	pop	r16
 c2e:	ff 90       	pop	r15
 c30:	ef 90       	pop	r14
 c32:	df 90       	pop	r13
 c34:	cf 90       	pop	r12
 c36:	bf 90       	pop	r11
 c38:	af 90       	pop	r10
 c3a:	9f 90       	pop	r9
 c3c:	8f 90       	pop	r8
 c3e:	7f 90       	pop	r7
 c40:	6f 90       	pop	r6
 c42:	5f 90       	pop	r5
 c44:	4f 90       	pop	r4
 c46:	3f 90       	pop	r3
 c48:	2f 90       	pop	r2
 c4a:	08 95       	ret

00000c4c <strnlen_P>:
 c4c:	fc 01       	movw	r30, r24
 c4e:	05 90       	lpm	r0, Z+
 c50:	61 50       	subi	r22, 0x01	; 1
 c52:	70 40       	sbci	r23, 0x00	; 0
 c54:	01 10       	cpse	r0, r1
 c56:	d8 f7       	brcc	.-10     	; 0xc4e <strnlen_P+0x2>
 c58:	80 95       	com	r24
 c5a:	90 95       	com	r25
 c5c:	8e 0f       	add	r24, r30
 c5e:	9f 1f       	adc	r25, r31
 c60:	08 95       	ret

00000c62 <strnlen>:
 c62:	fc 01       	movw	r30, r24
 c64:	61 50       	subi	r22, 0x01	; 1
 c66:	70 40       	sbci	r23, 0x00	; 0
 c68:	01 90       	ld	r0, Z+
 c6a:	01 10       	cpse	r0, r1
 c6c:	d8 f7       	brcc	.-10     	; 0xc64 <strnlen+0x2>
 c6e:	80 95       	com	r24
 c70:	90 95       	com	r25
 c72:	8e 0f       	add	r24, r30
 c74:	9f 1f       	adc	r25, r31
 c76:	08 95       	ret

00000c78 <fputc>:
 c78:	0f 93       	push	r16
 c7a:	1f 93       	push	r17
 c7c:	cf 93       	push	r28
 c7e:	df 93       	push	r29
 c80:	fb 01       	movw	r30, r22
 c82:	23 81       	ldd	r18, Z+3	; 0x03
 c84:	21 fd       	sbrc	r18, 1
 c86:	03 c0       	rjmp	.+6      	; 0xc8e <fputc+0x16>
 c88:	8f ef       	ldi	r24, 0xFF	; 255
 c8a:	9f ef       	ldi	r25, 0xFF	; 255
 c8c:	2c c0       	rjmp	.+88     	; 0xce6 <fputc+0x6e>
 c8e:	22 ff       	sbrs	r18, 2
 c90:	16 c0       	rjmp	.+44     	; 0xcbe <fputc+0x46>
 c92:	46 81       	ldd	r20, Z+6	; 0x06
 c94:	57 81       	ldd	r21, Z+7	; 0x07
 c96:	24 81       	ldd	r18, Z+4	; 0x04
 c98:	35 81       	ldd	r19, Z+5	; 0x05
 c9a:	42 17       	cp	r20, r18
 c9c:	53 07       	cpc	r21, r19
 c9e:	44 f4       	brge	.+16     	; 0xcb0 <fputc+0x38>
 ca0:	a0 81       	ld	r26, Z
 ca2:	b1 81       	ldd	r27, Z+1	; 0x01
 ca4:	9d 01       	movw	r18, r26
 ca6:	2f 5f       	subi	r18, 0xFF	; 255
 ca8:	3f 4f       	sbci	r19, 0xFF	; 255
 caa:	31 83       	std	Z+1, r19	; 0x01
 cac:	20 83       	st	Z, r18
 cae:	8c 93       	st	X, r24
 cb0:	26 81       	ldd	r18, Z+6	; 0x06
 cb2:	37 81       	ldd	r19, Z+7	; 0x07
 cb4:	2f 5f       	subi	r18, 0xFF	; 255
 cb6:	3f 4f       	sbci	r19, 0xFF	; 255
 cb8:	37 83       	std	Z+7, r19	; 0x07
 cba:	26 83       	std	Z+6, r18	; 0x06
 cbc:	14 c0       	rjmp	.+40     	; 0xce6 <fputc+0x6e>
 cbe:	8b 01       	movw	r16, r22
 cc0:	ec 01       	movw	r28, r24
 cc2:	fb 01       	movw	r30, r22
 cc4:	00 84       	ldd	r0, Z+8	; 0x08
 cc6:	f1 85       	ldd	r31, Z+9	; 0x09
 cc8:	e0 2d       	mov	r30, r0
 cca:	19 95       	eicall
 ccc:	89 2b       	or	r24, r25
 cce:	e1 f6       	brne	.-72     	; 0xc88 <fputc+0x10>
 cd0:	d8 01       	movw	r26, r16
 cd2:	16 96       	adiw	r26, 0x06	; 6
 cd4:	8d 91       	ld	r24, X+
 cd6:	9c 91       	ld	r25, X
 cd8:	17 97       	sbiw	r26, 0x07	; 7
 cda:	01 96       	adiw	r24, 0x01	; 1
 cdc:	17 96       	adiw	r26, 0x07	; 7
 cde:	9c 93       	st	X, r25
 ce0:	8e 93       	st	-X, r24
 ce2:	16 97       	sbiw	r26, 0x06	; 6
 ce4:	ce 01       	movw	r24, r28
 ce6:	df 91       	pop	r29
 ce8:	cf 91       	pop	r28
 cea:	1f 91       	pop	r17
 cec:	0f 91       	pop	r16
 cee:	08 95       	ret

00000cf0 <__ultoa_invert>:
 cf0:	fa 01       	movw	r30, r20
 cf2:	aa 27       	eor	r26, r26
 cf4:	28 30       	cpi	r18, 0x08	; 8
 cf6:	51 f1       	breq	.+84     	; 0xd4c <__ultoa_invert+0x5c>
 cf8:	20 31       	cpi	r18, 0x10	; 16
 cfa:	81 f1       	breq	.+96     	; 0xd5c <__ultoa_invert+0x6c>
 cfc:	e8 94       	clt
 cfe:	6f 93       	push	r22
 d00:	6e 7f       	andi	r22, 0xFE	; 254
 d02:	6e 5f       	subi	r22, 0xFE	; 254
 d04:	7f 4f       	sbci	r23, 0xFF	; 255
 d06:	8f 4f       	sbci	r24, 0xFF	; 255
 d08:	9f 4f       	sbci	r25, 0xFF	; 255
 d0a:	af 4f       	sbci	r26, 0xFF	; 255
 d0c:	b1 e0       	ldi	r27, 0x01	; 1
 d0e:	3e d0       	rcall	.+124    	; 0xd8c <__ultoa_invert+0x9c>
 d10:	b4 e0       	ldi	r27, 0x04	; 4
 d12:	3c d0       	rcall	.+120    	; 0xd8c <__ultoa_invert+0x9c>
 d14:	67 0f       	add	r22, r23
 d16:	78 1f       	adc	r23, r24
 d18:	89 1f       	adc	r24, r25
 d1a:	9a 1f       	adc	r25, r26
 d1c:	a1 1d       	adc	r26, r1
 d1e:	68 0f       	add	r22, r24
 d20:	79 1f       	adc	r23, r25
 d22:	8a 1f       	adc	r24, r26
 d24:	91 1d       	adc	r25, r1
 d26:	a1 1d       	adc	r26, r1
 d28:	6a 0f       	add	r22, r26
 d2a:	71 1d       	adc	r23, r1
 d2c:	81 1d       	adc	r24, r1
 d2e:	91 1d       	adc	r25, r1
 d30:	a1 1d       	adc	r26, r1
 d32:	20 d0       	rcall	.+64     	; 0xd74 <__ultoa_invert+0x84>
 d34:	09 f4       	brne	.+2      	; 0xd38 <__ultoa_invert+0x48>
 d36:	68 94       	set
 d38:	3f 91       	pop	r19
 d3a:	2a e0       	ldi	r18, 0x0A	; 10
 d3c:	26 9f       	mul	r18, r22
 d3e:	11 24       	eor	r1, r1
 d40:	30 19       	sub	r19, r0
 d42:	30 5d       	subi	r19, 0xD0	; 208
 d44:	31 93       	st	Z+, r19
 d46:	de f6       	brtc	.-74     	; 0xcfe <__ultoa_invert+0xe>
 d48:	cf 01       	movw	r24, r30
 d4a:	08 95       	ret
 d4c:	46 2f       	mov	r20, r22
 d4e:	47 70       	andi	r20, 0x07	; 7
 d50:	40 5d       	subi	r20, 0xD0	; 208
 d52:	41 93       	st	Z+, r20
 d54:	b3 e0       	ldi	r27, 0x03	; 3
 d56:	0f d0       	rcall	.+30     	; 0xd76 <__ultoa_invert+0x86>
 d58:	c9 f7       	brne	.-14     	; 0xd4c <__ultoa_invert+0x5c>
 d5a:	f6 cf       	rjmp	.-20     	; 0xd48 <__ultoa_invert+0x58>
 d5c:	46 2f       	mov	r20, r22
 d5e:	4f 70       	andi	r20, 0x0F	; 15
 d60:	40 5d       	subi	r20, 0xD0	; 208
 d62:	4a 33       	cpi	r20, 0x3A	; 58
 d64:	18 f0       	brcs	.+6      	; 0xd6c <__ultoa_invert+0x7c>
 d66:	49 5d       	subi	r20, 0xD9	; 217
 d68:	31 fd       	sbrc	r19, 1
 d6a:	40 52       	subi	r20, 0x20	; 32
 d6c:	41 93       	st	Z+, r20
 d6e:	02 d0       	rcall	.+4      	; 0xd74 <__ultoa_invert+0x84>
 d70:	a9 f7       	brne	.-22     	; 0xd5c <__ultoa_invert+0x6c>
 d72:	ea cf       	rjmp	.-44     	; 0xd48 <__ultoa_invert+0x58>
 d74:	b4 e0       	ldi	r27, 0x04	; 4
 d76:	a6 95       	lsr	r26
 d78:	97 95       	ror	r25
 d7a:	87 95       	ror	r24
 d7c:	77 95       	ror	r23
 d7e:	67 95       	ror	r22
 d80:	ba 95       	dec	r27
 d82:	c9 f7       	brne	.-14     	; 0xd76 <__ultoa_invert+0x86>
 d84:	00 97       	sbiw	r24, 0x00	; 0
 d86:	61 05       	cpc	r22, r1
 d88:	71 05       	cpc	r23, r1
 d8a:	08 95       	ret
 d8c:	9b 01       	movw	r18, r22
 d8e:	ac 01       	movw	r20, r24
 d90:	0a 2e       	mov	r0, r26
 d92:	06 94       	lsr	r0
 d94:	57 95       	ror	r21
 d96:	47 95       	ror	r20
 d98:	37 95       	ror	r19
 d9a:	27 95       	ror	r18
 d9c:	ba 95       	dec	r27
 d9e:	c9 f7       	brne	.-14     	; 0xd92 <__ultoa_invert+0xa2>
 da0:	62 0f       	add	r22, r18
 da2:	73 1f       	adc	r23, r19
 da4:	84 1f       	adc	r24, r20
 da6:	95 1f       	adc	r25, r21
 da8:	a0 1d       	adc	r26, r0
 daa:	08 95       	ret

00000dac <_exit>:
 dac:	f8 94       	cli

00000dae <__stop_program>:
 dae:	ff cf       	rjmp	.-2      	; 0xdae <__stop_program>
