
uCBoardBeispiele.elf:     file format elf32-avr

Sections:
Idx Name          Size      VMA       LMA       File off  Algn
  0 .data         00000096  00800200  000014f8  0000158c  2**0
                  CONTENTS, ALLOC, LOAD, DATA
  1 .text         000014f8  00000000  00000000  00000094  2**1
                  CONTENTS, ALLOC, LOAD, READONLY, CODE
  2 .bss          000000c8  00800296  00800296  00001622  2**0
                  ALLOC
  3 .comment      0000005c  00000000  00000000  00001622  2**0
                  CONTENTS, READONLY
  4 .note.gnu.avr.deviceinfo 00000040  00000000  00000000  00001680  2**2
                  CONTENTS, READONLY
  5 .debug_aranges 000001e0  00000000  00000000  000016c0  2**0
                  CONTENTS, READONLY, DEBUGGING
  6 .debug_info   000025ad  00000000  00000000  000018a0  2**0
                  CONTENTS, READONLY, DEBUGGING
  7 .debug_abbrev 00000fcf  00000000  00000000  00003e4d  2**0
                  CONTENTS, READONLY, DEBUGGING
  8 .debug_line   000013f2  00000000  00000000  00004e1c  2**0
                  CONTENTS, READONLY, DEBUGGING
  9 .debug_frame  0000067c  00000000  00000000  00006210  2**2
                  CONTENTS, READONLY, DEBUGGING
 10 .debug_str    00000d3a  00000000  00000000  0000688c  2**0
                  CONTENTS, READONLY, DEBUGGING
 11 .debug_loc    00001a61  00000000  00000000  000075c6  2**0
                  CONTENTS, READONLY, DEBUGGING
 12 .debug_ranges 00000210  00000000  00000000  00009027  2**0
                  CONTENTS, READONLY, DEBUGGING

Disassembly of section .text:

00000000 <__vectors>:
       0:	71 c0       	rjmp	.+226    	; 0xe4 <__ctors_end>
       2:	00 00       	nop
       4:	8f c0       	rjmp	.+286    	; 0x124 <__bad_interrupt>
       6:	00 00       	nop
       8:	8d c0       	rjmp	.+282    	; 0x124 <__bad_interrupt>
       a:	00 00       	nop
       c:	8b c0       	rjmp	.+278    	; 0x124 <__bad_interrupt>
       e:	00 00       	nop
      10:	89 c0       	rjmp	.+274    	; 0x124 <__bad_interrupt>
      12:	00 00       	nop
      14:	87 c0       	rjmp	.+270    	; 0x124 <__bad_interrupt>
      16:	00 00       	nop
      18:	85 c0       	rjmp	.+266    	; 0x124 <__bad_interrupt>
      1a:	00 00       	nop
      1c:	83 c0       	rjmp	.+262    	; 0x124 <__bad_interrupt>
      1e:	00 00       	nop
      20:	81 c0       	rjmp	.+258    	; 0x124 <__bad_interrupt>
      22:	00 00       	nop
      24:	7f c0       	rjmp	.+254    	; 0x124 <__bad_interrupt>
      26:	00 00       	nop
      28:	7d c0       	rjmp	.+250    	; 0x124 <__bad_interrupt>
      2a:	00 00       	nop
      2c:	7b c0       	rjmp	.+246    	; 0x124 <__bad_interrupt>
      2e:	00 00       	nop
      30:	79 c0       	rjmp	.+242    	; 0x124 <__bad_interrupt>
      32:	00 00       	nop
      34:	77 c0       	rjmp	.+238    	; 0x124 <__bad_interrupt>
      36:	00 00       	nop
      38:	75 c0       	rjmp	.+234    	; 0x124 <__bad_interrupt>
      3a:	00 00       	nop
      3c:	73 c0       	rjmp	.+230    	; 0x124 <__bad_interrupt>
      3e:	00 00       	nop
      40:	71 c0       	rjmp	.+226    	; 0x124 <__bad_interrupt>
      42:	00 00       	nop
      44:	6f c0       	rjmp	.+222    	; 0x124 <__bad_interrupt>
      46:	00 00       	nop
      48:	6d c0       	rjmp	.+218    	; 0x124 <__bad_interrupt>
      4a:	00 00       	nop
      4c:	6b c0       	rjmp	.+214    	; 0x124 <__bad_interrupt>
      4e:	00 00       	nop
      50:	69 c0       	rjmp	.+210    	; 0x124 <__bad_interrupt>
      52:	00 00       	nop
      54:	67 c0       	rjmp	.+206    	; 0x124 <__bad_interrupt>
      56:	00 00       	nop
      58:	65 c0       	rjmp	.+202    	; 0x124 <__bad_interrupt>
      5a:	00 00       	nop
      5c:	a7 c6       	rjmp	.+3406   	; 0xdac <__vector_23>
      5e:	00 00       	nop
      60:	61 c0       	rjmp	.+194    	; 0x124 <__bad_interrupt>
      62:	00 00       	nop
      64:	5f c0       	rjmp	.+190    	; 0x124 <__bad_interrupt>
      66:	00 00       	nop
      68:	5d c0       	rjmp	.+186    	; 0x124 <__bad_interrupt>
      6a:	00 00       	nop
      6c:	5b c0       	rjmp	.+182    	; 0x124 <__bad_interrupt>
      6e:	00 00       	nop
      70:	59 c0       	rjmp	.+178    	; 0x124 <__bad_interrupt>
      72:	00 00       	nop
      74:	57 c0       	rjmp	.+174    	; 0x124 <__bad_interrupt>
      76:	00 00       	nop
      78:	55 c0       	rjmp	.+170    	; 0x124 <__bad_interrupt>
      7a:	00 00       	nop
      7c:	53 c0       	rjmp	.+166    	; 0x124 <__bad_interrupt>
      7e:	00 00       	nop
      80:	51 c0       	rjmp	.+162    	; 0x124 <__bad_interrupt>
      82:	00 00       	nop
      84:	4f c0       	rjmp	.+158    	; 0x124 <__bad_interrupt>
      86:	00 00       	nop
      88:	4d c0       	rjmp	.+154    	; 0x124 <__bad_interrupt>
      8a:	00 00       	nop
      8c:	4b c0       	rjmp	.+150    	; 0x124 <__bad_interrupt>
      8e:	00 00       	nop
      90:	49 c0       	rjmp	.+146    	; 0x124 <__bad_interrupt>
      92:	00 00       	nop
      94:	47 c0       	rjmp	.+142    	; 0x124 <__bad_interrupt>
      96:	00 00       	nop
      98:	45 c0       	rjmp	.+138    	; 0x124 <__bad_interrupt>
      9a:	00 00       	nop
      9c:	43 c0       	rjmp	.+134    	; 0x124 <__bad_interrupt>
      9e:	00 00       	nop
      a0:	41 c0       	rjmp	.+130    	; 0x124 <__bad_interrupt>
      a2:	00 00       	nop
      a4:	3f c0       	rjmp	.+126    	; 0x124 <__bad_interrupt>
      a6:	00 00       	nop
      a8:	3d c0       	rjmp	.+122    	; 0x124 <__bad_interrupt>
      aa:	00 00       	nop
      ac:	3b c0       	rjmp	.+118    	; 0x124 <__bad_interrupt>
      ae:	00 00       	nop
      b0:	39 c0       	rjmp	.+114    	; 0x124 <__bad_interrupt>
      b2:	00 00       	nop
      b4:	37 c0       	rjmp	.+110    	; 0x124 <__bad_interrupt>
      b6:	00 00       	nop
      b8:	35 c0       	rjmp	.+106    	; 0x124 <__bad_interrupt>
      ba:	00 00       	nop
      bc:	33 c0       	rjmp	.+102    	; 0x124 <__bad_interrupt>
      be:	00 00       	nop
      c0:	31 c0       	rjmp	.+98     	; 0x124 <__bad_interrupt>
      c2:	00 00       	nop
      c4:	2f c0       	rjmp	.+94     	; 0x124 <__bad_interrupt>
      c6:	00 00       	nop
      c8:	2d c0       	rjmp	.+90     	; 0x124 <__bad_interrupt>
      ca:	00 00       	nop
      cc:	2b c0       	rjmp	.+86     	; 0x124 <__bad_interrupt>
      ce:	00 00       	nop
      d0:	29 c0       	rjmp	.+82     	; 0x124 <__bad_interrupt>
      d2:	00 00       	nop
      d4:	27 c0       	rjmp	.+78     	; 0x124 <__bad_interrupt>
      d6:	00 00       	nop
      d8:	25 c0       	rjmp	.+74     	; 0x124 <__bad_interrupt>
      da:	00 00       	nop
      dc:	23 c0       	rjmp	.+70     	; 0x124 <__bad_interrupt>
      de:	00 00       	nop
      e0:	21 c0       	rjmp	.+66     	; 0x124 <__bad_interrupt>
	...

000000e4 <__ctors_end>:
      e4:	11 24       	eor	r1, r1
      e6:	1f be       	out	0x3f, r1	; 63
      e8:	cf ef       	ldi	r28, 0xFF	; 255
      ea:	d1 e2       	ldi	r29, 0x21	; 33
      ec:	de bf       	out	0x3e, r29	; 62
      ee:	cd bf       	out	0x3d, r28	; 61
      f0:	00 e0       	ldi	r16, 0x00	; 0
      f2:	0c bf       	out	0x3c, r16	; 60

000000f4 <__do_copy_data>:
      f4:	12 e0       	ldi	r17, 0x02	; 2
      f6:	a0 e0       	ldi	r26, 0x00	; 0
      f8:	b2 e0       	ldi	r27, 0x02	; 2
      fa:	e8 ef       	ldi	r30, 0xF8	; 248
      fc:	f4 e1       	ldi	r31, 0x14	; 20
      fe:	00 e0       	ldi	r16, 0x00	; 0
     100:	0b bf       	out	0x3b, r16	; 59
     102:	02 c0       	rjmp	.+4      	; 0x108 <__do_copy_data+0x14>
     104:	07 90       	elpm	r0, Z+
     106:	0d 92       	st	X+, r0
     108:	a6 39       	cpi	r26, 0x96	; 150
     10a:	b1 07       	cpc	r27, r17
     10c:	d9 f7       	brne	.-10     	; 0x104 <__do_copy_data+0x10>

0000010e <__do_clear_bss>:
     10e:	23 e0       	ldi	r18, 0x03	; 3
     110:	a6 e9       	ldi	r26, 0x96	; 150
     112:	b2 e0       	ldi	r27, 0x02	; 2
     114:	01 c0       	rjmp	.+2      	; 0x118 <.do_clear_bss_start>

00000116 <.do_clear_bss_loop>:
     116:	1d 92       	st	X+, r1

00000118 <.do_clear_bss_start>:
     118:	ae 35       	cpi	r26, 0x5E	; 94
     11a:	b2 07       	cpc	r27, r18
     11c:	e1 f7       	brne	.-8      	; 0x116 <.do_clear_bss_loop>
     11e:	03 d0       	rcall	.+6      	; 0x126 <main>
     120:	0c 94 7a 0a 	jmp	0x14f4	; 0x14f4 <_exit>

00000124 <__bad_interrupt>:
     124:	6d cf       	rjmp	.-294    	; 0x0 <__vectors>

00000126 <main>:
      uint16_t adcLampe = 0;
      uint16_t uEingang_mv = 0;
      uint16_t uLampe_mv = 0;
      uint8_t inControlLoop = 0;
      //Initialisieren
      initBoard(1);
     126:	81 e0       	ldi	r24, 0x01	; 1
     128:	97 d3       	rcall	.+1838   	; 0x858 <initBoard>
      pinInitX4PortL(2,OUTPUT);
     12a:	60 e0       	ldi	r22, 0x00	; 0
     12c:	82 e0       	ldi	r24, 0x02	; 2
     12e:	2c d0       	rcall	.+88     	; 0x188 <pinInitX4PortL>
      pinInitX4PortL(3,OUTPUT);//...-> init PL3 als Ausgang
     130:	60 e0       	ldi	r22, 0x00	; 0
     132:	83 e0       	ldi	r24, 0x03	; 3
     134:	29 d0       	rcall	.+82     	; 0x188 <pinInitX4PortL>
      pinWriteX4PortL(3,0);//...-> pinWrite 0V an PL3      
     136:	60 e0       	ldi	r22, 0x00	; 0
     138:	83 e0       	ldi	r24, 0x03	; 3
     13a:	d3 d0       	rcall	.+422    	; 0x2e2 <pinWriteX4PortL>
      pinInitX4PortL(4,INPUT_PULLUP);
     13c:	62 e0       	ldi	r22, 0x02	; 2
     13e:	84 e0       	ldi	r24, 0x04	; 4
     140:	23 d0       	rcall	.+70     	; 0x188 <pinInitX4PortL>
      pinInitX4PortF(0,INPUT_ADC);
     142:	63 e0       	ldi	r22, 0x03	; 3
     144:	80 e0       	ldi	r24, 0x00	; 0
     146:	66 d0       	rcall	.+204    	; 0x214 <pinInitX4PortF>
      pinInitX4PortF(1,INPUT_ADC);
     148:	63 e0       	ldi	r22, 0x03	; 3
     14a:	81 e0       	ldi	r24, 0x01	; 1
     14c:	63 d0       	rcall	.+198    	; 0x214 <pinInitX4PortF>
     14e:	0f 2e       	mov	r0, r31
          {
              lcdLog("Keine Speisung");
          } 
          else
          {
              lcdLog("speisung vorhandel");
     150:	f8 e1       	ldi	r31, 0x18	; 24
     152:	ef 2e       	mov	r14, r31
     154:	f2 e0       	ldi	r31, 0x02	; 2
     156:	ff 2e       	mov	r15, r31
     158:	f0 2d       	mov	r31, r0
          
          //Ausgabe------------------------------------------------------------------
          
          if (adcEingang < 20)
          {
              lcdLog("Keine Speisung");
     15a:	09 e0       	ldi	r16, 0x09	; 9
      
      //Unendlichschlaufe
      while(1)
      {
          //Eingabe------------------------------------------------------------------
          adcEingang = adcRead(ADC_00_X4_PORTF_BIT0);
     15c:	12 e0       	ldi	r17, 0x02	; 2
     15e:	80 e0       	ldi	r24, 0x00	; 0
     160:	20 d1       	rcall	.+576    	; 0x3a2 <adcRead>
     162:	ec 01       	movw	r28, r24
          adcLampe = adcRead(ADC_01_X4_PORTF_BIT1);//...-> adcLampe einlesen
     164:	81 e0       	ldi	r24, 0x01	; 1
     166:	1d d1       	rcall	.+570    	; 0x3a2 <adcRead>
          
          inControlLoop = pinReadX4PortL(4);
     168:	84 e0       	ldi	r24, 0x04	; 4
     16a:	e3 d0       	rcall	.+454    	; 0x332 <pinReadX4PortL>
     16c:	64 97       	sbiw	r28, 0x14	; 20
          
          //Verarbeitung-------------------------------------------------------------
          
          //Ausgabe------------------------------------------------------------------
          
          if (adcEingang < 20)
     16e:	30 f4       	brcc	.+12     	; 0x17c <main+0x56>
          {
              lcdLog("Keine Speisung");
     170:	1f 93       	push	r17
     172:	0f 93       	push	r16
     174:	7c d4       	rcall	.+2296   	; 0xa6e <lcdLog>
     176:	0f 90       	pop	r0
     178:	0f 90       	pop	r0
     17a:	f1 cf       	rjmp	.-30     	; 0x15e <main+0x38>
     17c:	ff 92       	push	r15
          } 
          else
          {
              lcdLog("speisung vorhandel");
     17e:	ef 92       	push	r14
     180:	76 d4       	rcall	.+2284   	; 0xa6e <lcdLog>
     182:	0f 90       	pop	r0
     184:	0f 90       	pop	r0
     186:	eb cf       	rjmp	.-42     	; 0x15e <main+0x38>

00000188 <pinInitX4PortL>:
     188:	9e ef       	ldi	r25, 0xFE	; 254
     18a:	98 0f       	add	r25, r24
            }
        }
        matrix_buffer_pos += breite + Zeichenabstand;           // Position für das nächste Zeichen berechnen
        str_p++;                                                // Zeichen-Zeiger auf das nächste Zeichen richten
    }
}
     18c:	94 30       	cpi	r25, 0x04	; 4
     18e:	08 f0       	brcs	.+2      	; 0x192 <pinInitX4PortL+0xa>
     190:	40 c0       	rjmp	.+128    	; 0x212 <pinInitX4PortL+0x8a>
     192:	61 30       	cpi	r22, 0x01	; 1
     194:	99 f0       	breq	.+38     	; 0x1bc <pinInitX4PortL+0x34>
     196:	18 f0       	brcs	.+6      	; 0x19e <pinInitX4PortL+0x16>
     198:	62 30       	cpi	r22, 0x02	; 2
     19a:	31 f1       	breq	.+76     	; 0x1e8 <pinInitX4PortL+0x60>
     19c:	08 95       	ret
     19e:	ea e0       	ldi	r30, 0x0A	; 10
     1a0:	f1 e0       	ldi	r31, 0x01	; 1
     1a2:	40 81       	ld	r20, Z
     1a4:	21 e0       	ldi	r18, 0x01	; 1
     1a6:	30 e0       	ldi	r19, 0x00	; 0
     1a8:	b9 01       	movw	r22, r18
     1aa:	02 c0       	rjmp	.+4      	; 0x1b0 <pinInitX4PortL+0x28>
     1ac:	66 0f       	add	r22, r22
     1ae:	77 1f       	adc	r23, r23
     1b0:	8a 95       	dec	r24
     1b2:	e2 f7       	brpl	.-8      	; 0x1ac <pinInitX4PortL+0x24>
     1b4:	cb 01       	movw	r24, r22
     1b6:	84 2b       	or	r24, r20
     1b8:	80 83       	st	Z, r24
     1ba:	08 95       	ret
     1bc:	ea e0       	ldi	r30, 0x0A	; 10
     1be:	f1 e0       	ldi	r31, 0x01	; 1
     1c0:	40 81       	ld	r20, Z
     1c2:	21 e0       	ldi	r18, 0x01	; 1
     1c4:	30 e0       	ldi	r19, 0x00	; 0
     1c6:	b9 01       	movw	r22, r18
     1c8:	02 c0       	rjmp	.+4      	; 0x1ce <pinInitX4PortL+0x46>
     1ca:	66 0f       	add	r22, r22
     1cc:	77 1f       	adc	r23, r23
     1ce:	8a 95       	dec	r24
     1d0:	e2 f7       	brpl	.-8      	; 0x1ca <pinInitX4PortL+0x42>
     1d2:	cb 01       	movw	r24, r22
     1d4:	80 95       	com	r24
     1d6:	94 2f       	mov	r25, r20
     1d8:	98 23       	and	r25, r24
     1da:	90 83       	st	Z, r25
     1dc:	eb e0       	ldi	r30, 0x0B	; 11
     1de:	f1 e0       	ldi	r31, 0x01	; 1
     1e0:	90 81       	ld	r25, Z
     1e2:	89 23       	and	r24, r25
     1e4:	80 83       	st	Z, r24
     1e6:	08 95       	ret
     1e8:	ea e0       	ldi	r30, 0x0A	; 10
     1ea:	f1 e0       	ldi	r31, 0x01	; 1
     1ec:	40 81       	ld	r20, Z
     1ee:	21 e0       	ldi	r18, 0x01	; 1
     1f0:	30 e0       	ldi	r19, 0x00	; 0
     1f2:	b9 01       	movw	r22, r18
     1f4:	02 c0       	rjmp	.+4      	; 0x1fa <pinInitX4PortL+0x72>
     1f6:	66 0f       	add	r22, r22
     1f8:	77 1f       	adc	r23, r23
     1fa:	8a 95       	dec	r24
     1fc:	e2 f7       	brpl	.-8      	; 0x1f6 <pinInitX4PortL+0x6e>
     1fe:	cb 01       	movw	r24, r22
     200:	96 2f       	mov	r25, r22
     202:	90 95       	com	r25
     204:	94 23       	and	r25, r20
     206:	90 83       	st	Z, r25
     208:	eb e0       	ldi	r30, 0x0B	; 11
     20a:	f1 e0       	ldi	r31, 0x01	; 1
     20c:	90 81       	ld	r25, Z
     20e:	89 2b       	or	r24, r25
     210:	80 83       	st	Z, r24
     212:	08 95       	ret

00000214 <pinInitX4PortF>:
     214:	84 30       	cpi	r24, 0x04	; 4
     216:	08 f0       	brcs	.+2      	; 0x21a <pinInitX4PortF+0x6>
     218:	63 c0       	rjmp	.+198    	; 0x2e0 <pinInitX4PortF+0xcc>
     21a:	61 30       	cpi	r22, 0x01	; 1
     21c:	d9 f0       	breq	.+54     	; 0x254 <pinInitX4PortF+0x40>
     21e:	30 f0       	brcs	.+12     	; 0x22c <pinInitX4PortF+0x18>
     220:	62 30       	cpi	r22, 0x02	; 2
     222:	09 f4       	brne	.+2      	; 0x226 <pinInitX4PortF+0x12>
     224:	46 c0       	rjmp	.+140    	; 0x2b2 <pinInitX4PortF+0x9e>
     226:	63 30       	cpi	r22, 0x03	; 3
     228:	61 f1       	breq	.+88     	; 0x282 <pinInitX4PortF+0x6e>
     22a:	08 95       	ret
     22c:	ee e7       	ldi	r30, 0x7E	; 126
     22e:	f0 e0       	ldi	r31, 0x00	; 0
     230:	40 81       	ld	r20, Z
     232:	21 e0       	ldi	r18, 0x01	; 1
     234:	30 e0       	ldi	r19, 0x00	; 0
     236:	b9 01       	movw	r22, r18
     238:	02 c0       	rjmp	.+4      	; 0x23e <pinInitX4PortF+0x2a>
     23a:	66 0f       	add	r22, r22
     23c:	77 1f       	adc	r23, r23
     23e:	8a 95       	dec	r24
     240:	e2 f7       	brpl	.-8      	; 0x23a <pinInitX4PortF+0x26>
     242:	cb 01       	movw	r24, r22
     244:	96 2f       	mov	r25, r22
     246:	90 95       	com	r25
     248:	94 23       	and	r25, r20
     24a:	90 83       	st	Z, r25
     24c:	90 b3       	in	r25, 0x10	; 16
     24e:	89 2b       	or	r24, r25
     250:	80 bb       	out	0x10, r24	; 16
     252:	08 95       	ret
     254:	ee e7       	ldi	r30, 0x7E	; 126
     256:	f0 e0       	ldi	r31, 0x00	; 0
     258:	40 81       	ld	r20, Z
     25a:	21 e0       	ldi	r18, 0x01	; 1
     25c:	30 e0       	ldi	r19, 0x00	; 0
     25e:	b9 01       	movw	r22, r18
     260:	02 c0       	rjmp	.+4      	; 0x266 <pinInitX4PortF+0x52>
     262:	66 0f       	add	r22, r22
     264:	77 1f       	adc	r23, r23
     266:	8a 95       	dec	r24
     268:	e2 f7       	brpl	.-8      	; 0x262 <pinInitX4PortF+0x4e>
     26a:	cb 01       	movw	r24, r22
     26c:	80 95       	com	r24
     26e:	94 2f       	mov	r25, r20
     270:	98 23       	and	r25, r24
     272:	90 83       	st	Z, r25
     274:	90 b3       	in	r25, 0x10	; 16
     276:	98 23       	and	r25, r24
     278:	90 bb       	out	0x10, r25	; 16
     27a:	91 b3       	in	r25, 0x11	; 17
     27c:	89 23       	and	r24, r25
     27e:	81 bb       	out	0x11, r24	; 17
     280:	08 95       	ret
     282:	40 b3       	in	r20, 0x10	; 16
     284:	21 e0       	ldi	r18, 0x01	; 1
     286:	30 e0       	ldi	r19, 0x00	; 0
     288:	b9 01       	movw	r22, r18
     28a:	02 c0       	rjmp	.+4      	; 0x290 <pinInitX4PortF+0x7c>
     28c:	66 0f       	add	r22, r22
     28e:	77 1f       	adc	r23, r23
     290:	8a 95       	dec	r24
     292:	e2 f7       	brpl	.-8      	; 0x28c <pinInitX4PortF+0x78>
     294:	cb 01       	movw	r24, r22
     296:	96 2f       	mov	r25, r22
     298:	90 95       	com	r25
     29a:	24 2f       	mov	r18, r20
     29c:	29 23       	and	r18, r25
     29e:	20 bb       	out	0x10, r18	; 16
     2a0:	21 b3       	in	r18, 0x11	; 17
     2a2:	92 23       	and	r25, r18
     2a4:	91 bb       	out	0x11, r25	; 17
     2a6:	ee e7       	ldi	r30, 0x7E	; 126
     2a8:	f0 e0       	ldi	r31, 0x00	; 0
     2aa:	90 81       	ld	r25, Z
     2ac:	89 2b       	or	r24, r25
     2ae:	80 83       	st	Z, r24
     2b0:	08 95       	ret
     2b2:	ee e7       	ldi	r30, 0x7E	; 126
     2b4:	f0 e0       	ldi	r31, 0x00	; 0
     2b6:	40 81       	ld	r20, Z
     2b8:	21 e0       	ldi	r18, 0x01	; 1
     2ba:	30 e0       	ldi	r19, 0x00	; 0
     2bc:	b9 01       	movw	r22, r18
     2be:	02 c0       	rjmp	.+4      	; 0x2c4 <pinInitX4PortF+0xb0>
     2c0:	66 0f       	add	r22, r22
     2c2:	77 1f       	adc	r23, r23
     2c4:	8a 95       	dec	r24
     2c6:	e2 f7       	brpl	.-8      	; 0x2c0 <pinInitX4PortF+0xac>
     2c8:	cb 01       	movw	r24, r22
     2ca:	96 2f       	mov	r25, r22
     2cc:	90 95       	com	r25
     2ce:	24 2f       	mov	r18, r20
     2d0:	29 23       	and	r18, r25
     2d2:	20 83       	st	Z, r18
     2d4:	20 b3       	in	r18, 0x10	; 16
     2d6:	92 23       	and	r25, r18
     2d8:	90 bb       	out	0x10, r25	; 16
     2da:	91 b3       	in	r25, 0x11	; 17
     2dc:	89 2b       	or	r24, r25
     2de:	81 bb       	out	0x11, r24	; 17
     2e0:	08 95       	ret

000002e2 <pinWriteX4PortL>:
     2e2:	9e ef       	ldi	r25, 0xFE	; 254
     2e4:	98 0f       	add	r25, r24
     2e6:	94 30       	cpi	r25, 0x04	; 4
     2e8:	00 f5       	brcc	.+64     	; 0x32a <pinWriteX4PortL+0x48>
     2ea:	66 23       	and	r22, r22
     2ec:	79 f0       	breq	.+30     	; 0x30c <pinWriteX4PortL+0x2a>
     2ee:	eb e0       	ldi	r30, 0x0B	; 11
     2f0:	f1 e0       	ldi	r31, 0x01	; 1
     2f2:	40 81       	ld	r20, Z
     2f4:	21 e0       	ldi	r18, 0x01	; 1
     2f6:	30 e0       	ldi	r19, 0x00	; 0
     2f8:	b9 01       	movw	r22, r18
     2fa:	02 c0       	rjmp	.+4      	; 0x300 <pinWriteX4PortL+0x1e>
     2fc:	66 0f       	add	r22, r22
     2fe:	77 1f       	adc	r23, r23
     300:	8a 95       	dec	r24
     302:	e2 f7       	brpl	.-8      	; 0x2fc <pinWriteX4PortL+0x1a>
     304:	cb 01       	movw	r24, r22
     306:	84 2b       	or	r24, r20
     308:	80 83       	st	Z, r24
     30a:	08 95       	ret
     30c:	eb e0       	ldi	r30, 0x0B	; 11
     30e:	f1 e0       	ldi	r31, 0x01	; 1
     310:	40 81       	ld	r20, Z
     312:	21 e0       	ldi	r18, 0x01	; 1
     314:	30 e0       	ldi	r19, 0x00	; 0
     316:	b9 01       	movw	r22, r18
     318:	02 c0       	rjmp	.+4      	; 0x31e <pinWriteX4PortL+0x3c>
     31a:	66 0f       	add	r22, r22
     31c:	77 1f       	adc	r23, r23
     31e:	8a 95       	dec	r24
     320:	e2 f7       	brpl	.-8      	; 0x31a <pinWriteX4PortL+0x38>
     322:	cb 01       	movw	r24, r22
     324:	80 95       	com	r24
     326:	84 23       	and	r24, r20
     328:	80 83       	st	Z, r24
     32a:	08 95       	ret

0000032c <ledWriteAll>:
     32c:	82 b9       	out	0x02, r24	; 2
     32e:	95 b9       	out	0x05, r25	; 5
     330:	08 95       	ret

00000332 <pinReadX4PortL>:
     332:	40 91 09 01 	lds	r20, 0x0109	; 0x800109 <__TEXT_REGION_LENGTH__+0x700109>
     336:	21 e0       	ldi	r18, 0x01	; 1
     338:	30 e0       	ldi	r19, 0x00	; 0
     33a:	b9 01       	movw	r22, r18
     33c:	02 c0       	rjmp	.+4      	; 0x342 <pinReadX4PortL+0x10>
     33e:	66 0f       	add	r22, r22
     340:	77 1f       	adc	r23, r23
     342:	8a 95       	dec	r24
     344:	e2 f7       	brpl	.-8      	; 0x33e <pinReadX4PortL+0xc>
     346:	cb 01       	movw	r24, r22
     348:	84 23       	and	r24, r20
     34a:	08 95       	ret

0000034c <startSystemTimeMs>:
     34c:	83 e0       	ldi	r24, 0x03	; 3
     34e:	84 bd       	out	0x24, r24	; 36
     350:	8b e0       	ldi	r24, 0x0B	; 11
     352:	85 bd       	out	0x25, r24	; 37
     354:	81 e0       	ldi	r24, 0x01	; 1
     356:	80 93 6e 00 	sts	0x006E, r24	; 0x80006e <__TEXT_REGION_LENGTH__+0x70006e>
     35a:	89 ef       	ldi	r24, 0xF9	; 249
     35c:	87 bd       	out	0x27, r24	; 39
     35e:	08 95       	ret

00000360 <initAdc>:
     360:	11 ba       	out	0x11, r1	; 17
     362:	10 ba       	out	0x10, r1	; 16
     364:	10 92 08 01 	sts	0x0108, r1	; 0x800108 <__TEXT_REGION_LENGTH__+0x700108>
     368:	10 92 07 01 	sts	0x0107, r1	; 0x800107 <__TEXT_REGION_LENGTH__+0x700107>
     36c:	80 e4       	ldi	r24, 0x40	; 64
     36e:	80 93 7c 00 	sts	0x007C, r24	; 0x80007c <__TEXT_REGION_LENGTH__+0x70007c>
     372:	8f e0       	ldi	r24, 0x0F	; 15
     374:	80 93 7e 00 	sts	0x007E, r24	; 0x80007e <__TEXT_REGION_LENGTH__+0x70007e>
     378:	8f ef       	ldi	r24, 0xFF	; 255
     37a:	80 93 7d 00 	sts	0x007D, r24	; 0x80007d <__TEXT_REGION_LENGTH__+0x70007d>
     37e:	ea e7       	ldi	r30, 0x7A	; 122
     380:	f0 e0       	ldi	r31, 0x00	; 0
     382:	87 ea       	ldi	r24, 0xA7	; 167
     384:	80 83       	st	Z, r24
     386:	10 92 7b 00 	sts	0x007B, r1	; 0x80007b <__TEXT_REGION_LENGTH__+0x70007b>
     38a:	80 81       	ld	r24, Z
     38c:	80 64       	ori	r24, 0x40	; 64
     38e:	80 83       	st	Z, r24
     390:	80 81       	ld	r24, Z
     392:	84 ff       	sbrs	r24, 4
     394:	fd cf       	rjmp	.-6      	; 0x390 <initAdc+0x30>
     396:	ea e7       	ldi	r30, 0x7A	; 122
     398:	f0 e0       	ldi	r31, 0x00	; 0
     39a:	80 81       	ld	r24, Z
     39c:	8f 7e       	andi	r24, 0xEF	; 239
     39e:	80 83       	st	Z, r24
     3a0:	08 95       	ret

000003a2 <adcRead>:
     3a2:	90 e4       	ldi	r25, 0x40	; 64
     3a4:	90 93 7c 00 	sts	0x007C, r25	; 0x80007c <__TEXT_REGION_LENGTH__+0x70007c>
     3a8:	88 30       	cpi	r24, 0x08	; 8
     3aa:	60 f0       	brcs	.+24     	; 0x3c4 <adcRead+0x22>
     3ac:	ec e7       	ldi	r30, 0x7C	; 124
     3ae:	f0 e0       	ldi	r31, 0x00	; 0
     3b0:	90 81       	ld	r25, Z
     3b2:	88 50       	subi	r24, 0x08	; 8
     3b4:	89 2b       	or	r24, r25
     3b6:	80 83       	st	Z, r24
     3b8:	eb e7       	ldi	r30, 0x7B	; 123
     3ba:	f0 e0       	ldi	r31, 0x00	; 0
     3bc:	80 81       	ld	r24, Z
     3be:	88 61       	ori	r24, 0x18	; 24
     3c0:	80 83       	st	Z, r24
     3c2:	0a c0       	rjmp	.+20     	; 0x3d8 <adcRead+0x36>
     3c4:	ec e7       	ldi	r30, 0x7C	; 124
     3c6:	f0 e0       	ldi	r31, 0x00	; 0
     3c8:	90 81       	ld	r25, Z
     3ca:	89 2b       	or	r24, r25
     3cc:	80 83       	st	Z, r24
     3ce:	eb e7       	ldi	r30, 0x7B	; 123
     3d0:	f0 e0       	ldi	r31, 0x00	; 0
     3d2:	80 81       	ld	r24, Z
     3d4:	87 7e       	andi	r24, 0xE7	; 231
     3d6:	80 83       	st	Z, r24
     3d8:	ea e7       	ldi	r30, 0x7A	; 122
     3da:	f0 e0       	ldi	r31, 0x00	; 0
     3dc:	80 81       	ld	r24, Z
     3de:	80 64       	ori	r24, 0x40	; 64
     3e0:	80 83       	st	Z, r24
     3e2:	80 81       	ld	r24, Z
     3e4:	84 ff       	sbrs	r24, 4
     3e6:	fd cf       	rjmp	.-6      	; 0x3e2 <adcRead+0x40>
     3e8:	8f ea       	ldi	r24, 0xAF	; 175
     3ea:	94 e0       	ldi	r25, 0x04	; 4
     3ec:	01 97       	sbiw	r24, 0x01	; 1
     3ee:	f1 f7       	brne	.-4      	; 0x3ec <adcRead+0x4a>
     3f0:	00 c0       	rjmp	.+0      	; 0x3f2 <adcRead+0x50>
     3f2:	00 00       	nop
     3f4:	80 91 78 00 	lds	r24, 0x0078	; 0x800078 <__TEXT_REGION_LENGTH__+0x700078>
     3f8:	20 91 79 00 	lds	r18, 0x0079	; 0x800079 <__TEXT_REGION_LENGTH__+0x700079>
     3fc:	ea e7       	ldi	r30, 0x7A	; 122
     3fe:	f0 e0       	ldi	r31, 0x00	; 0
     400:	90 81       	ld	r25, Z
     402:	9f 7e       	andi	r25, 0xEF	; 239
     404:	90 83       	st	Z, r25
     406:	90 e0       	ldi	r25, 0x00	; 0
     408:	92 2b       	or	r25, r18
     40a:	08 95       	ret

0000040c <rgbWrite>:
     40c:	2f ef       	ldi	r18, 0xFF	; 255
     40e:	33 e0       	ldi	r19, 0x03	; 3
     410:	f9 01       	movw	r30, r18
     412:	e8 1b       	sub	r30, r24
     414:	f9 0b       	sbc	r31, r25
     416:	c9 01       	movw	r24, r18
     418:	86 1b       	sub	r24, r22
     41a:	97 0b       	sbc	r25, r23
     41c:	24 1b       	sub	r18, r20
     41e:	35 0b       	sbc	r19, r21
     420:	f0 93 a9 00 	sts	0x00A9, r31	; 0x8000a9 <__TEXT_REGION_LENGTH__+0x7000a9>
     424:	e0 93 a8 00 	sts	0x00A8, r30	; 0x8000a8 <__TEXT_REGION_LENGTH__+0x7000a8>
     428:	90 93 ab 00 	sts	0x00AB, r25	; 0x8000ab <__TEXT_REGION_LENGTH__+0x7000ab>
     42c:	80 93 aa 00 	sts	0x00AA, r24	; 0x8000aa <__TEXT_REGION_LENGTH__+0x7000aa>
     430:	30 93 ad 00 	sts	0x00AD, r19	; 0x8000ad <__TEXT_REGION_LENGTH__+0x7000ad>
     434:	20 93 ac 00 	sts	0x00AC, r18	; 0x8000ac <__TEXT_REGION_LENGTH__+0x7000ac>
     438:	08 95       	ret

0000043a <initRgb>:
     43a:	8e ef       	ldi	r24, 0xFE	; 254
     43c:	80 93 a0 00 	sts	0x00A0, r24	; 0x8000a0 <__TEXT_REGION_LENGTH__+0x7000a0>
     440:	8b e1       	ldi	r24, 0x1B	; 27
     442:	80 93 a1 00 	sts	0x00A1, r24	; 0x8000a1 <__TEXT_REGION_LENGTH__+0x7000a1>
     446:	83 e0       	ldi	r24, 0x03	; 3
     448:	80 93 a7 00 	sts	0x00A7, r24	; 0x8000a7 <__TEXT_REGION_LENGTH__+0x7000a7>
     44c:	8f ef       	ldi	r24, 0xFF	; 255
     44e:	80 93 a6 00 	sts	0x00A6, r24	; 0x8000a6 <__TEXT_REGION_LENGTH__+0x7000a6>
     452:	40 e0       	ldi	r20, 0x00	; 0
     454:	50 e0       	ldi	r21, 0x00	; 0
     456:	60 e0       	ldi	r22, 0x00	; 0
     458:	70 e0       	ldi	r23, 0x00	; 0
     45a:	80 e0       	ldi	r24, 0x00	; 0
     45c:	90 e0       	ldi	r25, 0x00	; 0
     45e:	d6 cf       	rjmp	.-84     	; 0x40c <rgbWrite>
     460:	08 95       	ret

00000462 <lcdSid>:
     462:	88 23       	and	r24, r24
     464:	11 f0       	breq	.+4      	; 0x46a <lcdSid+0x8>
     466:	a0 9a       	sbi	0x14, 0	; 20
     468:	08 95       	ret
     46a:	a0 98       	cbi	0x14, 0	; 20
     46c:	08 95       	ret

0000046e <lcdSclk>:
     46e:	88 23       	and	r24, r24
     470:	11 f0       	breq	.+4      	; 0x476 <lcdSclk+0x8>
     472:	a1 9a       	sbi	0x14, 1	; 20
     474:	08 95       	ret
     476:	a1 98       	cbi	0x14, 1	; 20
     478:	08 95       	ret

0000047a <lcdLight>:
     47a:	81 11       	cpse	r24, r1
     47c:	04 c0       	rjmp	.+8      	; 0x486 <lcdLight+0xc>
     47e:	84 b5       	in	r24, 0x24	; 36
     480:	8f 7d       	andi	r24, 0xDF	; 223
     482:	84 bd       	out	0x24, r24	; 36
     484:	08 95       	ret
     486:	94 b5       	in	r25, 0x24	; 36
     488:	90 62       	ori	r25, 0x20	; 32
     48a:	94 bd       	out	0x24, r25	; 36
     48c:	88 bd       	out	0x28, r24	; 40
     48e:	08 95       	ret

00000490 <writeLcdF>:
     490:	ef 92       	push	r14
     492:	ff 92       	push	r15
     494:	0f 93       	push	r16
     496:	1f 93       	push	r17
     498:	cf 93       	push	r28
     49a:	df 93       	push	r29
     49c:	7c 01       	movw	r14, r24
     49e:	eb 01       	movw	r28, r22
     4a0:	81 e0       	ldi	r24, 0x01	; 1
     4a2:	df df       	rcall	.-66     	; 0x462 <lcdSid>
     4a4:	05 e0       	ldi	r16, 0x05	; 5
     4a6:	10 e0       	ldi	r17, 0x00	; 0
     4a8:	80 e0       	ldi	r24, 0x00	; 0
     4aa:	e1 df       	rcall	.-62     	; 0x46e <lcdSclk>
     4ac:	81 e0       	ldi	r24, 0x01	; 1
     4ae:	df df       	rcall	.-66     	; 0x46e <lcdSclk>
     4b0:	01 50       	subi	r16, 0x01	; 1
     4b2:	11 09       	sbc	r17, r1
     4b4:	c9 f7       	brne	.-14     	; 0x4a8 <writeLcdF+0x18>
     4b6:	80 e0       	ldi	r24, 0x00	; 0
     4b8:	d4 df       	rcall	.-88     	; 0x462 <lcdSid>
     4ba:	80 e0       	ldi	r24, 0x00	; 0
     4bc:	d8 df       	rcall	.-80     	; 0x46e <lcdSclk>
     4be:	81 e0       	ldi	r24, 0x01	; 1
     4c0:	d6 df       	rcall	.-84     	; 0x46e <lcdSclk>
     4c2:	83 e4       	ldi	r24, 0x43	; 67
     4c4:	e8 16       	cp	r14, r24
     4c6:	f1 04       	cpc	r15, r1
     4c8:	19 f4       	brne	.+6      	; 0x4d0 <writeLcdF+0x40>
     4ca:	80 e0       	ldi	r24, 0x00	; 0
     4cc:	ca df       	rcall	.-108    	; 0x462 <lcdSid>
     4ce:	02 c0       	rjmp	.+4      	; 0x4d4 <writeLcdF+0x44>
     4d0:	81 e0       	ldi	r24, 0x01	; 1
     4d2:	c7 df       	rcall	.-114    	; 0x462 <lcdSid>
     4d4:	80 e0       	ldi	r24, 0x00	; 0
     4d6:	cb df       	rcall	.-106    	; 0x46e <lcdSclk>
     4d8:	81 e0       	ldi	r24, 0x01	; 1
     4da:	c9 df       	rcall	.-110    	; 0x46e <lcdSclk>
     4dc:	80 e0       	ldi	r24, 0x00	; 0
     4de:	c1 df       	rcall	.-126    	; 0x462 <lcdSid>
     4e0:	80 e0       	ldi	r24, 0x00	; 0
     4e2:	c5 df       	rcall	.-118    	; 0x46e <lcdSclk>
     4e4:	81 e0       	ldi	r24, 0x01	; 1
     4e6:	c3 df       	rcall	.-122    	; 0x46e <lcdSclk>
     4e8:	04 e0       	ldi	r16, 0x04	; 4
     4ea:	10 e0       	ldi	r17, 0x00	; 0
     4ec:	80 e0       	ldi	r24, 0x00	; 0
     4ee:	bf df       	rcall	.-130    	; 0x46e <lcdSclk>
     4f0:	c0 ff       	sbrs	r28, 0
     4f2:	03 c0       	rjmp	.+6      	; 0x4fa <writeLcdF+0x6a>
     4f4:	81 e0       	ldi	r24, 0x01	; 1
     4f6:	b5 df       	rcall	.-150    	; 0x462 <lcdSid>
     4f8:	02 c0       	rjmp	.+4      	; 0x4fe <writeLcdF+0x6e>
     4fa:	80 e0       	ldi	r24, 0x00	; 0
     4fc:	b2 df       	rcall	.-156    	; 0x462 <lcdSid>
     4fe:	d6 95       	lsr	r29
     500:	c7 95       	ror	r28
     502:	80 e0       	ldi	r24, 0x00	; 0
     504:	b4 df       	rcall	.-152    	; 0x46e <lcdSclk>
     506:	81 e0       	ldi	r24, 0x01	; 1
     508:	b2 df       	rcall	.-156    	; 0x46e <lcdSclk>
     50a:	01 50       	subi	r16, 0x01	; 1
     50c:	11 09       	sbc	r17, r1
     50e:	71 f7       	brne	.-36     	; 0x4ec <writeLcdF+0x5c>
     510:	80 e0       	ldi	r24, 0x00	; 0
     512:	a7 df       	rcall	.-178    	; 0x462 <lcdSid>
     514:	04 e0       	ldi	r16, 0x04	; 4
     516:	10 e0       	ldi	r17, 0x00	; 0
     518:	80 e0       	ldi	r24, 0x00	; 0
     51a:	a9 df       	rcall	.-174    	; 0x46e <lcdSclk>
     51c:	81 e0       	ldi	r24, 0x01	; 1
     51e:	a7 df       	rcall	.-178    	; 0x46e <lcdSclk>
     520:	01 50       	subi	r16, 0x01	; 1
     522:	11 09       	sbc	r17, r1
     524:	c9 f7       	brne	.-14     	; 0x518 <writeLcdF+0x88>
     526:	04 e0       	ldi	r16, 0x04	; 4
     528:	10 e0       	ldi	r17, 0x00	; 0
     52a:	80 e0       	ldi	r24, 0x00	; 0
     52c:	a0 df       	rcall	.-192    	; 0x46e <lcdSclk>
     52e:	c0 ff       	sbrs	r28, 0
     530:	03 c0       	rjmp	.+6      	; 0x538 <writeLcdF+0xa8>
     532:	81 e0       	ldi	r24, 0x01	; 1
     534:	96 df       	rcall	.-212    	; 0x462 <lcdSid>
     536:	02 c0       	rjmp	.+4      	; 0x53c <writeLcdF+0xac>
     538:	80 e0       	ldi	r24, 0x00	; 0
     53a:	93 df       	rcall	.-218    	; 0x462 <lcdSid>
     53c:	d6 95       	lsr	r29
     53e:	c7 95       	ror	r28
     540:	80 e0       	ldi	r24, 0x00	; 0
     542:	95 df       	rcall	.-214    	; 0x46e <lcdSclk>
     544:	81 e0       	ldi	r24, 0x01	; 1
     546:	93 df       	rcall	.-218    	; 0x46e <lcdSclk>
     548:	01 50       	subi	r16, 0x01	; 1
     54a:	11 09       	sbc	r17, r1
     54c:	71 f7       	brne	.-36     	; 0x52a <writeLcdF+0x9a>
     54e:	80 e0       	ldi	r24, 0x00	; 0
     550:	88 df       	rcall	.-240    	; 0x462 <lcdSid>
     552:	c4 e0       	ldi	r28, 0x04	; 4
     554:	d0 e0       	ldi	r29, 0x00	; 0
     556:	80 e0       	ldi	r24, 0x00	; 0
     558:	8a df       	rcall	.-236    	; 0x46e <lcdSclk>
     55a:	81 e0       	ldi	r24, 0x01	; 1
     55c:	88 df       	rcall	.-240    	; 0x46e <lcdSclk>
     55e:	21 97       	sbiw	r28, 0x01	; 1
     560:	d1 f7       	brne	.-12     	; 0x556 <writeLcdF+0xc6>
     562:	81 e0       	ldi	r24, 0x01	; 1
     564:	7e df       	rcall	.-260    	; 0x462 <lcdSid>
     566:	87 ec       	ldi	r24, 0xC7	; 199
     568:	90 e0       	ldi	r25, 0x00	; 0
     56a:	01 97       	sbiw	r24, 0x01	; 1
     56c:	f1 f7       	brne	.-4      	; 0x56a <writeLcdF+0xda>
     56e:	00 c0       	rjmp	.+0      	; 0x570 <writeLcdF+0xe0>
     570:	00 00       	nop
     572:	df 91       	pop	r29
     574:	cf 91       	pop	r28
     576:	1f 91       	pop	r17
     578:	0f 91       	pop	r16
     57a:	ff 90       	pop	r15
     57c:	ef 90       	pop	r14
     57e:	08 95       	ret

00000580 <lcdWriteText>:
     580:	1f 93       	push	r17
     582:	cf 93       	push	r28
     584:	df 93       	push	r29
     586:	cd b7       	in	r28, 0x3d	; 61
     588:	de b7       	in	r29, 0x3e	; 62
     58a:	65 97       	sbiw	r28, 0x15	; 21
     58c:	0f b6       	in	r0, 0x3f	; 63
     58e:	f8 94       	cli
     590:	de bf       	out	0x3e, r29	; 62
     592:	0f be       	out	0x3f, r0	; 63
     594:	cd bf       	out	0x3d, r28	; 61
     596:	9e 01       	movw	r18, r28
     598:	20 5e       	subi	r18, 0xE0	; 224
     59a:	3f 4f       	sbci	r19, 0xFF	; 255
     59c:	4e 8d       	ldd	r20, Y+30	; 0x1e
     59e:	5f 8d       	ldd	r21, Y+31	; 0x1f
     5a0:	65 e1       	ldi	r22, 0x15	; 21
     5a2:	70 e0       	ldi	r23, 0x00	; 0
     5a4:	ce 01       	movw	r24, r28
     5a6:	01 96       	adiw	r24, 0x01	; 1
     5a8:	c0 d4       	rcall	.+2432   	; 0xf2a <vsnprintf>
     5aa:	6d 8d       	ldd	r22, Y+29	; 0x1d
     5ac:	8c 8d       	ldd	r24, Y+28	; 0x1c
     5ae:	90 e2       	ldi	r25, 0x20	; 32
     5b0:	89 9f       	mul	r24, r25
     5b2:	60 0d       	add	r22, r0
     5b4:	11 24       	eor	r1, r1
     5b6:	60 68       	ori	r22, 0x80	; 128
     5b8:	70 e0       	ldi	r23, 0x00	; 0
     5ba:	83 e4       	ldi	r24, 0x43	; 67
     5bc:	90 e0       	ldi	r25, 0x00	; 0
     5be:	68 df       	rcall	.-304    	; 0x490 <writeLcdF>
     5c0:	69 81       	ldd	r22, Y+1	; 0x01
     5c2:	66 23       	and	r22, r22
     5c4:	79 f0       	breq	.+30     	; 0x5e4 <lcdWriteText+0x64>
     5c6:	10 e0       	ldi	r17, 0x00	; 0
     5c8:	1f 5f       	subi	r17, 0xFF	; 255
     5ca:	70 e0       	ldi	r23, 0x00	; 0
     5cc:	84 e4       	ldi	r24, 0x44	; 68
     5ce:	90 e0       	ldi	r25, 0x00	; 0
     5d0:	5f df       	rcall	.-322    	; 0x490 <writeLcdF>
     5d2:	e1 e0       	ldi	r30, 0x01	; 1
     5d4:	f0 e0       	ldi	r31, 0x00	; 0
     5d6:	ec 0f       	add	r30, r28
     5d8:	fd 1f       	adc	r31, r29
     5da:	e1 0f       	add	r30, r17
     5dc:	f1 1d       	adc	r31, r1
     5de:	60 81       	ld	r22, Z
     5e0:	61 11       	cpse	r22, r1
     5e2:	f2 cf       	rjmp	.-28     	; 0x5c8 <lcdWriteText+0x48>
     5e4:	65 96       	adiw	r28, 0x15	; 21
     5e6:	0f b6       	in	r0, 0x3f	; 63
     5e8:	f8 94       	cli
     5ea:	de bf       	out	0x3e, r29	; 62
     5ec:	0f be       	out	0x3f, r0	; 63
     5ee:	cd bf       	out	0x3d, r28	; 61
     5f0:	df 91       	pop	r29
     5f2:	cf 91       	pop	r28
     5f4:	1f 91       	pop	r17
     5f6:	08 95       	ret

000005f8 <lcdWriteZahl>:
     5f8:	2f 92       	push	r2
     5fa:	3f 92       	push	r3
     5fc:	4f 92       	push	r4
     5fe:	5f 92       	push	r5
     600:	6f 92       	push	r6
     602:	7f 92       	push	r7
     604:	8f 92       	push	r8
     606:	9f 92       	push	r9
     608:	af 92       	push	r10
     60a:	bf 92       	push	r11
     60c:	cf 92       	push	r12
     60e:	df 92       	push	r13
     610:	ef 92       	push	r14
     612:	ff 92       	push	r15
     614:	0f 93       	push	r16
     616:	1f 93       	push	r17
     618:	cf 93       	push	r28
     61a:	df 93       	push	r29
     61c:	cd b7       	in	r28, 0x3d	; 61
     61e:	de b7       	in	r29, 0x3e	; 62
     620:	e3 97       	sbiw	r28, 0x33	; 51
     622:	0f b6       	in	r0, 0x3f	; 63
     624:	f8 94       	cli
     626:	de bf       	out	0x3e, r29	; 62
     628:	0f be       	out	0x3f, r0	; 63
     62a:	cd bf       	out	0x3d, r28	; 61
     62c:	8a ab       	std	Y+50, r24	; 0x32
     62e:	6b ab       	std	Y+51, r22	; 0x33
     630:	ed a6       	std	Y+45, r14	; 0x2d
     632:	fe a6       	std	Y+46, r15	; 0x2e
     634:	70 2e       	mov	r7, r16
     636:	61 2e       	mov	r6, r17
     638:	52 2e       	mov	r5, r18
     63a:	43 2e       	mov	r4, r19
     63c:	cf a6       	std	Y+47, r12	; 0x2f
     63e:	a8 aa       	std	Y+48, r10	; 0x30
     640:	8c 2d       	mov	r24, r12
     642:	8a 0d       	add	r24, r10
     644:	89 ab       	std	Y+49, r24	; 0x31
     646:	85 31       	cpi	r24, 0x15	; 21
     648:	70 f0       	brcs	.+28     	; 0x666 <lcdWriteZahl+0x6e>
     64a:	8b e2       	ldi	r24, 0x2B	; 43
     64c:	92 e0       	ldi	r25, 0x02	; 2
     64e:	9f 93       	push	r25
     650:	8f 93       	push	r24
     652:	9b a9       	ldd	r25, Y+51	; 0x33
     654:	9f 93       	push	r25
     656:	ea a9       	ldd	r30, Y+50	; 0x32
     658:	ef 93       	push	r30
     65a:	92 df       	rcall	.-220    	; 0x580 <lcdWriteText>
     65c:	0f 90       	pop	r0
     65e:	0f 90       	pop	r0
     660:	0f 90       	pop	r0
     662:	0f 90       	pop	r0
     664:	a8 c0       	rjmp	.+336    	; 0x7b6 <lcdWriteZahl+0x1be>
     666:	4e 01       	movw	r8, r28
     668:	f5 e1       	ldi	r31, 0x15	; 21
     66a:	8f 0e       	add	r8, r31
     66c:	91 1c       	adc	r9, r1
     66e:	ce 01       	movw	r24, r28
     670:	01 96       	adiw	r24, 0x01	; 1
     672:	9c a7       	std	Y+44, r25	; 0x2c
     674:	8b a7       	std	Y+43, r24	; 0x2b
     676:	24 2e       	mov	r2, r20
     678:	35 2e       	mov	r3, r21
     67a:	0f 2e       	mov	r0, r31
     67c:	fa e0       	ldi	r31, 0x0A	; 10
     67e:	af 2e       	mov	r10, r31
     680:	f0 2d       	mov	r31, r0
     682:	b1 2c       	mov	r11, r1
     684:	c1 2c       	mov	r12, r1
     686:	d1 2c       	mov	r13, r1
     688:	e1 2c       	mov	r14, r1
     68a:	f1 2c       	mov	r15, r1
     68c:	00 e0       	ldi	r16, 0x00	; 0
     68e:	10 e0       	ldi	r17, 0x00	; 0
     690:	2d a5       	ldd	r18, Y+45	; 0x2d
     692:	3e a5       	ldd	r19, Y+46	; 0x2e
     694:	47 2d       	mov	r20, r7
     696:	56 2d       	mov	r21, r6
     698:	65 2d       	mov	r22, r5
     69a:	74 2d       	mov	r23, r4
     69c:	82 2d       	mov	r24, r2
     69e:	93 2d       	mov	r25, r3
     6a0:	d1 d3       	rcall	.+1954   	; 0xe44 <__umoddi3>
     6a2:	20 5d       	subi	r18, 0xD0	; 208
     6a4:	f4 01       	movw	r30, r8
     6a6:	22 93       	st	-Z, r18
     6a8:	4f 01       	movw	r8, r30
     6aa:	2d a5       	ldd	r18, Y+45	; 0x2d
     6ac:	3e a5       	ldd	r19, Y+46	; 0x2e
     6ae:	47 2d       	mov	r20, r7
     6b0:	56 2d       	mov	r21, r6
     6b2:	65 2d       	mov	r22, r5
     6b4:	74 2d       	mov	r23, r4
     6b6:	82 2d       	mov	r24, r2
     6b8:	93 2d       	mov	r25, r3
     6ba:	c6 d3       	rcall	.+1932   	; 0xe48 <__udivdi3>
     6bc:	2d a7       	std	Y+45, r18	; 0x2d
     6be:	3e a7       	std	Y+46, r19	; 0x2e
     6c0:	74 2e       	mov	r7, r20
     6c2:	65 2e       	mov	r6, r21
     6c4:	56 2e       	mov	r5, r22
     6c6:	47 2e       	mov	r4, r23
     6c8:	28 2e       	mov	r2, r24
     6ca:	39 2e       	mov	r3, r25
     6cc:	8b a5       	ldd	r24, Y+43	; 0x2b
     6ce:	9c a5       	ldd	r25, Y+44	; 0x2c
     6d0:	88 15       	cp	r24, r8
     6d2:	99 05       	cpc	r25, r9
     6d4:	91 f6       	brne	.-92     	; 0x67a <lcdWriteZahl+0x82>
     6d6:	84 e1       	ldi	r24, 0x14	; 20
     6d8:	99 a9       	ldd	r25, Y+49	; 0x31
     6da:	89 1b       	sub	r24, r25
     6dc:	ef a5       	ldd	r30, Y+47	; 0x2f
     6de:	ee 23       	and	r30, r30
     6e0:	89 f0       	breq	.+34     	; 0x704 <lcdWriteZahl+0x10c>
     6e2:	fe 01       	movw	r30, r28
     6e4:	75 96       	adiw	r30, 0x15	; 21
     6e6:	2f a5       	ldd	r18, Y+47	; 0x2f
     6e8:	28 0f       	add	r18, r24
     6ea:	a1 e0       	ldi	r26, 0x01	; 1
     6ec:	b0 e0       	ldi	r27, 0x00	; 0
     6ee:	ac 0f       	add	r26, r28
     6f0:	bd 1f       	adc	r27, r29
     6f2:	a8 0f       	add	r26, r24
     6f4:	b1 1d       	adc	r27, r1
     6f6:	9c 91       	ld	r25, X
     6f8:	91 93       	st	Z+, r25
     6fa:	8f 5f       	subi	r24, 0xFF	; 255
     6fc:	82 13       	cpse	r24, r18
     6fe:	f5 cf       	rjmp	.-22     	; 0x6ea <lcdWriteZahl+0xf2>
     700:	3f a5       	ldd	r19, Y+47	; 0x2f
     702:	02 c0       	rjmp	.+4      	; 0x708 <lcdWriteZahl+0x110>
     704:	28 2f       	mov	r18, r24
     706:	3f a5       	ldd	r19, Y+47	; 0x2f
     708:	f8 a9       	ldd	r31, Y+48	; 0x30
     70a:	ff 23       	and	r31, r31
     70c:	f1 f0       	breq	.+60     	; 0x74a <lcdWriteZahl+0x152>
     70e:	fe 01       	movw	r30, r28
     710:	e3 0f       	add	r30, r19
     712:	f1 1d       	adc	r31, r1
     714:	8e e2       	ldi	r24, 0x2E	; 46
     716:	85 8b       	std	Z+21, r24	; 0x15
     718:	91 e0       	ldi	r25, 0x01	; 1
     71a:	93 0f       	add	r25, r19
     71c:	38 a9       	ldd	r19, Y+48	; 0x30
     71e:	39 0f       	add	r19, r25
     720:	89 2f       	mov	r24, r25
     722:	29 1b       	sub	r18, r25
     724:	e5 e1       	ldi	r30, 0x15	; 21
     726:	f0 e0       	ldi	r31, 0x00	; 0
     728:	ec 0f       	add	r30, r28
     72a:	fd 1f       	adc	r31, r29
     72c:	e8 0f       	add	r30, r24
     72e:	f1 1d       	adc	r31, r1
     730:	92 2f       	mov	r25, r18
     732:	98 0f       	add	r25, r24
     734:	a1 e0       	ldi	r26, 0x01	; 1
     736:	b0 e0       	ldi	r27, 0x00	; 0
     738:	ac 0f       	add	r26, r28
     73a:	bd 1f       	adc	r27, r29
     73c:	a9 0f       	add	r26, r25
     73e:	b1 1d       	adc	r27, r1
     740:	9c 91       	ld	r25, X
     742:	90 83       	st	Z, r25
     744:	8f 5f       	subi	r24, 0xFF	; 255
     746:	38 13       	cpse	r19, r24
     748:	ed cf       	rjmp	.-38     	; 0x724 <lcdWriteZahl+0x12c>
     74a:	fe 01       	movw	r30, r28
     74c:	e3 0f       	add	r30, r19
     74e:	f1 1d       	adc	r31, r1
     750:	15 8a       	std	Z+21, r1	; 0x15
     752:	8d 89       	ldd	r24, Y+21	; 0x15
     754:	80 33       	cpi	r24, 0x30	; 48
     756:	11 f5       	brne	.+68     	; 0x79c <lcdWriteZahl+0x1a4>
     758:	8f a5       	ldd	r24, Y+47	; 0x2f
     75a:	48 2f       	mov	r20, r24
     75c:	50 e0       	ldi	r21, 0x00	; 0
     75e:	41 50       	subi	r20, 0x01	; 1
     760:	51 09       	sbc	r21, r1
     762:	14 16       	cp	r1, r20
     764:	15 06       	cpc	r1, r21
     766:	d4 f4       	brge	.+52     	; 0x79c <lcdWriteZahl+0x1a4>
     768:	80 e0       	ldi	r24, 0x00	; 0
     76a:	90 e0       	ldi	r25, 0x00	; 0
     76c:	20 e0       	ldi	r18, 0x00	; 0
     76e:	60 e2       	ldi	r22, 0x20	; 32
     770:	2f 5f       	subi	r18, 0xFF	; 255
     772:	e5 e1       	ldi	r30, 0x15	; 21
     774:	f0 e0       	ldi	r31, 0x00	; 0
     776:	ec 0f       	add	r30, r28
     778:	fd 1f       	adc	r31, r29
     77a:	e8 0f       	add	r30, r24
     77c:	f9 1f       	adc	r31, r25
     77e:	60 83       	st	Z, r22
     780:	82 2f       	mov	r24, r18
     782:	90 e0       	ldi	r25, 0x00	; 0
     784:	e5 e1       	ldi	r30, 0x15	; 21
     786:	f0 e0       	ldi	r31, 0x00	; 0
     788:	ec 0f       	add	r30, r28
     78a:	fd 1f       	adc	r31, r29
     78c:	e8 0f       	add	r30, r24
     78e:	f9 1f       	adc	r31, r25
     790:	30 81       	ld	r19, Z
     792:	30 33       	cpi	r19, 0x30	; 48
     794:	19 f4       	brne	.+6      	; 0x79c <lcdWriteZahl+0x1a4>
     796:	84 17       	cp	r24, r20
     798:	95 07       	cpc	r25, r21
     79a:	54 f3       	brlt	.-44     	; 0x770 <lcdWriteZahl+0x178>
     79c:	ce 01       	movw	r24, r28
     79e:	45 96       	adiw	r24, 0x15	; 21
     7a0:	9f 93       	push	r25
     7a2:	8f 93       	push	r24
     7a4:	9b a9       	ldd	r25, Y+51	; 0x33
     7a6:	9f 93       	push	r25
     7a8:	ea a9       	ldd	r30, Y+50	; 0x32
     7aa:	ef 93       	push	r30
     7ac:	e9 de       	rcall	.-558    	; 0x580 <lcdWriteText>
     7ae:	0f 90       	pop	r0
     7b0:	0f 90       	pop	r0
     7b2:	0f 90       	pop	r0
     7b4:	0f 90       	pop	r0
     7b6:	e3 96       	adiw	r28, 0x33	; 51
     7b8:	0f b6       	in	r0, 0x3f	; 63
     7ba:	f8 94       	cli
     7bc:	de bf       	out	0x3e, r29	; 62
     7be:	0f be       	out	0x3f, r0	; 63
     7c0:	cd bf       	out	0x3d, r28	; 61
     7c2:	df 91       	pop	r29
     7c4:	cf 91       	pop	r28
     7c6:	1f 91       	pop	r17
     7c8:	0f 91       	pop	r16
     7ca:	ff 90       	pop	r15
     7cc:	ef 90       	pop	r14
     7ce:	df 90       	pop	r13
     7d0:	cf 90       	pop	r12
     7d2:	bf 90       	pop	r11
     7d4:	af 90       	pop	r10
     7d6:	9f 90       	pop	r9
     7d8:	8f 90       	pop	r8
     7da:	7f 90       	pop	r7
     7dc:	6f 90       	pop	r6
     7de:	5f 90       	pop	r5
     7e0:	4f 90       	pop	r4
     7e2:	3f 90       	pop	r3
     7e4:	2f 90       	pop	r2
     7e6:	08 95       	ret

000007e8 <lcdClear>:
     7e8:	61 e0       	ldi	r22, 0x01	; 1
     7ea:	70 e0       	ldi	r23, 0x00	; 0
     7ec:	83 e4       	ldi	r24, 0x43	; 67
     7ee:	90 e0       	ldi	r25, 0x00	; 0
     7f0:	4f de       	rcall	.-866    	; 0x490 <writeLcdF>
     7f2:	8f e3       	ldi	r24, 0x3F	; 63
     7f4:	9f e1       	ldi	r25, 0x1F	; 31
     7f6:	01 97       	sbiw	r24, 0x01	; 1
     7f8:	f1 f7       	brne	.-4      	; 0x7f6 <lcdClear+0xe>
     7fa:	00 c0       	rjmp	.+0      	; 0x7fc <lcdClear+0x14>
     7fc:	00 00       	nop
     7fe:	83 e5       	ldi	r24, 0x53	; 83
     800:	92 e0       	ldi	r25, 0x02	; 2
     802:	9f 93       	push	r25
     804:	8f 93       	push	r24
     806:	1f 92       	push	r1
     808:	1f 92       	push	r1
     80a:	ba de       	rcall	.-652    	; 0x580 <lcdWriteText>
     80c:	0f 90       	pop	r0
     80e:	0f 90       	pop	r0
     810:	0f 90       	pop	r0
     812:	0f 90       	pop	r0
     814:	08 95       	ret

00000816 <initLcd>:
     816:	81 e0       	ldi	r24, 0x01	; 1
     818:	2a de       	rcall	.-940    	; 0x46e <lcdSclk>
     81a:	80 e0       	ldi	r24, 0x00	; 0
     81c:	22 de       	rcall	.-956    	; 0x462 <lcdSid>
     81e:	64 e3       	ldi	r22, 0x34	; 52
     820:	70 e0       	ldi	r23, 0x00	; 0
     822:	83 e4       	ldi	r24, 0x43	; 67
     824:	90 e0       	ldi	r25, 0x00	; 0
     826:	34 de       	rcall	.-920    	; 0x490 <writeLcdF>
     828:	69 e0       	ldi	r22, 0x09	; 9
     82a:	70 e0       	ldi	r23, 0x00	; 0
     82c:	83 e4       	ldi	r24, 0x43	; 67
     82e:	90 e0       	ldi	r25, 0x00	; 0
     830:	2f de       	rcall	.-930    	; 0x490 <writeLcdF>
     832:	60 e3       	ldi	r22, 0x30	; 48
     834:	70 e0       	ldi	r23, 0x00	; 0
     836:	83 e4       	ldi	r24, 0x43	; 67
     838:	90 e0       	ldi	r25, 0x00	; 0
     83a:	2a de       	rcall	.-940    	; 0x490 <writeLcdF>
     83c:	6c e0       	ldi	r22, 0x0C	; 12
     83e:	70 e0       	ldi	r23, 0x00	; 0
     840:	83 e4       	ldi	r24, 0x43	; 67
     842:	90 e0       	ldi	r25, 0x00	; 0
     844:	25 de       	rcall	.-950    	; 0x490 <writeLcdF>
     846:	d0 df       	rcall	.-96     	; 0x7e8 <lcdClear>
     848:	67 e0       	ldi	r22, 0x07	; 7
     84a:	70 e0       	ldi	r23, 0x00	; 0
     84c:	83 e4       	ldi	r24, 0x43	; 67
     84e:	90 e0       	ldi	r25, 0x00	; 0
     850:	1f de       	rcall	.-962    	; 0x490 <writeLcdF>
     852:	80 e0       	ldi	r24, 0x00	; 0
     854:	12 ce       	rjmp	.-988    	; 0x47a <lcdLight>
     856:	08 95       	ret

00000858 <initBoard>:
     858:	4f 92       	push	r4
     85a:	5f 92       	push	r5
     85c:	6f 92       	push	r6
     85e:	7f 92       	push	r7
     860:	8f 92       	push	r8
     862:	9f 92       	push	r9
     864:	af 92       	push	r10
     866:	bf 92       	push	r11
     868:	cf 92       	push	r12
     86a:	df 92       	push	r13
     86c:	ef 92       	push	r14
     86e:	ff 92       	push	r15
     870:	0f 93       	push	r16
     872:	1f 93       	push	r17
     874:	cf 93       	push	r28
     876:	df 93       	push	r29
     878:	c8 2f       	mov	r28, r24
     87a:	85 b7       	in	r24, 0x35	; 53
     87c:	85 bf       	out	0x35, r24	; 53
     87e:	12 b8       	out	0x02, r1	; 2
     880:	8f ef       	ldi	r24, 0xFF	; 255
     882:	81 b9       	out	0x01, r24	; 1
     884:	15 b8       	out	0x05, r1	; 5
     886:	84 b9       	out	0x04, r24	; 4
     888:	88 b9       	out	0x08, r24	; 8
     88a:	17 b8       	out	0x07, r1	; 7
     88c:	8b b9       	out	0x0b, r24	; 11
     88e:	1a b8       	out	0x0a, r1	; 10
     890:	8e b9       	out	0x0e, r24	; 14
     892:	1d b8       	out	0x0d, r1	; 13
     894:	72 98       	cbi	0x0e, 2	; 14
     896:	11 ba       	out	0x11, r1	; 17
     898:	10 ba       	out	0x10, r1	; 16
     89a:	94 e0       	ldi	r25, 0x04	; 4
     89c:	94 bb       	out	0x14, r25	; 20
     89e:	93 b3       	in	r25, 0x13	; 19
     8a0:	93 60       	ori	r25, 0x03	; 3
     8a2:	93 bb       	out	0x13, r25	; 19
     8a4:	9d 9a       	sbi	0x13, 5	; 19
     8a6:	97 ec       	ldi	r25, 0xC7	; 199
     8a8:	90 93 02 01 	sts	0x0102, r25	; 0x800102 <__TEXT_REGION_LENGTH__+0x700102>
     8ac:	98 e3       	ldi	r25, 0x38	; 56
     8ae:	90 93 01 01 	sts	0x0101, r25	; 0x800101 <__TEXT_REGION_LENGTH__+0x700101>
     8b2:	10 92 05 01 	sts	0x0105, r1	; 0x800105 <__TEXT_REGION_LENGTH__+0x700105>
     8b6:	80 93 04 01 	sts	0x0104, r24	; 0x800104 <__TEXT_REGION_LENGTH__+0x700104>
     8ba:	10 92 08 01 	sts	0x0108, r1	; 0x800108 <__TEXT_REGION_LENGTH__+0x700108>
     8be:	10 92 07 01 	sts	0x0107, r1	; 0x800107 <__TEXT_REGION_LENGTH__+0x700107>
     8c2:	8c e3       	ldi	r24, 0x3C	; 60
     8c4:	80 93 0b 01 	sts	0x010B, r24	; 0x80010b <__TEXT_REGION_LENGTH__+0x70010b>
     8c8:	10 92 0a 01 	sts	0x010A, r1	; 0x80010a <__TEXT_REGION_LENGTH__+0x70010a>
     8cc:	78 94       	sei
     8ce:	3e dd       	rcall	.-1412   	; 0x34c <startSystemTimeMs>
     8d0:	a2 df       	rcall	.-188    	; 0x816 <initLcd>
     8d2:	46 dd       	rcall	.-1396   	; 0x360 <initAdc>
     8d4:	b2 dd       	rcall	.-1180   	; 0x43a <initRgb>
     8d6:	cc 23       	and	r28, r28
     8d8:	09 f4       	brne	.+2      	; 0x8dc <initBoard+0x84>
     8da:	b8 c0       	rjmp	.+368    	; 0xa4c <initBoard+0x1f4>
     8dc:	8f ef       	ldi	r24, 0xFF	; 255
     8de:	cd dd       	rcall	.-1126   	; 0x47a <lcdLight>
     8e0:	40 e0       	ldi	r20, 0x00	; 0
     8e2:	50 e0       	ldi	r21, 0x00	; 0
     8e4:	6f ef       	ldi	r22, 0xFF	; 255
     8e6:	73 e0       	ldi	r23, 0x03	; 3
     8e8:	80 e0       	ldi	r24, 0x00	; 0
     8ea:	90 e0       	ldi	r25, 0x00	; 0
     8ec:	8f dd       	rcall	.-1250   	; 0x40c <rgbWrite>
     8ee:	80 e4       	ldi	r24, 0x40	; 64
     8f0:	92 e0       	ldi	r25, 0x02	; 2
     8f2:	9f 93       	push	r25
     8f4:	8f 93       	push	r24
     8f6:	1f 92       	push	r1
     8f8:	1f 92       	push	r1
     8fa:	42 de       	rcall	.-892    	; 0x580 <lcdWriteText>
     8fc:	85 e5       	ldi	r24, 0x55	; 85
     8fe:	92 e0       	ldi	r25, 0x02	; 2
     900:	9f 93       	push	r25
     902:	8f 93       	push	r24
     904:	1f 92       	push	r1
     906:	81 e0       	ldi	r24, 0x01	; 1
     908:	8f 93       	push	r24
     90a:	3a de       	rcall	.-908    	; 0x580 <lcdWriteText>
     90c:	8b e2       	ldi	r24, 0x2B	; 43
     90e:	92 e0       	ldi	r25, 0x02	; 2
     910:	9f 93       	push	r25
     912:	8f 93       	push	r24
     914:	1f 92       	push	r1
     916:	82 e0       	ldi	r24, 0x02	; 2
     918:	8f 93       	push	r24
     91a:	32 de       	rcall	.-924    	; 0x580 <lcdWriteText>
     91c:	8a e6       	ldi	r24, 0x6A	; 106
     91e:	92 e0       	ldi	r25, 0x02	; 2
     920:	9f 93       	push	r25
     922:	8f 93       	push	r24
     924:	1f 92       	push	r1
     926:	83 e0       	ldi	r24, 0x03	; 3
     928:	8f 93       	push	r24
     92a:	2a de       	rcall	.-940    	; 0x580 <lcdWriteText>
     92c:	8d b7       	in	r24, 0x3d	; 61
     92e:	9e b7       	in	r25, 0x3e	; 62
     930:	40 96       	adiw	r24, 0x10	; 16
     932:	0f b6       	in	r0, 0x3f	; 63
     934:	f8 94       	cli
     936:	9e bf       	out	0x3e, r25	; 62
     938:	0f be       	out	0x3f, r0	; 63
     93a:	8d bf       	out	0x3d, r24	; 61
     93c:	88 24       	eor	r8, r8
     93e:	83 94       	inc	r8
     940:	c0 e0       	ldi	r28, 0x00	; 0
     942:	71 2c       	mov	r7, r1
     944:	99 24       	eor	r9, r9
     946:	93 94       	inc	r9
     948:	d0 e0       	ldi	r29, 0x00	; 0
     94a:	cc 24       	eor	r12, r12
     94c:	c3 94       	inc	r12
     94e:	d1 2c       	mov	r13, r1
     950:	e1 2c       	mov	r14, r1
     952:	68 94       	set
     954:	ff 24       	eor	r15, r15
     956:	f7 f8       	bld	r15, 7
     958:	66 24       	eor	r6, r6
     95a:	63 94       	inc	r6
     95c:	51 2c       	mov	r5, r1
     95e:	09 e0       	ldi	r16, 0x09	; 9
     960:	11 e0       	ldi	r17, 0x01	; 1
     962:	0f 2e       	mov	r0, r31
     964:	ff e7       	ldi	r31, 0x7F	; 127
     966:	af 2e       	mov	r10, r31
     968:	f2 e0       	ldi	r31, 0x02	; 2
     96a:	bf 2e       	mov	r11, r31
     96c:	f0 2d       	mov	r31, r0
     96e:	0f 2e       	mov	r0, r31
     970:	f3 e0       	ldi	r31, 0x03	; 3
     972:	4f 2e       	mov	r4, r31
     974:	f0 2d       	mov	r31, r0
     976:	99 20       	and	r9, r9
     978:	49 f0       	breq	.+18     	; 0x98c <initBoard+0x134>
     97a:	c7 01       	movw	r24, r14
     97c:	0d 2e       	mov	r0, r29
     97e:	02 c0       	rjmp	.+4      	; 0x984 <initBoard+0x12c>
     980:	96 95       	lsr	r25
     982:	87 95       	ror	r24
     984:	0a 94       	dec	r0
     986:	e2 f7       	brpl	.-8      	; 0x980 <initBoard+0x128>
     988:	d1 dc       	rcall	.-1630   	; 0x32c <ledWriteAll>
     98a:	08 c0       	rjmp	.+16     	; 0x99c <initBoard+0x144>
     98c:	c6 01       	movw	r24, r12
     98e:	0d 2e       	mov	r0, r29
     990:	02 c0       	rjmp	.+4      	; 0x996 <initBoard+0x13e>
     992:	88 0f       	add	r24, r24
     994:	99 1f       	adc	r25, r25
     996:	0a 94       	dec	r0
     998:	e2 f7       	brpl	.-8      	; 0x992 <initBoard+0x13a>
     99a:	c8 dc       	rcall	.-1648   	; 0x32c <ledWriteAll>
     99c:	df 5f       	subi	r29, 0xFF	; 255
     99e:	d1 31       	cpi	r29, 0x11	; 17
     9a0:	28 f0       	brcs	.+10     	; 0x9ac <initBoard+0x154>
     9a2:	86 2d       	mov	r24, r6
     9a4:	91 10       	cpse	r9, r1
     9a6:	85 2d       	mov	r24, r5
     9a8:	98 2e       	mov	r9, r24
     9aa:	d0 e0       	ldi	r29, 0x00	; 0
     9ac:	88 20       	and	r8, r8
     9ae:	11 f0       	breq	.+4      	; 0x9b4 <initBoard+0x15c>
     9b0:	ce 5f       	subi	r28, 0xFE	; 254
     9b2:	01 c0       	rjmp	.+2      	; 0x9b6 <initBoard+0x15e>
     9b4:	c2 50       	subi	r28, 0x02	; 2
     9b6:	8c 2f       	mov	r24, r28
     9b8:	60 dd       	rcall	.-1344   	; 0x47a <lcdLight>
     9ba:	ce 3f       	cpi	r28, 0xFE	; 254
     9bc:	21 f0       	breq	.+8      	; 0x9c6 <initBoard+0x16e>
     9be:	c8 37       	cpi	r28, 0x78	; 120
     9c0:	19 f4       	brne	.+6      	; 0x9c8 <initBoard+0x170>
     9c2:	86 2c       	mov	r8, r6
     9c4:	01 c0       	rjmp	.+2      	; 0x9c8 <initBoard+0x170>
     9c6:	85 2c       	mov	r8, r5
     9c8:	71 10       	cpse	r7, r1
     9ca:	3b c0       	rjmp	.+118    	; 0xa42 <initBoard+0x1ea>
     9cc:	f8 01       	movw	r30, r16
     9ce:	80 81       	ld	r24, Z
     9d0:	83 7c       	andi	r24, 0xC3	; 195
     9d2:	91 f0       	breq	.+36     	; 0x9f8 <initBoard+0x1a0>
     9d4:	40 e0       	ldi	r20, 0x00	; 0
     9d6:	50 e0       	ldi	r21, 0x00	; 0
     9d8:	66 e2       	ldi	r22, 0x26	; 38
     9da:	72 e0       	ldi	r23, 0x02	; 2
     9dc:	8f ef       	ldi	r24, 0xFF	; 255
     9de:	93 e0       	ldi	r25, 0x03	; 3
     9e0:	15 dd       	rcall	.-1494   	; 0x40c <rgbWrite>
     9e2:	bf 92       	push	r11
     9e4:	af 92       	push	r10
     9e6:	1f 92       	push	r1
     9e8:	4f 92       	push	r4
     9ea:	ca dd       	rcall	.-1132   	; 0x580 <lcdWriteText>
     9ec:	0f 90       	pop	r0
     9ee:	0f 90       	pop	r0
     9f0:	0f 90       	pop	r0
     9f2:	0f 90       	pop	r0
     9f4:	76 2c       	mov	r7, r6
     9f6:	25 c0       	rjmp	.+74     	; 0xa42 <initBoard+0x1ea>
     9f8:	8f ef       	ldi	r24, 0xFF	; 255
     9fa:	9c e7       	ldi	r25, 0x7C	; 124
     9fc:	01 97       	sbiw	r24, 0x01	; 1
     9fe:	f1 f7       	brne	.-4      	; 0x9fc <initBoard+0x1a4>
     a00:	00 c0       	rjmp	.+0      	; 0xa02 <initBoard+0x1aa>
     a02:	00 00       	nop
     a04:	b8 cf       	rjmp	.-144    	; 0x976 <initBoard+0x11e>
     a06:	f0 de       	rcall	.-544    	; 0x7e8 <lcdClear>
     a08:	80 e0       	ldi	r24, 0x00	; 0
     a0a:	37 dd       	rcall	.-1426   	; 0x47a <lcdLight>
     a0c:	80 e0       	ldi	r24, 0x00	; 0
     a0e:	90 e0       	ldi	r25, 0x00	; 0
     a10:	8d dc       	rcall	.-1766   	; 0x32c <ledWriteAll>
     a12:	40 e0       	ldi	r20, 0x00	; 0
     a14:	50 e0       	ldi	r21, 0x00	; 0
     a16:	60 e0       	ldi	r22, 0x00	; 0
     a18:	70 e0       	ldi	r23, 0x00	; 0
     a1a:	80 e0       	ldi	r24, 0x00	; 0
     a1c:	90 e0       	ldi	r25, 0x00	; 0
     a1e:	f6 dc       	rcall	.-1556   	; 0x40c <rgbWrite>
     a20:	10 92 e5 02 	sts	0x02E5, r1	; 0x8002e5 <systemTimeMs>
     a24:	10 92 e6 02 	sts	0x02E6, r1	; 0x8002e6 <systemTimeMs+0x1>
     a28:	10 92 e7 02 	sts	0x02E7, r1	; 0x8002e7 <systemTimeMs+0x2>
     a2c:	10 92 e8 02 	sts	0x02E8, r1	; 0x8002e8 <systemTimeMs+0x3>
     a30:	10 92 e9 02 	sts	0x02E9, r1	; 0x8002e9 <systemTimeMs+0x4>
     a34:	10 92 ea 02 	sts	0x02EA, r1	; 0x8002ea <systemTimeMs+0x5>
     a38:	10 92 eb 02 	sts	0x02EB, r1	; 0x8002eb <systemTimeMs+0x6>
     a3c:	10 92 ec 02 	sts	0x02EC, r1	; 0x8002ec <systemTimeMs+0x7>
     a40:	05 c0       	rjmp	.+10     	; 0xa4c <initBoard+0x1f4>
     a42:	f8 01       	movw	r30, r16
     a44:	80 81       	ld	r24, Z
     a46:	83 7c       	andi	r24, 0xC3	; 195
     a48:	b9 f6       	brne	.-82     	; 0x9f8 <initBoard+0x1a0>
     a4a:	dd cf       	rjmp	.-70     	; 0xa06 <initBoard+0x1ae>
     a4c:	df 91       	pop	r29
     a4e:	cf 91       	pop	r28
     a50:	1f 91       	pop	r17
     a52:	0f 91       	pop	r16
     a54:	ff 90       	pop	r15
     a56:	ef 90       	pop	r14
     a58:	df 90       	pop	r13
     a5a:	cf 90       	pop	r12
     a5c:	bf 90       	pop	r11
     a5e:	af 90       	pop	r10
     a60:	9f 90       	pop	r9
     a62:	8f 90       	pop	r8
     a64:	7f 90       	pop	r7
     a66:	6f 90       	pop	r6
     a68:	5f 90       	pop	r5
     a6a:	4f 90       	pop	r4
     a6c:	08 95       	ret

00000a6e <lcdLog>:
     a6e:	6f 92       	push	r6
     a70:	7f 92       	push	r7
     a72:	8f 92       	push	r8
     a74:	9f 92       	push	r9
     a76:	af 92       	push	r10
     a78:	bf 92       	push	r11
     a7a:	cf 92       	push	r12
     a7c:	df 92       	push	r13
     a7e:	ef 92       	push	r14
     a80:	ff 92       	push	r15
     a82:	0f 93       	push	r16
     a84:	1f 93       	push	r17
     a86:	cf 93       	push	r28
     a88:	df 93       	push	r29
     a8a:	cd b7       	in	r28, 0x3d	; 61
     a8c:	de b7       	in	r29, 0x3e	; 62
     a8e:	60 97       	sbiw	r28, 0x10	; 16
     a90:	0f b6       	in	r0, 0x3f	; 63
     a92:	f8 94       	cli
     a94:	de bf       	out	0x3e, r29	; 62
     a96:	0f be       	out	0x3f, r0	; 63
     a98:	cd bf       	out	0x3d, r28	; 61
     a9a:	80 91 00 02 	lds	r24, 0x0200	; 0x800200 <__DATA_REGION_ORIGIN__>
     a9e:	88 23       	and	r24, r24
     aa0:	b1 f1       	breq	.+108    	; 0xb0e <lcdLog+0xa0>
     aa2:	a2 de       	rcall	.-700    	; 0x7e8 <lcdClear>
     aa4:	10 92 00 02 	sts	0x0200, r1	; 0x800200 <__DATA_REGION_ORIGIN__>
     aa8:	10 92 e3 02 	sts	0x02E3, r1	; 0x8002e3 <nummer.2610+0x1>
     aac:	10 92 e2 02 	sts	0x02E2, r1	; 0x8002e2 <nummer.2610>
     ab0:	0f 2e       	mov	r0, r31
     ab2:	fa ed       	ldi	r31, 0xDA	; 218
     ab4:	ef 2e       	mov	r14, r31
     ab6:	f2 e0       	ldi	r31, 0x02	; 2
     ab8:	ff 2e       	mov	r15, r31
     aba:	f0 2d       	mov	r31, r0
     abc:	0a e9       	ldi	r16, 0x9A	; 154
     abe:	12 e0       	ldi	r17, 0x02	; 2
     ac0:	a0 e0       	ldi	r26, 0x00	; 0
     ac2:	b0 e0       	ldi	r27, 0x00	; 0
     ac4:	40 e2       	ldi	r20, 0x20	; 32
     ac6:	bd 01       	movw	r22, r26
     ac8:	f7 01       	movw	r30, r14
     aca:	11 92       	st	Z+, r1
     acc:	11 92       	st	Z+, r1
     ace:	7f 01       	movw	r14, r30
     ad0:	f8 01       	movw	r30, r16
     ad2:	41 93       	st	Z+, r20
     ad4:	81 e0       	ldi	r24, 0x01	; 1
     ad6:	90 e0       	ldi	r25, 0x00	; 0
     ad8:	13 c0       	rjmp	.+38     	; 0xb00 <lcdLog+0x92>
     ada:	62 95       	swap	r22
     adc:	72 95       	swap	r23
     ade:	70 7f       	andi	r23, 0xF0	; 240
     ae0:	76 27       	eor	r23, r22
     ae2:	60 7f       	andi	r22, 0xF0	; 240
     ae4:	76 27       	eor	r23, r22
     ae6:	66 56       	subi	r22, 0x66	; 102
     ae8:	7d 4f       	sbci	r23, 0xFD	; 253
     aea:	fb 01       	movw	r30, r22
     aec:	e2 0f       	add	r30, r18
     aee:	f3 1f       	adc	r31, r19
     af0:	10 82       	st	Z, r1
     af2:	11 96       	adiw	r26, 0x01	; 1
     af4:	00 5f       	subi	r16, 0xF0	; 240
     af6:	1f 4f       	sbci	r17, 0xFF	; 255
     af8:	a4 30       	cpi	r26, 0x04	; 4
     afa:	b1 05       	cpc	r27, r1
     afc:	21 f7       	brne	.-56     	; 0xac6 <lcdLog+0x58>
     afe:	07 c0       	rjmp	.+14     	; 0xb0e <lcdLog+0xa0>
     b00:	9c 01       	movw	r18, r24
     b02:	41 93       	st	Z+, r20
     b04:	01 96       	adiw	r24, 0x01	; 1
     b06:	80 31       	cpi	r24, 0x10	; 16
     b08:	91 05       	cpc	r25, r1
     b0a:	d1 f7       	brne	.-12     	; 0xb00 <lcdLog+0x92>
     b0c:	e6 cf       	rjmp	.-52     	; 0xada <lcdLog+0x6c>
     b0e:	80 91 e2 02 	lds	r24, 0x02E2	; 0x8002e2 <nummer.2610>
     b12:	90 91 e3 02 	lds	r25, 0x02E3	; 0x8002e3 <nummer.2610+0x1>
     b16:	01 96       	adiw	r24, 0x01	; 1
     b18:	90 93 e3 02 	sts	0x02E3, r25	; 0x8002e3 <nummer.2610+0x1>
     b1c:	80 93 e2 02 	sts	0x02E2, r24	; 0x8002e2 <nummer.2610>
     b20:	9e 01       	movw	r18, r28
     b22:	2c 5d       	subi	r18, 0xDC	; 220
     b24:	3f 4f       	sbci	r19, 0xFF	; 255
     b26:	4a a1       	ldd	r20, Y+34	; 0x22
     b28:	5b a1       	ldd	r21, Y+35	; 0x23
     b2a:	60 e1       	ldi	r22, 0x10	; 16
     b2c:	70 e0       	ldi	r23, 0x00	; 0
     b2e:	ce 01       	movw	r24, r28
     b30:	01 96       	adiw	r24, 0x01	; 1
     b32:	fb d1       	rcall	.+1014   	; 0xf2a <vsnprintf>
     b34:	8e 01       	movw	r16, r28
     b36:	0f 5f       	subi	r16, 0xFF	; 255
     b38:	1f 4f       	sbci	r17, 0xFF	; 255
     b3a:	7e 01       	movw	r14, r28
     b3c:	f1 e1       	ldi	r31, 0x11	; 17
     b3e:	ef 0e       	add	r14, r31
     b40:	f1 1c       	adc	r15, r1
     b42:	f8 01       	movw	r30, r16
     b44:	90 e0       	ldi	r25, 0x00	; 0
     b46:	30 e2       	ldi	r19, 0x20	; 32
     b48:	21 e0       	ldi	r18, 0x01	; 1
     b4a:	df 01       	movw	r26, r30
     b4c:	80 81       	ld	r24, Z
     b4e:	88 23       	and	r24, r24
     b50:	19 f0       	breq	.+6      	; 0xb58 <lcdLog+0xea>
     b52:	99 23       	and	r25, r25
     b54:	19 f0       	breq	.+6      	; 0xb5c <lcdLog+0xee>
     b56:	01 c0       	rjmp	.+2      	; 0xb5a <lcdLog+0xec>
     b58:	92 2f       	mov	r25, r18
     b5a:	3c 93       	st	X, r19
     b5c:	31 96       	adiw	r30, 0x01	; 1
     b5e:	ee 15       	cp	r30, r14
     b60:	ff 05       	cpc	r31, r15
     b62:	99 f7       	brne	.-26     	; 0xb4a <lcdLog+0xdc>
     b64:	18 8a       	std	Y+16, r1	; 0x10
     b66:	6a e9       	ldi	r22, 0x9A	; 154
     b68:	72 e0       	ldi	r23, 0x02	; 2
     b6a:	ce 01       	movw	r24, r28
     b6c:	01 96       	adiw	r24, 0x01	; 1
     b6e:	d4 d1       	rcall	.+936    	; 0xf18 <strcmp>
     b70:	88 23       	and	r24, r24
     b72:	09 f4       	brne	.+2      	; 0xb76 <lcdLog+0x108>
     b74:	77 c0       	rjmp	.+238    	; 0xc64 <lcdLog+0x1f6>
     b76:	0f 2e       	mov	r0, r31
     b78:	f0 ee       	ldi	r31, 0xE0	; 224
     b7a:	8f 2e       	mov	r8, r31
     b7c:	f2 e0       	ldi	r31, 0x02	; 2
     b7e:	9f 2e       	mov	r9, r31
     b80:	f0 2d       	mov	r31, r0
     b82:	6a ec       	ldi	r22, 0xCA	; 202
     b84:	72 e0       	ldi	r23, 0x02	; 2
     b86:	4a e9       	ldi	r20, 0x9A	; 154
     b88:	52 e0       	ldi	r21, 0x02	; 2
     b8a:	f4 01       	movw	r30, r8
     b8c:	92 91       	ld	r25, -Z
     b8e:	82 91       	ld	r24, -Z
     b90:	4f 01       	movw	r8, r30
     b92:	93 83       	std	Z+3, r25	; 0x03
     b94:	82 83       	std	Z+2, r24	; 0x02
     b96:	db 01       	movw	r26, r22
     b98:	50 97       	sbiw	r26, 0x10	; 16
     b9a:	9b 01       	movw	r18, r22
     b9c:	20 5f       	subi	r18, 0xF0	; 240
     b9e:	3f 4f       	sbci	r19, 0xFF	; 255
     ba0:	fb 01       	movw	r30, r22
     ba2:	8d 91       	ld	r24, X+
     ba4:	81 93       	st	Z+, r24
     ba6:	e2 17       	cp	r30, r18
     ba8:	f3 07       	cpc	r31, r19
     baa:	d9 f7       	brne	.-10     	; 0xba2 <lcdLog+0x134>
     bac:	60 51       	subi	r22, 0x10	; 16
     bae:	71 09       	sbc	r23, r1
     bb0:	64 17       	cp	r22, r20
     bb2:	75 07       	cpc	r23, r21
     bb4:	51 f7       	brne	.-44     	; 0xb8a <lcdLog+0x11c>
     bb6:	f8 01       	movw	r30, r16
     bb8:	81 91       	ld	r24, Z+
     bba:	8f 01       	movw	r16, r30
     bbc:	fa 01       	movw	r30, r20
     bbe:	81 93       	st	Z+, r24
     bc0:	af 01       	movw	r20, r30
     bc2:	0e 15       	cp	r16, r14
     bc4:	1f 05       	cpc	r17, r15
     bc6:	b9 f7       	brne	.-18     	; 0xbb6 <lcdLog+0x148>
     bc8:	80 91 e2 02 	lds	r24, 0x02E2	; 0x8002e2 <nummer.2610>
     bcc:	90 91 e3 02 	lds	r25, 0x02E3	; 0x8002e3 <nummer.2610+0x1>
     bd0:	90 93 db 02 	sts	0x02DB, r25	; 0x8002db <lcdPrintNr.2608+0x1>
     bd4:	80 93 da 02 	sts	0x02DA, r24	; 0x8002da <lcdPrintNr.2608>
     bd8:	d1 2c       	mov	r13, r1
     bda:	0f 2e       	mov	r0, r31
     bdc:	f3 e0       	ldi	r31, 0x03	; 3
     bde:	6f 2e       	mov	r6, r31
     be0:	f0 2d       	mov	r31, r0
     be2:	0f 2e       	mov	r0, r31
     be4:	f5 e0       	ldi	r31, 0x05	; 5
     be6:	7f 2e       	mov	r7, r31
     be8:	f0 2d       	mov	r31, r0
     bea:	0f 2e       	mov	r0, r31
     bec:	f4 e9       	ldi	r31, 0x94	; 148
     bee:	8f 2e       	mov	r8, r31
     bf0:	f2 e0       	ldi	r31, 0x02	; 2
     bf2:	9f 2e       	mov	r9, r31
     bf4:	f0 2d       	mov	r31, r0
     bf6:	68 94       	set
     bf8:	bb 24       	eor	r11, r11
     bfa:	b2 f8       	bld	r11, 2
     bfc:	06 2d       	mov	r16, r6
     bfe:	0d 19       	sub	r16, r13
     c00:	10 e0       	ldi	r17, 0x00	; 0
     c02:	c8 01       	movw	r24, r16
     c04:	82 95       	swap	r24
     c06:	92 95       	swap	r25
     c08:	90 7f       	andi	r25, 0xF0	; 240
     c0a:	98 27       	eor	r25, r24
     c0c:	80 7f       	andi	r24, 0xF0	; 240
     c0e:	98 27       	eor	r25, r24
     c10:	86 56       	subi	r24, 0x66	; 102
     c12:	9d 4f       	sbci	r25, 0xFD	; 253
     c14:	9f 93       	push	r25
     c16:	8f 93       	push	r24
     c18:	7f 92       	push	r7
     c1a:	df 92       	push	r13
     c1c:	b1 dc       	rcall	.-1694   	; 0x580 <lcdWriteText>
     c1e:	9f 92       	push	r9
     c20:	8f 92       	push	r8
     c22:	bf 92       	push	r11
     c24:	df 92       	push	r13
     c26:	ac dc       	rcall	.-1704   	; 0x580 <lcdWriteText>
     c28:	00 0f       	add	r16, r16
     c2a:	11 1f       	adc	r17, r17
     c2c:	f8 01       	movw	r30, r16
     c2e:	e6 52       	subi	r30, 0x26	; 38
     c30:	fd 4f       	sbci	r31, 0xFD	; 253
     c32:	00 81       	ld	r16, Z
     c34:	11 81       	ldd	r17, Z+1	; 0x01
     c36:	a1 2c       	mov	r10, r1
     c38:	cb 2c       	mov	r12, r11
     c3a:	e0 2e       	mov	r14, r16
     c3c:	f1 2e       	mov	r15, r17
     c3e:	00 e0       	ldi	r16, 0x00	; 0
     c40:	10 e0       	ldi	r17, 0x00	; 0
     c42:	20 e0       	ldi	r18, 0x00	; 0
     c44:	30 e0       	ldi	r19, 0x00	; 0
     c46:	40 e0       	ldi	r20, 0x00	; 0
     c48:	50 e0       	ldi	r21, 0x00	; 0
     c4a:	60 e0       	ldi	r22, 0x00	; 0
     c4c:	8d 2d       	mov	r24, r13
     c4e:	d4 dc       	rcall	.-1624   	; 0x5f8 <lcdWriteZahl>
     c50:	d3 94       	inc	r13
     c52:	0f b6       	in	r0, 0x3f	; 63
     c54:	f8 94       	cli
     c56:	de bf       	out	0x3e, r29	; 62
     c58:	0f be       	out	0x3f, r0	; 63
     c5a:	cd bf       	out	0x3d, r28	; 61
     c5c:	94 e0       	ldi	r25, 0x04	; 4
     c5e:	d9 12       	cpse	r13, r25
     c60:	cd cf       	rjmp	.-102    	; 0xbfc <lcdLog+0x18e>
     c62:	17 c0       	rjmp	.+46     	; 0xc92 <lcdLog+0x224>
     c64:	00 91 e2 02 	lds	r16, 0x02E2	; 0x8002e2 <nummer.2610>
     c68:	10 91 e3 02 	lds	r17, 0x02E3	; 0x8002e3 <nummer.2610+0x1>
     c6c:	10 93 db 02 	sts	0x02DB, r17	; 0x8002db <lcdPrintNr.2608+0x1>
     c70:	00 93 da 02 	sts	0x02DA, r16	; 0x8002da <lcdPrintNr.2608>
     c74:	a1 2c       	mov	r10, r1
     c76:	68 94       	set
     c78:	cc 24       	eor	r12, r12
     c7a:	c2 f8       	bld	r12, 2
     c7c:	e0 2e       	mov	r14, r16
     c7e:	f1 2e       	mov	r15, r17
     c80:	00 e0       	ldi	r16, 0x00	; 0
     c82:	10 e0       	ldi	r17, 0x00	; 0
     c84:	20 e0       	ldi	r18, 0x00	; 0
     c86:	30 e0       	ldi	r19, 0x00	; 0
     c88:	40 e0       	ldi	r20, 0x00	; 0
     c8a:	50 e0       	ldi	r21, 0x00	; 0
     c8c:	60 e0       	ldi	r22, 0x00	; 0
     c8e:	83 e0       	ldi	r24, 0x03	; 3
     c90:	b3 dc       	rcall	.-1690   	; 0x5f8 <lcdWriteZahl>
     c92:	60 96       	adiw	r28, 0x10	; 16
     c94:	0f b6       	in	r0, 0x3f	; 63
     c96:	f8 94       	cli
     c98:	de bf       	out	0x3e, r29	; 62
     c9a:	0f be       	out	0x3f, r0	; 63
     c9c:	cd bf       	out	0x3d, r28	; 61
     c9e:	df 91       	pop	r29
     ca0:	cf 91       	pop	r28
     ca2:	1f 91       	pop	r17
     ca4:	0f 91       	pop	r16
     ca6:	ff 90       	pop	r15
     ca8:	ef 90       	pop	r14
     caa:	df 90       	pop	r13
     cac:	cf 90       	pop	r12
     cae:	bf 90       	pop	r11
     cb0:	af 90       	pop	r10
     cb2:	9f 90       	pop	r9
     cb4:	8f 90       	pop	r8
     cb6:	7f 90       	pop	r7
     cb8:	6f 90       	pop	r6
     cba:	08 95       	ret

00000cbc <matrixWriteNextLine>:




void matrixWriteNextLine(void)
{
     cbc:	cf 93       	push	r28
     cbe:	df 93       	push	r29
     cc0:	cd b7       	in	r28, 0x3d	; 61
     cc2:	de b7       	in	r29, 0x3e	; 62
     cc4:	28 97       	sbiw	r28, 0x08	; 8
     cc6:	0f b6       	in	r0, 0x3f	; 63
     cc8:	f8 94       	cli
     cca:	de bf       	out	0x3e, r29	; 62
     ccc:	0f be       	out	0x3f, r0	; 63
     cce:	cd bf       	out	0x3d, r28	; 61
    const  uint8_t Bit_Muster_Tab[8] = {1,2,4,8,16,32,64,128};
     cd0:	88 e0       	ldi	r24, 0x08	; 8
     cd2:	e1 e0       	ldi	r30, 0x01	; 1
     cd4:	f2 e0       	ldi	r31, 0x02	; 2
     cd6:	de 01       	movw	r26, r28
     cd8:	11 96       	adiw	r26, 0x01	; 1
     cda:	01 90       	ld	r0, Z+
     cdc:	0d 92       	st	X+, r0
     cde:	8a 95       	dec	r24
     ce0:	e1 f7       	brne	.-8      	; 0xcda <matrixWriteNextLine+0x1e>
    static uint16_t Zeilen_Nr, Bit_Muster;
    uint8_t i;
    
    STROBE_0;                             // Daten des Scheiberegisters nicht ins Latch schreiben
     ce2:	e5 e0       	ldi	r30, 0x05	; 5
     ce4:	f1 e0       	ldi	r31, 0x01	; 1
     ce6:	80 81       	ld	r24, Z
     ce8:	8f 7b       	andi	r24, 0xBF	; 191
     cea:	80 83       	st	Z, r24

    Bit_Muster = Bit_Muster_Tab[Zeilen_Nr]; // Bitmuster aus Tabelle holen, um mit Daten in matrix[] zu vergleichen.
     cec:	e0 91 98 02 	lds	r30, 0x0298	; 0x800298 <Zeilen_Nr.2725>
     cf0:	f0 91 99 02 	lds	r31, 0x0299	; 0x800299 <Zeilen_Nr.2725+0x1>
     cf4:	81 e0       	ldi	r24, 0x01	; 1
     cf6:	90 e0       	ldi	r25, 0x00	; 0
     cf8:	8c 0f       	add	r24, r28
     cfa:	9d 1f       	adc	r25, r29
     cfc:	e8 0f       	add	r30, r24
     cfe:	f9 1f       	adc	r31, r25
     d00:	80 81       	ld	r24, Z
     d02:	90 e0       	ldi	r25, 0x00	; 0
     d04:	90 93 97 02 	sts	0x0297, r25	; 0x800297 <__data_end+0x1>
     d08:	80 93 96 02 	sts	0x0296, r24	; 0x800296 <__data_end>
     d0c:	ae e5       	ldi	r26, 0x5E	; 94
     d0e:	b3 e0       	ldi	r27, 0x03	; 3
     d10:	2e ee       	ldi	r18, 0xEE	; 238
     d12:	32 e0       	ldi	r19, 0x02	; 2
    {                                       // Vergleicht Bit-Muster der aktuellen Zeile mit Daten in matrix[]
        if((matrix[Anzahl_Spalten-1- i] & Bit_Muster) != 0)     // Ist in matrix[] das entsprechende Bit gesetzt?
        { DATA_Modul_1_ON;                    //   JA:   ==> Datenbit "1" ins Schieberegister schreiben
        }
        else
        { DATA_Modul_1_OFF;                   //   NEIN: ==> Datenbit "0" ins Schieberegister schreiben
     d14:	e5 e0       	ldi	r30, 0x05	; 5
     d16:	f1 e0       	ldi	r31, 0x01	; 1
    Bit_Muster = Bit_Muster_Tab[Zeilen_Nr]; // Bitmuster aus Tabelle holen, um mit Daten in matrix[] zu vergleichen.
    
    // Alle Bits seriell ins Schieberegister hineinschreiben
    for(i=0; i<Anzahl_Spalten; i++)         // Alle Spalten durchgehen und überpüfen, ob Bit gesetzt ist
    {                                       // Vergleicht Bit-Muster der aktuellen Zeile mit Daten in matrix[]
        if((matrix[Anzahl_Spalten-1- i] & Bit_Muster) != 0)     // Ist in matrix[] das entsprechende Bit gesetzt?
     d18:	5e 91       	ld	r21, -X
     d1a:	4e 91       	ld	r20, -X
     d1c:	80 91 96 02 	lds	r24, 0x0296	; 0x800296 <__data_end>
     d20:	90 91 97 02 	lds	r25, 0x0297	; 0x800297 <__data_end+0x1>
     d24:	84 23       	and	r24, r20
     d26:	95 23       	and	r25, r21
     d28:	89 2b       	or	r24, r25
     d2a:	21 f0       	breq	.+8      	; 0xd34 <matrixWriteNextLine+0x78>
        { DATA_Modul_1_ON;                    //   JA:   ==> Datenbit "1" ins Schieberegister schreiben
     d2c:	80 81       	ld	r24, Z
     d2e:	80 62       	ori	r24, 0x20	; 32
     d30:	80 83       	st	Z, r24
     d32:	03 c0       	rjmp	.+6      	; 0xd3a <matrixWriteNextLine+0x7e>
        }
        else
        { DATA_Modul_1_OFF;                   //   NEIN: ==> Datenbit "0" ins Schieberegister schreiben
     d34:	80 81       	ld	r24, Z
     d36:	8f 7d       	andi	r24, 0xDF	; 223
     d38:	80 83       	st	Z, r24
        }
        CLOCK_1;
     d3a:	80 81       	ld	r24, Z
     d3c:	80 61       	ori	r24, 0x10	; 16
     d3e:	80 83       	st	Z, r24
        CLOCK_0;                            // Datenbit wird bei der negativen Flanke des Clock-Signals übernommen
     d40:	80 81       	ld	r24, Z
     d42:	8f 7e       	andi	r24, 0xEF	; 239
     d44:	80 83       	st	Z, r24
    STROBE_0;                             // Daten des Scheiberegisters nicht ins Latch schreiben

    Bit_Muster = Bit_Muster_Tab[Zeilen_Nr]; // Bitmuster aus Tabelle holen, um mit Daten in matrix[] zu vergleichen.
    
    // Alle Bits seriell ins Schieberegister hineinschreiben
    for(i=0; i<Anzahl_Spalten; i++)         // Alle Spalten durchgehen und überpüfen, ob Bit gesetzt ist
     d46:	a2 17       	cp	r26, r18
     d48:	b3 07       	cpc	r27, r19
     d4a:	31 f7       	brne	.-52     	; 0xd18 <matrixWriteNextLine+0x5c>
        }
        CLOCK_1;
        CLOCK_0;                            // Datenbit wird bei der negativen Flanke des Clock-Signals übernommen
    }
    
    ENABLE_0;                                // +5V aller Zeilen abschalten
     d4c:	e5 e0       	ldi	r30, 0x05	; 5
     d4e:	f1 e0       	ldi	r31, 0x01	; 1
     d50:	80 81       	ld	r24, Z
     d52:	87 7f       	andi	r24, 0xF7	; 247
     d54:	80 83       	st	Z, r24
    PORTJ &= ~0x07;
     d56:	80 81       	ld	r24, Z
     d58:	88 7f       	andi	r24, 0xF8	; 248
     d5a:	80 83       	st	Z, r24
    PORTJ |= Zeilen_Nr;                     // gewünschte Zeile einstellen
     d5c:	90 81       	ld	r25, Z
     d5e:	80 91 98 02 	lds	r24, 0x0298	; 0x800298 <Zeilen_Nr.2725>
     d62:	89 2b       	or	r24, r25
     d64:	80 83       	st	Z, r24
    STROBE_1;                             // Daten ins Latch schreiben
     d66:	80 81       	ld	r24, Z
     d68:	80 64       	ori	r24, 0x40	; 64
     d6a:	80 83       	st	Z, r24
    ENABLE_1;                             // +5V Speisung der eingestellten Zeile einschalten
     d6c:	80 81       	ld	r24, Z
     d6e:	88 60       	ori	r24, 0x08	; 8
     d70:	80 83       	st	Z, r24

    // Die Zeilen werden nacheinander eingeschaltet --> zyklisch 0,1,2,3,4,5,6,7, 0,1,2,3, ...
    if (Zeilen_Nr < 7)
     d72:	80 91 98 02 	lds	r24, 0x0298	; 0x800298 <Zeilen_Nr.2725>
     d76:	90 91 99 02 	lds	r25, 0x0299	; 0x800299 <Zeilen_Nr.2725+0x1>
     d7a:	87 30       	cpi	r24, 0x07	; 7
     d7c:	91 05       	cpc	r25, r1
     d7e:	30 f4       	brcc	.+12     	; 0xd8c <matrixWriteNextLine+0xd0>
    {
        Zeilen_Nr++;
     d80:	01 96       	adiw	r24, 0x01	; 1
     d82:	90 93 99 02 	sts	0x0299, r25	; 0x800299 <Zeilen_Nr.2725+0x1>
     d86:	80 93 98 02 	sts	0x0298, r24	; 0x800298 <Zeilen_Nr.2725>
     d8a:	07 c0       	rjmp	.+14     	; 0xd9a <matrixWriteNextLine+0xde>
    }
    else
    {
        Zeilen_Nr = 0;
     d8c:	10 92 99 02 	sts	0x0299, r1	; 0x800299 <Zeilen_Nr.2725+0x1>
     d90:	10 92 98 02 	sts	0x0298, r1	; 0x800298 <Zeilen_Nr.2725>
        writeTextFinished = 1;
     d94:	81 e0       	ldi	r24, 0x01	; 1
     d96:	80 93 e4 02 	sts	0x02E4, r24	; 0x8002e4 <writeTextFinished>
    }
    
     d9a:	28 96       	adiw	r28, 0x08	; 8
     d9c:	0f b6       	in	r0, 0x3f	; 63
     d9e:	f8 94       	cli
     da0:	de bf       	out	0x3e, r29	; 62
     da2:	0f be       	out	0x3f, r0	; 63
     da4:	cd bf       	out	0x3d, r28	; 61
     da6:	df 91       	pop	r29
     da8:	cf 91       	pop	r28
     daa:	08 95       	ret

00000dac <__vector_23>:
//--------------------------------------------------------------------------------------------
// Timer 0 Overflow Interrupt ->  Wird alle 1ms aufgerufen
//--------------------------------------------------------------------------------------------

ISR(TIMER0_OVF_vect)
{
     dac:	1f 92       	push	r1
     dae:	0f 92       	push	r0
     db0:	0f b6       	in	r0, 0x3f	; 63
     db2:	0f 92       	push	r0
     db4:	11 24       	eor	r1, r1
     db6:	0b b6       	in	r0, 0x3b	; 59
     db8:	0f 92       	push	r0
     dba:	2f 93       	push	r18
     dbc:	3f 93       	push	r19
     dbe:	4f 93       	push	r20
     dc0:	5f 93       	push	r21
     dc2:	6f 93       	push	r22
     dc4:	7f 93       	push	r23
     dc6:	8f 93       	push	r24
     dc8:	9f 93       	push	r25
     dca:	af 93       	push	r26
     dcc:	bf 93       	push	r27
     dce:	ef 93       	push	r30
     dd0:	ff 93       	push	r31
    systemTimeMs += 1;
     dd2:	20 91 e5 02 	lds	r18, 0x02E5	; 0x8002e5 <systemTimeMs>
     dd6:	30 91 e6 02 	lds	r19, 0x02E6	; 0x8002e6 <systemTimeMs+0x1>
     dda:	40 91 e7 02 	lds	r20, 0x02E7	; 0x8002e7 <systemTimeMs+0x2>
     dde:	50 91 e8 02 	lds	r21, 0x02E8	; 0x8002e8 <systemTimeMs+0x3>
     de2:	60 91 e9 02 	lds	r22, 0x02E9	; 0x8002e9 <systemTimeMs+0x4>
     de6:	70 91 ea 02 	lds	r23, 0x02EA	; 0x8002ea <systemTimeMs+0x5>
     dea:	80 91 eb 02 	lds	r24, 0x02EB	; 0x8002eb <systemTimeMs+0x6>
     dee:	90 91 ec 02 	lds	r25, 0x02EC	; 0x8002ec <systemTimeMs+0x7>
     df2:	a1 e0       	ldi	r26, 0x01	; 1
     df4:	85 d0       	rcall	.+266    	; 0xf00 <__adddi3_s8>
     df6:	20 93 e5 02 	sts	0x02E5, r18	; 0x8002e5 <systemTimeMs>
     dfa:	30 93 e6 02 	sts	0x02E6, r19	; 0x8002e6 <systemTimeMs+0x1>
     dfe:	40 93 e7 02 	sts	0x02E7, r20	; 0x8002e7 <systemTimeMs+0x2>
     e02:	50 93 e8 02 	sts	0x02E8, r21	; 0x8002e8 <systemTimeMs+0x3>
     e06:	60 93 e9 02 	sts	0x02E9, r22	; 0x8002e9 <systemTimeMs+0x4>
     e0a:	70 93 ea 02 	sts	0x02EA, r23	; 0x8002ea <systemTimeMs+0x5>
     e0e:	80 93 eb 02 	sts	0x02EB, r24	; 0x8002eb <systemTimeMs+0x6>
     e12:	90 93 ec 02 	sts	0x02EC, r25	; 0x8002ec <systemTimeMs+0x7>

    if(matrixRunning)matrixWriteNextLine();
     e16:	80 91 ed 02 	lds	r24, 0x02ED	; 0x8002ed <matrixRunning>
     e1a:	81 11       	cpse	r24, r1
     e1c:	4f df       	rcall	.-354    	; 0xcbc <matrixWriteNextLine>
}
     e1e:	ff 91       	pop	r31
     e20:	ef 91       	pop	r30
     e22:	bf 91       	pop	r27
     e24:	af 91       	pop	r26
     e26:	9f 91       	pop	r25
     e28:	8f 91       	pop	r24
     e2a:	7f 91       	pop	r23
     e2c:	6f 91       	pop	r22
     e2e:	5f 91       	pop	r21
     e30:	4f 91       	pop	r20
     e32:	3f 91       	pop	r19
     e34:	2f 91       	pop	r18
     e36:	0f 90       	pop	r0
     e38:	0b be       	out	0x3b, r0	; 59
     e3a:	0f 90       	pop	r0
     e3c:	0f be       	out	0x3f, r0	; 63
     e3e:	0f 90       	pop	r0
     e40:	1f 90       	pop	r1
     e42:	18 95       	reti

00000e44 <__umoddi3>:
     e44:	68 94       	set
     e46:	01 c0       	rjmp	.+2      	; 0xe4a <__udivdi3_umoddi3>

00000e48 <__udivdi3>:
     e48:	e8 94       	clt

00000e4a <__udivdi3_umoddi3>:
     e4a:	8f 92       	push	r8
     e4c:	9f 92       	push	r9
     e4e:	cf 93       	push	r28
     e50:	df 93       	push	r29
     e52:	05 d0       	rcall	.+10     	; 0xe5e <__udivmod64>
     e54:	df 91       	pop	r29
     e56:	cf 91       	pop	r28
     e58:	9f 90       	pop	r9
     e5a:	8f 90       	pop	r8
     e5c:	08 95       	ret

00000e5e <__udivmod64>:
     e5e:	88 24       	eor	r8, r8
     e60:	99 24       	eor	r9, r9
     e62:	f4 01       	movw	r30, r8
     e64:	e4 01       	movw	r28, r8
     e66:	b0 e4       	ldi	r27, 0x40	; 64
     e68:	9f 93       	push	r25
     e6a:	aa 27       	eor	r26, r26
     e6c:	9a 15       	cp	r25, r10
     e6e:	8b 04       	cpc	r8, r11
     e70:	9c 04       	cpc	r9, r12
     e72:	ed 05       	cpc	r30, r13
     e74:	fe 05       	cpc	r31, r14
     e76:	cf 05       	cpc	r28, r15
     e78:	d0 07       	cpc	r29, r16
     e7a:	a1 07       	cpc	r26, r17
     e7c:	98 f4       	brcc	.+38     	; 0xea4 <__udivmod64+0x46>
     e7e:	ad 2f       	mov	r26, r29
     e80:	dc 2f       	mov	r29, r28
     e82:	cf 2f       	mov	r28, r31
     e84:	fe 2f       	mov	r31, r30
     e86:	e9 2d       	mov	r30, r9
     e88:	98 2c       	mov	r9, r8
     e8a:	89 2e       	mov	r8, r25
     e8c:	98 2f       	mov	r25, r24
     e8e:	87 2f       	mov	r24, r23
     e90:	76 2f       	mov	r23, r22
     e92:	65 2f       	mov	r22, r21
     e94:	54 2f       	mov	r21, r20
     e96:	43 2f       	mov	r20, r19
     e98:	32 2f       	mov	r19, r18
     e9a:	22 27       	eor	r18, r18
     e9c:	b8 50       	subi	r27, 0x08	; 8
     e9e:	31 f7       	brne	.-52     	; 0xe6c <__udivmod64+0xe>
     ea0:	bf 91       	pop	r27
     ea2:	27 c0       	rjmp	.+78     	; 0xef2 <__udivmod64+0x94>
     ea4:	1b 2e       	mov	r1, r27
     ea6:	bf 91       	pop	r27
     ea8:	bb 27       	eor	r27, r27
     eaa:	22 0f       	add	r18, r18
     eac:	33 1f       	adc	r19, r19
     eae:	44 1f       	adc	r20, r20
     eb0:	55 1f       	adc	r21, r21
     eb2:	66 1f       	adc	r22, r22
     eb4:	77 1f       	adc	r23, r23
     eb6:	88 1f       	adc	r24, r24
     eb8:	99 1f       	adc	r25, r25
     eba:	88 1c       	adc	r8, r8
     ebc:	99 1c       	adc	r9, r9
     ebe:	ee 1f       	adc	r30, r30
     ec0:	ff 1f       	adc	r31, r31
     ec2:	cc 1f       	adc	r28, r28
     ec4:	dd 1f       	adc	r29, r29
     ec6:	aa 1f       	adc	r26, r26
     ec8:	bb 1f       	adc	r27, r27
     eca:	8a 14       	cp	r8, r10
     ecc:	9b 04       	cpc	r9, r11
     ece:	ec 05       	cpc	r30, r12
     ed0:	fd 05       	cpc	r31, r13
     ed2:	ce 05       	cpc	r28, r14
     ed4:	df 05       	cpc	r29, r15
     ed6:	a0 07       	cpc	r26, r16
     ed8:	b1 07       	cpc	r27, r17
     eda:	48 f0       	brcs	.+18     	; 0xeee <__udivmod64+0x90>
     edc:	8a 18       	sub	r8, r10
     ede:	9b 08       	sbc	r9, r11
     ee0:	ec 09       	sbc	r30, r12
     ee2:	fd 09       	sbc	r31, r13
     ee4:	ce 09       	sbc	r28, r14
     ee6:	df 09       	sbc	r29, r15
     ee8:	a0 0b       	sbc	r26, r16
     eea:	b1 0b       	sbc	r27, r17
     eec:	21 60       	ori	r18, 0x01	; 1
     eee:	1a 94       	dec	r1
     ef0:	e1 f6       	brne	.-72     	; 0xeaa <__udivmod64+0x4c>
     ef2:	2e f4       	brtc	.+10     	; 0xefe <__udivmod64+0xa0>
     ef4:	94 01       	movw	r18, r8
     ef6:	af 01       	movw	r20, r30
     ef8:	be 01       	movw	r22, r28
     efa:	cd 01       	movw	r24, r26
     efc:	00 0c       	add	r0, r0
     efe:	08 95       	ret

00000f00 <__adddi3_s8>:
     f00:	00 24       	eor	r0, r0
     f02:	a7 fd       	sbrc	r26, 7
     f04:	00 94       	com	r0
     f06:	2a 0f       	add	r18, r26
     f08:	30 1d       	adc	r19, r0
     f0a:	40 1d       	adc	r20, r0
     f0c:	50 1d       	adc	r21, r0
     f0e:	60 1d       	adc	r22, r0
     f10:	70 1d       	adc	r23, r0
     f12:	80 1d       	adc	r24, r0
     f14:	90 1d       	adc	r25, r0
     f16:	08 95       	ret

00000f18 <strcmp>:
     f18:	fb 01       	movw	r30, r22
     f1a:	dc 01       	movw	r26, r24
     f1c:	8d 91       	ld	r24, X+
     f1e:	01 90       	ld	r0, Z+
     f20:	80 19       	sub	r24, r0
     f22:	01 10       	cpse	r0, r1
     f24:	d9 f3       	breq	.-10     	; 0xf1c <strcmp+0x4>
     f26:	99 0b       	sbc	r25, r25
     f28:	08 95       	ret

00000f2a <vsnprintf>:
     f2a:	0f 93       	push	r16
     f2c:	1f 93       	push	r17
     f2e:	cf 93       	push	r28
     f30:	df 93       	push	r29
     f32:	cd b7       	in	r28, 0x3d	; 61
     f34:	de b7       	in	r29, 0x3e	; 62
     f36:	2e 97       	sbiw	r28, 0x0e	; 14
     f38:	0f b6       	in	r0, 0x3f	; 63
     f3a:	f8 94       	cli
     f3c:	de bf       	out	0x3e, r29	; 62
     f3e:	0f be       	out	0x3f, r0	; 63
     f40:	cd bf       	out	0x3d, r28	; 61
     f42:	8c 01       	movw	r16, r24
     f44:	fa 01       	movw	r30, r20
     f46:	86 e0       	ldi	r24, 0x06	; 6
     f48:	8c 83       	std	Y+4, r24	; 0x04
     f4a:	1a 83       	std	Y+2, r17	; 0x02
     f4c:	09 83       	std	Y+1, r16	; 0x01
     f4e:	77 ff       	sbrs	r23, 7
     f50:	02 c0       	rjmp	.+4      	; 0xf56 <vsnprintf+0x2c>
     f52:	60 e0       	ldi	r22, 0x00	; 0
     f54:	70 e8       	ldi	r23, 0x80	; 128
     f56:	cb 01       	movw	r24, r22
     f58:	01 97       	sbiw	r24, 0x01	; 1
     f5a:	9e 83       	std	Y+6, r25	; 0x06
     f5c:	8d 83       	std	Y+5, r24	; 0x05
     f5e:	a9 01       	movw	r20, r18
     f60:	bf 01       	movw	r22, r30
     f62:	ce 01       	movw	r24, r28
     f64:	01 96       	adiw	r24, 0x01	; 1
     f66:	19 d0       	rcall	.+50     	; 0xf9a <vfprintf>
     f68:	4d 81       	ldd	r20, Y+5	; 0x05
     f6a:	5e 81       	ldd	r21, Y+6	; 0x06
     f6c:	57 fd       	sbrc	r21, 7
     f6e:	0a c0       	rjmp	.+20     	; 0xf84 <vsnprintf+0x5a>
     f70:	2f 81       	ldd	r18, Y+7	; 0x07
     f72:	38 85       	ldd	r19, Y+8	; 0x08
     f74:	42 17       	cp	r20, r18
     f76:	53 07       	cpc	r21, r19
     f78:	0c f4       	brge	.+2      	; 0xf7c <vsnprintf+0x52>
     f7a:	9a 01       	movw	r18, r20
     f7c:	f8 01       	movw	r30, r16
     f7e:	e2 0f       	add	r30, r18
     f80:	f3 1f       	adc	r31, r19
     f82:	10 82       	st	Z, r1
     f84:	2e 96       	adiw	r28, 0x0e	; 14
     f86:	0f b6       	in	r0, 0x3f	; 63
     f88:	f8 94       	cli
     f8a:	de bf       	out	0x3e, r29	; 62
     f8c:	0f be       	out	0x3f, r0	; 63
     f8e:	cd bf       	out	0x3d, r28	; 61
     f90:	df 91       	pop	r29
     f92:	cf 91       	pop	r28
     f94:	1f 91       	pop	r17
     f96:	0f 91       	pop	r16
     f98:	08 95       	ret

00000f9a <vfprintf>:
     f9a:	2f 92       	push	r2
     f9c:	3f 92       	push	r3
     f9e:	4f 92       	push	r4
     fa0:	5f 92       	push	r5
     fa2:	6f 92       	push	r6
     fa4:	7f 92       	push	r7
     fa6:	8f 92       	push	r8
     fa8:	9f 92       	push	r9
     faa:	af 92       	push	r10
     fac:	bf 92       	push	r11
     fae:	cf 92       	push	r12
     fb0:	df 92       	push	r13
     fb2:	ef 92       	push	r14
     fb4:	ff 92       	push	r15
     fb6:	0f 93       	push	r16
     fb8:	1f 93       	push	r17
     fba:	cf 93       	push	r28
     fbc:	df 93       	push	r29
     fbe:	cd b7       	in	r28, 0x3d	; 61
     fc0:	de b7       	in	r29, 0x3e	; 62
     fc2:	2b 97       	sbiw	r28, 0x0b	; 11
     fc4:	0f b6       	in	r0, 0x3f	; 63
     fc6:	f8 94       	cli
     fc8:	de bf       	out	0x3e, r29	; 62
     fca:	0f be       	out	0x3f, r0	; 63
     fcc:	cd bf       	out	0x3d, r28	; 61
     fce:	6c 01       	movw	r12, r24
     fd0:	7b 01       	movw	r14, r22
     fd2:	8a 01       	movw	r16, r20
     fd4:	fc 01       	movw	r30, r24
     fd6:	17 82       	std	Z+7, r1	; 0x07
     fd8:	16 82       	std	Z+6, r1	; 0x06
     fda:	83 81       	ldd	r24, Z+3	; 0x03
     fdc:	81 ff       	sbrs	r24, 1
     fde:	bf c1       	rjmp	.+894    	; 0x135e <vfprintf+0x3c4>
     fe0:	ce 01       	movw	r24, r28
     fe2:	01 96       	adiw	r24, 0x01	; 1
     fe4:	3c 01       	movw	r6, r24
     fe6:	f6 01       	movw	r30, r12
     fe8:	93 81       	ldd	r25, Z+3	; 0x03
     fea:	f7 01       	movw	r30, r14
     fec:	93 fd       	sbrc	r25, 3
     fee:	85 91       	lpm	r24, Z+
     ff0:	93 ff       	sbrs	r25, 3
     ff2:	81 91       	ld	r24, Z+
     ff4:	7f 01       	movw	r14, r30
     ff6:	88 23       	and	r24, r24
     ff8:	09 f4       	brne	.+2      	; 0xffc <vfprintf+0x62>
     ffa:	ad c1       	rjmp	.+858    	; 0x1356 <vfprintf+0x3bc>
     ffc:	85 32       	cpi	r24, 0x25	; 37
     ffe:	39 f4       	brne	.+14     	; 0x100e <vfprintf+0x74>
    1000:	93 fd       	sbrc	r25, 3
    1002:	85 91       	lpm	r24, Z+
    1004:	93 ff       	sbrs	r25, 3
    1006:	81 91       	ld	r24, Z+
    1008:	7f 01       	movw	r14, r30
    100a:	85 32       	cpi	r24, 0x25	; 37
    100c:	21 f4       	brne	.+8      	; 0x1016 <vfprintf+0x7c>
    100e:	b6 01       	movw	r22, r12
    1010:	90 e0       	ldi	r25, 0x00	; 0
    1012:	d6 d1       	rcall	.+940    	; 0x13c0 <fputc>
    1014:	e8 cf       	rjmp	.-48     	; 0xfe6 <vfprintf+0x4c>
    1016:	91 2c       	mov	r9, r1
    1018:	21 2c       	mov	r2, r1
    101a:	31 2c       	mov	r3, r1
    101c:	ff e1       	ldi	r31, 0x1F	; 31
    101e:	f3 15       	cp	r31, r3
    1020:	d8 f0       	brcs	.+54     	; 0x1058 <vfprintf+0xbe>
    1022:	8b 32       	cpi	r24, 0x2B	; 43
    1024:	79 f0       	breq	.+30     	; 0x1044 <vfprintf+0xaa>
    1026:	38 f4       	brcc	.+14     	; 0x1036 <vfprintf+0x9c>
    1028:	80 32       	cpi	r24, 0x20	; 32
    102a:	79 f0       	breq	.+30     	; 0x104a <vfprintf+0xb0>
    102c:	83 32       	cpi	r24, 0x23	; 35
    102e:	a1 f4       	brne	.+40     	; 0x1058 <vfprintf+0xbe>
    1030:	23 2d       	mov	r18, r3
    1032:	20 61       	ori	r18, 0x10	; 16
    1034:	1d c0       	rjmp	.+58     	; 0x1070 <vfprintf+0xd6>
    1036:	8d 32       	cpi	r24, 0x2D	; 45
    1038:	61 f0       	breq	.+24     	; 0x1052 <vfprintf+0xb8>
    103a:	80 33       	cpi	r24, 0x30	; 48
    103c:	69 f4       	brne	.+26     	; 0x1058 <vfprintf+0xbe>
    103e:	23 2d       	mov	r18, r3
    1040:	21 60       	ori	r18, 0x01	; 1
    1042:	16 c0       	rjmp	.+44     	; 0x1070 <vfprintf+0xd6>
    1044:	83 2d       	mov	r24, r3
    1046:	82 60       	ori	r24, 0x02	; 2
    1048:	38 2e       	mov	r3, r24
    104a:	e3 2d       	mov	r30, r3
    104c:	e4 60       	ori	r30, 0x04	; 4
    104e:	3e 2e       	mov	r3, r30
    1050:	2a c0       	rjmp	.+84     	; 0x10a6 <vfprintf+0x10c>
    1052:	f3 2d       	mov	r31, r3
    1054:	f8 60       	ori	r31, 0x08	; 8
    1056:	1d c0       	rjmp	.+58     	; 0x1092 <vfprintf+0xf8>
    1058:	37 fc       	sbrc	r3, 7
    105a:	2d c0       	rjmp	.+90     	; 0x10b6 <vfprintf+0x11c>
    105c:	20 ed       	ldi	r18, 0xD0	; 208
    105e:	28 0f       	add	r18, r24
    1060:	2a 30       	cpi	r18, 0x0A	; 10
    1062:	40 f0       	brcs	.+16     	; 0x1074 <vfprintf+0xda>
    1064:	8e 32       	cpi	r24, 0x2E	; 46
    1066:	b9 f4       	brne	.+46     	; 0x1096 <vfprintf+0xfc>
    1068:	36 fc       	sbrc	r3, 6
    106a:	75 c1       	rjmp	.+746    	; 0x1356 <vfprintf+0x3bc>
    106c:	23 2d       	mov	r18, r3
    106e:	20 64       	ori	r18, 0x40	; 64
    1070:	32 2e       	mov	r3, r18
    1072:	19 c0       	rjmp	.+50     	; 0x10a6 <vfprintf+0x10c>
    1074:	36 fe       	sbrs	r3, 6
    1076:	06 c0       	rjmp	.+12     	; 0x1084 <vfprintf+0xea>
    1078:	8a e0       	ldi	r24, 0x0A	; 10
    107a:	98 9e       	mul	r9, r24
    107c:	20 0d       	add	r18, r0
    107e:	11 24       	eor	r1, r1
    1080:	92 2e       	mov	r9, r18
    1082:	11 c0       	rjmp	.+34     	; 0x10a6 <vfprintf+0x10c>
    1084:	ea e0       	ldi	r30, 0x0A	; 10
    1086:	2e 9e       	mul	r2, r30
    1088:	20 0d       	add	r18, r0
    108a:	11 24       	eor	r1, r1
    108c:	22 2e       	mov	r2, r18
    108e:	f3 2d       	mov	r31, r3
    1090:	f0 62       	ori	r31, 0x20	; 32
    1092:	3f 2e       	mov	r3, r31
    1094:	08 c0       	rjmp	.+16     	; 0x10a6 <vfprintf+0x10c>
    1096:	8c 36       	cpi	r24, 0x6C	; 108
    1098:	21 f4       	brne	.+8      	; 0x10a2 <vfprintf+0x108>
    109a:	83 2d       	mov	r24, r3
    109c:	80 68       	ori	r24, 0x80	; 128
    109e:	38 2e       	mov	r3, r24
    10a0:	02 c0       	rjmp	.+4      	; 0x10a6 <vfprintf+0x10c>
    10a2:	88 36       	cpi	r24, 0x68	; 104
    10a4:	41 f4       	brne	.+16     	; 0x10b6 <vfprintf+0x11c>
    10a6:	f7 01       	movw	r30, r14
    10a8:	93 fd       	sbrc	r25, 3
    10aa:	85 91       	lpm	r24, Z+
    10ac:	93 ff       	sbrs	r25, 3
    10ae:	81 91       	ld	r24, Z+
    10b0:	7f 01       	movw	r14, r30
    10b2:	81 11       	cpse	r24, r1
    10b4:	b3 cf       	rjmp	.-154    	; 0x101c <vfprintf+0x82>
    10b6:	98 2f       	mov	r25, r24
    10b8:	9f 7d       	andi	r25, 0xDF	; 223
    10ba:	95 54       	subi	r25, 0x45	; 69
    10bc:	93 30       	cpi	r25, 0x03	; 3
    10be:	28 f4       	brcc	.+10     	; 0x10ca <vfprintf+0x130>
    10c0:	0c 5f       	subi	r16, 0xFC	; 252
    10c2:	1f 4f       	sbci	r17, 0xFF	; 255
    10c4:	9f e3       	ldi	r25, 0x3F	; 63
    10c6:	99 83       	std	Y+1, r25	; 0x01
    10c8:	0d c0       	rjmp	.+26     	; 0x10e4 <vfprintf+0x14a>
    10ca:	83 36       	cpi	r24, 0x63	; 99
    10cc:	31 f0       	breq	.+12     	; 0x10da <vfprintf+0x140>
    10ce:	83 37       	cpi	r24, 0x73	; 115
    10d0:	71 f0       	breq	.+28     	; 0x10ee <vfprintf+0x154>
    10d2:	83 35       	cpi	r24, 0x53	; 83
    10d4:	09 f0       	breq	.+2      	; 0x10d8 <vfprintf+0x13e>
    10d6:	55 c0       	rjmp	.+170    	; 0x1182 <vfprintf+0x1e8>
    10d8:	20 c0       	rjmp	.+64     	; 0x111a <vfprintf+0x180>
    10da:	f8 01       	movw	r30, r16
    10dc:	80 81       	ld	r24, Z
    10de:	89 83       	std	Y+1, r24	; 0x01
    10e0:	0e 5f       	subi	r16, 0xFE	; 254
    10e2:	1f 4f       	sbci	r17, 0xFF	; 255
    10e4:	88 24       	eor	r8, r8
    10e6:	83 94       	inc	r8
    10e8:	91 2c       	mov	r9, r1
    10ea:	53 01       	movw	r10, r6
    10ec:	12 c0       	rjmp	.+36     	; 0x1112 <vfprintf+0x178>
    10ee:	28 01       	movw	r4, r16
    10f0:	f2 e0       	ldi	r31, 0x02	; 2
    10f2:	4f 0e       	add	r4, r31
    10f4:	51 1c       	adc	r5, r1
    10f6:	f8 01       	movw	r30, r16
    10f8:	a0 80       	ld	r10, Z
    10fa:	b1 80       	ldd	r11, Z+1	; 0x01
    10fc:	36 fe       	sbrs	r3, 6
    10fe:	03 c0       	rjmp	.+6      	; 0x1106 <vfprintf+0x16c>
    1100:	69 2d       	mov	r22, r9
    1102:	70 e0       	ldi	r23, 0x00	; 0
    1104:	02 c0       	rjmp	.+4      	; 0x110a <vfprintf+0x170>
    1106:	6f ef       	ldi	r22, 0xFF	; 255
    1108:	7f ef       	ldi	r23, 0xFF	; 255
    110a:	c5 01       	movw	r24, r10
    110c:	4e d1       	rcall	.+668    	; 0x13aa <strnlen>
    110e:	4c 01       	movw	r8, r24
    1110:	82 01       	movw	r16, r4
    1112:	f3 2d       	mov	r31, r3
    1114:	ff 77       	andi	r31, 0x7F	; 127
    1116:	3f 2e       	mov	r3, r31
    1118:	15 c0       	rjmp	.+42     	; 0x1144 <vfprintf+0x1aa>
    111a:	28 01       	movw	r4, r16
    111c:	22 e0       	ldi	r18, 0x02	; 2
    111e:	42 0e       	add	r4, r18
    1120:	51 1c       	adc	r5, r1
    1122:	f8 01       	movw	r30, r16
    1124:	a0 80       	ld	r10, Z
    1126:	b1 80       	ldd	r11, Z+1	; 0x01
    1128:	36 fe       	sbrs	r3, 6
    112a:	03 c0       	rjmp	.+6      	; 0x1132 <vfprintf+0x198>
    112c:	69 2d       	mov	r22, r9
    112e:	70 e0       	ldi	r23, 0x00	; 0
    1130:	02 c0       	rjmp	.+4      	; 0x1136 <vfprintf+0x19c>
    1132:	6f ef       	ldi	r22, 0xFF	; 255
    1134:	7f ef       	ldi	r23, 0xFF	; 255
    1136:	c5 01       	movw	r24, r10
    1138:	2d d1       	rcall	.+602    	; 0x1394 <strnlen_P>
    113a:	4c 01       	movw	r8, r24
    113c:	f3 2d       	mov	r31, r3
    113e:	f0 68       	ori	r31, 0x80	; 128
    1140:	3f 2e       	mov	r3, r31
    1142:	82 01       	movw	r16, r4
    1144:	33 fc       	sbrc	r3, 3
    1146:	19 c0       	rjmp	.+50     	; 0x117a <vfprintf+0x1e0>
    1148:	82 2d       	mov	r24, r2
    114a:	90 e0       	ldi	r25, 0x00	; 0
    114c:	88 16       	cp	r8, r24
    114e:	99 06       	cpc	r9, r25
    1150:	a0 f4       	brcc	.+40     	; 0x117a <vfprintf+0x1e0>
    1152:	b6 01       	movw	r22, r12
    1154:	80 e2       	ldi	r24, 0x20	; 32
    1156:	90 e0       	ldi	r25, 0x00	; 0
    1158:	33 d1       	rcall	.+614    	; 0x13c0 <fputc>
    115a:	2a 94       	dec	r2
    115c:	f5 cf       	rjmp	.-22     	; 0x1148 <vfprintf+0x1ae>
    115e:	f5 01       	movw	r30, r10
    1160:	37 fc       	sbrc	r3, 7
    1162:	85 91       	lpm	r24, Z+
    1164:	37 fe       	sbrs	r3, 7
    1166:	81 91       	ld	r24, Z+
    1168:	5f 01       	movw	r10, r30
    116a:	b6 01       	movw	r22, r12
    116c:	90 e0       	ldi	r25, 0x00	; 0
    116e:	28 d1       	rcall	.+592    	; 0x13c0 <fputc>
    1170:	21 10       	cpse	r2, r1
    1172:	2a 94       	dec	r2
    1174:	21 e0       	ldi	r18, 0x01	; 1
    1176:	82 1a       	sub	r8, r18
    1178:	91 08       	sbc	r9, r1
    117a:	81 14       	cp	r8, r1
    117c:	91 04       	cpc	r9, r1
    117e:	79 f7       	brne	.-34     	; 0x115e <vfprintf+0x1c4>
    1180:	e1 c0       	rjmp	.+450    	; 0x1344 <vfprintf+0x3aa>
    1182:	84 36       	cpi	r24, 0x64	; 100
    1184:	11 f0       	breq	.+4      	; 0x118a <vfprintf+0x1f0>
    1186:	89 36       	cpi	r24, 0x69	; 105
    1188:	39 f5       	brne	.+78     	; 0x11d8 <vfprintf+0x23e>
    118a:	f8 01       	movw	r30, r16
    118c:	37 fe       	sbrs	r3, 7
    118e:	07 c0       	rjmp	.+14     	; 0x119e <vfprintf+0x204>
    1190:	60 81       	ld	r22, Z
    1192:	71 81       	ldd	r23, Z+1	; 0x01
    1194:	82 81       	ldd	r24, Z+2	; 0x02
    1196:	93 81       	ldd	r25, Z+3	; 0x03
    1198:	0c 5f       	subi	r16, 0xFC	; 252
    119a:	1f 4f       	sbci	r17, 0xFF	; 255
    119c:	08 c0       	rjmp	.+16     	; 0x11ae <vfprintf+0x214>
    119e:	60 81       	ld	r22, Z
    11a0:	71 81       	ldd	r23, Z+1	; 0x01
    11a2:	07 2e       	mov	r0, r23
    11a4:	00 0c       	add	r0, r0
    11a6:	88 0b       	sbc	r24, r24
    11a8:	99 0b       	sbc	r25, r25
    11aa:	0e 5f       	subi	r16, 0xFE	; 254
    11ac:	1f 4f       	sbci	r17, 0xFF	; 255
    11ae:	f3 2d       	mov	r31, r3
    11b0:	ff 76       	andi	r31, 0x6F	; 111
    11b2:	3f 2e       	mov	r3, r31
    11b4:	97 ff       	sbrs	r25, 7
    11b6:	09 c0       	rjmp	.+18     	; 0x11ca <vfprintf+0x230>
    11b8:	90 95       	com	r25
    11ba:	80 95       	com	r24
    11bc:	70 95       	com	r23
    11be:	61 95       	neg	r22
    11c0:	7f 4f       	sbci	r23, 0xFF	; 255
    11c2:	8f 4f       	sbci	r24, 0xFF	; 255
    11c4:	9f 4f       	sbci	r25, 0xFF	; 255
    11c6:	f0 68       	ori	r31, 0x80	; 128
    11c8:	3f 2e       	mov	r3, r31
    11ca:	2a e0       	ldi	r18, 0x0A	; 10
    11cc:	30 e0       	ldi	r19, 0x00	; 0
    11ce:	a3 01       	movw	r20, r6
    11d0:	33 d1       	rcall	.+614    	; 0x1438 <__ultoa_invert>
    11d2:	88 2e       	mov	r8, r24
    11d4:	86 18       	sub	r8, r6
    11d6:	44 c0       	rjmp	.+136    	; 0x1260 <vfprintf+0x2c6>
    11d8:	85 37       	cpi	r24, 0x75	; 117
    11da:	31 f4       	brne	.+12     	; 0x11e8 <vfprintf+0x24e>
    11dc:	23 2d       	mov	r18, r3
    11de:	2f 7e       	andi	r18, 0xEF	; 239
    11e0:	b2 2e       	mov	r11, r18
    11e2:	2a e0       	ldi	r18, 0x0A	; 10
    11e4:	30 e0       	ldi	r19, 0x00	; 0
    11e6:	25 c0       	rjmp	.+74     	; 0x1232 <vfprintf+0x298>
    11e8:	93 2d       	mov	r25, r3
    11ea:	99 7f       	andi	r25, 0xF9	; 249
    11ec:	b9 2e       	mov	r11, r25
    11ee:	8f 36       	cpi	r24, 0x6F	; 111
    11f0:	c1 f0       	breq	.+48     	; 0x1222 <vfprintf+0x288>
    11f2:	18 f4       	brcc	.+6      	; 0x11fa <vfprintf+0x260>
    11f4:	88 35       	cpi	r24, 0x58	; 88
    11f6:	79 f0       	breq	.+30     	; 0x1216 <vfprintf+0x27c>
    11f8:	ae c0       	rjmp	.+348    	; 0x1356 <vfprintf+0x3bc>
    11fa:	80 37       	cpi	r24, 0x70	; 112
    11fc:	19 f0       	breq	.+6      	; 0x1204 <vfprintf+0x26a>
    11fe:	88 37       	cpi	r24, 0x78	; 120
    1200:	21 f0       	breq	.+8      	; 0x120a <vfprintf+0x270>
    1202:	a9 c0       	rjmp	.+338    	; 0x1356 <vfprintf+0x3bc>
    1204:	e9 2f       	mov	r30, r25
    1206:	e0 61       	ori	r30, 0x10	; 16
    1208:	be 2e       	mov	r11, r30
    120a:	b4 fe       	sbrs	r11, 4
    120c:	0d c0       	rjmp	.+26     	; 0x1228 <vfprintf+0x28e>
    120e:	fb 2d       	mov	r31, r11
    1210:	f4 60       	ori	r31, 0x04	; 4
    1212:	bf 2e       	mov	r11, r31
    1214:	09 c0       	rjmp	.+18     	; 0x1228 <vfprintf+0x28e>
    1216:	34 fe       	sbrs	r3, 4
    1218:	0a c0       	rjmp	.+20     	; 0x122e <vfprintf+0x294>
    121a:	29 2f       	mov	r18, r25
    121c:	26 60       	ori	r18, 0x06	; 6
    121e:	b2 2e       	mov	r11, r18
    1220:	06 c0       	rjmp	.+12     	; 0x122e <vfprintf+0x294>
    1222:	28 e0       	ldi	r18, 0x08	; 8
    1224:	30 e0       	ldi	r19, 0x00	; 0
    1226:	05 c0       	rjmp	.+10     	; 0x1232 <vfprintf+0x298>
    1228:	20 e1       	ldi	r18, 0x10	; 16
    122a:	30 e0       	ldi	r19, 0x00	; 0
    122c:	02 c0       	rjmp	.+4      	; 0x1232 <vfprintf+0x298>
    122e:	20 e1       	ldi	r18, 0x10	; 16
    1230:	32 e0       	ldi	r19, 0x02	; 2
    1232:	f8 01       	movw	r30, r16
    1234:	b7 fe       	sbrs	r11, 7
    1236:	07 c0       	rjmp	.+14     	; 0x1246 <vfprintf+0x2ac>
    1238:	60 81       	ld	r22, Z
    123a:	71 81       	ldd	r23, Z+1	; 0x01
    123c:	82 81       	ldd	r24, Z+2	; 0x02
    123e:	93 81       	ldd	r25, Z+3	; 0x03
    1240:	0c 5f       	subi	r16, 0xFC	; 252
    1242:	1f 4f       	sbci	r17, 0xFF	; 255
    1244:	06 c0       	rjmp	.+12     	; 0x1252 <vfprintf+0x2b8>
    1246:	60 81       	ld	r22, Z
    1248:	71 81       	ldd	r23, Z+1	; 0x01
    124a:	80 e0       	ldi	r24, 0x00	; 0
    124c:	90 e0       	ldi	r25, 0x00	; 0
    124e:	0e 5f       	subi	r16, 0xFE	; 254
    1250:	1f 4f       	sbci	r17, 0xFF	; 255
    1252:	a3 01       	movw	r20, r6
    1254:	f1 d0       	rcall	.+482    	; 0x1438 <__ultoa_invert>
    1256:	88 2e       	mov	r8, r24
    1258:	86 18       	sub	r8, r6
    125a:	fb 2d       	mov	r31, r11
    125c:	ff 77       	andi	r31, 0x7F	; 127
    125e:	3f 2e       	mov	r3, r31
    1260:	36 fe       	sbrs	r3, 6
    1262:	0d c0       	rjmp	.+26     	; 0x127e <vfprintf+0x2e4>
    1264:	23 2d       	mov	r18, r3
    1266:	2e 7f       	andi	r18, 0xFE	; 254
    1268:	a2 2e       	mov	r10, r18
    126a:	89 14       	cp	r8, r9
    126c:	58 f4       	brcc	.+22     	; 0x1284 <vfprintf+0x2ea>
    126e:	34 fe       	sbrs	r3, 4
    1270:	0b c0       	rjmp	.+22     	; 0x1288 <vfprintf+0x2ee>
    1272:	32 fc       	sbrc	r3, 2
    1274:	09 c0       	rjmp	.+18     	; 0x1288 <vfprintf+0x2ee>
    1276:	83 2d       	mov	r24, r3
    1278:	8e 7e       	andi	r24, 0xEE	; 238
    127a:	a8 2e       	mov	r10, r24
    127c:	05 c0       	rjmp	.+10     	; 0x1288 <vfprintf+0x2ee>
    127e:	b8 2c       	mov	r11, r8
    1280:	a3 2c       	mov	r10, r3
    1282:	03 c0       	rjmp	.+6      	; 0x128a <vfprintf+0x2f0>
    1284:	b8 2c       	mov	r11, r8
    1286:	01 c0       	rjmp	.+2      	; 0x128a <vfprintf+0x2f0>
    1288:	b9 2c       	mov	r11, r9
    128a:	a4 fe       	sbrs	r10, 4
    128c:	0f c0       	rjmp	.+30     	; 0x12ac <vfprintf+0x312>
    128e:	fe 01       	movw	r30, r28
    1290:	e8 0d       	add	r30, r8
    1292:	f1 1d       	adc	r31, r1
    1294:	80 81       	ld	r24, Z
    1296:	80 33       	cpi	r24, 0x30	; 48
    1298:	21 f4       	brne	.+8      	; 0x12a2 <vfprintf+0x308>
    129a:	9a 2d       	mov	r25, r10
    129c:	99 7e       	andi	r25, 0xE9	; 233
    129e:	a9 2e       	mov	r10, r25
    12a0:	09 c0       	rjmp	.+18     	; 0x12b4 <vfprintf+0x31a>
    12a2:	a2 fe       	sbrs	r10, 2
    12a4:	06 c0       	rjmp	.+12     	; 0x12b2 <vfprintf+0x318>
    12a6:	b3 94       	inc	r11
    12a8:	b3 94       	inc	r11
    12aa:	04 c0       	rjmp	.+8      	; 0x12b4 <vfprintf+0x31a>
    12ac:	8a 2d       	mov	r24, r10
    12ae:	86 78       	andi	r24, 0x86	; 134
    12b0:	09 f0       	breq	.+2      	; 0x12b4 <vfprintf+0x31a>
    12b2:	b3 94       	inc	r11
    12b4:	a3 fc       	sbrc	r10, 3
    12b6:	10 c0       	rjmp	.+32     	; 0x12d8 <vfprintf+0x33e>
    12b8:	a0 fe       	sbrs	r10, 0
    12ba:	06 c0       	rjmp	.+12     	; 0x12c8 <vfprintf+0x32e>
    12bc:	b2 14       	cp	r11, r2
    12be:	80 f4       	brcc	.+32     	; 0x12e0 <vfprintf+0x346>
    12c0:	28 0c       	add	r2, r8
    12c2:	92 2c       	mov	r9, r2
    12c4:	9b 18       	sub	r9, r11
    12c6:	0d c0       	rjmp	.+26     	; 0x12e2 <vfprintf+0x348>
    12c8:	b2 14       	cp	r11, r2
    12ca:	58 f4       	brcc	.+22     	; 0x12e2 <vfprintf+0x348>
    12cc:	b6 01       	movw	r22, r12
    12ce:	80 e2       	ldi	r24, 0x20	; 32
    12d0:	90 e0       	ldi	r25, 0x00	; 0
    12d2:	76 d0       	rcall	.+236    	; 0x13c0 <fputc>
    12d4:	b3 94       	inc	r11
    12d6:	f8 cf       	rjmp	.-16     	; 0x12c8 <vfprintf+0x32e>
    12d8:	b2 14       	cp	r11, r2
    12da:	18 f4       	brcc	.+6      	; 0x12e2 <vfprintf+0x348>
    12dc:	2b 18       	sub	r2, r11
    12de:	02 c0       	rjmp	.+4      	; 0x12e4 <vfprintf+0x34a>
    12e0:	98 2c       	mov	r9, r8
    12e2:	21 2c       	mov	r2, r1
    12e4:	a4 fe       	sbrs	r10, 4
    12e6:	0f c0       	rjmp	.+30     	; 0x1306 <vfprintf+0x36c>
    12e8:	b6 01       	movw	r22, r12
    12ea:	80 e3       	ldi	r24, 0x30	; 48
    12ec:	90 e0       	ldi	r25, 0x00	; 0
    12ee:	68 d0       	rcall	.+208    	; 0x13c0 <fputc>
    12f0:	a2 fe       	sbrs	r10, 2
    12f2:	16 c0       	rjmp	.+44     	; 0x1320 <vfprintf+0x386>
    12f4:	a1 fc       	sbrc	r10, 1
    12f6:	03 c0       	rjmp	.+6      	; 0x12fe <vfprintf+0x364>
    12f8:	88 e7       	ldi	r24, 0x78	; 120
    12fa:	90 e0       	ldi	r25, 0x00	; 0
    12fc:	02 c0       	rjmp	.+4      	; 0x1302 <vfprintf+0x368>
    12fe:	88 e5       	ldi	r24, 0x58	; 88
    1300:	90 e0       	ldi	r25, 0x00	; 0
    1302:	b6 01       	movw	r22, r12
    1304:	0c c0       	rjmp	.+24     	; 0x131e <vfprintf+0x384>
    1306:	8a 2d       	mov	r24, r10
    1308:	86 78       	andi	r24, 0x86	; 134
    130a:	51 f0       	breq	.+20     	; 0x1320 <vfprintf+0x386>
    130c:	a1 fe       	sbrs	r10, 1
    130e:	02 c0       	rjmp	.+4      	; 0x1314 <vfprintf+0x37a>
    1310:	8b e2       	ldi	r24, 0x2B	; 43
    1312:	01 c0       	rjmp	.+2      	; 0x1316 <vfprintf+0x37c>
    1314:	80 e2       	ldi	r24, 0x20	; 32
    1316:	a7 fc       	sbrc	r10, 7
    1318:	8d e2       	ldi	r24, 0x2D	; 45
    131a:	b6 01       	movw	r22, r12
    131c:	90 e0       	ldi	r25, 0x00	; 0
    131e:	50 d0       	rcall	.+160    	; 0x13c0 <fputc>
    1320:	89 14       	cp	r8, r9
    1322:	30 f4       	brcc	.+12     	; 0x1330 <vfprintf+0x396>
    1324:	b6 01       	movw	r22, r12
    1326:	80 e3       	ldi	r24, 0x30	; 48
    1328:	90 e0       	ldi	r25, 0x00	; 0
    132a:	4a d0       	rcall	.+148    	; 0x13c0 <fputc>
    132c:	9a 94       	dec	r9
    132e:	f8 cf       	rjmp	.-16     	; 0x1320 <vfprintf+0x386>
    1330:	8a 94       	dec	r8
    1332:	f3 01       	movw	r30, r6
    1334:	e8 0d       	add	r30, r8
    1336:	f1 1d       	adc	r31, r1
    1338:	80 81       	ld	r24, Z
    133a:	b6 01       	movw	r22, r12
    133c:	90 e0       	ldi	r25, 0x00	; 0
    133e:	40 d0       	rcall	.+128    	; 0x13c0 <fputc>
    1340:	81 10       	cpse	r8, r1
    1342:	f6 cf       	rjmp	.-20     	; 0x1330 <vfprintf+0x396>
    1344:	22 20       	and	r2, r2
    1346:	09 f4       	brne	.+2      	; 0x134a <vfprintf+0x3b0>
    1348:	4e ce       	rjmp	.-868    	; 0xfe6 <vfprintf+0x4c>
    134a:	b6 01       	movw	r22, r12
    134c:	80 e2       	ldi	r24, 0x20	; 32
    134e:	90 e0       	ldi	r25, 0x00	; 0
    1350:	37 d0       	rcall	.+110    	; 0x13c0 <fputc>
    1352:	2a 94       	dec	r2
    1354:	f7 cf       	rjmp	.-18     	; 0x1344 <vfprintf+0x3aa>
    1356:	f6 01       	movw	r30, r12
    1358:	86 81       	ldd	r24, Z+6	; 0x06
    135a:	97 81       	ldd	r25, Z+7	; 0x07
    135c:	02 c0       	rjmp	.+4      	; 0x1362 <vfprintf+0x3c8>
    135e:	8f ef       	ldi	r24, 0xFF	; 255
    1360:	9f ef       	ldi	r25, 0xFF	; 255
    1362:	2b 96       	adiw	r28, 0x0b	; 11
    1364:	0f b6       	in	r0, 0x3f	; 63
    1366:	f8 94       	cli
    1368:	de bf       	out	0x3e, r29	; 62
    136a:	0f be       	out	0x3f, r0	; 63
    136c:	cd bf       	out	0x3d, r28	; 61
    136e:	df 91       	pop	r29
    1370:	cf 91       	pop	r28
    1372:	1f 91       	pop	r17
    1374:	0f 91       	pop	r16
    1376:	ff 90       	pop	r15
    1378:	ef 90       	pop	r14
    137a:	df 90       	pop	r13
    137c:	cf 90       	pop	r12
    137e:	bf 90       	pop	r11
    1380:	af 90       	pop	r10
    1382:	9f 90       	pop	r9
    1384:	8f 90       	pop	r8
    1386:	7f 90       	pop	r7
    1388:	6f 90       	pop	r6
    138a:	5f 90       	pop	r5
    138c:	4f 90       	pop	r4
    138e:	3f 90       	pop	r3
    1390:	2f 90       	pop	r2
    1392:	08 95       	ret

00001394 <strnlen_P>:
    1394:	fc 01       	movw	r30, r24
    1396:	05 90       	lpm	r0, Z+
    1398:	61 50       	subi	r22, 0x01	; 1
    139a:	70 40       	sbci	r23, 0x00	; 0
    139c:	01 10       	cpse	r0, r1
    139e:	d8 f7       	brcc	.-10     	; 0x1396 <strnlen_P+0x2>
    13a0:	80 95       	com	r24
    13a2:	90 95       	com	r25
    13a4:	8e 0f       	add	r24, r30
    13a6:	9f 1f       	adc	r25, r31
    13a8:	08 95       	ret

000013aa <strnlen>:
    13aa:	fc 01       	movw	r30, r24
    13ac:	61 50       	subi	r22, 0x01	; 1
    13ae:	70 40       	sbci	r23, 0x00	; 0
    13b0:	01 90       	ld	r0, Z+
    13b2:	01 10       	cpse	r0, r1
    13b4:	d8 f7       	brcc	.-10     	; 0x13ac <strnlen+0x2>
    13b6:	80 95       	com	r24
    13b8:	90 95       	com	r25
    13ba:	8e 0f       	add	r24, r30
    13bc:	9f 1f       	adc	r25, r31
    13be:	08 95       	ret

000013c0 <fputc>:
    13c0:	0f 93       	push	r16
    13c2:	1f 93       	push	r17
    13c4:	cf 93       	push	r28
    13c6:	df 93       	push	r29
    13c8:	fb 01       	movw	r30, r22
    13ca:	23 81       	ldd	r18, Z+3	; 0x03
    13cc:	21 fd       	sbrc	r18, 1
    13ce:	03 c0       	rjmp	.+6      	; 0x13d6 <fputc+0x16>
    13d0:	8f ef       	ldi	r24, 0xFF	; 255
    13d2:	9f ef       	ldi	r25, 0xFF	; 255
    13d4:	2c c0       	rjmp	.+88     	; 0x142e <fputc+0x6e>
    13d6:	22 ff       	sbrs	r18, 2
    13d8:	16 c0       	rjmp	.+44     	; 0x1406 <fputc+0x46>
    13da:	46 81       	ldd	r20, Z+6	; 0x06
    13dc:	57 81       	ldd	r21, Z+7	; 0x07
    13de:	24 81       	ldd	r18, Z+4	; 0x04
    13e0:	35 81       	ldd	r19, Z+5	; 0x05
    13e2:	42 17       	cp	r20, r18
    13e4:	53 07       	cpc	r21, r19
    13e6:	44 f4       	brge	.+16     	; 0x13f8 <fputc+0x38>
    13e8:	a0 81       	ld	r26, Z
    13ea:	b1 81       	ldd	r27, Z+1	; 0x01
    13ec:	9d 01       	movw	r18, r26
    13ee:	2f 5f       	subi	r18, 0xFF	; 255
    13f0:	3f 4f       	sbci	r19, 0xFF	; 255
    13f2:	31 83       	std	Z+1, r19	; 0x01
    13f4:	20 83       	st	Z, r18
    13f6:	8c 93       	st	X, r24
    13f8:	26 81       	ldd	r18, Z+6	; 0x06
    13fa:	37 81       	ldd	r19, Z+7	; 0x07
    13fc:	2f 5f       	subi	r18, 0xFF	; 255
    13fe:	3f 4f       	sbci	r19, 0xFF	; 255
    1400:	37 83       	std	Z+7, r19	; 0x07
    1402:	26 83       	std	Z+6, r18	; 0x06
    1404:	14 c0       	rjmp	.+40     	; 0x142e <fputc+0x6e>
    1406:	8b 01       	movw	r16, r22
    1408:	ec 01       	movw	r28, r24
    140a:	fb 01       	movw	r30, r22
    140c:	00 84       	ldd	r0, Z+8	; 0x08
    140e:	f1 85       	ldd	r31, Z+9	; 0x09
    1410:	e0 2d       	mov	r30, r0
    1412:	19 95       	eicall
    1414:	89 2b       	or	r24, r25
    1416:	e1 f6       	brne	.-72     	; 0x13d0 <fputc+0x10>
    1418:	d8 01       	movw	r26, r16
    141a:	16 96       	adiw	r26, 0x06	; 6
    141c:	8d 91       	ld	r24, X+
    141e:	9c 91       	ld	r25, X
    1420:	17 97       	sbiw	r26, 0x07	; 7
    1422:	01 96       	adiw	r24, 0x01	; 1
    1424:	17 96       	adiw	r26, 0x07	; 7
    1426:	9c 93       	st	X, r25
    1428:	8e 93       	st	-X, r24
    142a:	16 97       	sbiw	r26, 0x06	; 6
    142c:	ce 01       	movw	r24, r28
    142e:	df 91       	pop	r29
    1430:	cf 91       	pop	r28
    1432:	1f 91       	pop	r17
    1434:	0f 91       	pop	r16
    1436:	08 95       	ret

00001438 <__ultoa_invert>:
    1438:	fa 01       	movw	r30, r20
    143a:	aa 27       	eor	r26, r26
    143c:	28 30       	cpi	r18, 0x08	; 8
    143e:	51 f1       	breq	.+84     	; 0x1494 <__ultoa_invert+0x5c>
    1440:	20 31       	cpi	r18, 0x10	; 16
    1442:	81 f1       	breq	.+96     	; 0x14a4 <__ultoa_invert+0x6c>
    1444:	e8 94       	clt
    1446:	6f 93       	push	r22
    1448:	6e 7f       	andi	r22, 0xFE	; 254
    144a:	6e 5f       	subi	r22, 0xFE	; 254
    144c:	7f 4f       	sbci	r23, 0xFF	; 255
    144e:	8f 4f       	sbci	r24, 0xFF	; 255
    1450:	9f 4f       	sbci	r25, 0xFF	; 255
    1452:	af 4f       	sbci	r26, 0xFF	; 255
    1454:	b1 e0       	ldi	r27, 0x01	; 1
    1456:	3e d0       	rcall	.+124    	; 0x14d4 <__ultoa_invert+0x9c>
    1458:	b4 e0       	ldi	r27, 0x04	; 4
    145a:	3c d0       	rcall	.+120    	; 0x14d4 <__ultoa_invert+0x9c>
    145c:	67 0f       	add	r22, r23
    145e:	78 1f       	adc	r23, r24
    1460:	89 1f       	adc	r24, r25
    1462:	9a 1f       	adc	r25, r26
    1464:	a1 1d       	adc	r26, r1
    1466:	68 0f       	add	r22, r24
    1468:	79 1f       	adc	r23, r25
    146a:	8a 1f       	adc	r24, r26
    146c:	91 1d       	adc	r25, r1
    146e:	a1 1d       	adc	r26, r1
    1470:	6a 0f       	add	r22, r26
    1472:	71 1d       	adc	r23, r1
    1474:	81 1d       	adc	r24, r1
    1476:	91 1d       	adc	r25, r1
    1478:	a1 1d       	adc	r26, r1
    147a:	20 d0       	rcall	.+64     	; 0x14bc <__ultoa_invert+0x84>
    147c:	09 f4       	brne	.+2      	; 0x1480 <__ultoa_invert+0x48>
    147e:	68 94       	set
    1480:	3f 91       	pop	r19
    1482:	2a e0       	ldi	r18, 0x0A	; 10
    1484:	26 9f       	mul	r18, r22
    1486:	11 24       	eor	r1, r1
    1488:	30 19       	sub	r19, r0
    148a:	30 5d       	subi	r19, 0xD0	; 208
    148c:	31 93       	st	Z+, r19
    148e:	de f6       	brtc	.-74     	; 0x1446 <__ultoa_invert+0xe>
    1490:	cf 01       	movw	r24, r30
    1492:	08 95       	ret
    1494:	46 2f       	mov	r20, r22
    1496:	47 70       	andi	r20, 0x07	; 7
    1498:	40 5d       	subi	r20, 0xD0	; 208
    149a:	41 93       	st	Z+, r20
    149c:	b3 e0       	ldi	r27, 0x03	; 3
    149e:	0f d0       	rcall	.+30     	; 0x14be <__ultoa_invert+0x86>
    14a0:	c9 f7       	brne	.-14     	; 0x1494 <__ultoa_invert+0x5c>
    14a2:	f6 cf       	rjmp	.-20     	; 0x1490 <__ultoa_invert+0x58>
    14a4:	46 2f       	mov	r20, r22
    14a6:	4f 70       	andi	r20, 0x0F	; 15
    14a8:	40 5d       	subi	r20, 0xD0	; 208
    14aa:	4a 33       	cpi	r20, 0x3A	; 58
    14ac:	18 f0       	brcs	.+6      	; 0x14b4 <__ultoa_invert+0x7c>
    14ae:	49 5d       	subi	r20, 0xD9	; 217
    14b0:	31 fd       	sbrc	r19, 1
    14b2:	40 52       	subi	r20, 0x20	; 32
    14b4:	41 93       	st	Z+, r20
    14b6:	02 d0       	rcall	.+4      	; 0x14bc <__ultoa_invert+0x84>
    14b8:	a9 f7       	brne	.-22     	; 0x14a4 <__ultoa_invert+0x6c>
    14ba:	ea cf       	rjmp	.-44     	; 0x1490 <__ultoa_invert+0x58>
    14bc:	b4 e0       	ldi	r27, 0x04	; 4
    14be:	a6 95       	lsr	r26
    14c0:	97 95       	ror	r25
    14c2:	87 95       	ror	r24
    14c4:	77 95       	ror	r23
    14c6:	67 95       	ror	r22
    14c8:	ba 95       	dec	r27
    14ca:	c9 f7       	brne	.-14     	; 0x14be <__ultoa_invert+0x86>
    14cc:	00 97       	sbiw	r24, 0x00	; 0
    14ce:	61 05       	cpc	r22, r1
    14d0:	71 05       	cpc	r23, r1
    14d2:	08 95       	ret
    14d4:	9b 01       	movw	r18, r22
    14d6:	ac 01       	movw	r20, r24
    14d8:	0a 2e       	mov	r0, r26
    14da:	06 94       	lsr	r0
    14dc:	57 95       	ror	r21
    14de:	47 95       	ror	r20
    14e0:	37 95       	ror	r19
    14e2:	27 95       	ror	r18
    14e4:	ba 95       	dec	r27
    14e6:	c9 f7       	brne	.-14     	; 0x14da <__ultoa_invert+0xa2>
    14e8:	62 0f       	add	r22, r18
    14ea:	73 1f       	adc	r23, r19
    14ec:	84 1f       	adc	r24, r20
    14ee:	95 1f       	adc	r25, r21
    14f0:	a0 1d       	adc	r26, r0
    14f2:	08 95       	ret

000014f4 <_exit>:
    14f4:	f8 94       	cli

000014f6 <__stop_program>:
    14f6:	ff cf       	rjmp	.-2      	; 0x14f6 <__stop_program>
