
uCBoardBeispiele.elf:     file format elf32-avr

Sections:
Idx Name          Size      VMA       LMA       File off  Algn
  0 .data         0000009c  00800200  00001de2  00001e76  2**0
                  CONTENTS, ALLOC, LOAD, DATA
  1 .text         00001de2  00000000  00000000  00000094  2**1
                  CONTENTS, ALLOC, LOAD, READONLY, CODE
  2 .bss          0000007e  0080029c  0080029c  00001f12  2**0
                  ALLOC
  3 .comment      0000005c  00000000  00000000  00001f12  2**0
                  CONTENTS, READONLY
  4 .note.gnu.avr.deviceinfo 00000040  00000000  00000000  00001f70  2**2
                  CONTENTS, READONLY
  5 .debug_aranges 00000210  00000000  00000000  00001fb0  2**0
                  CONTENTS, READONLY, DEBUGGING
  6 .debug_info   00002a71  00000000  00000000  000021c0  2**0
                  CONTENTS, READONLY, DEBUGGING
  7 .debug_abbrev 000011d4  00000000  00000000  00004c31  2**0
                  CONTENTS, READONLY, DEBUGGING
  8 .debug_line   00001861  00000000  00000000  00005e05  2**0
                  CONTENTS, READONLY, DEBUGGING
  9 .debug_frame  000006cc  00000000  00000000  00007668  2**2
                  CONTENTS, READONLY, DEBUGGING
 10 .debug_str    00000e28  00000000  00000000  00007d34  2**0
                  CONTENTS, READONLY, DEBUGGING
 11 .debug_loc    00002450  00000000  00000000  00008b5c  2**0
                  CONTENTS, READONLY, DEBUGGING
 12 .debug_ranges 00000250  00000000  00000000  0000afac  2**0
                  CONTENTS, READONLY, DEBUGGING

Disassembly of section .text:

00000000 <__vectors>:
       0:	71 c0       	rjmp	.+226    	; 0xe4 <__ctors_end>
       2:	00 00       	nop
       4:	8f c0       	rjmp	.+286    	; 0x124 <__bad_interrupt>
       6:	00 00       	nop
       8:	8d c0       	rjmp	.+282    	; 0x124 <__bad_interrupt>
       a:	00 00       	nop
       c:	8b c0       	rjmp	.+278    	; 0x124 <__bad_interrupt>
       e:	00 00       	nop
      10:	89 c0       	rjmp	.+274    	; 0x124 <__bad_interrupt>
      12:	00 00       	nop
      14:	87 c0       	rjmp	.+270    	; 0x124 <__bad_interrupt>
      16:	00 00       	nop
      18:	85 c0       	rjmp	.+266    	; 0x124 <__bad_interrupt>
      1a:	00 00       	nop
      1c:	83 c0       	rjmp	.+262    	; 0x124 <__bad_interrupt>
      1e:	00 00       	nop
      20:	81 c0       	rjmp	.+258    	; 0x124 <__bad_interrupt>
      22:	00 00       	nop
      24:	7f c0       	rjmp	.+254    	; 0x124 <__bad_interrupt>
      26:	00 00       	nop
      28:	7d c0       	rjmp	.+250    	; 0x124 <__bad_interrupt>
      2a:	00 00       	nop
      2c:	7b c0       	rjmp	.+246    	; 0x124 <__bad_interrupt>
      2e:	00 00       	nop
      30:	79 c0       	rjmp	.+242    	; 0x124 <__bad_interrupt>
      32:	00 00       	nop
      34:	77 c0       	rjmp	.+238    	; 0x124 <__bad_interrupt>
      36:	00 00       	nop
      38:	75 c0       	rjmp	.+234    	; 0x124 <__bad_interrupt>
      3a:	00 00       	nop
      3c:	73 c0       	rjmp	.+230    	; 0x124 <__bad_interrupt>
      3e:	00 00       	nop
      40:	71 c0       	rjmp	.+226    	; 0x124 <__bad_interrupt>
      42:	00 00       	nop
      44:	6f c0       	rjmp	.+222    	; 0x124 <__bad_interrupt>
      46:	00 00       	nop
      48:	6d c0       	rjmp	.+218    	; 0x124 <__bad_interrupt>
      4a:	00 00       	nop
      4c:	6b c0       	rjmp	.+214    	; 0x124 <__bad_interrupt>
      4e:	00 00       	nop
      50:	69 c0       	rjmp	.+210    	; 0x124 <__bad_interrupt>
      52:	00 00       	nop
      54:	67 c0       	rjmp	.+206    	; 0x124 <__bad_interrupt>
      56:	00 00       	nop
      58:	65 c0       	rjmp	.+202    	; 0x124 <__bad_interrupt>
      5a:	00 00       	nop
      5c:	0c 94 1d 0a 	jmp	0x143a	; 0x143a <__vector_23>
      60:	61 c0       	rjmp	.+194    	; 0x124 <__bad_interrupt>
      62:	00 00       	nop
      64:	5f c0       	rjmp	.+190    	; 0x124 <__bad_interrupt>
      66:	00 00       	nop
      68:	5d c0       	rjmp	.+186    	; 0x124 <__bad_interrupt>
      6a:	00 00       	nop
      6c:	5b c0       	rjmp	.+182    	; 0x124 <__bad_interrupt>
      6e:	00 00       	nop
      70:	59 c0       	rjmp	.+178    	; 0x124 <__bad_interrupt>
      72:	00 00       	nop
      74:	57 c0       	rjmp	.+174    	; 0x124 <__bad_interrupt>
      76:	00 00       	nop
      78:	55 c0       	rjmp	.+170    	; 0x124 <__bad_interrupt>
      7a:	00 00       	nop
      7c:	53 c0       	rjmp	.+166    	; 0x124 <__bad_interrupt>
      7e:	00 00       	nop
      80:	51 c0       	rjmp	.+162    	; 0x124 <__bad_interrupt>
      82:	00 00       	nop
      84:	4f c0       	rjmp	.+158    	; 0x124 <__bad_interrupt>
      86:	00 00       	nop
      88:	4d c0       	rjmp	.+154    	; 0x124 <__bad_interrupt>
      8a:	00 00       	nop
      8c:	4b c0       	rjmp	.+150    	; 0x124 <__bad_interrupt>
      8e:	00 00       	nop
      90:	49 c0       	rjmp	.+146    	; 0x124 <__bad_interrupt>
      92:	00 00       	nop
      94:	47 c0       	rjmp	.+142    	; 0x124 <__bad_interrupt>
      96:	00 00       	nop
      98:	45 c0       	rjmp	.+138    	; 0x124 <__bad_interrupt>
      9a:	00 00       	nop
      9c:	43 c0       	rjmp	.+134    	; 0x124 <__bad_interrupt>
      9e:	00 00       	nop
      a0:	41 c0       	rjmp	.+130    	; 0x124 <__bad_interrupt>
      a2:	00 00       	nop
      a4:	3f c0       	rjmp	.+126    	; 0x124 <__bad_interrupt>
      a6:	00 00       	nop
      a8:	3d c0       	rjmp	.+122    	; 0x124 <__bad_interrupt>
      aa:	00 00       	nop
      ac:	3b c0       	rjmp	.+118    	; 0x124 <__bad_interrupt>
      ae:	00 00       	nop
      b0:	39 c0       	rjmp	.+114    	; 0x124 <__bad_interrupt>
      b2:	00 00       	nop
      b4:	37 c0       	rjmp	.+110    	; 0x124 <__bad_interrupt>
      b6:	00 00       	nop
      b8:	35 c0       	rjmp	.+106    	; 0x124 <__bad_interrupt>
      ba:	00 00       	nop
      bc:	33 c0       	rjmp	.+102    	; 0x124 <__bad_interrupt>
      be:	00 00       	nop
      c0:	31 c0       	rjmp	.+98     	; 0x124 <__bad_interrupt>
      c2:	00 00       	nop
      c4:	2f c0       	rjmp	.+94     	; 0x124 <__bad_interrupt>
      c6:	00 00       	nop
      c8:	2d c0       	rjmp	.+90     	; 0x124 <__bad_interrupt>
      ca:	00 00       	nop
      cc:	2b c0       	rjmp	.+86     	; 0x124 <__bad_interrupt>
      ce:	00 00       	nop
      d0:	29 c0       	rjmp	.+82     	; 0x124 <__bad_interrupt>
      d2:	00 00       	nop
      d4:	27 c0       	rjmp	.+78     	; 0x124 <__bad_interrupt>
      d6:	00 00       	nop
      d8:	25 c0       	rjmp	.+74     	; 0x124 <__bad_interrupt>
      da:	00 00       	nop
      dc:	23 c0       	rjmp	.+70     	; 0x124 <__bad_interrupt>
      de:	00 00       	nop
      e0:	21 c0       	rjmp	.+66     	; 0x124 <__bad_interrupt>
	...

000000e4 <__ctors_end>:
      e4:	11 24       	eor	r1, r1
      e6:	1f be       	out	0x3f, r1	; 63
      e8:	cf ef       	ldi	r28, 0xFF	; 255
      ea:	d1 e2       	ldi	r29, 0x21	; 33
      ec:	de bf       	out	0x3e, r29	; 62
      ee:	cd bf       	out	0x3d, r28	; 61
      f0:	00 e0       	ldi	r16, 0x00	; 0
      f2:	0c bf       	out	0x3c, r16	; 60

000000f4 <__do_copy_data>:
      f4:	12 e0       	ldi	r17, 0x02	; 2
      f6:	a0 e0       	ldi	r26, 0x00	; 0
      f8:	b2 e0       	ldi	r27, 0x02	; 2
      fa:	e2 ee       	ldi	r30, 0xE2	; 226
      fc:	fd e1       	ldi	r31, 0x1D	; 29
      fe:	00 e0       	ldi	r16, 0x00	; 0
     100:	0b bf       	out	0x3b, r16	; 59
     102:	02 c0       	rjmp	.+4      	; 0x108 <__do_copy_data+0x14>
     104:	07 90       	elpm	r0, Z+
     106:	0d 92       	st	X+, r0
     108:	ac 39       	cpi	r26, 0x9C	; 156
     10a:	b1 07       	cpc	r27, r17
     10c:	d9 f7       	brne	.-10     	; 0x104 <__do_copy_data+0x10>

0000010e <__do_clear_bss>:
     10e:	23 e0       	ldi	r18, 0x03	; 3
     110:	ac e9       	ldi	r26, 0x9C	; 156
     112:	b2 e0       	ldi	r27, 0x02	; 2
     114:	01 c0       	rjmp	.+2      	; 0x118 <.do_clear_bss_start>

00000116 <.do_clear_bss_loop>:
     116:	1d 92       	st	X+, r1

00000118 <.do_clear_bss_start>:
     118:	aa 31       	cpi	r26, 0x1A	; 26
     11a:	b2 07       	cpc	r27, r18
     11c:	e1 f7       	brne	.-8      	; 0x116 <.do_clear_bss_loop>
     11e:	2e d0       	rcall	.+92     	; 0x17c <main>
     120:	0c 94 ef 0e 	jmp	0x1dde	; 0x1dde <_exit>

00000124 <__bad_interrupt>:
     124:	6d cf       	rjmp	.-294    	; 0x0 <__vectors>

00000126 <led_stripe_set_pixel>:
#define PROGRAMMTAKT_MS         10

typedef enum Zustand_t {START, SNAKE,JOYSTICK} zustand_t;

void led_stripe_set_pixel(uint16_t posX, uint16_t posY, rgb_color color, rgb_color * ledArray)
{
     126:	0f 93       	push	r16
     128:	1f 93       	push	r17
    uint16_t valueArrayIndexSelected = 0;
    if (posX%2)
     12a:	80 ff       	sbrs	r24, 0
     12c:	0d c0       	rjmp	.+26     	; 0x148 <led_stripe_set_pixel+0x22>
    {
        valueArrayIndexSelected = posX * 8 + 7 - posY;
     12e:	88 0f       	add	r24, r24
     130:	99 1f       	adc	r25, r25
     132:	88 0f       	add	r24, r24
     134:	99 1f       	adc	r25, r25
     136:	88 0f       	add	r24, r24
     138:	99 1f       	adc	r25, r25
     13a:	fc 01       	movw	r30, r24
     13c:	e6 1b       	sub	r30, r22
     13e:	f7 0b       	sbc	r31, r23
     140:	bf 01       	movw	r22, r30
     142:	69 5f       	subi	r22, 0xF9	; 249
     144:	7f 4f       	sbci	r23, 0xFF	; 255
     146:	08 c0       	rjmp	.+16     	; 0x158 <led_stripe_set_pixel+0x32>
    }
    else
    {
        valueArrayIndexSelected = posX * 8 + posY;
     148:	88 0f       	add	r24, r24
     14a:	99 1f       	adc	r25, r25
     14c:	88 0f       	add	r24, r24
     14e:	99 1f       	adc	r25, r25
     150:	88 0f       	add	r24, r24
     152:	99 1f       	adc	r25, r25
     154:	68 0f       	add	r22, r24
     156:	79 1f       	adc	r23, r25
    }
    if (valueArrayIndexSelected<LED_COUNT)
     158:	6f 3f       	cpi	r22, 0xFF	; 255
     15a:	71 05       	cpc	r23, r1
     15c:	09 f0       	breq	.+2      	; 0x160 <led_stripe_set_pixel+0x3a>
     15e:	58 f4       	brcc	.+22     	; 0x176 <led_stripe_set_pixel+0x50>
    {
        ledArray[valueArrayIndexSelected] = color;
     160:	fb 01       	movw	r30, r22
     162:	ee 0f       	add	r30, r30
     164:	ff 1f       	adc	r31, r31
     166:	6e 0f       	add	r22, r30
     168:	7f 1f       	adc	r23, r31
     16a:	f8 01       	movw	r30, r16
     16c:	e6 0f       	add	r30, r22
     16e:	f7 1f       	adc	r31, r23
     170:	20 83       	st	Z, r18
     172:	31 83       	std	Z+1, r19	; 0x01
     174:	42 83       	std	Z+2, r20	; 0x02
    }
}
     176:	1f 91       	pop	r17
     178:	0f 91       	pop	r16
     17a:	08 95       	ret

0000017c <main>:


//Hauptprogramm

int main(void)
{
     17c:	cf 93       	push	r28
     17e:	df 93       	push	r29
     180:	cd b7       	in	r28, 0x3d	; 61
     182:	de b7       	in	r29, 0x3e	; 62
     184:	c4 53       	subi	r28, 0x34	; 52
     186:	d3 40       	sbci	r29, 0x03	; 3
     188:	0f b6       	in	r0, 0x3f	; 63
     18a:	f8 94       	cli
     18c:	de bf       	out	0x3e, r29	; 62
     18e:	0f be       	out	0x3f, r0	; 63
     190:	cd bf       	out	0x3d, r28	; 61
    //Variablen
    
    rgb_color fruchtArray[5] =
     192:	89 e1       	ldi	r24, 0x19	; 25
     194:	89 83       	std	Y+1, r24	; 0x01
     196:	9f e0       	ldi	r25, 0x0F	; 15
     198:	9a 83       	std	Y+2, r25	; 0x02
     19a:	1b 82       	std	Y+3, r1	; 0x03
     19c:	8c 83       	std	Y+4, r24	; 0x04
     19e:	8d 83       	std	Y+5, r24	; 0x05
     1a0:	1e 82       	std	Y+6, r1	; 0x06
     1a2:	24 e1       	ldi	r18, 0x14	; 20
     1a4:	2f 83       	std	Y+7, r18	; 0x07
     1a6:	18 86       	std	Y+8, r1	; 0x08
     1a8:	29 87       	std	Y+9, r18	; 0x09
     1aa:	9a 87       	std	Y+10, r25	; 0x0a
     1ac:	98 e0       	ldi	r25, 0x08	; 8
     1ae:	9b 87       	std	Y+11, r25	; 0x0b
     1b0:	1c 86       	std	Y+12, r1	; 0x0c
     1b2:	8d 87       	std	Y+13, r24	; 0x0d
     1b4:	8e 87       	std	Y+14, r24	; 0x0e
     1b6:	8f 87       	std	Y+15, r24	; 0x0f
    
    zustand_t state         = SNAKE;
    
    //Initialisieren
    
    initBoard(0);
     1b8:	80 e0       	ldi	r24, 0x00	; 0
     1ba:	bc d7       	rcall	.+3960   	; 0x1134 <initBoard>
    
    //Anfangswert f체r Zufallsgenerator setzen, gleicher Anfengswert ergibt die gleiche
    //.. Abfolge von Zufallszahlen. Wir lesen einen offenen (undefinierten) ADC ein
    //.. und setzen somit einen undefinierten (zuf채lligen) Anfangswert.
    
    srandom(adcRead(ADC_00_X4_PORTF_BIT0));
     1bc:	80 e0       	ldi	r24, 0x00	; 0
     1be:	57 d6       	rcall	.+3246   	; 0xe6e <adcRead>
     1c0:	bc 01       	movw	r22, r24
     1c2:	80 e0       	ldi	r24, 0x00	; 0
     1c4:	90 e0       	ldi	r25, 0x00	; 0
     1c6:	0e 94 e2 0b 	call	0x17c4	; 0x17c4 <srandom>
    uint16_t randomx        = 0 ;
    uint16_t randomy        = 0 ;
    
    uint64_t punktzahl      = 0;
    
    zustand_t state         = SNAKE;
     1ca:	21 e0       	ldi	r18, 0x01	; 1
     1cc:	c0 5f       	subi	r28, 0xF0	; 240
     1ce:	dc 4f       	sbci	r29, 0xFC	; 252
     1d0:	28 83       	st	Y, r18
     1d2:	c0 51       	subi	r28, 0x10	; 16
     1d4:	d3 40       	sbci	r29, 0x03	; 3
    
    
    uint16_t randomx        = 0 ;
    uint16_t randomy        = 0 ;
    
    uint64_t punktzahl      = 0;
     1d6:	c3 5d       	subi	r28, 0xD3	; 211
     1d8:	dc 4f       	sbci	r29, 0xFC	; 252
     1da:	18 82       	st	Y, r1
     1dc:	cd 52       	subi	r28, 0x2D	; 45
     1de:	d3 40       	sbci	r29, 0x03	; 3
     1e0:	c2 5d       	subi	r28, 0xD2	; 210
     1e2:	dc 4f       	sbci	r29, 0xFC	; 252
     1e4:	18 82       	st	Y, r1
     1e6:	ce 52       	subi	r28, 0x2E	; 46
     1e8:	d3 40       	sbci	r29, 0x03	; 3
     1ea:	c1 5d       	subi	r28, 0xD1	; 209
     1ec:	dc 4f       	sbci	r29, 0xFC	; 252
     1ee:	18 82       	st	Y, r1
     1f0:	cf 52       	subi	r28, 0x2F	; 47
     1f2:	d3 40       	sbci	r29, 0x03	; 3
     1f4:	c0 5d       	subi	r28, 0xD0	; 208
     1f6:	dc 4f       	sbci	r29, 0xFC	; 252
     1f8:	18 82       	st	Y, r1
     1fa:	c0 53       	subi	r28, 0x30	; 48
     1fc:	d3 40       	sbci	r29, 0x03	; 3
     1fe:	cf 5c       	subi	r28, 0xCF	; 207
     200:	dc 4f       	sbci	r29, 0xFC	; 252
     202:	18 82       	st	Y, r1
     204:	c1 53       	subi	r28, 0x31	; 49
     206:	d3 40       	sbci	r29, 0x03	; 3
     208:	ce 5c       	subi	r28, 0xCE	; 206
     20a:	dc 4f       	sbci	r29, 0xFC	; 252
     20c:	18 82       	st	Y, r1
     20e:	c2 53       	subi	r28, 0x32	; 50
     210:	d3 40       	sbci	r29, 0x03	; 3
     212:	cd 5c       	subi	r28, 0xCD	; 205
     214:	dc 4f       	sbci	r29, 0xFC	; 252
     216:	18 82       	st	Y, r1
     218:	c3 53       	subi	r28, 0x33	; 51
     21a:	d3 40       	sbci	r29, 0x03	; 3
     21c:	cc 5c       	subi	r28, 0xCC	; 204
     21e:	dc 4f       	sbci	r29, 0xFC	; 252
     220:	18 82       	st	Y, r1
     222:	c4 53       	subi	r28, 0x34	; 52
     224:	d3 40       	sbci	r29, 0x03	; 3
    uint8_t oben            = 0;
    uint8_t unten           = 0;
    uint32_t neueFrucht    = 0;
    
    uint64_t timerStart_ms  = 0;
    uint64_t timerBewegung  = 0;
     226:	c9 5e       	subi	r28, 0xE9	; 233
     228:	dc 4f       	sbci	r29, 0xFC	; 252
     22a:	18 82       	st	Y, r1
     22c:	c7 51       	subi	r28, 0x17	; 23
     22e:	d3 40       	sbci	r29, 0x03	; 3
     230:	c8 5e       	subi	r28, 0xE8	; 232
     232:	dc 4f       	sbci	r29, 0xFC	; 252
     234:	18 82       	st	Y, r1
     236:	c8 51       	subi	r28, 0x18	; 24
     238:	d3 40       	sbci	r29, 0x03	; 3
     23a:	c7 5e       	subi	r28, 0xE7	; 231
     23c:	dc 4f       	sbci	r29, 0xFC	; 252
     23e:	18 82       	st	Y, r1
     240:	c9 51       	subi	r28, 0x19	; 25
     242:	d3 40       	sbci	r29, 0x03	; 3
     244:	c6 5e       	subi	r28, 0xE6	; 230
     246:	dc 4f       	sbci	r29, 0xFC	; 252
     248:	18 82       	st	Y, r1
     24a:	ca 51       	subi	r28, 0x1A	; 26
     24c:	d3 40       	sbci	r29, 0x03	; 3
     24e:	c5 5e       	subi	r28, 0xE5	; 229
     250:	dc 4f       	sbci	r29, 0xFC	; 252
     252:	18 82       	st	Y, r1
     254:	cb 51       	subi	r28, 0x1B	; 27
     256:	d3 40       	sbci	r29, 0x03	; 3
     258:	c4 5e       	subi	r28, 0xE4	; 228
     25a:	dc 4f       	sbci	r29, 0xFC	; 252
     25c:	18 82       	st	Y, r1
     25e:	cc 51       	subi	r28, 0x1C	; 28
     260:	d3 40       	sbci	r29, 0x03	; 3
     262:	c3 5e       	subi	r28, 0xE3	; 227
     264:	dc 4f       	sbci	r29, 0xFC	; 252
     266:	18 82       	st	Y, r1
     268:	cd 51       	subi	r28, 0x1D	; 29
     26a:	d3 40       	sbci	r29, 0x03	; 3
     26c:	c2 5e       	subi	r28, 0xE2	; 226
     26e:	dc 4f       	sbci	r29, 0xFC	; 252
     270:	18 82       	st	Y, r1
     272:	ce 51       	subi	r28, 0x1E	; 30
     274:	d3 40       	sbci	r29, 0x03	; 3
    uint8_t links           = 0;
    uint8_t oben            = 0;
    uint8_t unten           = 0;
    uint32_t neueFrucht    = 0;
    
    uint64_t timerStart_ms  = 0;
     276:	e1 2c       	mov	r14, r1
     278:	f1 2c       	mov	r15, r1
     27a:	00 e0       	ldi	r16, 0x00	; 0
     27c:	ce 5e       	subi	r28, 0xEE	; 238
     27e:	dc 4f       	sbci	r29, 0xFC	; 252
     280:	18 82       	st	Y, r1
     282:	c2 51       	subi	r28, 0x12	; 18
     284:	d3 40       	sbci	r29, 0x03	; 3
     286:	cd 5e       	subi	r28, 0xED	; 237
     288:	dc 4f       	sbci	r29, 0xFC	; 252
     28a:	18 82       	st	Y, r1
     28c:	c3 51       	subi	r28, 0x13	; 19
     28e:	d3 40       	sbci	r29, 0x03	; 3
     290:	cc 5e       	subi	r28, 0xEC	; 236
     292:	dc 4f       	sbci	r29, 0xFC	; 252
     294:	18 82       	st	Y, r1
     296:	c4 51       	subi	r28, 0x14	; 20
     298:	d3 40       	sbci	r29, 0x03	; 3
     29a:	cb 5e       	subi	r28, 0xEB	; 235
     29c:	dc 4f       	sbci	r29, 0xFC	; 252
     29e:	18 82       	st	Y, r1
     2a0:	c5 51       	subi	r28, 0x15	; 21
     2a2:	d3 40       	sbci	r29, 0x03	; 3
     2a4:	ca 5e       	subi	r28, 0xEA	; 234
     2a6:	dc 4f       	sbci	r29, 0xFC	; 252
     2a8:	18 82       	st	Y, r1
     2aa:	c6 51       	subi	r28, 0x16	; 22
     2ac:	d3 40       	sbci	r29, 0x03	; 3
    int16_t horizontal     = 15;
    int16_t vertikal       = 4;
    uint8_t rechts          = 0;
    uint8_t links           = 0;
    uint8_t oben            = 0;
    uint8_t unten           = 0;
     2ae:	ca 5d       	subi	r28, 0xDA	; 218
     2b0:	dc 4f       	sbci	r29, 0xFC	; 252
     2b2:	18 82       	st	Y, r1
     2b4:	c6 52       	subi	r28, 0x26	; 38
     2b6:	d3 40       	sbci	r29, 0x03	; 3
    uint32_t joystickX      = 0;
    int16_t horizontal     = 15;
    int16_t vertikal       = 4;
    uint8_t rechts          = 0;
    uint8_t links           = 0;
    uint8_t oben            = 0;
     2b8:	ce 5d       	subi	r28, 0xDE	; 222
     2ba:	dc 4f       	sbci	r29, 0xFC	; 252
     2bc:	18 82       	st	Y, r1
     2be:	c2 52       	subi	r28, 0x22	; 34
     2c0:	d3 40       	sbci	r29, 0x03	; 3
    uint32_t joystickY      = 0;
    uint32_t joystickX      = 0;
    int16_t horizontal     = 15;
    int16_t vertikal       = 4;
    uint8_t rechts          = 0;
    uint8_t links           = 0;
     2c2:	c1 5e       	subi	r28, 0xE1	; 225
     2c4:	dc 4f       	sbci	r29, 0xFC	; 252
     2c6:	18 82       	st	Y, r1
     2c8:	cf 51       	subi	r28, 0x1F	; 31
     2ca:	d3 40       	sbci	r29, 0x03	; 3
    
    uint32_t joystickY      = 0;
    uint32_t joystickX      = 0;
    int16_t horizontal     = 15;
    int16_t vertikal       = 4;
    uint8_t rechts          = 0;
     2cc:	cb 5d       	subi	r28, 0xDB	; 219
     2ce:	dc 4f       	sbci	r29, 0xFC	; 252
     2d0:	18 82       	st	Y, r1
     2d2:	c5 52       	subi	r28, 0x25	; 37
     2d4:	d3 40       	sbci	r29, 0x03	; 3
    uint8_t reset           = 0;
    
    uint32_t joystickY      = 0;
    uint32_t joystickX      = 0;
    int16_t horizontal     = 15;
    int16_t vertikal       = 4;
     2d6:	84 e0       	ldi	r24, 0x04	; 4
     2d8:	90 e0       	ldi	r25, 0x00	; 0
     2da:	c0 5e       	subi	r28, 0xE0	; 224
     2dc:	dc 4f       	sbci	r29, 0xFC	; 252
     2de:	99 83       	std	Y+1, r25	; 0x01
     2e0:	88 83       	st	Y, r24
     2e2:	c0 52       	subi	r28, 0x20	; 32
     2e4:	d3 40       	sbci	r29, 0x03	; 3
    uint8_t buttonStart     = 0;
    uint8_t reset           = 0;
    
    uint32_t joystickY      = 0;
    uint32_t joystickX      = 0;
    int16_t horizontal     = 15;
     2e6:	0f 2e       	mov	r0, r31
     2e8:	ff e0       	ldi	r31, 0x0F	; 15
     2ea:	2f 2e       	mov	r2, r31
     2ec:	31 2c       	mov	r3, r1
     2ee:	f0 2d       	mov	r31, r0
        (rgb_color){25, 25, 25}  //weiss
    };
    
    rgb_color leds[LED_COUNT];
    
    uint8_t inTaster        = 0;
     2f0:	10 e0       	ldi	r17, 0x00	; 0
    uint64_t timerStart_ms  = 0;
    uint64_t timerBewegung  = 0;
    
    
    uint16_t randomx        = 0 ;
    uint16_t randomy        = 0 ;
     2f2:	c9 5d       	subi	r28, 0xD9	; 217
     2f4:	dc 4f       	sbci	r29, 0xFC	; 252
     2f6:	19 82       	std	Y+1, r1	; 0x01
     2f8:	18 82       	st	Y, r1
     2fa:	c7 52       	subi	r28, 0x27	; 39
     2fc:	d3 40       	sbci	r29, 0x03	; 3
    
    uint64_t timerStart_ms  = 0;
    uint64_t timerBewegung  = 0;
    
    
    uint16_t randomx        = 0 ;
     2fe:	cd 5d       	subi	r28, 0xDD	; 221
     300:	dc 4f       	sbci	r29, 0xFC	; 252
     302:	19 82       	std	Y+1, r1	; 0x01
     304:	18 82       	st	Y, r1
     306:	c3 52       	subi	r28, 0x23	; 35
     308:	d3 40       	sbci	r29, 0x03	; 3
    
    //Anfangswert f체r Zufallsgenerator setzen, gleicher Anfengswert ergibt die gleiche
    //.. Abfolge von Zufallszahlen. Wir lesen einen offenen (undefinierten) ADC ein
    //.. und setzen somit einen undefinierten (zuf채lligen) Anfangswert.
    
    srandom(adcRead(ADC_00_X4_PORTF_BIT0));
     30a:	41 2c       	mov	r4, r1
     30c:	51 2c       	mov	r5, r1
     30e:	32 01       	movw	r6, r4
     310:	4e 01       	movw	r8, r28
     312:	90 ef       	ldi	r25, 0xF0	; 240
     314:	89 1a       	sub	r8, r25
     316:	9c ef       	ldi	r25, 0xFC	; 252
     318:	99 0a       	sbc	r9, r25
        {
            randomx = random()%31;
            randomy = random()%7;
            while (randomx==horizontal && randomy==vertikal)
            {
                neueFrucht =1;
     31a:	e1 e0       	ldi	r30, 0x01	; 1
     31c:	c7 5d       	subi	r28, 0xD7	; 215
     31e:	dc 4f       	sbci	r29, 0xFC	; 252
     320:	e8 83       	st	Y, r30
     322:	c9 52       	subi	r28, 0x29	; 41
     324:	d3 40       	sbci	r29, 0x03	; 3
     326:	c6 5d       	subi	r28, 0xD6	; 214
     328:	dc 4f       	sbci	r29, 0xFC	; 252
     32a:	18 82       	st	Y, r1
     32c:	ca 52       	subi	r28, 0x2A	; 42
     32e:	d3 40       	sbci	r29, 0x03	; 3
     330:	c5 5d       	subi	r28, 0xD5	; 213
     332:	dc 4f       	sbci	r29, 0xFC	; 252
     334:	18 82       	st	Y, r1
     336:	cb 52       	subi	r28, 0x2B	; 43
     338:	d3 40       	sbci	r29, 0x03	; 3
     33a:	c4 5d       	subi	r28, 0xD4	; 212
     33c:	dc 4f       	sbci	r29, 0xFC	; 252
     33e:	18 82       	st	Y, r1
     340:	cc 52       	subi	r28, 0x2C	; 44
     342:	d3 40       	sbci	r29, 0x03	; 3
     344:	be 2c       	mov	r11, r14
     346:	af 2c       	mov	r10, r15
     348:	4d c0       	rjmp	.+154    	; 0x3e4 <main+0x268>
    {
        //Eingabe------------------------------------------------------------------
        
        if (neueFrucht)
        {
            randomx = random()%31;
     34a:	0e 94 97 0b 	call	0x172e	; 0x172e <random>
     34e:	2f e1       	ldi	r18, 0x1F	; 31
     350:	30 e0       	ldi	r19, 0x00	; 0
     352:	40 e0       	ldi	r20, 0x00	; 0
     354:	50 e0       	ldi	r21, 0x00	; 0
     356:	0e 94 9b 0a 	call	0x1536	; 0x1536 <__divmodsi4>
     35a:	cd 5d       	subi	r28, 0xDD	; 221
     35c:	dc 4f       	sbci	r29, 0xFC	; 252
     35e:	79 83       	std	Y+1, r23	; 0x01
     360:	68 83       	st	Y, r22
     362:	c3 52       	subi	r28, 0x23	; 35
     364:	d3 40       	sbci	r29, 0x03	; 3
            randomy = random()%7;
     366:	0e 94 97 0b 	call	0x172e	; 0x172e <random>
     36a:	27 e0       	ldi	r18, 0x07	; 7
     36c:	30 e0       	ldi	r19, 0x00	; 0
     36e:	40 e0       	ldi	r20, 0x00	; 0
     370:	50 e0       	ldi	r21, 0x00	; 0
     372:	0e 94 9b 0a 	call	0x1536	; 0x1536 <__divmodsi4>
     376:	c9 5d       	subi	r28, 0xD9	; 217
     378:	dc 4f       	sbci	r29, 0xFC	; 252
     37a:	79 83       	std	Y+1, r23	; 0x01
     37c:	68 83       	st	Y, r22
     37e:	c7 52       	subi	r28, 0x27	; 39
     380:	d3 40       	sbci	r29, 0x03	; 3
     382:	cd 5d       	subi	r28, 0xDD	; 221
     384:	dc 4f       	sbci	r29, 0xFC	; 252
     386:	88 81       	ld	r24, Y
     388:	99 81       	ldd	r25, Y+1	; 0x01
     38a:	c3 52       	subi	r28, 0x23	; 35
     38c:	d3 40       	sbci	r29, 0x03	; 3
     38e:	9b 01       	movw	r18, r22
     390:	c0 5e       	subi	r28, 0xE0	; 224
     392:	dc 4f       	sbci	r29, 0xFC	; 252
     394:	48 81       	ld	r20, Y
     396:	59 81       	ldd	r21, Y+1	; 0x01
     398:	c0 52       	subi	r28, 0x20	; 32
     39a:	d3 40       	sbci	r29, 0x03	; 3
     39c:	c7 5d       	subi	r28, 0xD7	; 215
     39e:	dc 4f       	sbci	r29, 0xFC	; 252
     3a0:	68 81       	ld	r22, Y
     3a2:	c9 52       	subi	r28, 0x29	; 41
     3a4:	d3 40       	sbci	r29, 0x03	; 3
     3a6:	c6 5d       	subi	r28, 0xD6	; 214
     3a8:	dc 4f       	sbci	r29, 0xFC	; 252
     3aa:	78 81       	ld	r23, Y
     3ac:	ca 52       	subi	r28, 0x2A	; 42
     3ae:	d3 40       	sbci	r29, 0x03	; 3
     3b0:	c5 5d       	subi	r28, 0xD5	; 213
     3b2:	dc 4f       	sbci	r29, 0xFC	; 252
     3b4:	e8 81       	ld	r30, Y
     3b6:	cb 52       	subi	r28, 0x2B	; 43
     3b8:	d3 40       	sbci	r29, 0x03	; 3
     3ba:	c4 5d       	subi	r28, 0xD4	; 212
     3bc:	dc 4f       	sbci	r29, 0xFC	; 252
     3be:	f8 81       	ld	r31, Y
     3c0:	cc 52       	subi	r28, 0x2C	; 44
     3c2:	d3 40       	sbci	r29, 0x03	; 3
            while (randomx==horizontal && randomy==vertikal)
     3c4:	04 c0       	rjmp	.+8      	; 0x3ce <main+0x252>
            {
                neueFrucht =1;
     3c6:	46 2e       	mov	r4, r22
     3c8:	57 2e       	mov	r5, r23
     3ca:	6e 2e       	mov	r6, r30
     3cc:	7f 2e       	mov	r7, r31
        
        if (neueFrucht)
        {
            randomx = random()%31;
            randomy = random()%7;
            while (randomx==horizontal && randomy==vertikal)
     3ce:	82 15       	cp	r24, r2
     3d0:	93 05       	cpc	r25, r3
     3d2:	19 f4       	brne	.+6      	; 0x3da <main+0x25e>
     3d4:	24 17       	cp	r18, r20
     3d6:	35 07       	cpc	r19, r21
     3d8:	b1 f3       	breq	.-20     	; 0x3c6 <main+0x24a>
            }
        }
        
        
        inTasterAlt = inTaster;                                                                                 //Alter Buttonzustand
        inTaster    = buttonReadAllPL();                                                                           //Neuer Buttonzustand
     3da:	cf 5e       	subi	r28, 0xEF	; 239
     3dc:	dc 4f       	sbci	r29, 0xFC	; 252
     3de:	18 81       	ld	r17, Y
     3e0:	c1 51       	subi	r28, 0x11	; 17
     3e2:	d3 40       	sbci	r29, 0x03	; 3
     3e4:	16 d5       	rcall	.+2604   	; 0xe12 <buttonReadAllPL>
     3e6:	cf 5e       	subi	r28, 0xEF	; 239
     3e8:	dc 4f       	sbci	r29, 0xFC	; 252
     3ea:	88 83       	st	Y, r24
     3ec:	c1 51       	subi	r28, 0x11	; 17
     3ee:	d3 40       	sbci	r29, 0x03	; 3
        posFlanken  = (inTaster ^ inTasterAlt) & inTaster;                                                       //Positive Flanken aus altem und neuem Buttonzustand auslessen
     3f0:	10 95       	com	r17
        buttonStart = posFlanken & IN_MASKE_BUTTON_START;
        reset = posFlanken & IN_MASKE_BUTTON_RESET;
        joystickY   = adcRead(ADC_11_JOYSTICK_Y);
     3f2:	18 23       	and	r17, r24
     3f4:	8b e0       	ldi	r24, 0x0B	; 11
     3f6:	3b d5       	rcall	.+2678   	; 0xe6e <adcRead>
     3f8:	6c 01       	movw	r12, r24
     3fa:	e1 2c       	mov	r14, r1
        joystickX   = adcRead(ADC_10_JOYSTICK_X);
     3fc:	f1 2c       	mov	r15, r1
     3fe:	8a e0       	ldi	r24, 0x0A	; 10
     400:	36 d5       	rcall	.+2668   	; 0xe6e <adcRead>
     402:	a0 e0       	ldi	r26, 0x00	; 0
     404:	b0 e0       	ldi	r27, 0x00	; 0
        
        //Verarbeitung-------------------------------------------------------------
        if (reset)
     406:	11 ff       	sbrs	r17, 1
     408:	06 c0       	rjmp	.+12     	; 0x416 <__LOCK_REGION_LENGTH__+0x16>
        {
            state = SNAKE;
     40a:	21 e0       	ldi	r18, 0x01	; 1
     40c:	c0 5f       	subi	r28, 0xF0	; 240
     40e:	dc 4f       	sbci	r29, 0xFC	; 252
     410:	28 83       	st	Y, r18
     412:	c0 51       	subi	r28, 0x10	; 16
     414:	d3 40       	sbci	r29, 0x03	; 3
        }
        if (joystickX >= 850)
     416:	82 35       	cpi	r24, 0x52	; 82
     418:	e3 e0       	ldi	r30, 0x03	; 3
     41a:	9e 07       	cpc	r25, r30
     41c:	a1 05       	cpc	r26, r1
     41e:	b1 05       	cpc	r27, r1
     420:	d8 f4       	brcc	.+54     	; 0x458 <__LOCK_REGION_LENGTH__+0x58>
            rechts =1;
            links =0;
            unten =0;
            oben =0;
        }
        else if (joystickX <= 200)
     422:	89 3c       	cpi	r24, 0xC9	; 201
     424:	91 05       	cpc	r25, r1
     426:	a1 05       	cpc	r26, r1
     428:	b1 05       	cpc	r27, r1
     42a:	58 f5       	brcc	.+86     	; 0x482 <__LOCK_REGION_LENGTH__+0x82>
        {
            links=1;
            rechts=0;
            unten =0;
     42c:	ca 5d       	subi	r28, 0xDA	; 218
     42e:	dc 4f       	sbci	r29, 0xFC	; 252
     430:	18 82       	st	Y, r1
     432:	c6 52       	subi	r28, 0x26	; 38
     434:	d3 40       	sbci	r29, 0x03	; 3
            oben =0;
     436:	ce 5d       	subi	r28, 0xDE	; 222
     438:	dc 4f       	sbci	r29, 0xFC	; 252
     43a:	18 82       	st	Y, r1
     43c:	c2 52       	subi	r28, 0x22	; 34
     43e:	d3 40       	sbci	r29, 0x03	; 3
            unten =0;
            oben =0;
        }
        else if (joystickX <= 200)
        {
            links=1;
     440:	21 e0       	ldi	r18, 0x01	; 1
     442:	c1 5e       	subi	r28, 0xE1	; 225
     444:	dc 4f       	sbci	r29, 0xFC	; 252
     446:	28 83       	st	Y, r18
     448:	cf 51       	subi	r28, 0x1F	; 31
     44a:	d3 40       	sbci	r29, 0x03	; 3
            rechts=0;
     44c:	cb 5d       	subi	r28, 0xDB	; 219
     44e:	dc 4f       	sbci	r29, 0xFC	; 252
     450:	18 82       	st	Y, r1
     452:	c5 52       	subi	r28, 0x25	; 37
     454:	d3 40       	sbci	r29, 0x03	; 3
     456:	15 c0       	rjmp	.+42     	; 0x482 <__LOCK_REGION_LENGTH__+0x82>
        }
        if (joystickX >= 850)
        {
            rechts =1;
            links =0;
            unten =0;
     458:	ca 5d       	subi	r28, 0xDA	; 218
     45a:	dc 4f       	sbci	r29, 0xFC	; 252
     45c:	18 82       	st	Y, r1
     45e:	c6 52       	subi	r28, 0x26	; 38
     460:	d3 40       	sbci	r29, 0x03	; 3
            oben =0;
     462:	ce 5d       	subi	r28, 0xDE	; 222
     464:	dc 4f       	sbci	r29, 0xFC	; 252
     466:	18 82       	st	Y, r1
     468:	c2 52       	subi	r28, 0x22	; 34
     46a:	d3 40       	sbci	r29, 0x03	; 3
            state = SNAKE;
        }
        if (joystickX >= 850)
        {
            rechts =1;
            links =0;
     46c:	c1 5e       	subi	r28, 0xE1	; 225
     46e:	dc 4f       	sbci	r29, 0xFC	; 252
     470:	18 82       	st	Y, r1
     472:	cf 51       	subi	r28, 0x1F	; 31
     474:	d3 40       	sbci	r29, 0x03	; 3
        {
            state = SNAKE;
        }
        if (joystickX >= 850)
        {
            rechts =1;
     476:	81 e0       	ldi	r24, 0x01	; 1
     478:	cb 5d       	subi	r28, 0xDB	; 219
     47a:	dc 4f       	sbci	r29, 0xFC	; 252
     47c:	88 83       	st	Y, r24
     47e:	c5 52       	subi	r28, 0x25	; 37
     480:	d3 40       	sbci	r29, 0x03	; 3
            links=1;
            rechts=0;
            unten =0;
            oben =0;
        }
        if (joystickY <= 200)
     482:	99 ec       	ldi	r25, 0xC9	; 201
     484:	c9 16       	cp	r12, r25
     486:	d1 04       	cpc	r13, r1
     488:	e1 04       	cpc	r14, r1
     48a:	f1 04       	cpc	r15, r1
     48c:	e8 f0       	brcs	.+58     	; 0x4c8 <__LOCK_REGION_LENGTH__+0xc8>
            oben = 1;
            unten = 0;
            links=0;
            rechts=0;
        }
        else if (joystickY >= 850)
     48e:	e2 e5       	ldi	r30, 0x52	; 82
     490:	ce 16       	cp	r12, r30
     492:	e3 e0       	ldi	r30, 0x03	; 3
     494:	de 06       	cpc	r13, r30
     496:	e1 04       	cpc	r14, r1
     498:	f1 04       	cpc	r15, r1
     49a:	58 f1       	brcs	.+86     	; 0x4f2 <__LOCK_REGION_LENGTH__+0xf2>
        {
            oben = 0;
            unten = 1;
     49c:	21 e0       	ldi	r18, 0x01	; 1
     49e:	ca 5d       	subi	r28, 0xDA	; 218
     4a0:	dc 4f       	sbci	r29, 0xFC	; 252
     4a2:	28 83       	st	Y, r18
     4a4:	c6 52       	subi	r28, 0x26	; 38
     4a6:	d3 40       	sbci	r29, 0x03	; 3
            links=0;
            rechts=0;
        }
        else if (joystickY >= 850)
        {
            oben = 0;
     4a8:	ce 5d       	subi	r28, 0xDE	; 222
     4aa:	dc 4f       	sbci	r29, 0xFC	; 252
     4ac:	18 82       	st	Y, r1
     4ae:	c2 52       	subi	r28, 0x22	; 34
     4b0:	d3 40       	sbci	r29, 0x03	; 3
            unten = 1;
            links=0;
     4b2:	c1 5e       	subi	r28, 0xE1	; 225
     4b4:	dc 4f       	sbci	r29, 0xFC	; 252
     4b6:	18 82       	st	Y, r1
     4b8:	cf 51       	subi	r28, 0x1F	; 31
     4ba:	d3 40       	sbci	r29, 0x03	; 3
            rechts=0;
     4bc:	cb 5d       	subi	r28, 0xDB	; 219
     4be:	dc 4f       	sbci	r29, 0xFC	; 252
     4c0:	18 82       	st	Y, r1
     4c2:	c5 52       	subi	r28, 0x25	; 37
     4c4:	d3 40       	sbci	r29, 0x03	; 3
     4c6:	15 c0       	rjmp	.+42     	; 0x4f2 <__LOCK_REGION_LENGTH__+0xf2>
            oben =0;
        }
        if (joystickY <= 200)
        {
            oben = 1;
            unten = 0;
     4c8:	ca 5d       	subi	r28, 0xDA	; 218
     4ca:	dc 4f       	sbci	r29, 0xFC	; 252
     4cc:	18 82       	st	Y, r1
     4ce:	c6 52       	subi	r28, 0x26	; 38
     4d0:	d3 40       	sbci	r29, 0x03	; 3
            unten =0;
            oben =0;
        }
        if (joystickY <= 200)
        {
            oben = 1;
     4d2:	81 e0       	ldi	r24, 0x01	; 1
     4d4:	ce 5d       	subi	r28, 0xDE	; 222
     4d6:	dc 4f       	sbci	r29, 0xFC	; 252
     4d8:	88 83       	st	Y, r24
     4da:	c2 52       	subi	r28, 0x22	; 34
     4dc:	d3 40       	sbci	r29, 0x03	; 3
            unten = 0;
            links=0;
     4de:	c1 5e       	subi	r28, 0xE1	; 225
     4e0:	dc 4f       	sbci	r29, 0xFC	; 252
     4e2:	18 82       	st	Y, r1
     4e4:	cf 51       	subi	r28, 0x1F	; 31
     4e6:	d3 40       	sbci	r29, 0x03	; 3
            rechts=0;
     4e8:	cb 5d       	subi	r28, 0xDB	; 219
     4ea:	dc 4f       	sbci	r29, 0xFC	; 252
     4ec:	18 82       	st	Y, r1
     4ee:	c5 52       	subi	r28, 0x25	; 37
     4f0:	d3 40       	sbci	r29, 0x03	; 3
            unten = 1;
            links=0;
            rechts=0;
        }

        switch (state)
     4f2:	c0 5f       	subi	r28, 0xF0	; 240
     4f4:	dc 4f       	sbci	r29, 0xFC	; 252
     4f6:	98 81       	ld	r25, Y
     4f8:	c0 51       	subi	r28, 0x10	; 16
     4fa:	d3 40       	sbci	r29, 0x03	; 3
     4fc:	91 30       	cpi	r25, 0x01	; 1
     4fe:	31 f0       	breq	.+12     	; 0x50c <__LOCK_REGION_LENGTH__+0x10c>
     500:	08 f4       	brcc	.+2      	; 0x504 <__LOCK_REGION_LENGTH__+0x104>
     502:	8e c0       	rjmp	.+284    	; 0x620 <__LOCK_REGION_LENGTH__+0x220>
     504:	92 30       	cpi	r25, 0x02	; 2
     506:	09 f4       	brne	.+2      	; 0x50a <__LOCK_REGION_LENGTH__+0x10a>
     508:	c0 c0       	rjmp	.+384    	; 0x68a <__LOCK_REGION_LENGTH__+0x28a>
     50a:	5d c3       	rjmp	.+1722   	; 0xbc6 <__LOCK_REGION_LENGTH__+0x7c6>
     50c:	fe 01       	movw	r30, r28
     50e:	70 96       	adiw	r30, 0x10	; 16
            case SNAKE:
            timerBewegung =0;
            timerStart_ms =0;
            for (uint16_t i=0; i<LED_COUNT; i++)
            {
                leds[i] = (rgb_color){0,0,0};
     510:	10 82       	st	Z, r1
     512:	11 82       	std	Z+1, r1	; 0x01
     514:	12 82       	std	Z+2, r1	; 0x02
     516:	33 96       	adiw	r30, 0x03	; 3
        switch (state)
        {
            case SNAKE:
            timerBewegung =0;
            timerStart_ms =0;
            for (uint16_t i=0; i<LED_COUNT; i++)
     518:	8e 16       	cp	r8, r30
     51a:	9f 06       	cpc	r9, r31
     51c:	c9 f7       	brne	.-14     	; 0x510 <__LOCK_REGION_LENGTH__+0x110>
            {
                leds[i] = (rgb_color){0,0,0};
            }
            punktzahl=0;
            lcdWriteText(1,3,"    SNAKE  ");
     51e:	8c e0       	ldi	r24, 0x0C	; 12
     520:	92 e0       	ldi	r25, 0x02	; 2
     522:	9f 93       	push	r25
     524:	8f 93       	push	r24
     526:	83 e0       	ldi	r24, 0x03	; 3
     528:	8f 93       	push	r24
     52a:	01 e0       	ldi	r16, 0x01	; 1
     52c:	0f 93       	push	r16
     52e:	8e d5       	rcall	.+2844   	; 0x104c <lcdWriteText>
            if (buttonStart)
            {
                state = START;
     530:	10 27       	eor	r17, r16
     532:	11 70       	andi	r17, 0x01	; 1
     534:	c0 5f       	subi	r28, 0xF0	; 240
     536:	dc 4f       	sbci	r29, 0xFC	; 252
     538:	18 83       	st	Y, r17
     53a:	c0 51       	subi	r28, 0x10	; 16
     53c:	d3 40       	sbci	r29, 0x03	; 3
     53e:	0f 90       	pop	r0
     540:	0f 90       	pop	r0
     542:	0f 90       	pop	r0
     544:	0f 90       	pop	r0
            timerStart_ms =0;
            for (uint16_t i=0; i<LED_COUNT; i++)
            {
                leds[i] = (rgb_color){0,0,0};
            }
            punktzahl=0;
     546:	c3 5d       	subi	r28, 0xD3	; 211
     548:	dc 4f       	sbci	r29, 0xFC	; 252
     54a:	18 82       	st	Y, r1
     54c:	cd 52       	subi	r28, 0x2D	; 45
     54e:	d3 40       	sbci	r29, 0x03	; 3
     550:	c2 5d       	subi	r28, 0xD2	; 210
     552:	dc 4f       	sbci	r29, 0xFC	; 252
     554:	18 82       	st	Y, r1
     556:	ce 52       	subi	r28, 0x2E	; 46
     558:	d3 40       	sbci	r29, 0x03	; 3
     55a:	c1 5d       	subi	r28, 0xD1	; 209
     55c:	dc 4f       	sbci	r29, 0xFC	; 252
     55e:	18 82       	st	Y, r1
     560:	cf 52       	subi	r28, 0x2F	; 47
     562:	d3 40       	sbci	r29, 0x03	; 3
     564:	c0 5d       	subi	r28, 0xD0	; 208
     566:	dc 4f       	sbci	r29, 0xFC	; 252
     568:	18 82       	st	Y, r1
     56a:	c0 53       	subi	r28, 0x30	; 48
     56c:	d3 40       	sbci	r29, 0x03	; 3
     56e:	cf 5c       	subi	r28, 0xCF	; 207
     570:	dc 4f       	sbci	r29, 0xFC	; 252
     572:	18 82       	st	Y, r1
     574:	c1 53       	subi	r28, 0x31	; 49
     576:	d3 40       	sbci	r29, 0x03	; 3
     578:	ce 5c       	subi	r28, 0xCE	; 206
     57a:	dc 4f       	sbci	r29, 0xFC	; 252
     57c:	18 82       	st	Y, r1
     57e:	c2 53       	subi	r28, 0x32	; 50
     580:	d3 40       	sbci	r29, 0x03	; 3
     582:	cd 5c       	subi	r28, 0xCD	; 205
     584:	dc 4f       	sbci	r29, 0xFC	; 252
     586:	18 82       	st	Y, r1
     588:	c3 53       	subi	r28, 0x33	; 51
     58a:	d3 40       	sbci	r29, 0x03	; 3
     58c:	cc 5c       	subi	r28, 0xCC	; 204
     58e:	dc 4f       	sbci	r29, 0xFC	; 252
     590:	18 82       	st	Y, r1
     592:	c4 53       	subi	r28, 0x34	; 52
     594:	d3 40       	sbci	r29, 0x03	; 3
        }

        switch (state)
        {
            case SNAKE:
            timerBewegung =0;
     596:	c9 5e       	subi	r28, 0xE9	; 233
     598:	dc 4f       	sbci	r29, 0xFC	; 252
     59a:	18 82       	st	Y, r1
     59c:	c7 51       	subi	r28, 0x17	; 23
     59e:	d3 40       	sbci	r29, 0x03	; 3
     5a0:	c8 5e       	subi	r28, 0xE8	; 232
     5a2:	dc 4f       	sbci	r29, 0xFC	; 252
     5a4:	18 82       	st	Y, r1
     5a6:	c8 51       	subi	r28, 0x18	; 24
     5a8:	d3 40       	sbci	r29, 0x03	; 3
     5aa:	c7 5e       	subi	r28, 0xE7	; 231
     5ac:	dc 4f       	sbci	r29, 0xFC	; 252
     5ae:	18 82       	st	Y, r1
     5b0:	c9 51       	subi	r28, 0x19	; 25
     5b2:	d3 40       	sbci	r29, 0x03	; 3
     5b4:	c6 5e       	subi	r28, 0xE6	; 230
     5b6:	dc 4f       	sbci	r29, 0xFC	; 252
     5b8:	18 82       	st	Y, r1
     5ba:	ca 51       	subi	r28, 0x1A	; 26
     5bc:	d3 40       	sbci	r29, 0x03	; 3
     5be:	c5 5e       	subi	r28, 0xE5	; 229
     5c0:	dc 4f       	sbci	r29, 0xFC	; 252
     5c2:	18 82       	st	Y, r1
     5c4:	cb 51       	subi	r28, 0x1B	; 27
     5c6:	d3 40       	sbci	r29, 0x03	; 3
     5c8:	c4 5e       	subi	r28, 0xE4	; 228
     5ca:	dc 4f       	sbci	r29, 0xFC	; 252
     5cc:	18 82       	st	Y, r1
     5ce:	cc 51       	subi	r28, 0x1C	; 28
     5d0:	d3 40       	sbci	r29, 0x03	; 3
     5d2:	c3 5e       	subi	r28, 0xE3	; 227
     5d4:	dc 4f       	sbci	r29, 0xFC	; 252
     5d6:	18 82       	st	Y, r1
     5d8:	cd 51       	subi	r28, 0x1D	; 29
     5da:	d3 40       	sbci	r29, 0x03	; 3
     5dc:	c2 5e       	subi	r28, 0xE2	; 226
     5de:	dc 4f       	sbci	r29, 0xFC	; 252
     5e0:	18 82       	st	Y, r1
     5e2:	ce 51       	subi	r28, 0x1E	; 30
     5e4:	d3 40       	sbci	r29, 0x03	; 3
            timerStart_ms =0;
     5e6:	b1 2c       	mov	r11, r1
     5e8:	a1 2c       	mov	r10, r1
     5ea:	00 e0       	ldi	r16, 0x00	; 0
     5ec:	ce 5e       	subi	r28, 0xEE	; 238
     5ee:	dc 4f       	sbci	r29, 0xFC	; 252
     5f0:	18 82       	st	Y, r1
     5f2:	c2 51       	subi	r28, 0x12	; 18
     5f4:	d3 40       	sbci	r29, 0x03	; 3
     5f6:	cd 5e       	subi	r28, 0xED	; 237
     5f8:	dc 4f       	sbci	r29, 0xFC	; 252
     5fa:	18 82       	st	Y, r1
     5fc:	c3 51       	subi	r28, 0x13	; 19
     5fe:	d3 40       	sbci	r29, 0x03	; 3
     600:	cc 5e       	subi	r28, 0xEC	; 236
     602:	dc 4f       	sbci	r29, 0xFC	; 252
     604:	18 82       	st	Y, r1
     606:	c4 51       	subi	r28, 0x14	; 20
     608:	d3 40       	sbci	r29, 0x03	; 3
     60a:	cb 5e       	subi	r28, 0xEB	; 235
     60c:	dc 4f       	sbci	r29, 0xFC	; 252
     60e:	18 82       	st	Y, r1
     610:	c5 51       	subi	r28, 0x15	; 21
     612:	d3 40       	sbci	r29, 0x03	; 3
     614:	ca 5e       	subi	r28, 0xEA	; 234
     616:	dc 4f       	sbci	r29, 0xFC	; 252
     618:	18 82       	st	Y, r1
     61a:	c6 51       	subi	r28, 0x16	; 22
     61c:	d3 40       	sbci	r29, 0x03	; 3
     61e:	d3 c2       	rjmp	.+1446   	; 0xbc6 <__LOCK_REGION_LENGTH__+0x7c6>
            break;
            
            case START:
            neueFrucht = 1;
            timerBewegung =0;
            lcdWriteText(1,7,"START");
     620:	88 e1       	ldi	r24, 0x18	; 24
     622:	92 e0       	ldi	r25, 0x02	; 2
     624:	9f 93       	push	r25
     626:	8f 93       	push	r24
     628:	87 e0       	ldi	r24, 0x07	; 7
     62a:	8f 93       	push	r24
     62c:	81 e0       	ldi	r24, 0x01	; 1
     62e:	8f 93       	push	r24
     630:	0d d5       	rcall	.+2586   	; 0x104c <lcdWriteText>
            if (timerStart_ms >= TIME_START)
     632:	0f 90       	pop	r0
     634:	0f 90       	pop	r0
     636:	0f 90       	pop	r0
     638:	0f 90       	pop	r0
     63a:	2b 2d       	mov	r18, r11
     63c:	3a 2d       	mov	r19, r10
     63e:	40 2f       	mov	r20, r16
     640:	ce 5e       	subi	r28, 0xEE	; 238
     642:	dc 4f       	sbci	r29, 0xFC	; 252
     644:	58 81       	ld	r21, Y
     646:	c2 51       	subi	r28, 0x12	; 18
     648:	d3 40       	sbci	r29, 0x03	; 3
     64a:	cd 5e       	subi	r28, 0xED	; 237
     64c:	dc 4f       	sbci	r29, 0xFC	; 252
     64e:	68 81       	ld	r22, Y
     650:	c3 51       	subi	r28, 0x13	; 19
     652:	d3 40       	sbci	r29, 0x03	; 3
     654:	cc 5e       	subi	r28, 0xEC	; 236
     656:	dc 4f       	sbci	r29, 0xFC	; 252
     658:	78 81       	ld	r23, Y
     65a:	c4 51       	subi	r28, 0x14	; 20
     65c:	d3 40       	sbci	r29, 0x03	; 3
     65e:	cb 5e       	subi	r28, 0xEB	; 235
     660:	dc 4f       	sbci	r29, 0xFC	; 252
     662:	88 81       	ld	r24, Y
     664:	c5 51       	subi	r28, 0x15	; 21
     666:	d3 40       	sbci	r29, 0x03	; 3
     668:	ca 5e       	subi	r28, 0xEA	; 234
     66a:	dc 4f       	sbci	r29, 0xFC	; 252
     66c:	98 81       	ld	r25, Y
     66e:	c6 51       	subi	r28, 0x16	; 22
     670:	d3 40       	sbci	r29, 0x03	; 3
     672:	2b 3b       	cpi	r18, 0xBB	; 187
     674:	32 40       	sbci	r19, 0x02	; 2
     676:	41 05       	cpc	r20, r1
     678:	51 05       	cpc	r21, r1
     67a:	61 05       	cpc	r22, r1
     67c:	71 05       	cpc	r23, r1
     67e:	81 05       	cpc	r24, r1
     680:	91 05       	cpc	r25, r1
     682:	11 f0       	breq	.+4      	; 0x688 <__LOCK_REGION_LENGTH__+0x288>
     684:	08 f0       	brcs	.+2      	; 0x688 <__LOCK_REGION_LENGTH__+0x288>
     686:	4a c3       	rjmp	.+1684   	; 0xd1c <__LOCK_REGION_LENGTH__+0x91c>
     688:	4f c3       	rjmp	.+1694   	; 0xd28 <__LOCK_REGION_LENGTH__+0x928>
            break;
            
            case JOYSTICK:
            timerStart_ms = 0;
            
            lcdWriteText(1,7,"       ");
     68a:	8e e1       	ldi	r24, 0x1E	; 30
     68c:	92 e0       	ldi	r25, 0x02	; 2
     68e:	9f 93       	push	r25
     690:	8f 93       	push	r24
     692:	87 e0       	ldi	r24, 0x07	; 7
     694:	8f 93       	push	r24
     696:	81 e0       	ldi	r24, 0x01	; 1
     698:	8f 93       	push	r24
     69a:	d8 d4       	rcall	.+2480   	; 0x104c <lcdWriteText>
            led_stripe_set_pixel(horizontal,vertikal,(rgb_color){0,0,0},leds);
     69c:	8e 01       	movw	r16, r28
     69e:	00 5f       	subi	r16, 0xF0	; 240
     6a0:	1f 4f       	sbci	r17, 0xFF	; 255
     6a2:	20 e0       	ldi	r18, 0x00	; 0
     6a4:	30 e0       	ldi	r19, 0x00	; 0
     6a6:	40 e0       	ldi	r20, 0x00	; 0
     6a8:	c0 5e       	subi	r28, 0xE0	; 224
     6aa:	dc 4f       	sbci	r29, 0xFC	; 252
     6ac:	68 81       	ld	r22, Y
     6ae:	79 81       	ldd	r23, Y+1	; 0x01
     6b0:	c0 52       	subi	r28, 0x20	; 32
     6b2:	d3 40       	sbci	r29, 0x03	; 3
     6b4:	c1 01       	movw	r24, r2
     6b6:	37 dd       	rcall	.-1426   	; 0x126 <led_stripe_set_pixel>
            if (links&&!(timerBewegung%100))
     6b8:	0f 90       	pop	r0
     6ba:	0f 90       	pop	r0
     6bc:	0f 90       	pop	r0
     6be:	0f 90       	pop	r0
     6c0:	c1 5e       	subi	r28, 0xE1	; 225
     6c2:	dc 4f       	sbci	r29, 0xFC	; 252
     6c4:	28 81       	ld	r18, Y
     6c6:	cf 51       	subi	r28, 0x1F	; 31
     6c8:	d3 40       	sbci	r29, 0x03	; 3
     6ca:	22 23       	and	r18, r18
     6cc:	09 f4       	brne	.+2      	; 0x6d0 <__LOCK_REGION_LENGTH__+0x2d0>
     6ce:	42 c0       	rjmp	.+132    	; 0x754 <__LOCK_REGION_LENGTH__+0x354>
     6d0:	0f 2e       	mov	r0, r31
     6d2:	f4 e6       	ldi	r31, 0x64	; 100
     6d4:	af 2e       	mov	r10, r31
     6d6:	f0 2d       	mov	r31, r0
     6d8:	b1 2c       	mov	r11, r1
     6da:	c1 2c       	mov	r12, r1
     6dc:	d1 2c       	mov	r13, r1
     6de:	e1 2c       	mov	r14, r1
     6e0:	f1 2c       	mov	r15, r1
     6e2:	00 e0       	ldi	r16, 0x00	; 0
     6e4:	10 e0       	ldi	r17, 0x00	; 0
     6e6:	c9 5e       	subi	r28, 0xE9	; 233
     6e8:	dc 4f       	sbci	r29, 0xFC	; 252
     6ea:	28 81       	ld	r18, Y
     6ec:	c7 51       	subi	r28, 0x17	; 23
     6ee:	d3 40       	sbci	r29, 0x03	; 3
     6f0:	c8 5e       	subi	r28, 0xE8	; 232
     6f2:	dc 4f       	sbci	r29, 0xFC	; 252
     6f4:	38 81       	ld	r19, Y
     6f6:	c8 51       	subi	r28, 0x18	; 24
     6f8:	d3 40       	sbci	r29, 0x03	; 3
     6fa:	c7 5e       	subi	r28, 0xE7	; 231
     6fc:	dc 4f       	sbci	r29, 0xFC	; 252
     6fe:	48 81       	ld	r20, Y
     700:	c9 51       	subi	r28, 0x19	; 25
     702:	d3 40       	sbci	r29, 0x03	; 3
     704:	c6 5e       	subi	r28, 0xE6	; 230
     706:	dc 4f       	sbci	r29, 0xFC	; 252
     708:	58 81       	ld	r21, Y
     70a:	ca 51       	subi	r28, 0x1A	; 26
     70c:	d3 40       	sbci	r29, 0x03	; 3
     70e:	c5 5e       	subi	r28, 0xE5	; 229
     710:	dc 4f       	sbci	r29, 0xFC	; 252
     712:	68 81       	ld	r22, Y
     714:	cb 51       	subi	r28, 0x1B	; 27
     716:	d3 40       	sbci	r29, 0x03	; 3
     718:	c4 5e       	subi	r28, 0xE4	; 228
     71a:	dc 4f       	sbci	r29, 0xFC	; 252
     71c:	78 81       	ld	r23, Y
     71e:	cc 51       	subi	r28, 0x1C	; 28
     720:	d3 40       	sbci	r29, 0x03	; 3
     722:	c3 5e       	subi	r28, 0xE3	; 227
     724:	dc 4f       	sbci	r29, 0xFC	; 252
     726:	88 81       	ld	r24, Y
     728:	cd 51       	subi	r28, 0x1D	; 29
     72a:	d3 40       	sbci	r29, 0x03	; 3
     72c:	c2 5e       	subi	r28, 0xE2	; 226
     72e:	dc 4f       	sbci	r29, 0xFC	; 252
     730:	98 81       	ld	r25, Y
     732:	ce 51       	subi	r28, 0x1E	; 30
     734:	d3 40       	sbci	r29, 0x03	; 3
     736:	1b d7       	rcall	.+3638   	; 0x156e <__umoddi3>
     738:	a0 e0       	ldi	r26, 0x00	; 0
     73a:	83 d7       	rcall	.+3846   	; 0x1642 <__cmpdi2_s8>
     73c:	59 f4       	brne	.+22     	; 0x754 <__LOCK_REGION_LENGTH__+0x354>
            {
                horizontal = horizontal -1;
     73e:	81 e0       	ldi	r24, 0x01	; 1
     740:	28 1a       	sub	r2, r24
     742:	31 08       	sbc	r3, r1
                if ( horizontal < 0)
     744:	0a f0       	brmi	.+2      	; 0x748 <__LOCK_REGION_LENGTH__+0x348>
     746:	da c2       	rjmp	.+1460   	; 0xcfc <__LOCK_REGION_LENGTH__+0x8fc>
                {
                    horizontal = 31;
     748:	0f 2e       	mov	r0, r31
     74a:	ff e1       	ldi	r31, 0x1F	; 31
     74c:	2f 2e       	mov	r2, r31
     74e:	31 2c       	mov	r3, r1
     750:	f0 2d       	mov	r31, r0
     752:	d4 c2       	rjmp	.+1448   	; 0xcfc <__LOCK_REGION_LENGTH__+0x8fc>
                }
            }
            else if (rechts&&!(timerBewegung%100))
     754:	cb 5d       	subi	r28, 0xDB	; 219
     756:	dc 4f       	sbci	r29, 0xFC	; 252
     758:	98 81       	ld	r25, Y
     75a:	c5 52       	subi	r28, 0x25	; 37
     75c:	d3 40       	sbci	r29, 0x03	; 3
     75e:	99 23       	and	r25, r25
     760:	09 f4       	brne	.+2      	; 0x764 <__LOCK_REGION_LENGTH__+0x364>
     762:	43 c0       	rjmp	.+134    	; 0x7ea <__LOCK_REGION_LENGTH__+0x3ea>
     764:	0f 2e       	mov	r0, r31
     766:	f4 e6       	ldi	r31, 0x64	; 100
     768:	af 2e       	mov	r10, r31
     76a:	f0 2d       	mov	r31, r0
     76c:	b1 2c       	mov	r11, r1
     76e:	c1 2c       	mov	r12, r1
     770:	d1 2c       	mov	r13, r1
     772:	e1 2c       	mov	r14, r1
     774:	f1 2c       	mov	r15, r1
     776:	00 e0       	ldi	r16, 0x00	; 0
     778:	10 e0       	ldi	r17, 0x00	; 0
     77a:	c9 5e       	subi	r28, 0xE9	; 233
     77c:	dc 4f       	sbci	r29, 0xFC	; 252
     77e:	28 81       	ld	r18, Y
     780:	c7 51       	subi	r28, 0x17	; 23
     782:	d3 40       	sbci	r29, 0x03	; 3
     784:	c8 5e       	subi	r28, 0xE8	; 232
     786:	dc 4f       	sbci	r29, 0xFC	; 252
     788:	38 81       	ld	r19, Y
     78a:	c8 51       	subi	r28, 0x18	; 24
     78c:	d3 40       	sbci	r29, 0x03	; 3
     78e:	c7 5e       	subi	r28, 0xE7	; 231
     790:	dc 4f       	sbci	r29, 0xFC	; 252
     792:	48 81       	ld	r20, Y
     794:	c9 51       	subi	r28, 0x19	; 25
     796:	d3 40       	sbci	r29, 0x03	; 3
     798:	c6 5e       	subi	r28, 0xE6	; 230
     79a:	dc 4f       	sbci	r29, 0xFC	; 252
     79c:	58 81       	ld	r21, Y
     79e:	ca 51       	subi	r28, 0x1A	; 26
     7a0:	d3 40       	sbci	r29, 0x03	; 3
     7a2:	c5 5e       	subi	r28, 0xE5	; 229
     7a4:	dc 4f       	sbci	r29, 0xFC	; 252
     7a6:	68 81       	ld	r22, Y
     7a8:	cb 51       	subi	r28, 0x1B	; 27
     7aa:	d3 40       	sbci	r29, 0x03	; 3
     7ac:	c4 5e       	subi	r28, 0xE4	; 228
     7ae:	dc 4f       	sbci	r29, 0xFC	; 252
     7b0:	78 81       	ld	r23, Y
     7b2:	cc 51       	subi	r28, 0x1C	; 28
     7b4:	d3 40       	sbci	r29, 0x03	; 3
     7b6:	c3 5e       	subi	r28, 0xE3	; 227
     7b8:	dc 4f       	sbci	r29, 0xFC	; 252
     7ba:	88 81       	ld	r24, Y
     7bc:	cd 51       	subi	r28, 0x1D	; 29
     7be:	d3 40       	sbci	r29, 0x03	; 3
     7c0:	c2 5e       	subi	r28, 0xE2	; 226
     7c2:	dc 4f       	sbci	r29, 0xFC	; 252
     7c4:	98 81       	ld	r25, Y
     7c6:	ce 51       	subi	r28, 0x1E	; 30
     7c8:	d3 40       	sbci	r29, 0x03	; 3
     7ca:	d1 d6       	rcall	.+3490   	; 0x156e <__umoddi3>
     7cc:	a0 e0       	ldi	r26, 0x00	; 0
     7ce:	39 d7       	rcall	.+3698   	; 0x1642 <__cmpdi2_s8>
     7d0:	09 f0       	breq	.+2      	; 0x7d4 <__LOCK_REGION_LENGTH__+0x3d4>
     7d2:	9c c2       	rjmp	.+1336   	; 0xd0c <__LOCK_REGION_LENGTH__+0x90c>
            {
                horizontal = horizontal +1;
     7d4:	ef ef       	ldi	r30, 0xFF	; 255
     7d6:	2e 1a       	sub	r2, r30
     7d8:	3e 0a       	sbc	r3, r30
                if ( horizontal >= 32)
     7da:	20 e2       	ldi	r18, 0x20	; 32
     7dc:	22 16       	cp	r2, r18
     7de:	31 04       	cpc	r3, r1
     7e0:	0c f4       	brge	.+2      	; 0x7e4 <__LOCK_REGION_LENGTH__+0x3e4>
     7e2:	8c c2       	rjmp	.+1304   	; 0xcfc <__LOCK_REGION_LENGTH__+0x8fc>
                {
                    horizontal = 0;
     7e4:	21 2c       	mov	r2, r1
     7e6:	31 2c       	mov	r3, r1
     7e8:	89 c2       	rjmp	.+1298   	; 0xcfc <__LOCK_REGION_LENGTH__+0x8fc>
                }
            }
            if (oben&&!(timerBewegung%100))
     7ea:	ce 5d       	subi	r28, 0xDE	; 222
     7ec:	dc 4f       	sbci	r29, 0xFC	; 252
     7ee:	88 81       	ld	r24, Y
     7f0:	c2 52       	subi	r28, 0x22	; 34
     7f2:	d3 40       	sbci	r29, 0x03	; 3
     7f4:	88 23       	and	r24, r24
     7f6:	09 f4       	brne	.+2      	; 0x7fa <__LOCK_REGION_LENGTH__+0x3fa>
     7f8:	51 c0       	rjmp	.+162    	; 0x89c <__LOCK_REGION_LENGTH__+0x49c>
     7fa:	0f 2e       	mov	r0, r31
     7fc:	f4 e6       	ldi	r31, 0x64	; 100
     7fe:	af 2e       	mov	r10, r31
     800:	f0 2d       	mov	r31, r0
     802:	b1 2c       	mov	r11, r1
     804:	c1 2c       	mov	r12, r1
     806:	d1 2c       	mov	r13, r1
     808:	e1 2c       	mov	r14, r1
     80a:	f1 2c       	mov	r15, r1
     80c:	00 e0       	ldi	r16, 0x00	; 0
     80e:	10 e0       	ldi	r17, 0x00	; 0
     810:	c9 5e       	subi	r28, 0xE9	; 233
     812:	dc 4f       	sbci	r29, 0xFC	; 252
     814:	28 81       	ld	r18, Y
     816:	c7 51       	subi	r28, 0x17	; 23
     818:	d3 40       	sbci	r29, 0x03	; 3
     81a:	c8 5e       	subi	r28, 0xE8	; 232
     81c:	dc 4f       	sbci	r29, 0xFC	; 252
     81e:	38 81       	ld	r19, Y
     820:	c8 51       	subi	r28, 0x18	; 24
     822:	d3 40       	sbci	r29, 0x03	; 3
     824:	c7 5e       	subi	r28, 0xE7	; 231
     826:	dc 4f       	sbci	r29, 0xFC	; 252
     828:	48 81       	ld	r20, Y
     82a:	c9 51       	subi	r28, 0x19	; 25
     82c:	d3 40       	sbci	r29, 0x03	; 3
     82e:	c6 5e       	subi	r28, 0xE6	; 230
     830:	dc 4f       	sbci	r29, 0xFC	; 252
     832:	58 81       	ld	r21, Y
     834:	ca 51       	subi	r28, 0x1A	; 26
     836:	d3 40       	sbci	r29, 0x03	; 3
     838:	c5 5e       	subi	r28, 0xE5	; 229
     83a:	dc 4f       	sbci	r29, 0xFC	; 252
     83c:	68 81       	ld	r22, Y
     83e:	cb 51       	subi	r28, 0x1B	; 27
     840:	d3 40       	sbci	r29, 0x03	; 3
     842:	c4 5e       	subi	r28, 0xE4	; 228
     844:	dc 4f       	sbci	r29, 0xFC	; 252
     846:	78 81       	ld	r23, Y
     848:	cc 51       	subi	r28, 0x1C	; 28
     84a:	d3 40       	sbci	r29, 0x03	; 3
     84c:	c3 5e       	subi	r28, 0xE3	; 227
     84e:	dc 4f       	sbci	r29, 0xFC	; 252
     850:	88 81       	ld	r24, Y
     852:	cd 51       	subi	r28, 0x1D	; 29
     854:	d3 40       	sbci	r29, 0x03	; 3
     856:	c2 5e       	subi	r28, 0xE2	; 226
     858:	dc 4f       	sbci	r29, 0xFC	; 252
     85a:	98 81       	ld	r25, Y
     85c:	ce 51       	subi	r28, 0x1E	; 30
     85e:	d3 40       	sbci	r29, 0x03	; 3
     860:	86 d6       	rcall	.+3340   	; 0x156e <__umoddi3>
     862:	a0 e0       	ldi	r26, 0x00	; 0
     864:	ee d6       	rcall	.+3548   	; 0x1642 <__cmpdi2_s8>
     866:	09 f0       	breq	.+2      	; 0x86a <__LOCK_REGION_LENGTH__+0x46a>
     868:	6d c0       	rjmp	.+218    	; 0x944 <__LOCK_REGION_LENGTH__+0x544>
            {
                vertikal = vertikal -1;
     86a:	c0 5e       	subi	r28, 0xE0	; 224
     86c:	dc 4f       	sbci	r29, 0xFC	; 252
     86e:	88 81       	ld	r24, Y
     870:	99 81       	ldd	r25, Y+1	; 0x01
     872:	c0 52       	subi	r28, 0x20	; 32
     874:	d3 40       	sbci	r29, 0x03	; 3
     876:	01 97       	sbiw	r24, 0x01	; 1
     878:	c0 5e       	subi	r28, 0xE0	; 224
     87a:	dc 4f       	sbci	r29, 0xFC	; 252
     87c:	99 83       	std	Y+1, r25	; 0x01
     87e:	88 83       	st	Y, r24
     880:	c0 52       	subi	r28, 0x20	; 32
     882:	d3 40       	sbci	r29, 0x03	; 3
                if ( vertikal < 0)
     884:	99 23       	and	r25, r25
     886:	0c f0       	brlt	.+2      	; 0x88a <__LOCK_REGION_LENGTH__+0x48a>
     888:	5d c0       	rjmp	.+186    	; 0x944 <__LOCK_REGION_LENGTH__+0x544>
                {
                    vertikal = 7;
     88a:	87 e0       	ldi	r24, 0x07	; 7
     88c:	90 e0       	ldi	r25, 0x00	; 0
     88e:	c0 5e       	subi	r28, 0xE0	; 224
     890:	dc 4f       	sbci	r29, 0xFC	; 252
     892:	99 83       	std	Y+1, r25	; 0x01
     894:	88 83       	st	Y, r24
     896:	c0 52       	subi	r28, 0x20	; 32
     898:	d3 40       	sbci	r29, 0x03	; 3
     89a:	54 c0       	rjmp	.+168    	; 0x944 <__LOCK_REGION_LENGTH__+0x544>
                }
            }
            else if (unten&&!(timerBewegung%100))
     89c:	ca 5d       	subi	r28, 0xDA	; 218
     89e:	dc 4f       	sbci	r29, 0xFC	; 252
     8a0:	98 81       	ld	r25, Y
     8a2:	c6 52       	subi	r28, 0x26	; 38
     8a4:	d3 40       	sbci	r29, 0x03	; 3
     8a6:	99 23       	and	r25, r25
     8a8:	09 f4       	brne	.+2      	; 0x8ac <__LOCK_REGION_LENGTH__+0x4ac>
     8aa:	4c c0       	rjmp	.+152    	; 0x944 <__LOCK_REGION_LENGTH__+0x544>
     8ac:	0f 2e       	mov	r0, r31
     8ae:	f4 e6       	ldi	r31, 0x64	; 100
     8b0:	af 2e       	mov	r10, r31
     8b2:	f0 2d       	mov	r31, r0
     8b4:	b1 2c       	mov	r11, r1
     8b6:	c1 2c       	mov	r12, r1
     8b8:	d1 2c       	mov	r13, r1
     8ba:	e1 2c       	mov	r14, r1
     8bc:	f1 2c       	mov	r15, r1
     8be:	00 e0       	ldi	r16, 0x00	; 0
     8c0:	10 e0       	ldi	r17, 0x00	; 0
     8c2:	c9 5e       	subi	r28, 0xE9	; 233
     8c4:	dc 4f       	sbci	r29, 0xFC	; 252
     8c6:	28 81       	ld	r18, Y
     8c8:	c7 51       	subi	r28, 0x17	; 23
     8ca:	d3 40       	sbci	r29, 0x03	; 3
     8cc:	c8 5e       	subi	r28, 0xE8	; 232
     8ce:	dc 4f       	sbci	r29, 0xFC	; 252
     8d0:	38 81       	ld	r19, Y
     8d2:	c8 51       	subi	r28, 0x18	; 24
     8d4:	d3 40       	sbci	r29, 0x03	; 3
     8d6:	c7 5e       	subi	r28, 0xE7	; 231
     8d8:	dc 4f       	sbci	r29, 0xFC	; 252
     8da:	48 81       	ld	r20, Y
     8dc:	c9 51       	subi	r28, 0x19	; 25
     8de:	d3 40       	sbci	r29, 0x03	; 3
     8e0:	c6 5e       	subi	r28, 0xE6	; 230
     8e2:	dc 4f       	sbci	r29, 0xFC	; 252
     8e4:	58 81       	ld	r21, Y
     8e6:	ca 51       	subi	r28, 0x1A	; 26
     8e8:	d3 40       	sbci	r29, 0x03	; 3
     8ea:	c5 5e       	subi	r28, 0xE5	; 229
     8ec:	dc 4f       	sbci	r29, 0xFC	; 252
     8ee:	68 81       	ld	r22, Y
     8f0:	cb 51       	subi	r28, 0x1B	; 27
     8f2:	d3 40       	sbci	r29, 0x03	; 3
     8f4:	c4 5e       	subi	r28, 0xE4	; 228
     8f6:	dc 4f       	sbci	r29, 0xFC	; 252
     8f8:	78 81       	ld	r23, Y
     8fa:	cc 51       	subi	r28, 0x1C	; 28
     8fc:	d3 40       	sbci	r29, 0x03	; 3
     8fe:	c3 5e       	subi	r28, 0xE3	; 227
     900:	dc 4f       	sbci	r29, 0xFC	; 252
     902:	88 81       	ld	r24, Y
     904:	cd 51       	subi	r28, 0x1D	; 29
     906:	d3 40       	sbci	r29, 0x03	; 3
     908:	c2 5e       	subi	r28, 0xE2	; 226
     90a:	dc 4f       	sbci	r29, 0xFC	; 252
     90c:	98 81       	ld	r25, Y
     90e:	ce 51       	subi	r28, 0x1E	; 30
     910:	d3 40       	sbci	r29, 0x03	; 3
     912:	2d d6       	rcall	.+3162   	; 0x156e <__umoddi3>
     914:	a0 e0       	ldi	r26, 0x00	; 0
     916:	95 d6       	rcall	.+3370   	; 0x1642 <__cmpdi2_s8>
     918:	a9 f4       	brne	.+42     	; 0x944 <__LOCK_REGION_LENGTH__+0x544>
            {
                vertikal = vertikal +1;
     91a:	c0 5e       	subi	r28, 0xE0	; 224
     91c:	dc 4f       	sbci	r29, 0xFC	; 252
     91e:	88 81       	ld	r24, Y
     920:	99 81       	ldd	r25, Y+1	; 0x01
     922:	c0 52       	subi	r28, 0x20	; 32
     924:	d3 40       	sbci	r29, 0x03	; 3
     926:	01 96       	adiw	r24, 0x01	; 1
     928:	c0 5e       	subi	r28, 0xE0	; 224
     92a:	dc 4f       	sbci	r29, 0xFC	; 252
     92c:	99 83       	std	Y+1, r25	; 0x01
     92e:	88 83       	st	Y, r24
     930:	c0 52       	subi	r28, 0x20	; 32
     932:	d3 40       	sbci	r29, 0x03	; 3
                if ( vertikal >= 8)
     934:	08 97       	sbiw	r24, 0x08	; 8
     936:	34 f0       	brlt	.+12     	; 0x944 <__LOCK_REGION_LENGTH__+0x544>
                {
                    vertikal = 0;
     938:	c0 5e       	subi	r28, 0xE0	; 224
     93a:	dc 4f       	sbci	r29, 0xFC	; 252
     93c:	19 82       	std	Y+1, r1	; 0x01
     93e:	18 82       	st	Y, r1
     940:	c0 52       	subi	r28, 0x20	; 32
                }
            }
            led_stripe_set_pixel(horizontal,vertikal,(rgb_color){0,50,5},leds);
     942:	d3 40       	sbci	r29, 0x03	; 3
     944:	c0 5e       	subi	r28, 0xE0	; 224
     946:	dc 4f       	sbci	r29, 0xFC	; 252
     948:	c8 80       	ld	r12, Y
     94a:	d9 80       	ldd	r13, Y+1	; 0x01
     94c:	c0 52       	subi	r28, 0x20	; 32
     94e:	d3 40       	sbci	r29, 0x03	; 3
     950:	71 01       	movw	r14, r2
     952:	8e 01       	movw	r16, r28
     954:	00 5f       	subi	r16, 0xF0	; 240
     956:	1f 4f       	sbci	r17, 0xFF	; 255
     958:	20 e0       	ldi	r18, 0x00	; 0
     95a:	32 e3       	ldi	r19, 0x32	; 50
     95c:	45 e0       	ldi	r20, 0x05	; 5
     95e:	b6 01       	movw	r22, r12
            
            if (neueFrucht)
     960:	c1 01       	movw	r24, r2
     962:	e1 db       	rcall	.-2110   	; 0x126 <led_stripe_set_pixel>
     964:	45 28       	or	r4, r5
     966:	46 28       	or	r4, r6
            {
                led_stripe_set_pixel(randomx,randomy,fruchtArray[random()%5],leds);
     968:	47 28       	or	r4, r7
     96a:	09 f1       	breq	.+66     	; 0x9ae <__LOCK_REGION_LENGTH__+0x5ae>
     96c:	e0 d6       	rcall	.+3520   	; 0x172e <random>
     96e:	25 e0       	ldi	r18, 0x05	; 5
     970:	30 e0       	ldi	r19, 0x00	; 0
     972:	40 e0       	ldi	r20, 0x00	; 0
     974:	50 e0       	ldi	r21, 0x00	; 0
     976:	df d5       	rcall	.+3006   	; 0x1536 <__divmodsi4>
     978:	9b 01       	movw	r18, r22
     97a:	22 0f       	add	r18, r18
     97c:	33 1f       	adc	r19, r19
     97e:	62 0f       	add	r22, r18
     980:	73 1f       	adc	r23, r19
     982:	e1 e0       	ldi	r30, 0x01	; 1
     984:	f0 e0       	ldi	r31, 0x00	; 0
     986:	ec 0f       	add	r30, r28
     988:	fd 1f       	adc	r31, r29
     98a:	e6 0f       	add	r30, r22
     98c:	f7 1f       	adc	r31, r23
     98e:	20 81       	ld	r18, Z
     990:	31 81       	ldd	r19, Z+1	; 0x01
     992:	42 81       	ldd	r20, Z+2	; 0x02
     994:	c9 5d       	subi	r28, 0xD9	; 217
     996:	dc 4f       	sbci	r29, 0xFC	; 252
     998:	68 81       	ld	r22, Y
     99a:	79 81       	ldd	r23, Y+1	; 0x01
     99c:	c7 52       	subi	r28, 0x27	; 39
     99e:	d3 40       	sbci	r29, 0x03	; 3
     9a0:	cd 5d       	subi	r28, 0xDD	; 221
     9a2:	dc 4f       	sbci	r29, 0xFC	; 252
     9a4:	88 81       	ld	r24, Y
     9a6:	99 81       	ldd	r25, Y+1	; 0x01
     9a8:	c3 52       	subi	r28, 0x23	; 35
     9aa:	d3 40       	sbci	r29, 0x03	; 3
     9ac:	bc db       	rcall	.-2184   	; 0x126 <led_stripe_set_pixel>
                neueFrucht =0;
            }
            
            if (((randomx == horizontal)&&(randomy == vertikal))&& !(timerBewegung%100))
     9ae:	cd 5d       	subi	r28, 0xDD	; 221
     9b0:	dc 4f       	sbci	r29, 0xFC	; 252
     9b2:	88 81       	ld	r24, Y
     9b4:	99 81       	ldd	r25, Y+1	; 0x01
     9b6:	c3 52       	subi	r28, 0x23	; 35
     9b8:	d3 40       	sbci	r29, 0x03	; 3
     9ba:	8e 15       	cp	r24, r14
     9bc:	9f 05       	cpc	r25, r15
     9be:	09 f0       	breq	.+2      	; 0x9c2 <__LOCK_REGION_LENGTH__+0x5c2>
     9c0:	9a c0       	rjmp	.+308    	; 0xaf6 <__LOCK_REGION_LENGTH__+0x6f6>
     9c2:	c9 5d       	subi	r28, 0xD9	; 217
     9c4:	dc 4f       	sbci	r29, 0xFC	; 252
     9c6:	88 81       	ld	r24, Y
     9c8:	99 81       	ldd	r25, Y+1	; 0x01
     9ca:	c7 52       	subi	r28, 0x27	; 39
     9cc:	d3 40       	sbci	r29, 0x03	; 3
     9ce:	8c 15       	cp	r24, r12
     9d0:	9d 05       	cpc	r25, r13
     9d2:	09 f0       	breq	.+2      	; 0x9d6 <__LOCK_REGION_LENGTH__+0x5d6>
     9d4:	95 c0       	rjmp	.+298    	; 0xb00 <__LOCK_REGION_LENGTH__+0x700>
     9d6:	0f 2e       	mov	r0, r31
     9d8:	f4 e6       	ldi	r31, 0x64	; 100
     9da:	af 2e       	mov	r10, r31
     9dc:	f0 2d       	mov	r31, r0
     9de:	b1 2c       	mov	r11, r1
     9e0:	c1 2c       	mov	r12, r1
     9e2:	d1 2c       	mov	r13, r1
     9e4:	e1 2c       	mov	r14, r1
     9e6:	f1 2c       	mov	r15, r1
     9e8:	00 e0       	ldi	r16, 0x00	; 0
     9ea:	10 e0       	ldi	r17, 0x00	; 0
     9ec:	c9 5e       	subi	r28, 0xE9	; 233
     9ee:	dc 4f       	sbci	r29, 0xFC	; 252
     9f0:	28 81       	ld	r18, Y
     9f2:	c7 51       	subi	r28, 0x17	; 23
     9f4:	d3 40       	sbci	r29, 0x03	; 3
     9f6:	c8 5e       	subi	r28, 0xE8	; 232
     9f8:	dc 4f       	sbci	r29, 0xFC	; 252
     9fa:	38 81       	ld	r19, Y
     9fc:	c8 51       	subi	r28, 0x18	; 24
     9fe:	d3 40       	sbci	r29, 0x03	; 3
     a00:	c7 5e       	subi	r28, 0xE7	; 231
     a02:	dc 4f       	sbci	r29, 0xFC	; 252
     a04:	48 81       	ld	r20, Y
     a06:	c9 51       	subi	r28, 0x19	; 25
     a08:	d3 40       	sbci	r29, 0x03	; 3
     a0a:	c6 5e       	subi	r28, 0xE6	; 230
     a0c:	dc 4f       	sbci	r29, 0xFC	; 252
     a0e:	58 81       	ld	r21, Y
     a10:	ca 51       	subi	r28, 0x1A	; 26
     a12:	d3 40       	sbci	r29, 0x03	; 3
     a14:	c5 5e       	subi	r28, 0xE5	; 229
     a16:	dc 4f       	sbci	r29, 0xFC	; 252
     a18:	68 81       	ld	r22, Y
     a1a:	cb 51       	subi	r28, 0x1B	; 27
     a1c:	d3 40       	sbci	r29, 0x03	; 3
     a1e:	c4 5e       	subi	r28, 0xE4	; 228
     a20:	dc 4f       	sbci	r29, 0xFC	; 252
     a22:	78 81       	ld	r23, Y
     a24:	cc 51       	subi	r28, 0x1C	; 28
     a26:	d3 40       	sbci	r29, 0x03	; 3
     a28:	c3 5e       	subi	r28, 0xE3	; 227
     a2a:	dc 4f       	sbci	r29, 0xFC	; 252
     a2c:	88 81       	ld	r24, Y
     a2e:	cd 51       	subi	r28, 0x1D	; 29
     a30:	d3 40       	sbci	r29, 0x03	; 3
     a32:	c2 5e       	subi	r28, 0xE2	; 226
     a34:	dc 4f       	sbci	r29, 0xFC	; 252
     a36:	98 81       	ld	r25, Y
     a38:	ce 51       	subi	r28, 0x1E	; 30
     a3a:	d3 40       	sbci	r29, 0x03	; 3
     a3c:	98 d5       	rcall	.+2864   	; 0x156e <__umoddi3>
     a3e:	a0 e0       	ldi	r26, 0x00	; 0
     a40:	00 d6       	rcall	.+3072   	; 0x1642 <__cmpdi2_s8>
     a42:	09 f0       	breq	.+2      	; 0xa46 <__LOCK_REGION_LENGTH__+0x646>
     a44:	62 c0       	rjmp	.+196    	; 0xb0a <__LOCK_REGION_LENGTH__+0x70a>
            {
                punktzahl = punktzahl +1;
     a46:	c3 5d       	subi	r28, 0xD3	; 211
     a48:	dc 4f       	sbci	r29, 0xFC	; 252
     a4a:	28 81       	ld	r18, Y
     a4c:	cd 52       	subi	r28, 0x2D	; 45
     a4e:	d3 40       	sbci	r29, 0x03	; 3
     a50:	c2 5d       	subi	r28, 0xD2	; 210
     a52:	dc 4f       	sbci	r29, 0xFC	; 252
     a54:	38 81       	ld	r19, Y
     a56:	ce 52       	subi	r28, 0x2E	; 46
     a58:	d3 40       	sbci	r29, 0x03	; 3
     a5a:	c1 5d       	subi	r28, 0xD1	; 209
     a5c:	dc 4f       	sbci	r29, 0xFC	; 252
     a5e:	48 81       	ld	r20, Y
     a60:	cf 52       	subi	r28, 0x2F	; 47
     a62:	d3 40       	sbci	r29, 0x03	; 3
     a64:	c0 5d       	subi	r28, 0xD0	; 208
     a66:	dc 4f       	sbci	r29, 0xFC	; 252
     a68:	58 81       	ld	r21, Y
     a6a:	c0 53       	subi	r28, 0x30	; 48
     a6c:	d3 40       	sbci	r29, 0x03	; 3
     a6e:	cf 5c       	subi	r28, 0xCF	; 207
     a70:	dc 4f       	sbci	r29, 0xFC	; 252
     a72:	68 81       	ld	r22, Y
     a74:	c1 53       	subi	r28, 0x31	; 49
     a76:	d3 40       	sbci	r29, 0x03	; 3
     a78:	ce 5c       	subi	r28, 0xCE	; 206
     a7a:	dc 4f       	sbci	r29, 0xFC	; 252
     a7c:	78 81       	ld	r23, Y
     a7e:	c2 53       	subi	r28, 0x32	; 50
     a80:	d3 40       	sbci	r29, 0x03	; 3
     a82:	cd 5c       	subi	r28, 0xCD	; 205
     a84:	dc 4f       	sbci	r29, 0xFC	; 252
     a86:	88 81       	ld	r24, Y
     a88:	c3 53       	subi	r28, 0x33	; 51
     a8a:	d3 40       	sbci	r29, 0x03	; 3
     a8c:	cc 5c       	subi	r28, 0xCC	; 204
     a8e:	dc 4f       	sbci	r29, 0xFC	; 252
     a90:	98 81       	ld	r25, Y
     a92:	c4 53       	subi	r28, 0x34	; 52
     a94:	d3 40       	sbci	r29, 0x03	; 3
     a96:	a1 e0       	ldi	r26, 0x01	; 1
     a98:	c8 d5       	rcall	.+2960   	; 0x162a <__adddi3_s8>
     a9a:	c3 5d       	subi	r28, 0xD3	; 211
     a9c:	dc 4f       	sbci	r29, 0xFC	; 252
     a9e:	28 83       	st	Y, r18
     aa0:	cd 52       	subi	r28, 0x2D	; 45
     aa2:	d3 40       	sbci	r29, 0x03	; 3
     aa4:	c2 5d       	subi	r28, 0xD2	; 210
     aa6:	dc 4f       	sbci	r29, 0xFC	; 252
     aa8:	38 83       	st	Y, r19
     aaa:	ce 52       	subi	r28, 0x2E	; 46
     aac:	d3 40       	sbci	r29, 0x03	; 3
     aae:	c1 5d       	subi	r28, 0xD1	; 209
     ab0:	dc 4f       	sbci	r29, 0xFC	; 252
     ab2:	48 83       	st	Y, r20
     ab4:	cf 52       	subi	r28, 0x2F	; 47
     ab6:	d3 40       	sbci	r29, 0x03	; 3
     ab8:	c0 5d       	subi	r28, 0xD0	; 208
     aba:	dc 4f       	sbci	r29, 0xFC	; 252
     abc:	58 83       	st	Y, r21
     abe:	c0 53       	subi	r28, 0x30	; 48
     ac0:	d3 40       	sbci	r29, 0x03	; 3
     ac2:	cf 5c       	subi	r28, 0xCF	; 207
     ac4:	dc 4f       	sbci	r29, 0xFC	; 252
     ac6:	68 83       	st	Y, r22
     ac8:	c1 53       	subi	r28, 0x31	; 49
     aca:	d3 40       	sbci	r29, 0x03	; 3
     acc:	ce 5c       	subi	r28, 0xCE	; 206
     ace:	dc 4f       	sbci	r29, 0xFC	; 252
     ad0:	78 83       	st	Y, r23
     ad2:	c2 53       	subi	r28, 0x32	; 50
     ad4:	d3 40       	sbci	r29, 0x03	; 3
     ad6:	cd 5c       	subi	r28, 0xCD	; 205
     ad8:	dc 4f       	sbci	r29, 0xFC	; 252
     ada:	88 83       	st	Y, r24
     adc:	c3 53       	subi	r28, 0x33	; 51
     ade:	d3 40       	sbci	r29, 0x03	; 3
     ae0:	cc 5c       	subi	r28, 0xCC	; 204
     ae2:	dc 4f       	sbci	r29, 0xFC	; 252
     ae4:	98 83       	st	Y, r25
     ae6:	c4 53       	subi	r28, 0x34	; 52
     ae8:	d3 40       	sbci	r29, 0x03	; 3
                neueFrucht =1;
     aea:	44 24       	eor	r4, r4
     aec:	43 94       	inc	r4
     aee:	51 2c       	mov	r5, r1
     af0:	61 2c       	mov	r6, r1
     af2:	71 2c       	mov	r7, r1
     af4:	0e c0       	rjmp	.+28     	; 0xb12 <__LOCK_REGION_LENGTH__+0x712>
     af6:	41 2c       	mov	r4, r1
     af8:	51 2c       	mov	r5, r1
     afa:	61 2c       	mov	r6, r1
     afc:	71 2c       	mov	r7, r1
     afe:	09 c0       	rjmp	.+18     	; 0xb12 <__LOCK_REGION_LENGTH__+0x712>
     b00:	41 2c       	mov	r4, r1
     b02:	51 2c       	mov	r5, r1
     b04:	61 2c       	mov	r6, r1
     b06:	71 2c       	mov	r7, r1
     b08:	04 c0       	rjmp	.+8      	; 0xb12 <__LOCK_REGION_LENGTH__+0x712>
     b0a:	41 2c       	mov	r4, r1
     b0c:	51 2c       	mov	r5, r1
     b0e:	61 2c       	mov	r6, r1
     b10:	71 2c       	mov	r7, r1
            }
            lcdWriteText(1,3,"Score: %4u",punktzahl );
     b12:	cc 5c       	subi	r28, 0xCC	; 204
     b14:	dc 4f       	sbci	r29, 0xFC	; 252
     b16:	98 81       	ld	r25, Y
     b18:	c4 53       	subi	r28, 0x34	; 52
     b1a:	d3 40       	sbci	r29, 0x03	; 3
     b1c:	9f 93       	push	r25
     b1e:	cd 5c       	subi	r28, 0xCD	; 205
     b20:	dc 4f       	sbci	r29, 0xFC	; 252
     b22:	e8 81       	ld	r30, Y
     b24:	c3 53       	subi	r28, 0x33	; 51
     b26:	d3 40       	sbci	r29, 0x03	; 3
     b28:	ef 93       	push	r30
     b2a:	ce 5c       	subi	r28, 0xCE	; 206
     b2c:	dc 4f       	sbci	r29, 0xFC	; 252
     b2e:	28 81       	ld	r18, Y
     b30:	c2 53       	subi	r28, 0x32	; 50
     b32:	d3 40       	sbci	r29, 0x03	; 3
     b34:	2f 93       	push	r18
     b36:	cf 5c       	subi	r28, 0xCF	; 207
     b38:	dc 4f       	sbci	r29, 0xFC	; 252
     b3a:	88 81       	ld	r24, Y
     b3c:	c1 53       	subi	r28, 0x31	; 49
     b3e:	d3 40       	sbci	r29, 0x03	; 3
     b40:	8f 93       	push	r24
     b42:	c0 5d       	subi	r28, 0xD0	; 208
     b44:	dc 4f       	sbci	r29, 0xFC	; 252
     b46:	98 81       	ld	r25, Y
     b48:	c0 53       	subi	r28, 0x30	; 48
     b4a:	d3 40       	sbci	r29, 0x03	; 3
     b4c:	9f 93       	push	r25
     b4e:	c1 5d       	subi	r28, 0xD1	; 209
     b50:	dc 4f       	sbci	r29, 0xFC	; 252
     b52:	e8 81       	ld	r30, Y
     b54:	cf 52       	subi	r28, 0x2F	; 47
     b56:	d3 40       	sbci	r29, 0x03	; 3
     b58:	ef 93       	push	r30
     b5a:	c2 5d       	subi	r28, 0xD2	; 210
     b5c:	dc 4f       	sbci	r29, 0xFC	; 252
     b5e:	28 81       	ld	r18, Y
     b60:	ce 52       	subi	r28, 0x2E	; 46
     b62:	d3 40       	sbci	r29, 0x03	; 3
     b64:	2f 93       	push	r18
     b66:	c3 5d       	subi	r28, 0xD3	; 211
     b68:	dc 4f       	sbci	r29, 0xFC	; 252
     b6a:	88 81       	ld	r24, Y
     b6c:	cd 52       	subi	r28, 0x2D	; 45
     b6e:	d3 40       	sbci	r29, 0x03	; 3
     b70:	8f 93       	push	r24
     b72:	86 e2       	ldi	r24, 0x26	; 38
     b74:	92 e0       	ldi	r25, 0x02	; 2
     b76:	9f 93       	push	r25
     b78:	8f 93       	push	r24
     b7a:	83 e0       	ldi	r24, 0x03	; 3
     b7c:	8f 93       	push	r24
     b7e:	81 e0       	ldi	r24, 0x01	; 1
     b80:	8f 93       	push	r24
     b82:	64 d2       	rcall	.+1224   	; 0x104c <lcdWriteText>
            
            
            break;
     b84:	0f b6       	in	r0, 0x3f	; 63
     b86:	f8 94       	cli
     b88:	de bf       	out	0x3e, r29	; 62
     b8a:	0f be       	out	0x3f, r0	; 63
     b8c:	cd bf       	out	0x3d, r28	; 61
                state = JOYSTICK;
            }
            break;
            
            case JOYSTICK:
            timerStart_ms = 0;
     b8e:	b1 2c       	mov	r11, r1
     b90:	a1 2c       	mov	r10, r1
     b92:	00 e0       	ldi	r16, 0x00	; 0
     b94:	ce 5e       	subi	r28, 0xEE	; 238
     b96:	dc 4f       	sbci	r29, 0xFC	; 252
     b98:	18 82       	st	Y, r1
     b9a:	c2 51       	subi	r28, 0x12	; 18
     b9c:	d3 40       	sbci	r29, 0x03	; 3
     b9e:	cd 5e       	subi	r28, 0xED	; 237
     ba0:	dc 4f       	sbci	r29, 0xFC	; 252
     ba2:	18 82       	st	Y, r1
     ba4:	c3 51       	subi	r28, 0x13	; 19
     ba6:	d3 40       	sbci	r29, 0x03	; 3
     ba8:	cc 5e       	subi	r28, 0xEC	; 236
     baa:	dc 4f       	sbci	r29, 0xFC	; 252
     bac:	18 82       	st	Y, r1
     bae:	c4 51       	subi	r28, 0x14	; 20
     bb0:	d3 40       	sbci	r29, 0x03	; 3
     bb2:	cb 5e       	subi	r28, 0xEB	; 235
     bb4:	dc 4f       	sbci	r29, 0xFC	; 252
     bb6:	18 82       	st	Y, r1
     bb8:	c5 51       	subi	r28, 0x15	; 21
     bba:	d3 40       	sbci	r29, 0x03	; 3
     bbc:	ca 5e       	subi	r28, 0xEA	; 234
     bbe:	dc 4f       	sbci	r29, 0xFC	; 252
     bc0:	18 82       	st	Y, r1
     bc2:	c6 51       	subi	r28, 0x16	; 22
            
            break;
        }
        //
        //Ausgabe------------------------------------------------------------------
        led_strip_write(leds);
     bc4:	d3 40       	sbci	r29, 0x03	; 3
     bc6:	ce 01       	movw	r24, r28
     bc8:	40 96       	adiw	r24, 0x10	; 16
     bca:	83 d4       	rcall	.+2310   	; 0x14d2 <led_strip_write>
        timerStart_ms = timerStart_ms + PROGRAMMTAKT_MS;
     bcc:	2b 2d       	mov	r18, r11
     bce:	3a 2d       	mov	r19, r10
     bd0:	40 2f       	mov	r20, r16
     bd2:	ce 5e       	subi	r28, 0xEE	; 238
     bd4:	dc 4f       	sbci	r29, 0xFC	; 252
     bd6:	58 81       	ld	r21, Y
     bd8:	c2 51       	subi	r28, 0x12	; 18
     bda:	d3 40       	sbci	r29, 0x03	; 3
     bdc:	cd 5e       	subi	r28, 0xED	; 237
     bde:	dc 4f       	sbci	r29, 0xFC	; 252
     be0:	68 81       	ld	r22, Y
     be2:	c3 51       	subi	r28, 0x13	; 19
     be4:	d3 40       	sbci	r29, 0x03	; 3
     be6:	cc 5e       	subi	r28, 0xEC	; 236
     be8:	dc 4f       	sbci	r29, 0xFC	; 252
     bea:	78 81       	ld	r23, Y
     bec:	c4 51       	subi	r28, 0x14	; 20
     bee:	d3 40       	sbci	r29, 0x03	; 3
     bf0:	cb 5e       	subi	r28, 0xEB	; 235
     bf2:	dc 4f       	sbci	r29, 0xFC	; 252
     bf4:	88 81       	ld	r24, Y
     bf6:	c5 51       	subi	r28, 0x15	; 21
     bf8:	d3 40       	sbci	r29, 0x03	; 3
     bfa:	ca 5e       	subi	r28, 0xEA	; 234
     bfc:	dc 4f       	sbci	r29, 0xFC	; 252
     bfe:	98 81       	ld	r25, Y
     c00:	c6 51       	subi	r28, 0x16	; 22
     c02:	d3 40       	sbci	r29, 0x03	; 3
     c04:	aa e0       	ldi	r26, 0x0A	; 10
     c06:	11 d5       	rcall	.+2594   	; 0x162a <__adddi3_s8>
     c08:	b2 2e       	mov	r11, r18
     c0a:	a3 2e       	mov	r10, r19
     c0c:	04 2f       	mov	r16, r20
     c0e:	ce 5e       	subi	r28, 0xEE	; 238
     c10:	dc 4f       	sbci	r29, 0xFC	; 252
     c12:	58 83       	st	Y, r21
     c14:	c2 51       	subi	r28, 0x12	; 18
     c16:	d3 40       	sbci	r29, 0x03	; 3
     c18:	cd 5e       	subi	r28, 0xED	; 237
     c1a:	dc 4f       	sbci	r29, 0xFC	; 252
     c1c:	68 83       	st	Y, r22
     c1e:	c3 51       	subi	r28, 0x13	; 19
     c20:	d3 40       	sbci	r29, 0x03	; 3
     c22:	cc 5e       	subi	r28, 0xEC	; 236
     c24:	dc 4f       	sbci	r29, 0xFC	; 252
     c26:	78 83       	st	Y, r23
     c28:	c4 51       	subi	r28, 0x14	; 20
     c2a:	d3 40       	sbci	r29, 0x03	; 3
     c2c:	cb 5e       	subi	r28, 0xEB	; 235
     c2e:	dc 4f       	sbci	r29, 0xFC	; 252
     c30:	88 83       	st	Y, r24
     c32:	c5 51       	subi	r28, 0x15	; 21
     c34:	d3 40       	sbci	r29, 0x03	; 3
     c36:	ca 5e       	subi	r28, 0xEA	; 234
     c38:	dc 4f       	sbci	r29, 0xFC	; 252
     c3a:	98 83       	st	Y, r25
     c3c:	c6 51       	subi	r28, 0x16	; 22
     c3e:	d3 40       	sbci	r29, 0x03	; 3
        timerBewegung = timerBewegung + PROGRAMMTAKT_MS;
     c40:	c9 5e       	subi	r28, 0xE9	; 233
     c42:	dc 4f       	sbci	r29, 0xFC	; 252
     c44:	28 81       	ld	r18, Y
     c46:	c7 51       	subi	r28, 0x17	; 23
     c48:	d3 40       	sbci	r29, 0x03	; 3
     c4a:	c8 5e       	subi	r28, 0xE8	; 232
     c4c:	dc 4f       	sbci	r29, 0xFC	; 252
     c4e:	38 81       	ld	r19, Y
     c50:	c8 51       	subi	r28, 0x18	; 24
     c52:	d3 40       	sbci	r29, 0x03	; 3
     c54:	c7 5e       	subi	r28, 0xE7	; 231
     c56:	dc 4f       	sbci	r29, 0xFC	; 252
     c58:	48 81       	ld	r20, Y
     c5a:	c9 51       	subi	r28, 0x19	; 25
     c5c:	d3 40       	sbci	r29, 0x03	; 3
     c5e:	c6 5e       	subi	r28, 0xE6	; 230
     c60:	dc 4f       	sbci	r29, 0xFC	; 252
     c62:	58 81       	ld	r21, Y
     c64:	ca 51       	subi	r28, 0x1A	; 26
     c66:	d3 40       	sbci	r29, 0x03	; 3
     c68:	c5 5e       	subi	r28, 0xE5	; 229
     c6a:	dc 4f       	sbci	r29, 0xFC	; 252
     c6c:	68 81       	ld	r22, Y
     c6e:	cb 51       	subi	r28, 0x1B	; 27
     c70:	d3 40       	sbci	r29, 0x03	; 3
     c72:	c4 5e       	subi	r28, 0xE4	; 228
     c74:	dc 4f       	sbci	r29, 0xFC	; 252
     c76:	78 81       	ld	r23, Y
     c78:	cc 51       	subi	r28, 0x1C	; 28
     c7a:	d3 40       	sbci	r29, 0x03	; 3
     c7c:	c3 5e       	subi	r28, 0xE3	; 227
     c7e:	dc 4f       	sbci	r29, 0xFC	; 252
     c80:	88 81       	ld	r24, Y
     c82:	cd 51       	subi	r28, 0x1D	; 29
     c84:	d3 40       	sbci	r29, 0x03	; 3
     c86:	c2 5e       	subi	r28, 0xE2	; 226
     c88:	dc 4f       	sbci	r29, 0xFC	; 252
     c8a:	98 81       	ld	r25, Y
     c8c:	ce 51       	subi	r28, 0x1E	; 30
     c8e:	d3 40       	sbci	r29, 0x03	; 3
     c90:	cc d4       	rcall	.+2456   	; 0x162a <__adddi3_s8>
     c92:	c9 5e       	subi	r28, 0xE9	; 233
     c94:	dc 4f       	sbci	r29, 0xFC	; 252
     c96:	28 83       	st	Y, r18
     c98:	c7 51       	subi	r28, 0x17	; 23
     c9a:	d3 40       	sbci	r29, 0x03	; 3
     c9c:	c8 5e       	subi	r28, 0xE8	; 232
     c9e:	dc 4f       	sbci	r29, 0xFC	; 252
     ca0:	38 83       	st	Y, r19
     ca2:	c8 51       	subi	r28, 0x18	; 24
     ca4:	d3 40       	sbci	r29, 0x03	; 3
     ca6:	c7 5e       	subi	r28, 0xE7	; 231
     ca8:	dc 4f       	sbci	r29, 0xFC	; 252
     caa:	48 83       	st	Y, r20
     cac:	c9 51       	subi	r28, 0x19	; 25
     cae:	d3 40       	sbci	r29, 0x03	; 3
     cb0:	c6 5e       	subi	r28, 0xE6	; 230
     cb2:	dc 4f       	sbci	r29, 0xFC	; 252
     cb4:	58 83       	st	Y, r21
     cb6:	ca 51       	subi	r28, 0x1A	; 26
     cb8:	d3 40       	sbci	r29, 0x03	; 3
     cba:	c5 5e       	subi	r28, 0xE5	; 229
     cbc:	dc 4f       	sbci	r29, 0xFC	; 252
     cbe:	68 83       	st	Y, r22
     cc0:	cb 51       	subi	r28, 0x1B	; 27
     cc2:	d3 40       	sbci	r29, 0x03	; 3
     cc4:	c4 5e       	subi	r28, 0xE4	; 228
     cc6:	dc 4f       	sbci	r29, 0xFC	; 252
     cc8:	78 83       	st	Y, r23
     cca:	cc 51       	subi	r28, 0x1C	; 28
     ccc:	d3 40       	sbci	r29, 0x03	; 3
     cce:	c3 5e       	subi	r28, 0xE3	; 227
     cd0:	dc 4f       	sbci	r29, 0xFC	; 252
     cd2:	88 83       	st	Y, r24
     cd4:	cd 51       	subi	r28, 0x1D	; 29
     cd6:	d3 40       	sbci	r29, 0x03	; 3
     cd8:	c2 5e       	subi	r28, 0xE2	; 226
     cda:	dc 4f       	sbci	r29, 0xFC	; 252
     cdc:	98 83       	st	Y, r25
     cde:	ce 51       	subi	r28, 0x1E	; 30
     ce0:	d3 40       	sbci	r29, 0x03	; 3
	#else
		//round up by default
		__ticks_dc = (uint32_t)(ceil(fabs(__tmp)));
	#endif

	__builtin_avr_delay_cycles(__ticks_dc);
     ce2:	8f e3       	ldi	r24, 0x3F	; 63
     ce4:	9c e9       	ldi	r25, 0x9C	; 156
     ce6:	01 97       	sbiw	r24, 0x01	; 1
     ce8:	f1 f7       	brne	.-4      	; 0xce6 <__LOCK_REGION_LENGTH__+0x8e6>
     cea:	00 c0       	rjmp	.+0      	; 0xcec <__LOCK_REGION_LENGTH__+0x8ec>
     cec:	00 00       	nop
    
    while(1)
    {
        //Eingabe------------------------------------------------------------------
        
        if (neueFrucht)
     cee:	41 14       	cp	r4, r1
     cf0:	51 04       	cpc	r5, r1
     cf2:	61 04       	cpc	r6, r1
     cf4:	71 04       	cpc	r7, r1
     cf6:	09 f0       	breq	.+2      	; 0xcfa <__LOCK_REGION_LENGTH__+0x8fa>
     cf8:	28 cb       	rjmp	.-2480   	; 0x34a <main+0x1ce>
                if ( horizontal >= 32)
                {
                    horizontal = 0;
                }
            }
            if (oben&&!(timerBewegung%100))
     cfa:	6f cb       	rjmp	.-2338   	; 0x3da <main+0x25e>
     cfc:	ce 5d       	subi	r28, 0xDE	; 222
     cfe:	dc 4f       	sbci	r29, 0xFC	; 252
     d00:	98 81       	ld	r25, Y
     d02:	c2 52       	subi	r28, 0x22	; 34
     d04:	d3 40       	sbci	r29, 0x03	; 3
     d06:	91 11       	cpse	r25, r1
     d08:	b0 cd       	rjmp	.-1184   	; 0x86a <__LOCK_REGION_LENGTH__+0x46a>
     d0a:	c8 cd       	rjmp	.-1136   	; 0x89c <__LOCK_REGION_LENGTH__+0x49c>
     d0c:	ce 5d       	subi	r28, 0xDE	; 222
     d0e:	dc 4f       	sbci	r29, 0xFC	; 252
     d10:	e8 81       	ld	r30, Y
     d12:	c2 52       	subi	r28, 0x22	; 34
     d14:	d3 40       	sbci	r29, 0x03	; 3
     d16:	e1 11       	cpse	r30, r1
     d18:	15 ce       	rjmp	.-982    	; 0x944 <__LOCK_REGION_LENGTH__+0x544>
            neueFrucht = 1;
            timerBewegung =0;
            lcdWriteText(1,7,"START");
            if (timerStart_ms >= TIME_START)
            {
                state = JOYSTICK;
     d1a:	c0 cd       	rjmp	.-1152   	; 0x89c <__LOCK_REGION_LENGTH__+0x49c>
     d1c:	22 e0       	ldi	r18, 0x02	; 2
     d1e:	c0 5f       	subi	r28, 0xF0	; 240
     d20:	dc 4f       	sbci	r29, 0xFC	; 252
     d22:	28 83       	st	Y, r18
     d24:	c0 51       	subi	r28, 0x10	; 16
            
            break;
        }
        //
        //Ausgabe------------------------------------------------------------------
        led_strip_write(leds);
     d26:	d3 40       	sbci	r29, 0x03	; 3
     d28:	ce 01       	movw	r24, r28
     d2a:	40 96       	adiw	r24, 0x10	; 16
     d2c:	d2 d3       	rcall	.+1956   	; 0x14d2 <led_strip_write>
        timerStart_ms = timerStart_ms + PROGRAMMTAKT_MS;
     d2e:	2b 2d       	mov	r18, r11
     d30:	3a 2d       	mov	r19, r10
     d32:	40 2f       	mov	r20, r16
     d34:	ce 5e       	subi	r28, 0xEE	; 238
     d36:	dc 4f       	sbci	r29, 0xFC	; 252
     d38:	58 81       	ld	r21, Y
     d3a:	c2 51       	subi	r28, 0x12	; 18
     d3c:	d3 40       	sbci	r29, 0x03	; 3
     d3e:	cd 5e       	subi	r28, 0xED	; 237
     d40:	dc 4f       	sbci	r29, 0xFC	; 252
     d42:	68 81       	ld	r22, Y
     d44:	c3 51       	subi	r28, 0x13	; 19
     d46:	d3 40       	sbci	r29, 0x03	; 3
     d48:	cc 5e       	subi	r28, 0xEC	; 236
     d4a:	dc 4f       	sbci	r29, 0xFC	; 252
     d4c:	78 81       	ld	r23, Y
     d4e:	c4 51       	subi	r28, 0x14	; 20
     d50:	d3 40       	sbci	r29, 0x03	; 3
     d52:	cb 5e       	subi	r28, 0xEB	; 235
     d54:	dc 4f       	sbci	r29, 0xFC	; 252
     d56:	88 81       	ld	r24, Y
     d58:	c5 51       	subi	r28, 0x15	; 21
     d5a:	d3 40       	sbci	r29, 0x03	; 3
     d5c:	ca 5e       	subi	r28, 0xEA	; 234
     d5e:	dc 4f       	sbci	r29, 0xFC	; 252
     d60:	98 81       	ld	r25, Y
     d62:	c6 51       	subi	r28, 0x16	; 22
     d64:	d3 40       	sbci	r29, 0x03	; 3
     d66:	aa e0       	ldi	r26, 0x0A	; 10
     d68:	60 d4       	rcall	.+2240   	; 0x162a <__adddi3_s8>
     d6a:	b2 2e       	mov	r11, r18
     d6c:	a3 2e       	mov	r10, r19
     d6e:	04 2f       	mov	r16, r20
     d70:	ce 5e       	subi	r28, 0xEE	; 238
     d72:	dc 4f       	sbci	r29, 0xFC	; 252
     d74:	58 83       	st	Y, r21
     d76:	c2 51       	subi	r28, 0x12	; 18
     d78:	d3 40       	sbci	r29, 0x03	; 3
     d7a:	cd 5e       	subi	r28, 0xED	; 237
     d7c:	dc 4f       	sbci	r29, 0xFC	; 252
     d7e:	68 83       	st	Y, r22
     d80:	c3 51       	subi	r28, 0x13	; 19
     d82:	d3 40       	sbci	r29, 0x03	; 3
     d84:	cc 5e       	subi	r28, 0xEC	; 236
     d86:	dc 4f       	sbci	r29, 0xFC	; 252
     d88:	78 83       	st	Y, r23
     d8a:	c4 51       	subi	r28, 0x14	; 20
     d8c:	d3 40       	sbci	r29, 0x03	; 3
     d8e:	cb 5e       	subi	r28, 0xEB	; 235
     d90:	dc 4f       	sbci	r29, 0xFC	; 252
     d92:	88 83       	st	Y, r24
     d94:	c5 51       	subi	r28, 0x15	; 21
     d96:	d3 40       	sbci	r29, 0x03	; 3
     d98:	ca 5e       	subi	r28, 0xEA	; 234
     d9a:	dc 4f       	sbci	r29, 0xFC	; 252
     d9c:	98 83       	st	Y, r25
     d9e:	c6 51       	subi	r28, 0x16	; 22
     da0:	d3 40       	sbci	r29, 0x03	; 3
     da2:	8f e3       	ldi	r24, 0x3F	; 63
     da4:	9c e9       	ldi	r25, 0x9C	; 156
     da6:	01 97       	sbiw	r24, 0x01	; 1
     da8:	f1 f7       	brne	.-4      	; 0xda6 <__LOCK_REGION_LENGTH__+0x9a6>
     daa:	00 c0       	rjmp	.+0      	; 0xdac <__LOCK_REGION_LENGTH__+0x9ac>
     dac:	00 00       	nop
        timerBewegung = timerBewegung + PROGRAMMTAKT_MS;
     dae:	9a e0       	ldi	r25, 0x0A	; 10
     db0:	c9 5e       	subi	r28, 0xE9	; 233
     db2:	dc 4f       	sbci	r29, 0xFC	; 252
     db4:	98 83       	st	Y, r25
     db6:	c7 51       	subi	r28, 0x17	; 23
     db8:	d3 40       	sbci	r29, 0x03	; 3
     dba:	c8 5e       	subi	r28, 0xE8	; 232
     dbc:	dc 4f       	sbci	r29, 0xFC	; 252
     dbe:	18 82       	st	Y, r1
     dc0:	c8 51       	subi	r28, 0x18	; 24
     dc2:	d3 40       	sbci	r29, 0x03	; 3
     dc4:	c7 5e       	subi	r28, 0xE7	; 231
     dc6:	dc 4f       	sbci	r29, 0xFC	; 252
     dc8:	18 82       	st	Y, r1
     dca:	c9 51       	subi	r28, 0x19	; 25
     dcc:	d3 40       	sbci	r29, 0x03	; 3
     dce:	c6 5e       	subi	r28, 0xE6	; 230
     dd0:	dc 4f       	sbci	r29, 0xFC	; 252
     dd2:	18 82       	st	Y, r1
     dd4:	ca 51       	subi	r28, 0x1A	; 26
     dd6:	d3 40       	sbci	r29, 0x03	; 3
     dd8:	c5 5e       	subi	r28, 0xE5	; 229
     dda:	dc 4f       	sbci	r29, 0xFC	; 252
     ddc:	18 82       	st	Y, r1
     dde:	cb 51       	subi	r28, 0x1B	; 27
     de0:	d3 40       	sbci	r29, 0x03	; 3
     de2:	c4 5e       	subi	r28, 0xE4	; 228
     de4:	dc 4f       	sbci	r29, 0xFC	; 252
     de6:	18 82       	st	Y, r1
     de8:	cc 51       	subi	r28, 0x1C	; 28
     dea:	d3 40       	sbci	r29, 0x03	; 3
     dec:	c3 5e       	subi	r28, 0xE3	; 227
     dee:	dc 4f       	sbci	r29, 0xFC	; 252
     df0:	18 82       	st	Y, r1
     df2:	cd 51       	subi	r28, 0x1D	; 29
     df4:	d3 40       	sbci	r29, 0x03	; 3
     df6:	c2 5e       	subi	r28, 0xE2	; 226
     df8:	dc 4f       	sbci	r29, 0xFC	; 252
     dfa:	18 82       	st	Y, r1
     dfc:	ce 51       	subi	r28, 0x1E	; 30
     dfe:	d3 40       	sbci	r29, 0x03	; 3
     e00:	44 24       	eor	r4, r4
     e02:	43 94       	inc	r4
     e04:	51 2c       	mov	r5, r1
     e06:	61 2c       	mov	r6, r1
     e08:	71 2c       	mov	r7, r1
     e0a:	9f ca       	rjmp	.-2754   	; 0x34a <main+0x1ce>

00000e0c <ledWriteAll>:
            }
        }
        matrix_buffer_pos += breite + Zeichenabstand;           // Position f체r das n채chste Zeichen berechnen
        str_p++;                                                // Zeichen-Zeiger auf das n채chste Zeichen richten
    }
}
     e0c:	82 b9       	out	0x02, r24	; 2
     e0e:	95 b9       	out	0x05, r25	; 5
     e10:	08 95       	ret

00000e12 <buttonReadAllPL>:
     e12:	80 91 09 01 	lds	r24, 0x0109	; 0x800109 <__TEXT_REGION_LENGTH__+0x700109>
     e16:	08 95       	ret

00000e18 <startSystemTimeMs>:
     e18:	83 e0       	ldi	r24, 0x03	; 3
     e1a:	84 bd       	out	0x24, r24	; 36
     e1c:	8b e0       	ldi	r24, 0x0B	; 11
     e1e:	85 bd       	out	0x25, r24	; 37
     e20:	81 e0       	ldi	r24, 0x01	; 1
     e22:	80 93 6e 00 	sts	0x006E, r24	; 0x80006e <__TEXT_REGION_LENGTH__+0x70006e>
     e26:	89 ef       	ldi	r24, 0xF9	; 249
     e28:	87 bd       	out	0x27, r24	; 39
     e2a:	08 95       	ret

00000e2c <initAdc>:
     e2c:	11 ba       	out	0x11, r1	; 17
     e2e:	10 ba       	out	0x10, r1	; 16
     e30:	10 92 08 01 	sts	0x0108, r1	; 0x800108 <__TEXT_REGION_LENGTH__+0x700108>
     e34:	10 92 07 01 	sts	0x0107, r1	; 0x800107 <__TEXT_REGION_LENGTH__+0x700107>
     e38:	80 e4       	ldi	r24, 0x40	; 64
     e3a:	80 93 7c 00 	sts	0x007C, r24	; 0x80007c <__TEXT_REGION_LENGTH__+0x70007c>
     e3e:	8f e0       	ldi	r24, 0x0F	; 15
     e40:	80 93 7e 00 	sts	0x007E, r24	; 0x80007e <__TEXT_REGION_LENGTH__+0x70007e>
     e44:	8f ef       	ldi	r24, 0xFF	; 255
     e46:	80 93 7d 00 	sts	0x007D, r24	; 0x80007d <__TEXT_REGION_LENGTH__+0x70007d>
     e4a:	ea e7       	ldi	r30, 0x7A	; 122
     e4c:	f0 e0       	ldi	r31, 0x00	; 0
     e4e:	87 ea       	ldi	r24, 0xA7	; 167
     e50:	80 83       	st	Z, r24
     e52:	10 92 7b 00 	sts	0x007B, r1	; 0x80007b <__TEXT_REGION_LENGTH__+0x70007b>
     e56:	80 81       	ld	r24, Z
     e58:	80 64       	ori	r24, 0x40	; 64
     e5a:	80 83       	st	Z, r24
     e5c:	80 81       	ld	r24, Z
     e5e:	84 ff       	sbrs	r24, 4
     e60:	fd cf       	rjmp	.-6      	; 0xe5c <initAdc+0x30>
     e62:	ea e7       	ldi	r30, 0x7A	; 122
     e64:	f0 e0       	ldi	r31, 0x00	; 0
     e66:	80 81       	ld	r24, Z
     e68:	8f 7e       	andi	r24, 0xEF	; 239
     e6a:	80 83       	st	Z, r24
     e6c:	08 95       	ret

00000e6e <adcRead>:
     e6e:	90 e4       	ldi	r25, 0x40	; 64
     e70:	90 93 7c 00 	sts	0x007C, r25	; 0x80007c <__TEXT_REGION_LENGTH__+0x70007c>
     e74:	88 30       	cpi	r24, 0x08	; 8
     e76:	60 f0       	brcs	.+24     	; 0xe90 <adcRead+0x22>
     e78:	ec e7       	ldi	r30, 0x7C	; 124
     e7a:	f0 e0       	ldi	r31, 0x00	; 0
     e7c:	90 81       	ld	r25, Z
     e7e:	88 50       	subi	r24, 0x08	; 8
     e80:	89 2b       	or	r24, r25
     e82:	80 83       	st	Z, r24
     e84:	eb e7       	ldi	r30, 0x7B	; 123
     e86:	f0 e0       	ldi	r31, 0x00	; 0
     e88:	80 81       	ld	r24, Z
     e8a:	88 61       	ori	r24, 0x18	; 24
     e8c:	80 83       	st	Z, r24
     e8e:	0a c0       	rjmp	.+20     	; 0xea4 <adcRead+0x36>
     e90:	ec e7       	ldi	r30, 0x7C	; 124
     e92:	f0 e0       	ldi	r31, 0x00	; 0
     e94:	90 81       	ld	r25, Z
     e96:	89 2b       	or	r24, r25
     e98:	80 83       	st	Z, r24
     e9a:	eb e7       	ldi	r30, 0x7B	; 123
     e9c:	f0 e0       	ldi	r31, 0x00	; 0
     e9e:	80 81       	ld	r24, Z
     ea0:	87 7e       	andi	r24, 0xE7	; 231
     ea2:	80 83       	st	Z, r24
     ea4:	ea e7       	ldi	r30, 0x7A	; 122
     ea6:	f0 e0       	ldi	r31, 0x00	; 0
     ea8:	80 81       	ld	r24, Z
     eaa:	80 64       	ori	r24, 0x40	; 64
     eac:	80 83       	st	Z, r24
     eae:	80 81       	ld	r24, Z
     eb0:	84 ff       	sbrs	r24, 4
     eb2:	fd cf       	rjmp	.-6      	; 0xeae <adcRead+0x40>
     eb4:	8f ea       	ldi	r24, 0xAF	; 175
     eb6:	94 e0       	ldi	r25, 0x04	; 4
     eb8:	01 97       	sbiw	r24, 0x01	; 1
     eba:	f1 f7       	brne	.-4      	; 0xeb8 <adcRead+0x4a>
     ebc:	00 c0       	rjmp	.+0      	; 0xebe <adcRead+0x50>
     ebe:	00 00       	nop
     ec0:	80 91 78 00 	lds	r24, 0x0078	; 0x800078 <__TEXT_REGION_LENGTH__+0x700078>
     ec4:	20 91 79 00 	lds	r18, 0x0079	; 0x800079 <__TEXT_REGION_LENGTH__+0x700079>
     ec8:	ea e7       	ldi	r30, 0x7A	; 122
     eca:	f0 e0       	ldi	r31, 0x00	; 0
     ecc:	90 81       	ld	r25, Z
     ece:	9f 7e       	andi	r25, 0xEF	; 239
     ed0:	90 83       	st	Z, r25
     ed2:	90 e0       	ldi	r25, 0x00	; 0
     ed4:	92 2b       	or	r25, r18
     ed6:	08 95       	ret

00000ed8 <rgbWrite>:
     ed8:	2f ef       	ldi	r18, 0xFF	; 255
     eda:	33 e0       	ldi	r19, 0x03	; 3
     edc:	f9 01       	movw	r30, r18
     ede:	e8 1b       	sub	r30, r24
     ee0:	f9 0b       	sbc	r31, r25
     ee2:	c9 01       	movw	r24, r18
     ee4:	86 1b       	sub	r24, r22
     ee6:	97 0b       	sbc	r25, r23
     ee8:	24 1b       	sub	r18, r20
     eea:	35 0b       	sbc	r19, r21
     eec:	f0 93 a9 00 	sts	0x00A9, r31	; 0x8000a9 <__TEXT_REGION_LENGTH__+0x7000a9>
     ef0:	e0 93 a8 00 	sts	0x00A8, r30	; 0x8000a8 <__TEXT_REGION_LENGTH__+0x7000a8>
     ef4:	90 93 ab 00 	sts	0x00AB, r25	; 0x8000ab <__TEXT_REGION_LENGTH__+0x7000ab>
     ef8:	80 93 aa 00 	sts	0x00AA, r24	; 0x8000aa <__TEXT_REGION_LENGTH__+0x7000aa>
     efc:	30 93 ad 00 	sts	0x00AD, r19	; 0x8000ad <__TEXT_REGION_LENGTH__+0x7000ad>
     f00:	20 93 ac 00 	sts	0x00AC, r18	; 0x8000ac <__TEXT_REGION_LENGTH__+0x7000ac>
     f04:	08 95       	ret

00000f06 <initRgb>:
     f06:	8e ef       	ldi	r24, 0xFE	; 254
     f08:	80 93 a0 00 	sts	0x00A0, r24	; 0x8000a0 <__TEXT_REGION_LENGTH__+0x7000a0>
     f0c:	8b e1       	ldi	r24, 0x1B	; 27
     f0e:	80 93 a1 00 	sts	0x00A1, r24	; 0x8000a1 <__TEXT_REGION_LENGTH__+0x7000a1>
     f12:	83 e0       	ldi	r24, 0x03	; 3
     f14:	80 93 a7 00 	sts	0x00A7, r24	; 0x8000a7 <__TEXT_REGION_LENGTH__+0x7000a7>
     f18:	8f ef       	ldi	r24, 0xFF	; 255
     f1a:	80 93 a6 00 	sts	0x00A6, r24	; 0x8000a6 <__TEXT_REGION_LENGTH__+0x7000a6>
     f1e:	40 e0       	ldi	r20, 0x00	; 0
     f20:	50 e0       	ldi	r21, 0x00	; 0
     f22:	60 e0       	ldi	r22, 0x00	; 0
     f24:	70 e0       	ldi	r23, 0x00	; 0
     f26:	80 e0       	ldi	r24, 0x00	; 0
     f28:	90 e0       	ldi	r25, 0x00	; 0
     f2a:	d6 cf       	rjmp	.-84     	; 0xed8 <rgbWrite>
     f2c:	08 95       	ret

00000f2e <lcdSid>:
     f2e:	88 23       	and	r24, r24
     f30:	11 f0       	breq	.+4      	; 0xf36 <lcdSid+0x8>
     f32:	a0 9a       	sbi	0x14, 0	; 20
     f34:	08 95       	ret
     f36:	a0 98       	cbi	0x14, 0	; 20
     f38:	08 95       	ret

00000f3a <lcdSclk>:
     f3a:	88 23       	and	r24, r24
     f3c:	11 f0       	breq	.+4      	; 0xf42 <lcdSclk+0x8>
     f3e:	a1 9a       	sbi	0x14, 1	; 20
     f40:	08 95       	ret
     f42:	a1 98       	cbi	0x14, 1	; 20
     f44:	08 95       	ret

00000f46 <lcdLight>:
     f46:	81 11       	cpse	r24, r1
     f48:	04 c0       	rjmp	.+8      	; 0xf52 <lcdLight+0xc>
     f4a:	84 b5       	in	r24, 0x24	; 36
     f4c:	8f 7d       	andi	r24, 0xDF	; 223
     f4e:	84 bd       	out	0x24, r24	; 36
     f50:	08 95       	ret
     f52:	94 b5       	in	r25, 0x24	; 36
     f54:	90 62       	ori	r25, 0x20	; 32
     f56:	94 bd       	out	0x24, r25	; 36
     f58:	88 bd       	out	0x28, r24	; 40
     f5a:	08 95       	ret

00000f5c <writeLcdF>:
     f5c:	ef 92       	push	r14
     f5e:	ff 92       	push	r15
     f60:	0f 93       	push	r16
     f62:	1f 93       	push	r17
     f64:	cf 93       	push	r28
     f66:	df 93       	push	r29
     f68:	7c 01       	movw	r14, r24
     f6a:	eb 01       	movw	r28, r22
     f6c:	81 e0       	ldi	r24, 0x01	; 1
     f6e:	df df       	rcall	.-66     	; 0xf2e <lcdSid>
     f70:	05 e0       	ldi	r16, 0x05	; 5
     f72:	10 e0       	ldi	r17, 0x00	; 0
     f74:	80 e0       	ldi	r24, 0x00	; 0
     f76:	e1 df       	rcall	.-62     	; 0xf3a <lcdSclk>
     f78:	81 e0       	ldi	r24, 0x01	; 1
     f7a:	df df       	rcall	.-66     	; 0xf3a <lcdSclk>
     f7c:	01 50       	subi	r16, 0x01	; 1
     f7e:	11 09       	sbc	r17, r1
     f80:	c9 f7       	brne	.-14     	; 0xf74 <writeLcdF+0x18>
     f82:	80 e0       	ldi	r24, 0x00	; 0
     f84:	d4 df       	rcall	.-88     	; 0xf2e <lcdSid>
     f86:	80 e0       	ldi	r24, 0x00	; 0
     f88:	d8 df       	rcall	.-80     	; 0xf3a <lcdSclk>
     f8a:	81 e0       	ldi	r24, 0x01	; 1
     f8c:	d6 df       	rcall	.-84     	; 0xf3a <lcdSclk>
     f8e:	83 e4       	ldi	r24, 0x43	; 67
     f90:	e8 16       	cp	r14, r24
     f92:	f1 04       	cpc	r15, r1
     f94:	19 f4       	brne	.+6      	; 0xf9c <writeLcdF+0x40>
     f96:	80 e0       	ldi	r24, 0x00	; 0
     f98:	ca df       	rcall	.-108    	; 0xf2e <lcdSid>
     f9a:	02 c0       	rjmp	.+4      	; 0xfa0 <writeLcdF+0x44>
     f9c:	81 e0       	ldi	r24, 0x01	; 1
     f9e:	c7 df       	rcall	.-114    	; 0xf2e <lcdSid>
     fa0:	80 e0       	ldi	r24, 0x00	; 0
     fa2:	cb df       	rcall	.-106    	; 0xf3a <lcdSclk>
     fa4:	81 e0       	ldi	r24, 0x01	; 1
     fa6:	c9 df       	rcall	.-110    	; 0xf3a <lcdSclk>
     fa8:	80 e0       	ldi	r24, 0x00	; 0
     faa:	c1 df       	rcall	.-126    	; 0xf2e <lcdSid>
     fac:	80 e0       	ldi	r24, 0x00	; 0
     fae:	c5 df       	rcall	.-118    	; 0xf3a <lcdSclk>
     fb0:	81 e0       	ldi	r24, 0x01	; 1
     fb2:	c3 df       	rcall	.-122    	; 0xf3a <lcdSclk>
     fb4:	04 e0       	ldi	r16, 0x04	; 4
     fb6:	10 e0       	ldi	r17, 0x00	; 0
     fb8:	80 e0       	ldi	r24, 0x00	; 0
     fba:	bf df       	rcall	.-130    	; 0xf3a <lcdSclk>
     fbc:	c0 ff       	sbrs	r28, 0
     fbe:	03 c0       	rjmp	.+6      	; 0xfc6 <writeLcdF+0x6a>
     fc0:	81 e0       	ldi	r24, 0x01	; 1
     fc2:	b5 df       	rcall	.-150    	; 0xf2e <lcdSid>
     fc4:	02 c0       	rjmp	.+4      	; 0xfca <writeLcdF+0x6e>
     fc6:	80 e0       	ldi	r24, 0x00	; 0
     fc8:	b2 df       	rcall	.-156    	; 0xf2e <lcdSid>
     fca:	d6 95       	lsr	r29
     fcc:	c7 95       	ror	r28
     fce:	80 e0       	ldi	r24, 0x00	; 0
     fd0:	b4 df       	rcall	.-152    	; 0xf3a <lcdSclk>
     fd2:	81 e0       	ldi	r24, 0x01	; 1
     fd4:	b2 df       	rcall	.-156    	; 0xf3a <lcdSclk>
     fd6:	01 50       	subi	r16, 0x01	; 1
     fd8:	11 09       	sbc	r17, r1
     fda:	71 f7       	brne	.-36     	; 0xfb8 <writeLcdF+0x5c>
     fdc:	80 e0       	ldi	r24, 0x00	; 0
     fde:	a7 df       	rcall	.-178    	; 0xf2e <lcdSid>
     fe0:	04 e0       	ldi	r16, 0x04	; 4
     fe2:	10 e0       	ldi	r17, 0x00	; 0
     fe4:	80 e0       	ldi	r24, 0x00	; 0
     fe6:	a9 df       	rcall	.-174    	; 0xf3a <lcdSclk>
     fe8:	81 e0       	ldi	r24, 0x01	; 1
     fea:	a7 df       	rcall	.-178    	; 0xf3a <lcdSclk>
     fec:	01 50       	subi	r16, 0x01	; 1
     fee:	11 09       	sbc	r17, r1
     ff0:	c9 f7       	brne	.-14     	; 0xfe4 <writeLcdF+0x88>
     ff2:	04 e0       	ldi	r16, 0x04	; 4
     ff4:	10 e0       	ldi	r17, 0x00	; 0
     ff6:	80 e0       	ldi	r24, 0x00	; 0
     ff8:	a0 df       	rcall	.-192    	; 0xf3a <lcdSclk>
     ffa:	c0 ff       	sbrs	r28, 0
     ffc:	03 c0       	rjmp	.+6      	; 0x1004 <writeLcdF+0xa8>
     ffe:	81 e0       	ldi	r24, 0x01	; 1
    1000:	96 df       	rcall	.-212    	; 0xf2e <lcdSid>
    1002:	02 c0       	rjmp	.+4      	; 0x1008 <writeLcdF+0xac>
    1004:	80 e0       	ldi	r24, 0x00	; 0
    1006:	93 df       	rcall	.-218    	; 0xf2e <lcdSid>
    1008:	d6 95       	lsr	r29
    100a:	c7 95       	ror	r28
    100c:	80 e0       	ldi	r24, 0x00	; 0
    100e:	95 df       	rcall	.-214    	; 0xf3a <lcdSclk>
    1010:	81 e0       	ldi	r24, 0x01	; 1
    1012:	93 df       	rcall	.-218    	; 0xf3a <lcdSclk>
    1014:	01 50       	subi	r16, 0x01	; 1
    1016:	11 09       	sbc	r17, r1
    1018:	71 f7       	brne	.-36     	; 0xff6 <writeLcdF+0x9a>
    101a:	80 e0       	ldi	r24, 0x00	; 0
    101c:	88 df       	rcall	.-240    	; 0xf2e <lcdSid>
    101e:	c4 e0       	ldi	r28, 0x04	; 4
    1020:	d0 e0       	ldi	r29, 0x00	; 0
    1022:	80 e0       	ldi	r24, 0x00	; 0
    1024:	8a df       	rcall	.-236    	; 0xf3a <lcdSclk>
    1026:	81 e0       	ldi	r24, 0x01	; 1
    1028:	88 df       	rcall	.-240    	; 0xf3a <lcdSclk>
    102a:	21 97       	sbiw	r28, 0x01	; 1
    102c:	d1 f7       	brne	.-12     	; 0x1022 <writeLcdF+0xc6>
    102e:	81 e0       	ldi	r24, 0x01	; 1
    1030:	7e df       	rcall	.-260    	; 0xf2e <lcdSid>
    1032:	87 ec       	ldi	r24, 0xC7	; 199
    1034:	90 e0       	ldi	r25, 0x00	; 0
    1036:	01 97       	sbiw	r24, 0x01	; 1
    1038:	f1 f7       	brne	.-4      	; 0x1036 <writeLcdF+0xda>
    103a:	00 c0       	rjmp	.+0      	; 0x103c <writeLcdF+0xe0>
    103c:	00 00       	nop
    103e:	df 91       	pop	r29
    1040:	cf 91       	pop	r28
    1042:	1f 91       	pop	r17
    1044:	0f 91       	pop	r16
    1046:	ff 90       	pop	r15
    1048:	ef 90       	pop	r14
    104a:	08 95       	ret

0000104c <lcdWriteText>:
    104c:	1f 93       	push	r17
    104e:	cf 93       	push	r28
    1050:	df 93       	push	r29
    1052:	cd b7       	in	r28, 0x3d	; 61
    1054:	de b7       	in	r29, 0x3e	; 62
    1056:	65 97       	sbiw	r28, 0x15	; 21
    1058:	0f b6       	in	r0, 0x3f	; 63
    105a:	f8 94       	cli
    105c:	de bf       	out	0x3e, r29	; 62
    105e:	0f be       	out	0x3f, r0	; 63
    1060:	cd bf       	out	0x3d, r28	; 61
    1062:	9e 01       	movw	r18, r28
    1064:	20 5e       	subi	r18, 0xE0	; 224
    1066:	3f 4f       	sbci	r19, 0xFF	; 255
    1068:	4e 8d       	ldd	r20, Y+30	; 0x1e
    106a:	5f 8d       	ldd	r21, Y+31	; 0x1f
    106c:	65 e1       	ldi	r22, 0x15	; 21
    106e:	70 e0       	ldi	r23, 0x00	; 0
    1070:	ce 01       	movw	r24, r28
    1072:	01 96       	adiw	r24, 0x01	; 1
    1074:	b0 d3       	rcall	.+1888   	; 0x17d6 <vsnprintf>
    1076:	6d 8d       	ldd	r22, Y+29	; 0x1d
    1078:	8c 8d       	ldd	r24, Y+28	; 0x1c
    107a:	90 e2       	ldi	r25, 0x20	; 32
    107c:	89 9f       	mul	r24, r25
    107e:	60 0d       	add	r22, r0
    1080:	11 24       	eor	r1, r1
    1082:	60 68       	ori	r22, 0x80	; 128
    1084:	70 e0       	ldi	r23, 0x00	; 0
    1086:	83 e4       	ldi	r24, 0x43	; 67
    1088:	90 e0       	ldi	r25, 0x00	; 0
    108a:	68 df       	rcall	.-304    	; 0xf5c <writeLcdF>
    108c:	69 81       	ldd	r22, Y+1	; 0x01
    108e:	66 23       	and	r22, r22
    1090:	79 f0       	breq	.+30     	; 0x10b0 <lcdWriteText+0x64>
    1092:	10 e0       	ldi	r17, 0x00	; 0
    1094:	1f 5f       	subi	r17, 0xFF	; 255
    1096:	70 e0       	ldi	r23, 0x00	; 0
    1098:	84 e4       	ldi	r24, 0x44	; 68
    109a:	90 e0       	ldi	r25, 0x00	; 0
    109c:	5f df       	rcall	.-322    	; 0xf5c <writeLcdF>
    109e:	e1 e0       	ldi	r30, 0x01	; 1
    10a0:	f0 e0       	ldi	r31, 0x00	; 0
    10a2:	ec 0f       	add	r30, r28
    10a4:	fd 1f       	adc	r31, r29
    10a6:	e1 0f       	add	r30, r17
    10a8:	f1 1d       	adc	r31, r1
    10aa:	60 81       	ld	r22, Z
    10ac:	61 11       	cpse	r22, r1
    10ae:	f2 cf       	rjmp	.-28     	; 0x1094 <lcdWriteText+0x48>
    10b0:	65 96       	adiw	r28, 0x15	; 21
    10b2:	0f b6       	in	r0, 0x3f	; 63
    10b4:	f8 94       	cli
    10b6:	de bf       	out	0x3e, r29	; 62
    10b8:	0f be       	out	0x3f, r0	; 63
    10ba:	cd bf       	out	0x3d, r28	; 61
    10bc:	df 91       	pop	r29
    10be:	cf 91       	pop	r28
    10c0:	1f 91       	pop	r17
    10c2:	08 95       	ret

000010c4 <lcdClear>:
    10c4:	61 e0       	ldi	r22, 0x01	; 1
    10c6:	70 e0       	ldi	r23, 0x00	; 0
    10c8:	83 e4       	ldi	r24, 0x43	; 67
    10ca:	90 e0       	ldi	r25, 0x00	; 0
    10cc:	47 df       	rcall	.-370    	; 0xf5c <writeLcdF>
    10ce:	8f e3       	ldi	r24, 0x3F	; 63
    10d0:	9f e1       	ldi	r25, 0x1F	; 31
    10d2:	01 97       	sbiw	r24, 0x01	; 1
    10d4:	f1 f7       	brne	.-4      	; 0x10d2 <lcdClear+0xe>
    10d6:	00 c0       	rjmp	.+0      	; 0x10d8 <lcdClear+0x14>
    10d8:	00 00       	nop
    10da:	84 e2       	ldi	r24, 0x24	; 36
    10dc:	92 e0       	ldi	r25, 0x02	; 2
    10de:	9f 93       	push	r25
    10e0:	8f 93       	push	r24
    10e2:	1f 92       	push	r1
    10e4:	1f 92       	push	r1
    10e6:	b2 df       	rcall	.-156    	; 0x104c <lcdWriteText>
    10e8:	0f 90       	pop	r0
    10ea:	0f 90       	pop	r0
    10ec:	0f 90       	pop	r0
    10ee:	0f 90       	pop	r0
    10f0:	08 95       	ret

000010f2 <initLcd>:
    10f2:	81 e0       	ldi	r24, 0x01	; 1
    10f4:	22 df       	rcall	.-444    	; 0xf3a <lcdSclk>
    10f6:	80 e0       	ldi	r24, 0x00	; 0
    10f8:	1a df       	rcall	.-460    	; 0xf2e <lcdSid>
    10fa:	64 e3       	ldi	r22, 0x34	; 52
    10fc:	70 e0       	ldi	r23, 0x00	; 0
    10fe:	83 e4       	ldi	r24, 0x43	; 67
    1100:	90 e0       	ldi	r25, 0x00	; 0
    1102:	2c df       	rcall	.-424    	; 0xf5c <writeLcdF>
    1104:	69 e0       	ldi	r22, 0x09	; 9
    1106:	70 e0       	ldi	r23, 0x00	; 0
    1108:	83 e4       	ldi	r24, 0x43	; 67
    110a:	90 e0       	ldi	r25, 0x00	; 0
    110c:	27 df       	rcall	.-434    	; 0xf5c <writeLcdF>
    110e:	60 e3       	ldi	r22, 0x30	; 48
    1110:	70 e0       	ldi	r23, 0x00	; 0
    1112:	83 e4       	ldi	r24, 0x43	; 67
    1114:	90 e0       	ldi	r25, 0x00	; 0
    1116:	22 df       	rcall	.-444    	; 0xf5c <writeLcdF>
    1118:	6c e0       	ldi	r22, 0x0C	; 12
    111a:	70 e0       	ldi	r23, 0x00	; 0
    111c:	83 e4       	ldi	r24, 0x43	; 67
    111e:	90 e0       	ldi	r25, 0x00	; 0
    1120:	1d df       	rcall	.-454    	; 0xf5c <writeLcdF>
    1122:	d0 df       	rcall	.-96     	; 0x10c4 <lcdClear>
    1124:	67 e0       	ldi	r22, 0x07	; 7
    1126:	70 e0       	ldi	r23, 0x00	; 0
    1128:	83 e4       	ldi	r24, 0x43	; 67
    112a:	90 e0       	ldi	r25, 0x00	; 0
    112c:	17 df       	rcall	.-466    	; 0xf5c <writeLcdF>
    112e:	80 e0       	ldi	r24, 0x00	; 0
    1130:	0a cf       	rjmp	.-492    	; 0xf46 <lcdLight>
    1132:	08 95       	ret

00001134 <initBoard>:
    1134:	4f 92       	push	r4
    1136:	5f 92       	push	r5
    1138:	6f 92       	push	r6
    113a:	7f 92       	push	r7
    113c:	8f 92       	push	r8
    113e:	9f 92       	push	r9
    1140:	af 92       	push	r10
    1142:	bf 92       	push	r11
    1144:	cf 92       	push	r12
    1146:	df 92       	push	r13
    1148:	ef 92       	push	r14
    114a:	ff 92       	push	r15
    114c:	0f 93       	push	r16
    114e:	1f 93       	push	r17
    1150:	cf 93       	push	r28
    1152:	df 93       	push	r29
    1154:	c8 2f       	mov	r28, r24
    1156:	85 b7       	in	r24, 0x35	; 53
    1158:	85 bf       	out	0x35, r24	; 53
    115a:	12 b8       	out	0x02, r1	; 2
    115c:	8f ef       	ldi	r24, 0xFF	; 255
    115e:	81 b9       	out	0x01, r24	; 1
    1160:	15 b8       	out	0x05, r1	; 5
    1162:	84 b9       	out	0x04, r24	; 4
    1164:	88 b9       	out	0x08, r24	; 8
    1166:	17 b8       	out	0x07, r1	; 7
    1168:	8b b9       	out	0x0b, r24	; 11
    116a:	1a b8       	out	0x0a, r1	; 10
    116c:	8e b9       	out	0x0e, r24	; 14
    116e:	1d b8       	out	0x0d, r1	; 13
    1170:	72 98       	cbi	0x0e, 2	; 14
    1172:	11 ba       	out	0x11, r1	; 17
    1174:	10 ba       	out	0x10, r1	; 16
    1176:	94 e0       	ldi	r25, 0x04	; 4
    1178:	94 bb       	out	0x14, r25	; 20
    117a:	93 b3       	in	r25, 0x13	; 19
    117c:	93 60       	ori	r25, 0x03	; 3
    117e:	93 bb       	out	0x13, r25	; 19
    1180:	9d 9a       	sbi	0x13, 5	; 19
    1182:	97 ec       	ldi	r25, 0xC7	; 199
    1184:	90 93 02 01 	sts	0x0102, r25	; 0x800102 <__TEXT_REGION_LENGTH__+0x700102>
    1188:	98 e3       	ldi	r25, 0x38	; 56
    118a:	90 93 01 01 	sts	0x0101, r25	; 0x800101 <__TEXT_REGION_LENGTH__+0x700101>
    118e:	10 92 05 01 	sts	0x0105, r1	; 0x800105 <__TEXT_REGION_LENGTH__+0x700105>
    1192:	80 93 04 01 	sts	0x0104, r24	; 0x800104 <__TEXT_REGION_LENGTH__+0x700104>
    1196:	10 92 08 01 	sts	0x0108, r1	; 0x800108 <__TEXT_REGION_LENGTH__+0x700108>
    119a:	10 92 07 01 	sts	0x0107, r1	; 0x800107 <__TEXT_REGION_LENGTH__+0x700107>
    119e:	8c e3       	ldi	r24, 0x3C	; 60
    11a0:	80 93 0b 01 	sts	0x010B, r24	; 0x80010b <__TEXT_REGION_LENGTH__+0x70010b>
    11a4:	10 92 0a 01 	sts	0x010A, r1	; 0x80010a <__TEXT_REGION_LENGTH__+0x70010a>
    11a8:	78 94       	sei
    11aa:	36 de       	rcall	.-916    	; 0xe18 <startSystemTimeMs>
    11ac:	a2 df       	rcall	.-188    	; 0x10f2 <initLcd>
    11ae:	3e de       	rcall	.-900    	; 0xe2c <initAdc>
    11b0:	aa de       	rcall	.-684    	; 0xf06 <initRgb>
    11b2:	cc 23       	and	r28, r28
    11b4:	09 f4       	brne	.+2      	; 0x11b8 <initBoard+0x84>
    11b6:	b8 c0       	rjmp	.+368    	; 0x1328 <initBoard+0x1f4>
    11b8:	8f ef       	ldi	r24, 0xFF	; 255
    11ba:	c5 de       	rcall	.-630    	; 0xf46 <lcdLight>
    11bc:	40 e0       	ldi	r20, 0x00	; 0
    11be:	50 e0       	ldi	r21, 0x00	; 0
    11c0:	6f ef       	ldi	r22, 0xFF	; 255
    11c2:	73 e0       	ldi	r23, 0x03	; 3
    11c4:	80 e0       	ldi	r24, 0x00	; 0
    11c6:	90 e0       	ldi	r25, 0x00	; 0
    11c8:	87 de       	rcall	.-754    	; 0xed8 <rgbWrite>
    11ca:	86 e4       	ldi	r24, 0x46	; 70
    11cc:	92 e0       	ldi	r25, 0x02	; 2
    11ce:	9f 93       	push	r25
    11d0:	8f 93       	push	r24
    11d2:	1f 92       	push	r1
    11d4:	1f 92       	push	r1
    11d6:	3a df       	rcall	.-396    	; 0x104c <lcdWriteText>
    11d8:	8b e5       	ldi	r24, 0x5B	; 91
    11da:	92 e0       	ldi	r25, 0x02	; 2
    11dc:	9f 93       	push	r25
    11de:	8f 93       	push	r24
    11e0:	1f 92       	push	r1
    11e2:	81 e0       	ldi	r24, 0x01	; 1
    11e4:	8f 93       	push	r24
    11e6:	32 df       	rcall	.-412    	; 0x104c <lcdWriteText>
    11e8:	81 e3       	ldi	r24, 0x31	; 49
    11ea:	92 e0       	ldi	r25, 0x02	; 2
    11ec:	9f 93       	push	r25
    11ee:	8f 93       	push	r24
    11f0:	1f 92       	push	r1
    11f2:	82 e0       	ldi	r24, 0x02	; 2
    11f4:	8f 93       	push	r24
    11f6:	2a df       	rcall	.-428    	; 0x104c <lcdWriteText>
    11f8:	80 e7       	ldi	r24, 0x70	; 112
    11fa:	92 e0       	ldi	r25, 0x02	; 2
    11fc:	9f 93       	push	r25
    11fe:	8f 93       	push	r24
    1200:	1f 92       	push	r1
    1202:	83 e0       	ldi	r24, 0x03	; 3
    1204:	8f 93       	push	r24
    1206:	22 df       	rcall	.-444    	; 0x104c <lcdWriteText>
    1208:	8d b7       	in	r24, 0x3d	; 61
    120a:	9e b7       	in	r25, 0x3e	; 62
    120c:	40 96       	adiw	r24, 0x10	; 16
    120e:	0f b6       	in	r0, 0x3f	; 63
    1210:	f8 94       	cli
    1212:	9e bf       	out	0x3e, r25	; 62
    1214:	0f be       	out	0x3f, r0	; 63
    1216:	8d bf       	out	0x3d, r24	; 61
    1218:	88 24       	eor	r8, r8
    121a:	83 94       	inc	r8
    121c:	c0 e0       	ldi	r28, 0x00	; 0
    121e:	71 2c       	mov	r7, r1
    1220:	99 24       	eor	r9, r9
    1222:	93 94       	inc	r9
    1224:	d0 e0       	ldi	r29, 0x00	; 0
    1226:	cc 24       	eor	r12, r12
    1228:	c3 94       	inc	r12
    122a:	d1 2c       	mov	r13, r1
    122c:	e1 2c       	mov	r14, r1
    122e:	68 94       	set
    1230:	ff 24       	eor	r15, r15
    1232:	f7 f8       	bld	r15, 7
    1234:	66 24       	eor	r6, r6
    1236:	63 94       	inc	r6
    1238:	51 2c       	mov	r5, r1
    123a:	09 e0       	ldi	r16, 0x09	; 9
    123c:	11 e0       	ldi	r17, 0x01	; 1
    123e:	0f 2e       	mov	r0, r31
    1240:	f5 e8       	ldi	r31, 0x85	; 133
    1242:	af 2e       	mov	r10, r31
    1244:	f2 e0       	ldi	r31, 0x02	; 2
    1246:	bf 2e       	mov	r11, r31
    1248:	f0 2d       	mov	r31, r0
    124a:	0f 2e       	mov	r0, r31
    124c:	f3 e0       	ldi	r31, 0x03	; 3
    124e:	4f 2e       	mov	r4, r31
    1250:	f0 2d       	mov	r31, r0
    1252:	99 20       	and	r9, r9
    1254:	49 f0       	breq	.+18     	; 0x1268 <initBoard+0x134>
    1256:	c7 01       	movw	r24, r14
    1258:	0d 2e       	mov	r0, r29
    125a:	02 c0       	rjmp	.+4      	; 0x1260 <initBoard+0x12c>
    125c:	96 95       	lsr	r25
    125e:	87 95       	ror	r24
    1260:	0a 94       	dec	r0
    1262:	e2 f7       	brpl	.-8      	; 0x125c <initBoard+0x128>
    1264:	d3 dd       	rcall	.-1114   	; 0xe0c <ledWriteAll>
    1266:	08 c0       	rjmp	.+16     	; 0x1278 <initBoard+0x144>
    1268:	c6 01       	movw	r24, r12
    126a:	0d 2e       	mov	r0, r29
    126c:	02 c0       	rjmp	.+4      	; 0x1272 <initBoard+0x13e>
    126e:	88 0f       	add	r24, r24
    1270:	99 1f       	adc	r25, r25
    1272:	0a 94       	dec	r0
    1274:	e2 f7       	brpl	.-8      	; 0x126e <initBoard+0x13a>
    1276:	ca dd       	rcall	.-1132   	; 0xe0c <ledWriteAll>
    1278:	df 5f       	subi	r29, 0xFF	; 255
    127a:	d1 31       	cpi	r29, 0x11	; 17
    127c:	28 f0       	brcs	.+10     	; 0x1288 <initBoard+0x154>
    127e:	86 2d       	mov	r24, r6
    1280:	91 10       	cpse	r9, r1
    1282:	85 2d       	mov	r24, r5
    1284:	98 2e       	mov	r9, r24
    1286:	d0 e0       	ldi	r29, 0x00	; 0
    1288:	88 20       	and	r8, r8
    128a:	11 f0       	breq	.+4      	; 0x1290 <initBoard+0x15c>
    128c:	ce 5f       	subi	r28, 0xFE	; 254
    128e:	01 c0       	rjmp	.+2      	; 0x1292 <initBoard+0x15e>
    1290:	c2 50       	subi	r28, 0x02	; 2
    1292:	8c 2f       	mov	r24, r28
    1294:	58 de       	rcall	.-848    	; 0xf46 <lcdLight>
    1296:	ce 3f       	cpi	r28, 0xFE	; 254
    1298:	21 f0       	breq	.+8      	; 0x12a2 <initBoard+0x16e>
    129a:	c8 37       	cpi	r28, 0x78	; 120
    129c:	19 f4       	brne	.+6      	; 0x12a4 <initBoard+0x170>
    129e:	86 2c       	mov	r8, r6
    12a0:	01 c0       	rjmp	.+2      	; 0x12a4 <initBoard+0x170>
    12a2:	85 2c       	mov	r8, r5
    12a4:	71 10       	cpse	r7, r1
    12a6:	3b c0       	rjmp	.+118    	; 0x131e <initBoard+0x1ea>
    12a8:	f8 01       	movw	r30, r16
    12aa:	80 81       	ld	r24, Z
    12ac:	83 7c       	andi	r24, 0xC3	; 195
    12ae:	91 f0       	breq	.+36     	; 0x12d4 <initBoard+0x1a0>
    12b0:	40 e0       	ldi	r20, 0x00	; 0
    12b2:	50 e0       	ldi	r21, 0x00	; 0
    12b4:	66 e2       	ldi	r22, 0x26	; 38
    12b6:	72 e0       	ldi	r23, 0x02	; 2
    12b8:	8f ef       	ldi	r24, 0xFF	; 255
    12ba:	93 e0       	ldi	r25, 0x03	; 3
    12bc:	0d de       	rcall	.-998    	; 0xed8 <rgbWrite>
    12be:	bf 92       	push	r11
    12c0:	af 92       	push	r10
    12c2:	1f 92       	push	r1
    12c4:	4f 92       	push	r4
    12c6:	c2 de       	rcall	.-636    	; 0x104c <lcdWriteText>
    12c8:	0f 90       	pop	r0
    12ca:	0f 90       	pop	r0
    12cc:	0f 90       	pop	r0
    12ce:	0f 90       	pop	r0
    12d0:	76 2c       	mov	r7, r6
    12d2:	25 c0       	rjmp	.+74     	; 0x131e <initBoard+0x1ea>
    12d4:	8f ef       	ldi	r24, 0xFF	; 255
    12d6:	9c e7       	ldi	r25, 0x7C	; 124
    12d8:	01 97       	sbiw	r24, 0x01	; 1
    12da:	f1 f7       	brne	.-4      	; 0x12d8 <initBoard+0x1a4>
    12dc:	00 c0       	rjmp	.+0      	; 0x12de <initBoard+0x1aa>
    12de:	00 00       	nop
    12e0:	b8 cf       	rjmp	.-144    	; 0x1252 <initBoard+0x11e>
    12e2:	f0 de       	rcall	.-544    	; 0x10c4 <lcdClear>
    12e4:	80 e0       	ldi	r24, 0x00	; 0
    12e6:	2f de       	rcall	.-930    	; 0xf46 <lcdLight>
    12e8:	80 e0       	ldi	r24, 0x00	; 0
    12ea:	90 e0       	ldi	r25, 0x00	; 0
    12ec:	8f dd       	rcall	.-1250   	; 0xe0c <ledWriteAll>
    12ee:	40 e0       	ldi	r20, 0x00	; 0
    12f0:	50 e0       	ldi	r21, 0x00	; 0
    12f2:	60 e0       	ldi	r22, 0x00	; 0
    12f4:	70 e0       	ldi	r23, 0x00	; 0
    12f6:	80 e0       	ldi	r24, 0x00	; 0
    12f8:	90 e0       	ldi	r25, 0x00	; 0
    12fa:	ee dd       	rcall	.-1060   	; 0xed8 <rgbWrite>
    12fc:	10 92 a1 02 	sts	0x02A1, r1	; 0x8002a1 <systemTimeMs>
    1300:	10 92 a2 02 	sts	0x02A2, r1	; 0x8002a2 <systemTimeMs+0x1>
    1304:	10 92 a3 02 	sts	0x02A3, r1	; 0x8002a3 <systemTimeMs+0x2>
    1308:	10 92 a4 02 	sts	0x02A4, r1	; 0x8002a4 <systemTimeMs+0x3>
    130c:	10 92 a5 02 	sts	0x02A5, r1	; 0x8002a5 <systemTimeMs+0x4>
    1310:	10 92 a6 02 	sts	0x02A6, r1	; 0x8002a6 <systemTimeMs+0x5>
    1314:	10 92 a7 02 	sts	0x02A7, r1	; 0x8002a7 <systemTimeMs+0x6>
    1318:	10 92 a8 02 	sts	0x02A8, r1	; 0x8002a8 <systemTimeMs+0x7>
    131c:	05 c0       	rjmp	.+10     	; 0x1328 <initBoard+0x1f4>
    131e:	f8 01       	movw	r30, r16
    1320:	80 81       	ld	r24, Z
    1322:	83 7c       	andi	r24, 0xC3	; 195
    1324:	b9 f6       	brne	.-82     	; 0x12d4 <initBoard+0x1a0>
    1326:	dd cf       	rjmp	.-70     	; 0x12e2 <initBoard+0x1ae>
    1328:	df 91       	pop	r29
    132a:	cf 91       	pop	r28
    132c:	1f 91       	pop	r17
    132e:	0f 91       	pop	r16
    1330:	ff 90       	pop	r15
    1332:	ef 90       	pop	r14
    1334:	df 90       	pop	r13
    1336:	cf 90       	pop	r12
    1338:	bf 90       	pop	r11
    133a:	af 90       	pop	r10
    133c:	9f 90       	pop	r9
    133e:	8f 90       	pop	r8
    1340:	7f 90       	pop	r7
    1342:	6f 90       	pop	r6
    1344:	5f 90       	pop	r5
    1346:	4f 90       	pop	r4
    1348:	08 95       	ret

0000134a <matrixWriteNextLine>:




void matrixWriteNextLine(void)
{
    134a:	cf 93       	push	r28
    134c:	df 93       	push	r29
    134e:	cd b7       	in	r28, 0x3d	; 61
    1350:	de b7       	in	r29, 0x3e	; 62
    1352:	28 97       	sbiw	r28, 0x08	; 8
    1354:	0f b6       	in	r0, 0x3f	; 63
    1356:	f8 94       	cli
    1358:	de bf       	out	0x3e, r29	; 62
    135a:	0f be       	out	0x3f, r0	; 63
    135c:	cd bf       	out	0x3d, r28	; 61
    const  uint8_t Bit_Muster_Tab[8] = {1,2,4,8,16,32,64,128};
    135e:	88 e0       	ldi	r24, 0x08	; 8
    1360:	e4 e0       	ldi	r30, 0x04	; 4
    1362:	f2 e0       	ldi	r31, 0x02	; 2
    1364:	de 01       	movw	r26, r28
    1366:	11 96       	adiw	r26, 0x01	; 1
    1368:	01 90       	ld	r0, Z+
    136a:	0d 92       	st	X+, r0
    136c:	8a 95       	dec	r24
    136e:	e1 f7       	brne	.-8      	; 0x1368 <matrixWriteNextLine+0x1e>
    static uint16_t Zeilen_Nr, Bit_Muster;
    uint8_t i;
    
    STROBE_0;                             // Daten des Scheiberegisters nicht ins Latch schreiben
    1370:	e5 e0       	ldi	r30, 0x05	; 5
    1372:	f1 e0       	ldi	r31, 0x01	; 1
    1374:	80 81       	ld	r24, Z
    1376:	8f 7b       	andi	r24, 0xBF	; 191
    1378:	80 83       	st	Z, r24

    Bit_Muster = Bit_Muster_Tab[Zeilen_Nr]; // Bitmuster aus Tabelle holen, um mit Daten in matrix[] zu vergleichen.
    137a:	e0 91 9e 02 	lds	r30, 0x029E	; 0x80029e <Zeilen_Nr.2731>
    137e:	f0 91 9f 02 	lds	r31, 0x029F	; 0x80029f <Zeilen_Nr.2731+0x1>
    1382:	81 e0       	ldi	r24, 0x01	; 1
    1384:	90 e0       	ldi	r25, 0x00	; 0
    1386:	8c 0f       	add	r24, r28
    1388:	9d 1f       	adc	r25, r29
    138a:	e8 0f       	add	r30, r24
    138c:	f9 1f       	adc	r31, r25
    138e:	80 81       	ld	r24, Z
    1390:	90 e0       	ldi	r25, 0x00	; 0
    1392:	90 93 9d 02 	sts	0x029D, r25	; 0x80029d <__data_end+0x1>
    1396:	80 93 9c 02 	sts	0x029C, r24	; 0x80029c <__data_end>
    139a:	aa e1       	ldi	r26, 0x1A	; 26
    139c:	b3 e0       	ldi	r27, 0x03	; 3
    139e:	2a ea       	ldi	r18, 0xAA	; 170
    13a0:	32 e0       	ldi	r19, 0x02	; 2
    {                                       // Vergleicht Bit-Muster der aktuellen Zeile mit Daten in matrix[]
        if((matrix[Anzahl_Spalten-1- i] & Bit_Muster) != 0)     // Ist in matrix[] das entsprechende Bit gesetzt?
        { DATA_Modul_1_ON;                    //   JA:   ==> Datenbit "1" ins Schieberegister schreiben
        }
        else
        { DATA_Modul_1_OFF;                   //   NEIN: ==> Datenbit "0" ins Schieberegister schreiben
    13a2:	e5 e0       	ldi	r30, 0x05	; 5
    13a4:	f1 e0       	ldi	r31, 0x01	; 1
    Bit_Muster = Bit_Muster_Tab[Zeilen_Nr]; // Bitmuster aus Tabelle holen, um mit Daten in matrix[] zu vergleichen.
    
    // Alle Bits seriell ins Schieberegister hineinschreiben
    for(i=0; i<Anzahl_Spalten; i++)         // Alle Spalten durchgehen und 체berp체fen, ob Bit gesetzt ist
    {                                       // Vergleicht Bit-Muster der aktuellen Zeile mit Daten in matrix[]
        if((matrix[Anzahl_Spalten-1- i] & Bit_Muster) != 0)     // Ist in matrix[] das entsprechende Bit gesetzt?
    13a6:	5e 91       	ld	r21, -X
    13a8:	4e 91       	ld	r20, -X
    13aa:	80 91 9c 02 	lds	r24, 0x029C	; 0x80029c <__data_end>
    13ae:	90 91 9d 02 	lds	r25, 0x029D	; 0x80029d <__data_end+0x1>
    13b2:	84 23       	and	r24, r20
    13b4:	95 23       	and	r25, r21
    13b6:	89 2b       	or	r24, r25
    13b8:	21 f0       	breq	.+8      	; 0x13c2 <matrixWriteNextLine+0x78>
        { DATA_Modul_1_ON;                    //   JA:   ==> Datenbit "1" ins Schieberegister schreiben
    13ba:	80 81       	ld	r24, Z
    13bc:	80 62       	ori	r24, 0x20	; 32
    13be:	80 83       	st	Z, r24
    13c0:	03 c0       	rjmp	.+6      	; 0x13c8 <matrixWriteNextLine+0x7e>
        }
        else
        { DATA_Modul_1_OFF;                   //   NEIN: ==> Datenbit "0" ins Schieberegister schreiben
    13c2:	80 81       	ld	r24, Z
    13c4:	8f 7d       	andi	r24, 0xDF	; 223
    13c6:	80 83       	st	Z, r24
        }
        CLOCK_1;
    13c8:	80 81       	ld	r24, Z
    13ca:	80 61       	ori	r24, 0x10	; 16
    13cc:	80 83       	st	Z, r24
        CLOCK_0;                            // Datenbit wird bei der negativen Flanke des Clock-Signals 체bernommen
    13ce:	80 81       	ld	r24, Z
    13d0:	8f 7e       	andi	r24, 0xEF	; 239
    13d2:	80 83       	st	Z, r24
    STROBE_0;                             // Daten des Scheiberegisters nicht ins Latch schreiben

    Bit_Muster = Bit_Muster_Tab[Zeilen_Nr]; // Bitmuster aus Tabelle holen, um mit Daten in matrix[] zu vergleichen.
    
    // Alle Bits seriell ins Schieberegister hineinschreiben
    for(i=0; i<Anzahl_Spalten; i++)         // Alle Spalten durchgehen und 체berp체fen, ob Bit gesetzt ist
    13d4:	a2 17       	cp	r26, r18
    13d6:	b3 07       	cpc	r27, r19
    13d8:	31 f7       	brne	.-52     	; 0x13a6 <matrixWriteNextLine+0x5c>
        }
        CLOCK_1;
        CLOCK_0;                            // Datenbit wird bei der negativen Flanke des Clock-Signals 체bernommen
    }
    
    ENABLE_0;                                // +5V aller Zeilen abschalten
    13da:	e5 e0       	ldi	r30, 0x05	; 5
    13dc:	f1 e0       	ldi	r31, 0x01	; 1
    13de:	80 81       	ld	r24, Z
    13e0:	87 7f       	andi	r24, 0xF7	; 247
    13e2:	80 83       	st	Z, r24
    PORTJ &= ~0x07;
    13e4:	80 81       	ld	r24, Z
    13e6:	88 7f       	andi	r24, 0xF8	; 248
    13e8:	80 83       	st	Z, r24
    PORTJ |= Zeilen_Nr;                     // gew체nschte Zeile einstellen
    13ea:	90 81       	ld	r25, Z
    13ec:	80 91 9e 02 	lds	r24, 0x029E	; 0x80029e <Zeilen_Nr.2731>
    13f0:	89 2b       	or	r24, r25
    13f2:	80 83       	st	Z, r24
    STROBE_1;                             // Daten ins Latch schreiben
    13f4:	80 81       	ld	r24, Z
    13f6:	80 64       	ori	r24, 0x40	; 64
    13f8:	80 83       	st	Z, r24
    ENABLE_1;                             // +5V Speisung der eingestellten Zeile einschalten
    13fa:	80 81       	ld	r24, Z
    13fc:	88 60       	ori	r24, 0x08	; 8
    13fe:	80 83       	st	Z, r24

    // Die Zeilen werden nacheinander eingeschaltet --> zyklisch 0,1,2,3,4,5,6,7, 0,1,2,3, ...
    if (Zeilen_Nr < 7)
    1400:	80 91 9e 02 	lds	r24, 0x029E	; 0x80029e <Zeilen_Nr.2731>
    1404:	90 91 9f 02 	lds	r25, 0x029F	; 0x80029f <Zeilen_Nr.2731+0x1>
    1408:	87 30       	cpi	r24, 0x07	; 7
    140a:	91 05       	cpc	r25, r1
    140c:	30 f4       	brcc	.+12     	; 0x141a <matrixWriteNextLine+0xd0>
    {
        Zeilen_Nr++;
    140e:	01 96       	adiw	r24, 0x01	; 1
    1410:	90 93 9f 02 	sts	0x029F, r25	; 0x80029f <Zeilen_Nr.2731+0x1>
    1414:	80 93 9e 02 	sts	0x029E, r24	; 0x80029e <Zeilen_Nr.2731>
    1418:	07 c0       	rjmp	.+14     	; 0x1428 <matrixWriteNextLine+0xde>
    }
    else
    {
        Zeilen_Nr = 0;
    141a:	10 92 9f 02 	sts	0x029F, r1	; 0x80029f <Zeilen_Nr.2731+0x1>
    141e:	10 92 9e 02 	sts	0x029E, r1	; 0x80029e <Zeilen_Nr.2731>
        writeTextFinished = 1;
    1422:	81 e0       	ldi	r24, 0x01	; 1
    1424:	80 93 a0 02 	sts	0x02A0, r24	; 0x8002a0 <writeTextFinished>
    }
    
    1428:	28 96       	adiw	r28, 0x08	; 8
    142a:	0f b6       	in	r0, 0x3f	; 63
    142c:	f8 94       	cli
    142e:	de bf       	out	0x3e, r29	; 62
    1430:	0f be       	out	0x3f, r0	; 63
    1432:	cd bf       	out	0x3d, r28	; 61
    1434:	df 91       	pop	r29
    1436:	cf 91       	pop	r28
    1438:	08 95       	ret

0000143a <__vector_23>:
//--------------------------------------------------------------------------------------------
// Timer 0 Overflow Interrupt ->  Wird alle 1ms aufgerufen
//--------------------------------------------------------------------------------------------

ISR(TIMER0_OVF_vect)
{
    143a:	1f 92       	push	r1
    143c:	0f 92       	push	r0
    143e:	0f b6       	in	r0, 0x3f	; 63
    1440:	0f 92       	push	r0
    1442:	11 24       	eor	r1, r1
    1444:	0b b6       	in	r0, 0x3b	; 59
    1446:	0f 92       	push	r0
    1448:	2f 93       	push	r18
    144a:	3f 93       	push	r19
    144c:	4f 93       	push	r20
    144e:	5f 93       	push	r21
    1450:	6f 93       	push	r22
    1452:	7f 93       	push	r23
    1454:	8f 93       	push	r24
    1456:	9f 93       	push	r25
    1458:	af 93       	push	r26
    145a:	bf 93       	push	r27
    145c:	ef 93       	push	r30
    145e:	ff 93       	push	r31
    systemTimeMs += 1;
    1460:	20 91 a1 02 	lds	r18, 0x02A1	; 0x8002a1 <systemTimeMs>
    1464:	30 91 a2 02 	lds	r19, 0x02A2	; 0x8002a2 <systemTimeMs+0x1>
    1468:	40 91 a3 02 	lds	r20, 0x02A3	; 0x8002a3 <systemTimeMs+0x2>
    146c:	50 91 a4 02 	lds	r21, 0x02A4	; 0x8002a4 <systemTimeMs+0x3>
    1470:	60 91 a5 02 	lds	r22, 0x02A5	; 0x8002a5 <systemTimeMs+0x4>
    1474:	70 91 a6 02 	lds	r23, 0x02A6	; 0x8002a6 <systemTimeMs+0x5>
    1478:	80 91 a7 02 	lds	r24, 0x02A7	; 0x8002a7 <systemTimeMs+0x6>
    147c:	90 91 a8 02 	lds	r25, 0x02A8	; 0x8002a8 <systemTimeMs+0x7>
    1480:	a1 e0       	ldi	r26, 0x01	; 1
    1482:	d3 d0       	rcall	.+422    	; 0x162a <__adddi3_s8>
    1484:	20 93 a1 02 	sts	0x02A1, r18	; 0x8002a1 <systemTimeMs>
    1488:	30 93 a2 02 	sts	0x02A2, r19	; 0x8002a2 <systemTimeMs+0x1>
    148c:	40 93 a3 02 	sts	0x02A3, r20	; 0x8002a3 <systemTimeMs+0x2>
    1490:	50 93 a4 02 	sts	0x02A4, r21	; 0x8002a4 <systemTimeMs+0x3>
    1494:	60 93 a5 02 	sts	0x02A5, r22	; 0x8002a5 <systemTimeMs+0x4>
    1498:	70 93 a6 02 	sts	0x02A6, r23	; 0x8002a6 <systemTimeMs+0x5>
    149c:	80 93 a7 02 	sts	0x02A7, r24	; 0x8002a7 <systemTimeMs+0x6>
    14a0:	90 93 a8 02 	sts	0x02A8, r25	; 0x8002a8 <systemTimeMs+0x7>

    if(matrixRunning)matrixWriteNextLine();
    14a4:	80 91 a9 02 	lds	r24, 0x02A9	; 0x8002a9 <matrixRunning>
    14a8:	81 11       	cpse	r24, r1
    14aa:	4f df       	rcall	.-354    	; 0x134a <matrixWriteNextLine>
}
    14ac:	ff 91       	pop	r31
    14ae:	ef 91       	pop	r30
    14b0:	bf 91       	pop	r27
    14b2:	af 91       	pop	r26
    14b4:	9f 91       	pop	r25
    14b6:	8f 91       	pop	r24
    14b8:	7f 91       	pop	r23
    14ba:	6f 91       	pop	r22
    14bc:	5f 91       	pop	r21
    14be:	4f 91       	pop	r20
    14c0:	3f 91       	pop	r19
    14c2:	2f 91       	pop	r18
    14c4:	0f 90       	pop	r0
    14c6:	0b be       	out	0x3b, r0	; 59
    14c8:	0f 90       	pop	r0
    14ca:	0f be       	out	0x3f, r0	; 63
    14cc:	0f 90       	pop	r0
    14ce:	1f 90       	pop	r1
    14d0:	18 95       	reti

000014d2 <led_strip_write>:
  0 pulse  = 400 ns
  1 pulse  = 850 ns
  "period" = 1300 ns
 */
void __attribute__((noinline)) led_strip_write(rgb_color * colors) 
{
    14d2:	fc 01       	movw	r30, r24
  unsigned int count = LED_COUNT;
  // Set the pin to be an output driving low.
  LED_STRIP_PORT &= ~(1<<LED_STRIP_PIN);
    14d4:	58 98       	cbi	0x0b, 0	; 11
  LED_STRIP_DDR |= (1<<LED_STRIP_PIN);
    14d6:	50 9a       	sbi	0x0a, 0	; 10

  cli();   // Disable interrupts temporarily because we don't want our pulse timing to be messed up.
    14d8:	f8 94       	cli
    14da:	20 e0       	ldi	r18, 0x00	; 0
    14dc:	31 e0       	ldi	r19, 0x01	; 1
  while(count--)
  {
    // Send a color to the LED strip.
    // The assembly below also increments the 'colors' pointer,
    // it will be pointing to the next color at the end of this loop.
    asm volatile(
    14de:	01 90       	ld	r0, Z+
    14e0:	00 80       	ld	r0, Z
    14e2:	07 d0       	rcall	.+14     	; 0x14f2 <send_led_strip_byte24>
    14e4:	02 90       	ld	r0, -Z
    14e6:	05 d0       	rcall	.+10     	; 0x14f2 <send_led_strip_byte24>
    14e8:	01 90       	ld	r0, Z+
    14ea:	01 90       	ld	r0, Z+
    14ec:	01 90       	ld	r0, Z+
    14ee:	01 d0       	rcall	.+2      	; 0x14f2 <send_led_strip_byte24>
    14f0:	16 c0       	rjmp	.+44     	; 0x151e <led_strip_asm_end24>

000014f2 <send_led_strip_byte24>:
    14f2:	07 d0       	rcall	.+14     	; 0x1502 <send_led_strip_bit24>
    14f4:	06 d0       	rcall	.+12     	; 0x1502 <send_led_strip_bit24>
    14f6:	05 d0       	rcall	.+10     	; 0x1502 <send_led_strip_bit24>
    14f8:	04 d0       	rcall	.+8      	; 0x1502 <send_led_strip_bit24>
    14fa:	03 d0       	rcall	.+6      	; 0x1502 <send_led_strip_bit24>
    14fc:	02 d0       	rcall	.+4      	; 0x1502 <send_led_strip_bit24>
    14fe:	01 d0       	rcall	.+2      	; 0x1502 <send_led_strip_bit24>
    1500:	00 c0       	rjmp	.+0      	; 0x1502 <send_led_strip_bit24>

00001502 <send_led_strip_bit24>:
    1502:	58 9a       	sbi	0x0b, 0	; 11
    1504:	00 1c       	adc	r0, r0
    1506:	00 00       	nop
    1508:	00 00       	nop
    150a:	08 f0       	brcs	.+2      	; 0x150e <send_led_strip_bit24+0xc>
    150c:	58 98       	cbi	0x0b, 0	; 11
	...
    1516:	00 00       	nop
    1518:	08 f4       	brcc	.+2      	; 0x151c <send_led_strip_bit24+0x1a>
    151a:	58 98       	cbi	0x0b, 0	; 11
    151c:	08 95       	ret

0000151e <led_strip_asm_end24>:
    151e:	21 50       	subi	r18, 0x01	; 1
    1520:	31 09       	sbc	r19, r1
  // Set the pin to be an output driving low.
  LED_STRIP_PORT &= ~(1<<LED_STRIP_PIN);
  LED_STRIP_DDR |= (1<<LED_STRIP_PIN);

  cli();   // Disable interrupts temporarily because we don't want our pulse timing to be messed up.
  while(count--)
    1522:	09 f0       	breq	.+2      	; 0x1526 <led_strip_asm_end24+0x8>
    1524:	dc cf       	rjmp	.-72     	; 0x14de <led_strip_write+0xc>
    );

    // Uncomment the line below to temporarily enable interrupts between each color.
    //sei(); asm volatile("nop\n"); cli();
  }
  sei();          // Re-enable interrupts now that we are done.
    1526:	78 94       	sei
	#else
		//round up by default
		__ticks_dc = (uint32_t)(ceil(fabs(__tmp)));
	#endif

	__builtin_avr_delay_cycles(__ticks_dc);
    1528:	8f e3       	ldi	r24, 0x3F	; 63
    152a:	91 e0       	ldi	r25, 0x01	; 1
    152c:	01 97       	sbiw	r24, 0x01	; 1
    152e:	f1 f7       	brne	.-4      	; 0x152c <led_strip_asm_end24+0xe>
    1530:	00 c0       	rjmp	.+0      	; 0x1532 <led_strip_asm_end24+0x14>
    1532:	00 00       	nop
    1534:	08 95       	ret

00001536 <__divmodsi4>:
    1536:	05 2e       	mov	r0, r21
    1538:	97 fb       	bst	r25, 7
    153a:	16 f4       	brtc	.+4      	; 0x1540 <__divmodsi4+0xa>
    153c:	00 94       	com	r0
    153e:	0f d0       	rcall	.+30     	; 0x155e <__negsi2>
    1540:	57 fd       	sbrc	r21, 7
    1542:	05 d0       	rcall	.+10     	; 0x154e <__divmodsi4_neg2>
    1544:	8a d0       	rcall	.+276    	; 0x165a <__udivmodsi4>
    1546:	07 fc       	sbrc	r0, 7
    1548:	02 d0       	rcall	.+4      	; 0x154e <__divmodsi4_neg2>
    154a:	46 f4       	brtc	.+16     	; 0x155c <__divmodsi4_exit>
    154c:	08 c0       	rjmp	.+16     	; 0x155e <__negsi2>

0000154e <__divmodsi4_neg2>:
    154e:	50 95       	com	r21
    1550:	40 95       	com	r20
    1552:	30 95       	com	r19
    1554:	21 95       	neg	r18
    1556:	3f 4f       	sbci	r19, 0xFF	; 255
    1558:	4f 4f       	sbci	r20, 0xFF	; 255
    155a:	5f 4f       	sbci	r21, 0xFF	; 255

0000155c <__divmodsi4_exit>:
    155c:	08 95       	ret

0000155e <__negsi2>:
    155e:	90 95       	com	r25
    1560:	80 95       	com	r24
    1562:	70 95       	com	r23
    1564:	61 95       	neg	r22
    1566:	7f 4f       	sbci	r23, 0xFF	; 255
    1568:	8f 4f       	sbci	r24, 0xFF	; 255
    156a:	9f 4f       	sbci	r25, 0xFF	; 255
    156c:	08 95       	ret

0000156e <__umoddi3>:
    156e:	68 94       	set
    1570:	01 c0       	rjmp	.+2      	; 0x1574 <__udivdi3_umoddi3>

00001572 <__udivdi3>:
    1572:	e8 94       	clt

00001574 <__udivdi3_umoddi3>:
    1574:	8f 92       	push	r8
    1576:	9f 92       	push	r9
    1578:	cf 93       	push	r28
    157a:	df 93       	push	r29
    157c:	05 d0       	rcall	.+10     	; 0x1588 <__udivmod64>
    157e:	df 91       	pop	r29
    1580:	cf 91       	pop	r28
    1582:	9f 90       	pop	r9
    1584:	8f 90       	pop	r8
    1586:	08 95       	ret

00001588 <__udivmod64>:
    1588:	88 24       	eor	r8, r8
    158a:	99 24       	eor	r9, r9
    158c:	f4 01       	movw	r30, r8
    158e:	e4 01       	movw	r28, r8
    1590:	b0 e4       	ldi	r27, 0x40	; 64
    1592:	9f 93       	push	r25
    1594:	aa 27       	eor	r26, r26
    1596:	9a 15       	cp	r25, r10
    1598:	8b 04       	cpc	r8, r11
    159a:	9c 04       	cpc	r9, r12
    159c:	ed 05       	cpc	r30, r13
    159e:	fe 05       	cpc	r31, r14
    15a0:	cf 05       	cpc	r28, r15
    15a2:	d0 07       	cpc	r29, r16
    15a4:	a1 07       	cpc	r26, r17
    15a6:	98 f4       	brcc	.+38     	; 0x15ce <__udivmod64+0x46>
    15a8:	ad 2f       	mov	r26, r29
    15aa:	dc 2f       	mov	r29, r28
    15ac:	cf 2f       	mov	r28, r31
    15ae:	fe 2f       	mov	r31, r30
    15b0:	e9 2d       	mov	r30, r9
    15b2:	98 2c       	mov	r9, r8
    15b4:	89 2e       	mov	r8, r25
    15b6:	98 2f       	mov	r25, r24
    15b8:	87 2f       	mov	r24, r23
    15ba:	76 2f       	mov	r23, r22
    15bc:	65 2f       	mov	r22, r21
    15be:	54 2f       	mov	r21, r20
    15c0:	43 2f       	mov	r20, r19
    15c2:	32 2f       	mov	r19, r18
    15c4:	22 27       	eor	r18, r18
    15c6:	b8 50       	subi	r27, 0x08	; 8
    15c8:	31 f7       	brne	.-52     	; 0x1596 <__udivmod64+0xe>
    15ca:	bf 91       	pop	r27
    15cc:	27 c0       	rjmp	.+78     	; 0x161c <__udivmod64+0x94>
    15ce:	1b 2e       	mov	r1, r27
    15d0:	bf 91       	pop	r27
    15d2:	bb 27       	eor	r27, r27
    15d4:	22 0f       	add	r18, r18
    15d6:	33 1f       	adc	r19, r19
    15d8:	44 1f       	adc	r20, r20
    15da:	55 1f       	adc	r21, r21
    15dc:	66 1f       	adc	r22, r22
    15de:	77 1f       	adc	r23, r23
    15e0:	88 1f       	adc	r24, r24
    15e2:	99 1f       	adc	r25, r25
    15e4:	88 1c       	adc	r8, r8
    15e6:	99 1c       	adc	r9, r9
    15e8:	ee 1f       	adc	r30, r30
    15ea:	ff 1f       	adc	r31, r31
    15ec:	cc 1f       	adc	r28, r28
    15ee:	dd 1f       	adc	r29, r29
    15f0:	aa 1f       	adc	r26, r26
    15f2:	bb 1f       	adc	r27, r27
    15f4:	8a 14       	cp	r8, r10
    15f6:	9b 04       	cpc	r9, r11
    15f8:	ec 05       	cpc	r30, r12
    15fa:	fd 05       	cpc	r31, r13
    15fc:	ce 05       	cpc	r28, r14
    15fe:	df 05       	cpc	r29, r15
    1600:	a0 07       	cpc	r26, r16
    1602:	b1 07       	cpc	r27, r17
    1604:	48 f0       	brcs	.+18     	; 0x1618 <__udivmod64+0x90>
    1606:	8a 18       	sub	r8, r10
    1608:	9b 08       	sbc	r9, r11
    160a:	ec 09       	sbc	r30, r12
    160c:	fd 09       	sbc	r31, r13
    160e:	ce 09       	sbc	r28, r14
    1610:	df 09       	sbc	r29, r15
    1612:	a0 0b       	sbc	r26, r16
    1614:	b1 0b       	sbc	r27, r17
    1616:	21 60       	ori	r18, 0x01	; 1
    1618:	1a 94       	dec	r1
    161a:	e1 f6       	brne	.-72     	; 0x15d4 <__udivmod64+0x4c>
    161c:	2e f4       	brtc	.+10     	; 0x1628 <__udivmod64+0xa0>
    161e:	94 01       	movw	r18, r8
    1620:	af 01       	movw	r20, r30
    1622:	be 01       	movw	r22, r28
    1624:	cd 01       	movw	r24, r26
    1626:	00 0c       	add	r0, r0
    1628:	08 95       	ret

0000162a <__adddi3_s8>:
    162a:	00 24       	eor	r0, r0
    162c:	a7 fd       	sbrc	r26, 7
    162e:	00 94       	com	r0
    1630:	2a 0f       	add	r18, r26
    1632:	30 1d       	adc	r19, r0
    1634:	40 1d       	adc	r20, r0
    1636:	50 1d       	adc	r21, r0
    1638:	60 1d       	adc	r22, r0
    163a:	70 1d       	adc	r23, r0
    163c:	80 1d       	adc	r24, r0
    163e:	90 1d       	adc	r25, r0
    1640:	08 95       	ret

00001642 <__cmpdi2_s8>:
    1642:	00 24       	eor	r0, r0
    1644:	a7 fd       	sbrc	r26, 7
    1646:	00 94       	com	r0
    1648:	2a 17       	cp	r18, r26
    164a:	30 05       	cpc	r19, r0
    164c:	40 05       	cpc	r20, r0
    164e:	50 05       	cpc	r21, r0
    1650:	60 05       	cpc	r22, r0
    1652:	70 05       	cpc	r23, r0
    1654:	80 05       	cpc	r24, r0
    1656:	90 05       	cpc	r25, r0
    1658:	08 95       	ret

0000165a <__udivmodsi4>:
    165a:	a1 e2       	ldi	r26, 0x21	; 33
    165c:	1a 2e       	mov	r1, r26
    165e:	aa 1b       	sub	r26, r26
    1660:	bb 1b       	sub	r27, r27
    1662:	fd 01       	movw	r30, r26
    1664:	0d c0       	rjmp	.+26     	; 0x1680 <__udivmodsi4_ep>

00001666 <__udivmodsi4_loop>:
    1666:	aa 1f       	adc	r26, r26
    1668:	bb 1f       	adc	r27, r27
    166a:	ee 1f       	adc	r30, r30
    166c:	ff 1f       	adc	r31, r31
    166e:	a2 17       	cp	r26, r18
    1670:	b3 07       	cpc	r27, r19
    1672:	e4 07       	cpc	r30, r20
    1674:	f5 07       	cpc	r31, r21
    1676:	20 f0       	brcs	.+8      	; 0x1680 <__udivmodsi4_ep>
    1678:	a2 1b       	sub	r26, r18
    167a:	b3 0b       	sbc	r27, r19
    167c:	e4 0b       	sbc	r30, r20
    167e:	f5 0b       	sbc	r31, r21

00001680 <__udivmodsi4_ep>:
    1680:	66 1f       	adc	r22, r22
    1682:	77 1f       	adc	r23, r23
    1684:	88 1f       	adc	r24, r24
    1686:	99 1f       	adc	r25, r25
    1688:	1a 94       	dec	r1
    168a:	69 f7       	brne	.-38     	; 0x1666 <__udivmodsi4_loop>
    168c:	60 95       	com	r22
    168e:	70 95       	com	r23
    1690:	80 95       	com	r24
    1692:	90 95       	com	r25
    1694:	9b 01       	movw	r18, r22
    1696:	ac 01       	movw	r20, r24
    1698:	bd 01       	movw	r22, r26
    169a:	cf 01       	movw	r24, r30
    169c:	08 95       	ret

0000169e <random_r>:
    169e:	8f 92       	push	r8
    16a0:	9f 92       	push	r9
    16a2:	af 92       	push	r10
    16a4:	bf 92       	push	r11
    16a6:	cf 92       	push	r12
    16a8:	df 92       	push	r13
    16aa:	ef 92       	push	r14
    16ac:	ff 92       	push	r15
    16ae:	cf 93       	push	r28
    16b0:	df 93       	push	r29
    16b2:	ec 01       	movw	r28, r24
    16b4:	68 81       	ld	r22, Y
    16b6:	79 81       	ldd	r23, Y+1	; 0x01
    16b8:	8a 81       	ldd	r24, Y+2	; 0x02
    16ba:	9b 81       	ldd	r25, Y+3	; 0x03
    16bc:	61 15       	cp	r22, r1
    16be:	71 05       	cpc	r23, r1
    16c0:	81 05       	cpc	r24, r1
    16c2:	91 05       	cpc	r25, r1
    16c4:	21 f4       	brne	.+8      	; 0x16ce <random_r+0x30>
    16c6:	64 e2       	ldi	r22, 0x24	; 36
    16c8:	79 ed       	ldi	r23, 0xD9	; 217
    16ca:	8b e5       	ldi	r24, 0x5B	; 91
    16cc:	97 e0       	ldi	r25, 0x07	; 7
    16ce:	2d e1       	ldi	r18, 0x1D	; 29
    16d0:	33 ef       	ldi	r19, 0xF3	; 243
    16d2:	41 e0       	ldi	r20, 0x01	; 1
    16d4:	50 e0       	ldi	r21, 0x00	; 0
    16d6:	2f df       	rcall	.-418    	; 0x1536 <__divmodsi4>
    16d8:	49 01       	movw	r8, r18
    16da:	5a 01       	movw	r10, r20
    16dc:	9b 01       	movw	r18, r22
    16de:	ac 01       	movw	r20, r24
    16e0:	a7 ea       	ldi	r26, 0xA7	; 167
    16e2:	b1 e4       	ldi	r27, 0x41	; 65
    16e4:	5d d3       	rcall	.+1722   	; 0x1da0 <__muluhisi3>
    16e6:	6b 01       	movw	r12, r22
    16e8:	7c 01       	movw	r14, r24
    16ea:	ac ee       	ldi	r26, 0xEC	; 236
    16ec:	b4 ef       	ldi	r27, 0xF4	; 244
    16ee:	a5 01       	movw	r20, r10
    16f0:	94 01       	movw	r18, r8
    16f2:	62 d3       	rcall	.+1732   	; 0x1db8 <__mulohisi3>
    16f4:	dc 01       	movw	r26, r24
    16f6:	cb 01       	movw	r24, r22
    16f8:	8c 0d       	add	r24, r12
    16fa:	9d 1d       	adc	r25, r13
    16fc:	ae 1d       	adc	r26, r14
    16fe:	bf 1d       	adc	r27, r15
    1700:	b7 ff       	sbrs	r27, 7
    1702:	03 c0       	rjmp	.+6      	; 0x170a <random_r+0x6c>
    1704:	01 97       	sbiw	r24, 0x01	; 1
    1706:	a1 09       	sbc	r26, r1
    1708:	b0 48       	sbci	r27, 0x80	; 128
    170a:	88 83       	st	Y, r24
    170c:	99 83       	std	Y+1, r25	; 0x01
    170e:	aa 83       	std	Y+2, r26	; 0x02
    1710:	bb 83       	std	Y+3, r27	; 0x03
    1712:	bc 01       	movw	r22, r24
    1714:	cd 01       	movw	r24, r26
    1716:	9f 77       	andi	r25, 0x7F	; 127
    1718:	df 91       	pop	r29
    171a:	cf 91       	pop	r28
    171c:	ff 90       	pop	r15
    171e:	ef 90       	pop	r14
    1720:	df 90       	pop	r13
    1722:	cf 90       	pop	r12
    1724:	bf 90       	pop	r11
    1726:	af 90       	pop	r10
    1728:	9f 90       	pop	r9
    172a:	8f 90       	pop	r8
    172c:	08 95       	ret

0000172e <random>:
    172e:	8f 92       	push	r8
    1730:	9f 92       	push	r9
    1732:	af 92       	push	r10
    1734:	bf 92       	push	r11
    1736:	cf 92       	push	r12
    1738:	df 92       	push	r13
    173a:	ef 92       	push	r14
    173c:	ff 92       	push	r15
    173e:	60 91 00 02 	lds	r22, 0x0200	; 0x800200 <__DATA_REGION_ORIGIN__>
    1742:	70 91 01 02 	lds	r23, 0x0201	; 0x800201 <__DATA_REGION_ORIGIN__+0x1>
    1746:	80 91 02 02 	lds	r24, 0x0202	; 0x800202 <__DATA_REGION_ORIGIN__+0x2>
    174a:	90 91 03 02 	lds	r25, 0x0203	; 0x800203 <__DATA_REGION_ORIGIN__+0x3>
    174e:	61 15       	cp	r22, r1
    1750:	71 05       	cpc	r23, r1
    1752:	81 05       	cpc	r24, r1
    1754:	91 05       	cpc	r25, r1
    1756:	21 f4       	brne	.+8      	; 0x1760 <random+0x32>
    1758:	64 e2       	ldi	r22, 0x24	; 36
    175a:	79 ed       	ldi	r23, 0xD9	; 217
    175c:	8b e5       	ldi	r24, 0x5B	; 91
    175e:	97 e0       	ldi	r25, 0x07	; 7
    1760:	2d e1       	ldi	r18, 0x1D	; 29
    1762:	33 ef       	ldi	r19, 0xF3	; 243
    1764:	41 e0       	ldi	r20, 0x01	; 1
    1766:	50 e0       	ldi	r21, 0x00	; 0
    1768:	e6 de       	rcall	.-564    	; 0x1536 <__divmodsi4>
    176a:	49 01       	movw	r8, r18
    176c:	5a 01       	movw	r10, r20
    176e:	9b 01       	movw	r18, r22
    1770:	ac 01       	movw	r20, r24
    1772:	a7 ea       	ldi	r26, 0xA7	; 167
    1774:	b1 e4       	ldi	r27, 0x41	; 65
    1776:	14 d3       	rcall	.+1576   	; 0x1da0 <__muluhisi3>
    1778:	6b 01       	movw	r12, r22
    177a:	7c 01       	movw	r14, r24
    177c:	ac ee       	ldi	r26, 0xEC	; 236
    177e:	b4 ef       	ldi	r27, 0xF4	; 244
    1780:	a5 01       	movw	r20, r10
    1782:	94 01       	movw	r18, r8
    1784:	19 d3       	rcall	.+1586   	; 0x1db8 <__mulohisi3>
    1786:	dc 01       	movw	r26, r24
    1788:	cb 01       	movw	r24, r22
    178a:	8c 0d       	add	r24, r12
    178c:	9d 1d       	adc	r25, r13
    178e:	ae 1d       	adc	r26, r14
    1790:	bf 1d       	adc	r27, r15
    1792:	b7 ff       	sbrs	r27, 7
    1794:	03 c0       	rjmp	.+6      	; 0x179c <random+0x6e>
    1796:	01 97       	sbiw	r24, 0x01	; 1
    1798:	a1 09       	sbc	r26, r1
    179a:	b0 48       	sbci	r27, 0x80	; 128
    179c:	80 93 00 02 	sts	0x0200, r24	; 0x800200 <__DATA_REGION_ORIGIN__>
    17a0:	90 93 01 02 	sts	0x0201, r25	; 0x800201 <__DATA_REGION_ORIGIN__+0x1>
    17a4:	a0 93 02 02 	sts	0x0202, r26	; 0x800202 <__DATA_REGION_ORIGIN__+0x2>
    17a8:	b0 93 03 02 	sts	0x0203, r27	; 0x800203 <__DATA_REGION_ORIGIN__+0x3>
    17ac:	bc 01       	movw	r22, r24
    17ae:	cd 01       	movw	r24, r26
    17b0:	9f 77       	andi	r25, 0x7F	; 127
    17b2:	ff 90       	pop	r15
    17b4:	ef 90       	pop	r14
    17b6:	df 90       	pop	r13
    17b8:	cf 90       	pop	r12
    17ba:	bf 90       	pop	r11
    17bc:	af 90       	pop	r10
    17be:	9f 90       	pop	r9
    17c0:	8f 90       	pop	r8
    17c2:	08 95       	ret

000017c4 <srandom>:
    17c4:	60 93 00 02 	sts	0x0200, r22	; 0x800200 <__DATA_REGION_ORIGIN__>
    17c8:	70 93 01 02 	sts	0x0201, r23	; 0x800201 <__DATA_REGION_ORIGIN__+0x1>
    17cc:	80 93 02 02 	sts	0x0202, r24	; 0x800202 <__DATA_REGION_ORIGIN__+0x2>
    17d0:	90 93 03 02 	sts	0x0203, r25	; 0x800203 <__DATA_REGION_ORIGIN__+0x3>
    17d4:	08 95       	ret

000017d6 <vsnprintf>:
    17d6:	0f 93       	push	r16
    17d8:	1f 93       	push	r17
    17da:	cf 93       	push	r28
    17dc:	df 93       	push	r29
    17de:	cd b7       	in	r28, 0x3d	; 61
    17e0:	de b7       	in	r29, 0x3e	; 62
    17e2:	2e 97       	sbiw	r28, 0x0e	; 14
    17e4:	0f b6       	in	r0, 0x3f	; 63
    17e6:	f8 94       	cli
    17e8:	de bf       	out	0x3e, r29	; 62
    17ea:	0f be       	out	0x3f, r0	; 63
    17ec:	cd bf       	out	0x3d, r28	; 61
    17ee:	8c 01       	movw	r16, r24
    17f0:	fa 01       	movw	r30, r20
    17f2:	86 e0       	ldi	r24, 0x06	; 6
    17f4:	8c 83       	std	Y+4, r24	; 0x04
    17f6:	1a 83       	std	Y+2, r17	; 0x02
    17f8:	09 83       	std	Y+1, r16	; 0x01
    17fa:	77 ff       	sbrs	r23, 7
    17fc:	02 c0       	rjmp	.+4      	; 0x1802 <vsnprintf+0x2c>
    17fe:	60 e0       	ldi	r22, 0x00	; 0
    1800:	70 e8       	ldi	r23, 0x80	; 128
    1802:	cb 01       	movw	r24, r22
    1804:	01 97       	sbiw	r24, 0x01	; 1
    1806:	9e 83       	std	Y+6, r25	; 0x06
    1808:	8d 83       	std	Y+5, r24	; 0x05
    180a:	a9 01       	movw	r20, r18
    180c:	bf 01       	movw	r22, r30
    180e:	ce 01       	movw	r24, r28
    1810:	01 96       	adiw	r24, 0x01	; 1
    1812:	19 d0       	rcall	.+50     	; 0x1846 <vfprintf>
    1814:	4d 81       	ldd	r20, Y+5	; 0x05
    1816:	5e 81       	ldd	r21, Y+6	; 0x06
    1818:	57 fd       	sbrc	r21, 7
    181a:	0a c0       	rjmp	.+20     	; 0x1830 <vsnprintf+0x5a>
    181c:	2f 81       	ldd	r18, Y+7	; 0x07
    181e:	38 85       	ldd	r19, Y+8	; 0x08
    1820:	42 17       	cp	r20, r18
    1822:	53 07       	cpc	r21, r19
    1824:	0c f4       	brge	.+2      	; 0x1828 <vsnprintf+0x52>
    1826:	9a 01       	movw	r18, r20
    1828:	f8 01       	movw	r30, r16
    182a:	e2 0f       	add	r30, r18
    182c:	f3 1f       	adc	r31, r19
    182e:	10 82       	st	Z, r1
    1830:	2e 96       	adiw	r28, 0x0e	; 14
    1832:	0f b6       	in	r0, 0x3f	; 63
    1834:	f8 94       	cli
    1836:	de bf       	out	0x3e, r29	; 62
    1838:	0f be       	out	0x3f, r0	; 63
    183a:	cd bf       	out	0x3d, r28	; 61
    183c:	df 91       	pop	r29
    183e:	cf 91       	pop	r28
    1840:	1f 91       	pop	r17
    1842:	0f 91       	pop	r16
    1844:	08 95       	ret

00001846 <vfprintf>:
    1846:	2f 92       	push	r2
    1848:	3f 92       	push	r3
    184a:	4f 92       	push	r4
    184c:	5f 92       	push	r5
    184e:	6f 92       	push	r6
    1850:	7f 92       	push	r7
    1852:	8f 92       	push	r8
    1854:	9f 92       	push	r9
    1856:	af 92       	push	r10
    1858:	bf 92       	push	r11
    185a:	cf 92       	push	r12
    185c:	df 92       	push	r13
    185e:	ef 92       	push	r14
    1860:	ff 92       	push	r15
    1862:	0f 93       	push	r16
    1864:	1f 93       	push	r17
    1866:	cf 93       	push	r28
    1868:	df 93       	push	r29
    186a:	cd b7       	in	r28, 0x3d	; 61
    186c:	de b7       	in	r29, 0x3e	; 62
    186e:	2b 97       	sbiw	r28, 0x0b	; 11
    1870:	0f b6       	in	r0, 0x3f	; 63
    1872:	f8 94       	cli
    1874:	de bf       	out	0x3e, r29	; 62
    1876:	0f be       	out	0x3f, r0	; 63
    1878:	cd bf       	out	0x3d, r28	; 61
    187a:	6c 01       	movw	r12, r24
    187c:	7b 01       	movw	r14, r22
    187e:	8a 01       	movw	r16, r20
    1880:	fc 01       	movw	r30, r24
    1882:	17 82       	std	Z+7, r1	; 0x07
    1884:	16 82       	std	Z+6, r1	; 0x06
    1886:	83 81       	ldd	r24, Z+3	; 0x03
    1888:	81 ff       	sbrs	r24, 1
    188a:	bf c1       	rjmp	.+894    	; 0x1c0a <vfprintf+0x3c4>
    188c:	ce 01       	movw	r24, r28
    188e:	01 96       	adiw	r24, 0x01	; 1
    1890:	3c 01       	movw	r6, r24
    1892:	f6 01       	movw	r30, r12
    1894:	93 81       	ldd	r25, Z+3	; 0x03
    1896:	f7 01       	movw	r30, r14
    1898:	93 fd       	sbrc	r25, 3
    189a:	85 91       	lpm	r24, Z+
    189c:	93 ff       	sbrs	r25, 3
    189e:	81 91       	ld	r24, Z+
    18a0:	7f 01       	movw	r14, r30
    18a2:	88 23       	and	r24, r24
    18a4:	09 f4       	brne	.+2      	; 0x18a8 <vfprintf+0x62>
    18a6:	ad c1       	rjmp	.+858    	; 0x1c02 <vfprintf+0x3bc>
    18a8:	85 32       	cpi	r24, 0x25	; 37
    18aa:	39 f4       	brne	.+14     	; 0x18ba <vfprintf+0x74>
    18ac:	93 fd       	sbrc	r25, 3
    18ae:	85 91       	lpm	r24, Z+
    18b0:	93 ff       	sbrs	r25, 3
    18b2:	81 91       	ld	r24, Z+
    18b4:	7f 01       	movw	r14, r30
    18b6:	85 32       	cpi	r24, 0x25	; 37
    18b8:	21 f4       	brne	.+8      	; 0x18c2 <vfprintf+0x7c>
    18ba:	b6 01       	movw	r22, r12
    18bc:	90 e0       	ldi	r25, 0x00	; 0
    18be:	d6 d1       	rcall	.+940    	; 0x1c6c <fputc>
    18c0:	e8 cf       	rjmp	.-48     	; 0x1892 <vfprintf+0x4c>
    18c2:	91 2c       	mov	r9, r1
    18c4:	21 2c       	mov	r2, r1
    18c6:	31 2c       	mov	r3, r1
    18c8:	ff e1       	ldi	r31, 0x1F	; 31
    18ca:	f3 15       	cp	r31, r3
    18cc:	d8 f0       	brcs	.+54     	; 0x1904 <vfprintf+0xbe>
    18ce:	8b 32       	cpi	r24, 0x2B	; 43
    18d0:	79 f0       	breq	.+30     	; 0x18f0 <vfprintf+0xaa>
    18d2:	38 f4       	brcc	.+14     	; 0x18e2 <vfprintf+0x9c>
    18d4:	80 32       	cpi	r24, 0x20	; 32
    18d6:	79 f0       	breq	.+30     	; 0x18f6 <vfprintf+0xb0>
    18d8:	83 32       	cpi	r24, 0x23	; 35
    18da:	a1 f4       	brne	.+40     	; 0x1904 <vfprintf+0xbe>
    18dc:	23 2d       	mov	r18, r3
    18de:	20 61       	ori	r18, 0x10	; 16
    18e0:	1d c0       	rjmp	.+58     	; 0x191c <vfprintf+0xd6>
    18e2:	8d 32       	cpi	r24, 0x2D	; 45
    18e4:	61 f0       	breq	.+24     	; 0x18fe <vfprintf+0xb8>
    18e6:	80 33       	cpi	r24, 0x30	; 48
    18e8:	69 f4       	brne	.+26     	; 0x1904 <vfprintf+0xbe>
    18ea:	23 2d       	mov	r18, r3
    18ec:	21 60       	ori	r18, 0x01	; 1
    18ee:	16 c0       	rjmp	.+44     	; 0x191c <vfprintf+0xd6>
    18f0:	83 2d       	mov	r24, r3
    18f2:	82 60       	ori	r24, 0x02	; 2
    18f4:	38 2e       	mov	r3, r24
    18f6:	e3 2d       	mov	r30, r3
    18f8:	e4 60       	ori	r30, 0x04	; 4
    18fa:	3e 2e       	mov	r3, r30
    18fc:	2a c0       	rjmp	.+84     	; 0x1952 <vfprintf+0x10c>
    18fe:	f3 2d       	mov	r31, r3
    1900:	f8 60       	ori	r31, 0x08	; 8
    1902:	1d c0       	rjmp	.+58     	; 0x193e <vfprintf+0xf8>
    1904:	37 fc       	sbrc	r3, 7
    1906:	2d c0       	rjmp	.+90     	; 0x1962 <vfprintf+0x11c>
    1908:	20 ed       	ldi	r18, 0xD0	; 208
    190a:	28 0f       	add	r18, r24
    190c:	2a 30       	cpi	r18, 0x0A	; 10
    190e:	40 f0       	brcs	.+16     	; 0x1920 <vfprintf+0xda>
    1910:	8e 32       	cpi	r24, 0x2E	; 46
    1912:	b9 f4       	brne	.+46     	; 0x1942 <vfprintf+0xfc>
    1914:	36 fc       	sbrc	r3, 6
    1916:	75 c1       	rjmp	.+746    	; 0x1c02 <vfprintf+0x3bc>
    1918:	23 2d       	mov	r18, r3
    191a:	20 64       	ori	r18, 0x40	; 64
    191c:	32 2e       	mov	r3, r18
    191e:	19 c0       	rjmp	.+50     	; 0x1952 <vfprintf+0x10c>
    1920:	36 fe       	sbrs	r3, 6
    1922:	06 c0       	rjmp	.+12     	; 0x1930 <vfprintf+0xea>
    1924:	8a e0       	ldi	r24, 0x0A	; 10
    1926:	98 9e       	mul	r9, r24
    1928:	20 0d       	add	r18, r0
    192a:	11 24       	eor	r1, r1
    192c:	92 2e       	mov	r9, r18
    192e:	11 c0       	rjmp	.+34     	; 0x1952 <vfprintf+0x10c>
    1930:	ea e0       	ldi	r30, 0x0A	; 10
    1932:	2e 9e       	mul	r2, r30
    1934:	20 0d       	add	r18, r0
    1936:	11 24       	eor	r1, r1
    1938:	22 2e       	mov	r2, r18
    193a:	f3 2d       	mov	r31, r3
    193c:	f0 62       	ori	r31, 0x20	; 32
    193e:	3f 2e       	mov	r3, r31
    1940:	08 c0       	rjmp	.+16     	; 0x1952 <vfprintf+0x10c>
    1942:	8c 36       	cpi	r24, 0x6C	; 108
    1944:	21 f4       	brne	.+8      	; 0x194e <vfprintf+0x108>
    1946:	83 2d       	mov	r24, r3
    1948:	80 68       	ori	r24, 0x80	; 128
    194a:	38 2e       	mov	r3, r24
    194c:	02 c0       	rjmp	.+4      	; 0x1952 <vfprintf+0x10c>
    194e:	88 36       	cpi	r24, 0x68	; 104
    1950:	41 f4       	brne	.+16     	; 0x1962 <vfprintf+0x11c>
    1952:	f7 01       	movw	r30, r14
    1954:	93 fd       	sbrc	r25, 3
    1956:	85 91       	lpm	r24, Z+
    1958:	93 ff       	sbrs	r25, 3
    195a:	81 91       	ld	r24, Z+
    195c:	7f 01       	movw	r14, r30
    195e:	81 11       	cpse	r24, r1
    1960:	b3 cf       	rjmp	.-154    	; 0x18c8 <vfprintf+0x82>
    1962:	98 2f       	mov	r25, r24
    1964:	9f 7d       	andi	r25, 0xDF	; 223
    1966:	95 54       	subi	r25, 0x45	; 69
    1968:	93 30       	cpi	r25, 0x03	; 3
    196a:	28 f4       	brcc	.+10     	; 0x1976 <vfprintf+0x130>
    196c:	0c 5f       	subi	r16, 0xFC	; 252
    196e:	1f 4f       	sbci	r17, 0xFF	; 255
    1970:	9f e3       	ldi	r25, 0x3F	; 63
    1972:	99 83       	std	Y+1, r25	; 0x01
    1974:	0d c0       	rjmp	.+26     	; 0x1990 <vfprintf+0x14a>
    1976:	83 36       	cpi	r24, 0x63	; 99
    1978:	31 f0       	breq	.+12     	; 0x1986 <vfprintf+0x140>
    197a:	83 37       	cpi	r24, 0x73	; 115
    197c:	71 f0       	breq	.+28     	; 0x199a <vfprintf+0x154>
    197e:	83 35       	cpi	r24, 0x53	; 83
    1980:	09 f0       	breq	.+2      	; 0x1984 <vfprintf+0x13e>
    1982:	55 c0       	rjmp	.+170    	; 0x1a2e <vfprintf+0x1e8>
    1984:	20 c0       	rjmp	.+64     	; 0x19c6 <vfprintf+0x180>
    1986:	f8 01       	movw	r30, r16
    1988:	80 81       	ld	r24, Z
    198a:	89 83       	std	Y+1, r24	; 0x01
    198c:	0e 5f       	subi	r16, 0xFE	; 254
    198e:	1f 4f       	sbci	r17, 0xFF	; 255
    1990:	88 24       	eor	r8, r8
    1992:	83 94       	inc	r8
    1994:	91 2c       	mov	r9, r1
    1996:	53 01       	movw	r10, r6
    1998:	12 c0       	rjmp	.+36     	; 0x19be <vfprintf+0x178>
    199a:	28 01       	movw	r4, r16
    199c:	f2 e0       	ldi	r31, 0x02	; 2
    199e:	4f 0e       	add	r4, r31
    19a0:	51 1c       	adc	r5, r1
    19a2:	f8 01       	movw	r30, r16
    19a4:	a0 80       	ld	r10, Z
    19a6:	b1 80       	ldd	r11, Z+1	; 0x01
    19a8:	36 fe       	sbrs	r3, 6
    19aa:	03 c0       	rjmp	.+6      	; 0x19b2 <vfprintf+0x16c>
    19ac:	69 2d       	mov	r22, r9
    19ae:	70 e0       	ldi	r23, 0x00	; 0
    19b0:	02 c0       	rjmp	.+4      	; 0x19b6 <vfprintf+0x170>
    19b2:	6f ef       	ldi	r22, 0xFF	; 255
    19b4:	7f ef       	ldi	r23, 0xFF	; 255
    19b6:	c5 01       	movw	r24, r10
    19b8:	4e d1       	rcall	.+668    	; 0x1c56 <strnlen>
    19ba:	4c 01       	movw	r8, r24
    19bc:	82 01       	movw	r16, r4
    19be:	f3 2d       	mov	r31, r3
    19c0:	ff 77       	andi	r31, 0x7F	; 127
    19c2:	3f 2e       	mov	r3, r31
    19c4:	15 c0       	rjmp	.+42     	; 0x19f0 <vfprintf+0x1aa>
    19c6:	28 01       	movw	r4, r16
    19c8:	22 e0       	ldi	r18, 0x02	; 2
    19ca:	42 0e       	add	r4, r18
    19cc:	51 1c       	adc	r5, r1
    19ce:	f8 01       	movw	r30, r16
    19d0:	a0 80       	ld	r10, Z
    19d2:	b1 80       	ldd	r11, Z+1	; 0x01
    19d4:	36 fe       	sbrs	r3, 6
    19d6:	03 c0       	rjmp	.+6      	; 0x19de <vfprintf+0x198>
    19d8:	69 2d       	mov	r22, r9
    19da:	70 e0       	ldi	r23, 0x00	; 0
    19dc:	02 c0       	rjmp	.+4      	; 0x19e2 <vfprintf+0x19c>
    19de:	6f ef       	ldi	r22, 0xFF	; 255
    19e0:	7f ef       	ldi	r23, 0xFF	; 255
    19e2:	c5 01       	movw	r24, r10
    19e4:	2d d1       	rcall	.+602    	; 0x1c40 <strnlen_P>
    19e6:	4c 01       	movw	r8, r24
    19e8:	f3 2d       	mov	r31, r3
    19ea:	f0 68       	ori	r31, 0x80	; 128
    19ec:	3f 2e       	mov	r3, r31
    19ee:	82 01       	movw	r16, r4
    19f0:	33 fc       	sbrc	r3, 3
    19f2:	19 c0       	rjmp	.+50     	; 0x1a26 <vfprintf+0x1e0>
    19f4:	82 2d       	mov	r24, r2
    19f6:	90 e0       	ldi	r25, 0x00	; 0
    19f8:	88 16       	cp	r8, r24
    19fa:	99 06       	cpc	r9, r25
    19fc:	a0 f4       	brcc	.+40     	; 0x1a26 <vfprintf+0x1e0>
    19fe:	b6 01       	movw	r22, r12
    1a00:	80 e2       	ldi	r24, 0x20	; 32
    1a02:	90 e0       	ldi	r25, 0x00	; 0
    1a04:	33 d1       	rcall	.+614    	; 0x1c6c <fputc>
    1a06:	2a 94       	dec	r2
    1a08:	f5 cf       	rjmp	.-22     	; 0x19f4 <vfprintf+0x1ae>
    1a0a:	f5 01       	movw	r30, r10
    1a0c:	37 fc       	sbrc	r3, 7
    1a0e:	85 91       	lpm	r24, Z+
    1a10:	37 fe       	sbrs	r3, 7
    1a12:	81 91       	ld	r24, Z+
    1a14:	5f 01       	movw	r10, r30
    1a16:	b6 01       	movw	r22, r12
    1a18:	90 e0       	ldi	r25, 0x00	; 0
    1a1a:	28 d1       	rcall	.+592    	; 0x1c6c <fputc>
    1a1c:	21 10       	cpse	r2, r1
    1a1e:	2a 94       	dec	r2
    1a20:	21 e0       	ldi	r18, 0x01	; 1
    1a22:	82 1a       	sub	r8, r18
    1a24:	91 08       	sbc	r9, r1
    1a26:	81 14       	cp	r8, r1
    1a28:	91 04       	cpc	r9, r1
    1a2a:	79 f7       	brne	.-34     	; 0x1a0a <vfprintf+0x1c4>
    1a2c:	e1 c0       	rjmp	.+450    	; 0x1bf0 <vfprintf+0x3aa>
    1a2e:	84 36       	cpi	r24, 0x64	; 100
    1a30:	11 f0       	breq	.+4      	; 0x1a36 <vfprintf+0x1f0>
    1a32:	89 36       	cpi	r24, 0x69	; 105
    1a34:	39 f5       	brne	.+78     	; 0x1a84 <vfprintf+0x23e>
    1a36:	f8 01       	movw	r30, r16
    1a38:	37 fe       	sbrs	r3, 7
    1a3a:	07 c0       	rjmp	.+14     	; 0x1a4a <vfprintf+0x204>
    1a3c:	60 81       	ld	r22, Z
    1a3e:	71 81       	ldd	r23, Z+1	; 0x01
    1a40:	82 81       	ldd	r24, Z+2	; 0x02
    1a42:	93 81       	ldd	r25, Z+3	; 0x03
    1a44:	0c 5f       	subi	r16, 0xFC	; 252
    1a46:	1f 4f       	sbci	r17, 0xFF	; 255
    1a48:	08 c0       	rjmp	.+16     	; 0x1a5a <vfprintf+0x214>
    1a4a:	60 81       	ld	r22, Z
    1a4c:	71 81       	ldd	r23, Z+1	; 0x01
    1a4e:	07 2e       	mov	r0, r23
    1a50:	00 0c       	add	r0, r0
    1a52:	88 0b       	sbc	r24, r24
    1a54:	99 0b       	sbc	r25, r25
    1a56:	0e 5f       	subi	r16, 0xFE	; 254
    1a58:	1f 4f       	sbci	r17, 0xFF	; 255
    1a5a:	f3 2d       	mov	r31, r3
    1a5c:	ff 76       	andi	r31, 0x6F	; 111
    1a5e:	3f 2e       	mov	r3, r31
    1a60:	97 ff       	sbrs	r25, 7
    1a62:	09 c0       	rjmp	.+18     	; 0x1a76 <vfprintf+0x230>
    1a64:	90 95       	com	r25
    1a66:	80 95       	com	r24
    1a68:	70 95       	com	r23
    1a6a:	61 95       	neg	r22
    1a6c:	7f 4f       	sbci	r23, 0xFF	; 255
    1a6e:	8f 4f       	sbci	r24, 0xFF	; 255
    1a70:	9f 4f       	sbci	r25, 0xFF	; 255
    1a72:	f0 68       	ori	r31, 0x80	; 128
    1a74:	3f 2e       	mov	r3, r31
    1a76:	2a e0       	ldi	r18, 0x0A	; 10
    1a78:	30 e0       	ldi	r19, 0x00	; 0
    1a7a:	a3 01       	movw	r20, r6
    1a7c:	33 d1       	rcall	.+614    	; 0x1ce4 <__ultoa_invert>
    1a7e:	88 2e       	mov	r8, r24
    1a80:	86 18       	sub	r8, r6
    1a82:	44 c0       	rjmp	.+136    	; 0x1b0c <vfprintf+0x2c6>
    1a84:	85 37       	cpi	r24, 0x75	; 117
    1a86:	31 f4       	brne	.+12     	; 0x1a94 <vfprintf+0x24e>
    1a88:	23 2d       	mov	r18, r3
    1a8a:	2f 7e       	andi	r18, 0xEF	; 239
    1a8c:	b2 2e       	mov	r11, r18
    1a8e:	2a e0       	ldi	r18, 0x0A	; 10
    1a90:	30 e0       	ldi	r19, 0x00	; 0
    1a92:	25 c0       	rjmp	.+74     	; 0x1ade <vfprintf+0x298>
    1a94:	93 2d       	mov	r25, r3
    1a96:	99 7f       	andi	r25, 0xF9	; 249
    1a98:	b9 2e       	mov	r11, r25
    1a9a:	8f 36       	cpi	r24, 0x6F	; 111
    1a9c:	c1 f0       	breq	.+48     	; 0x1ace <vfprintf+0x288>
    1a9e:	18 f4       	brcc	.+6      	; 0x1aa6 <vfprintf+0x260>
    1aa0:	88 35       	cpi	r24, 0x58	; 88
    1aa2:	79 f0       	breq	.+30     	; 0x1ac2 <vfprintf+0x27c>
    1aa4:	ae c0       	rjmp	.+348    	; 0x1c02 <vfprintf+0x3bc>
    1aa6:	80 37       	cpi	r24, 0x70	; 112
    1aa8:	19 f0       	breq	.+6      	; 0x1ab0 <vfprintf+0x26a>
    1aaa:	88 37       	cpi	r24, 0x78	; 120
    1aac:	21 f0       	breq	.+8      	; 0x1ab6 <vfprintf+0x270>
    1aae:	a9 c0       	rjmp	.+338    	; 0x1c02 <vfprintf+0x3bc>
    1ab0:	e9 2f       	mov	r30, r25
    1ab2:	e0 61       	ori	r30, 0x10	; 16
    1ab4:	be 2e       	mov	r11, r30
    1ab6:	b4 fe       	sbrs	r11, 4
    1ab8:	0d c0       	rjmp	.+26     	; 0x1ad4 <vfprintf+0x28e>
    1aba:	fb 2d       	mov	r31, r11
    1abc:	f4 60       	ori	r31, 0x04	; 4
    1abe:	bf 2e       	mov	r11, r31
    1ac0:	09 c0       	rjmp	.+18     	; 0x1ad4 <vfprintf+0x28e>
    1ac2:	34 fe       	sbrs	r3, 4
    1ac4:	0a c0       	rjmp	.+20     	; 0x1ada <vfprintf+0x294>
    1ac6:	29 2f       	mov	r18, r25
    1ac8:	26 60       	ori	r18, 0x06	; 6
    1aca:	b2 2e       	mov	r11, r18
    1acc:	06 c0       	rjmp	.+12     	; 0x1ada <vfprintf+0x294>
    1ace:	28 e0       	ldi	r18, 0x08	; 8
    1ad0:	30 e0       	ldi	r19, 0x00	; 0
    1ad2:	05 c0       	rjmp	.+10     	; 0x1ade <vfprintf+0x298>
    1ad4:	20 e1       	ldi	r18, 0x10	; 16
    1ad6:	30 e0       	ldi	r19, 0x00	; 0
    1ad8:	02 c0       	rjmp	.+4      	; 0x1ade <vfprintf+0x298>
    1ada:	20 e1       	ldi	r18, 0x10	; 16
    1adc:	32 e0       	ldi	r19, 0x02	; 2
    1ade:	f8 01       	movw	r30, r16
    1ae0:	b7 fe       	sbrs	r11, 7
    1ae2:	07 c0       	rjmp	.+14     	; 0x1af2 <vfprintf+0x2ac>
    1ae4:	60 81       	ld	r22, Z
    1ae6:	71 81       	ldd	r23, Z+1	; 0x01
    1ae8:	82 81       	ldd	r24, Z+2	; 0x02
    1aea:	93 81       	ldd	r25, Z+3	; 0x03
    1aec:	0c 5f       	subi	r16, 0xFC	; 252
    1aee:	1f 4f       	sbci	r17, 0xFF	; 255
    1af0:	06 c0       	rjmp	.+12     	; 0x1afe <vfprintf+0x2b8>
    1af2:	60 81       	ld	r22, Z
    1af4:	71 81       	ldd	r23, Z+1	; 0x01
    1af6:	80 e0       	ldi	r24, 0x00	; 0
    1af8:	90 e0       	ldi	r25, 0x00	; 0
    1afa:	0e 5f       	subi	r16, 0xFE	; 254
    1afc:	1f 4f       	sbci	r17, 0xFF	; 255
    1afe:	a3 01       	movw	r20, r6
    1b00:	f1 d0       	rcall	.+482    	; 0x1ce4 <__ultoa_invert>
    1b02:	88 2e       	mov	r8, r24
    1b04:	86 18       	sub	r8, r6
    1b06:	fb 2d       	mov	r31, r11
    1b08:	ff 77       	andi	r31, 0x7F	; 127
    1b0a:	3f 2e       	mov	r3, r31
    1b0c:	36 fe       	sbrs	r3, 6
    1b0e:	0d c0       	rjmp	.+26     	; 0x1b2a <vfprintf+0x2e4>
    1b10:	23 2d       	mov	r18, r3
    1b12:	2e 7f       	andi	r18, 0xFE	; 254
    1b14:	a2 2e       	mov	r10, r18
    1b16:	89 14       	cp	r8, r9
    1b18:	58 f4       	brcc	.+22     	; 0x1b30 <vfprintf+0x2ea>
    1b1a:	34 fe       	sbrs	r3, 4
    1b1c:	0b c0       	rjmp	.+22     	; 0x1b34 <vfprintf+0x2ee>
    1b1e:	32 fc       	sbrc	r3, 2
    1b20:	09 c0       	rjmp	.+18     	; 0x1b34 <vfprintf+0x2ee>
    1b22:	83 2d       	mov	r24, r3
    1b24:	8e 7e       	andi	r24, 0xEE	; 238
    1b26:	a8 2e       	mov	r10, r24
    1b28:	05 c0       	rjmp	.+10     	; 0x1b34 <vfprintf+0x2ee>
    1b2a:	b8 2c       	mov	r11, r8
    1b2c:	a3 2c       	mov	r10, r3
    1b2e:	03 c0       	rjmp	.+6      	; 0x1b36 <vfprintf+0x2f0>
    1b30:	b8 2c       	mov	r11, r8
    1b32:	01 c0       	rjmp	.+2      	; 0x1b36 <vfprintf+0x2f0>
    1b34:	b9 2c       	mov	r11, r9
    1b36:	a4 fe       	sbrs	r10, 4
    1b38:	0f c0       	rjmp	.+30     	; 0x1b58 <vfprintf+0x312>
    1b3a:	fe 01       	movw	r30, r28
    1b3c:	e8 0d       	add	r30, r8
    1b3e:	f1 1d       	adc	r31, r1
    1b40:	80 81       	ld	r24, Z
    1b42:	80 33       	cpi	r24, 0x30	; 48
    1b44:	21 f4       	brne	.+8      	; 0x1b4e <vfprintf+0x308>
    1b46:	9a 2d       	mov	r25, r10
    1b48:	99 7e       	andi	r25, 0xE9	; 233
    1b4a:	a9 2e       	mov	r10, r25
    1b4c:	09 c0       	rjmp	.+18     	; 0x1b60 <vfprintf+0x31a>
    1b4e:	a2 fe       	sbrs	r10, 2
    1b50:	06 c0       	rjmp	.+12     	; 0x1b5e <vfprintf+0x318>
    1b52:	b3 94       	inc	r11
    1b54:	b3 94       	inc	r11
    1b56:	04 c0       	rjmp	.+8      	; 0x1b60 <vfprintf+0x31a>
    1b58:	8a 2d       	mov	r24, r10
    1b5a:	86 78       	andi	r24, 0x86	; 134
    1b5c:	09 f0       	breq	.+2      	; 0x1b60 <vfprintf+0x31a>
    1b5e:	b3 94       	inc	r11
    1b60:	a3 fc       	sbrc	r10, 3
    1b62:	10 c0       	rjmp	.+32     	; 0x1b84 <vfprintf+0x33e>
    1b64:	a0 fe       	sbrs	r10, 0
    1b66:	06 c0       	rjmp	.+12     	; 0x1b74 <vfprintf+0x32e>
    1b68:	b2 14       	cp	r11, r2
    1b6a:	80 f4       	brcc	.+32     	; 0x1b8c <vfprintf+0x346>
    1b6c:	28 0c       	add	r2, r8
    1b6e:	92 2c       	mov	r9, r2
    1b70:	9b 18       	sub	r9, r11
    1b72:	0d c0       	rjmp	.+26     	; 0x1b8e <vfprintf+0x348>
    1b74:	b2 14       	cp	r11, r2
    1b76:	58 f4       	brcc	.+22     	; 0x1b8e <vfprintf+0x348>
    1b78:	b6 01       	movw	r22, r12
    1b7a:	80 e2       	ldi	r24, 0x20	; 32
    1b7c:	90 e0       	ldi	r25, 0x00	; 0
    1b7e:	76 d0       	rcall	.+236    	; 0x1c6c <fputc>
    1b80:	b3 94       	inc	r11
    1b82:	f8 cf       	rjmp	.-16     	; 0x1b74 <vfprintf+0x32e>
    1b84:	b2 14       	cp	r11, r2
    1b86:	18 f4       	brcc	.+6      	; 0x1b8e <vfprintf+0x348>
    1b88:	2b 18       	sub	r2, r11
    1b8a:	02 c0       	rjmp	.+4      	; 0x1b90 <vfprintf+0x34a>
    1b8c:	98 2c       	mov	r9, r8
    1b8e:	21 2c       	mov	r2, r1
    1b90:	a4 fe       	sbrs	r10, 4
    1b92:	0f c0       	rjmp	.+30     	; 0x1bb2 <vfprintf+0x36c>
    1b94:	b6 01       	movw	r22, r12
    1b96:	80 e3       	ldi	r24, 0x30	; 48
    1b98:	90 e0       	ldi	r25, 0x00	; 0
    1b9a:	68 d0       	rcall	.+208    	; 0x1c6c <fputc>
    1b9c:	a2 fe       	sbrs	r10, 2
    1b9e:	16 c0       	rjmp	.+44     	; 0x1bcc <vfprintf+0x386>
    1ba0:	a1 fc       	sbrc	r10, 1
    1ba2:	03 c0       	rjmp	.+6      	; 0x1baa <vfprintf+0x364>
    1ba4:	88 e7       	ldi	r24, 0x78	; 120
    1ba6:	90 e0       	ldi	r25, 0x00	; 0
    1ba8:	02 c0       	rjmp	.+4      	; 0x1bae <vfprintf+0x368>
    1baa:	88 e5       	ldi	r24, 0x58	; 88
    1bac:	90 e0       	ldi	r25, 0x00	; 0
    1bae:	b6 01       	movw	r22, r12
    1bb0:	0c c0       	rjmp	.+24     	; 0x1bca <vfprintf+0x384>
    1bb2:	8a 2d       	mov	r24, r10
    1bb4:	86 78       	andi	r24, 0x86	; 134
    1bb6:	51 f0       	breq	.+20     	; 0x1bcc <vfprintf+0x386>
    1bb8:	a1 fe       	sbrs	r10, 1
    1bba:	02 c0       	rjmp	.+4      	; 0x1bc0 <vfprintf+0x37a>
    1bbc:	8b e2       	ldi	r24, 0x2B	; 43
    1bbe:	01 c0       	rjmp	.+2      	; 0x1bc2 <vfprintf+0x37c>
    1bc0:	80 e2       	ldi	r24, 0x20	; 32
    1bc2:	a7 fc       	sbrc	r10, 7
    1bc4:	8d e2       	ldi	r24, 0x2D	; 45
    1bc6:	b6 01       	movw	r22, r12
    1bc8:	90 e0       	ldi	r25, 0x00	; 0
    1bca:	50 d0       	rcall	.+160    	; 0x1c6c <fputc>
    1bcc:	89 14       	cp	r8, r9
    1bce:	30 f4       	brcc	.+12     	; 0x1bdc <vfprintf+0x396>
    1bd0:	b6 01       	movw	r22, r12
    1bd2:	80 e3       	ldi	r24, 0x30	; 48
    1bd4:	90 e0       	ldi	r25, 0x00	; 0
    1bd6:	4a d0       	rcall	.+148    	; 0x1c6c <fputc>
    1bd8:	9a 94       	dec	r9
    1bda:	f8 cf       	rjmp	.-16     	; 0x1bcc <vfprintf+0x386>
    1bdc:	8a 94       	dec	r8
    1bde:	f3 01       	movw	r30, r6
    1be0:	e8 0d       	add	r30, r8
    1be2:	f1 1d       	adc	r31, r1
    1be4:	80 81       	ld	r24, Z
    1be6:	b6 01       	movw	r22, r12
    1be8:	90 e0       	ldi	r25, 0x00	; 0
    1bea:	40 d0       	rcall	.+128    	; 0x1c6c <fputc>
    1bec:	81 10       	cpse	r8, r1
    1bee:	f6 cf       	rjmp	.-20     	; 0x1bdc <vfprintf+0x396>
    1bf0:	22 20       	and	r2, r2
    1bf2:	09 f4       	brne	.+2      	; 0x1bf6 <vfprintf+0x3b0>
    1bf4:	4e ce       	rjmp	.-868    	; 0x1892 <vfprintf+0x4c>
    1bf6:	b6 01       	movw	r22, r12
    1bf8:	80 e2       	ldi	r24, 0x20	; 32
    1bfa:	90 e0       	ldi	r25, 0x00	; 0
    1bfc:	37 d0       	rcall	.+110    	; 0x1c6c <fputc>
    1bfe:	2a 94       	dec	r2
    1c00:	f7 cf       	rjmp	.-18     	; 0x1bf0 <vfprintf+0x3aa>
    1c02:	f6 01       	movw	r30, r12
    1c04:	86 81       	ldd	r24, Z+6	; 0x06
    1c06:	97 81       	ldd	r25, Z+7	; 0x07
    1c08:	02 c0       	rjmp	.+4      	; 0x1c0e <vfprintf+0x3c8>
    1c0a:	8f ef       	ldi	r24, 0xFF	; 255
    1c0c:	9f ef       	ldi	r25, 0xFF	; 255
    1c0e:	2b 96       	adiw	r28, 0x0b	; 11
    1c10:	0f b6       	in	r0, 0x3f	; 63
    1c12:	f8 94       	cli
    1c14:	de bf       	out	0x3e, r29	; 62
    1c16:	0f be       	out	0x3f, r0	; 63
    1c18:	cd bf       	out	0x3d, r28	; 61
    1c1a:	df 91       	pop	r29
    1c1c:	cf 91       	pop	r28
    1c1e:	1f 91       	pop	r17
    1c20:	0f 91       	pop	r16
    1c22:	ff 90       	pop	r15
    1c24:	ef 90       	pop	r14
    1c26:	df 90       	pop	r13
    1c28:	cf 90       	pop	r12
    1c2a:	bf 90       	pop	r11
    1c2c:	af 90       	pop	r10
    1c2e:	9f 90       	pop	r9
    1c30:	8f 90       	pop	r8
    1c32:	7f 90       	pop	r7
    1c34:	6f 90       	pop	r6
    1c36:	5f 90       	pop	r5
    1c38:	4f 90       	pop	r4
    1c3a:	3f 90       	pop	r3
    1c3c:	2f 90       	pop	r2
    1c3e:	08 95       	ret

00001c40 <strnlen_P>:
    1c40:	fc 01       	movw	r30, r24
    1c42:	05 90       	lpm	r0, Z+
    1c44:	61 50       	subi	r22, 0x01	; 1
    1c46:	70 40       	sbci	r23, 0x00	; 0
    1c48:	01 10       	cpse	r0, r1
    1c4a:	d8 f7       	brcc	.-10     	; 0x1c42 <strnlen_P+0x2>
    1c4c:	80 95       	com	r24
    1c4e:	90 95       	com	r25
    1c50:	8e 0f       	add	r24, r30
    1c52:	9f 1f       	adc	r25, r31
    1c54:	08 95       	ret

00001c56 <strnlen>:
    1c56:	fc 01       	movw	r30, r24
    1c58:	61 50       	subi	r22, 0x01	; 1
    1c5a:	70 40       	sbci	r23, 0x00	; 0
    1c5c:	01 90       	ld	r0, Z+
    1c5e:	01 10       	cpse	r0, r1
    1c60:	d8 f7       	brcc	.-10     	; 0x1c58 <strnlen+0x2>
    1c62:	80 95       	com	r24
    1c64:	90 95       	com	r25
    1c66:	8e 0f       	add	r24, r30
    1c68:	9f 1f       	adc	r25, r31
    1c6a:	08 95       	ret

00001c6c <fputc>:
    1c6c:	0f 93       	push	r16
    1c6e:	1f 93       	push	r17
    1c70:	cf 93       	push	r28
    1c72:	df 93       	push	r29
    1c74:	fb 01       	movw	r30, r22
    1c76:	23 81       	ldd	r18, Z+3	; 0x03
    1c78:	21 fd       	sbrc	r18, 1
    1c7a:	03 c0       	rjmp	.+6      	; 0x1c82 <fputc+0x16>
    1c7c:	8f ef       	ldi	r24, 0xFF	; 255
    1c7e:	9f ef       	ldi	r25, 0xFF	; 255
    1c80:	2c c0       	rjmp	.+88     	; 0x1cda <fputc+0x6e>
    1c82:	22 ff       	sbrs	r18, 2
    1c84:	16 c0       	rjmp	.+44     	; 0x1cb2 <fputc+0x46>
    1c86:	46 81       	ldd	r20, Z+6	; 0x06
    1c88:	57 81       	ldd	r21, Z+7	; 0x07
    1c8a:	24 81       	ldd	r18, Z+4	; 0x04
    1c8c:	35 81       	ldd	r19, Z+5	; 0x05
    1c8e:	42 17       	cp	r20, r18
    1c90:	53 07       	cpc	r21, r19
    1c92:	44 f4       	brge	.+16     	; 0x1ca4 <fputc+0x38>
    1c94:	a0 81       	ld	r26, Z
    1c96:	b1 81       	ldd	r27, Z+1	; 0x01
    1c98:	9d 01       	movw	r18, r26
    1c9a:	2f 5f       	subi	r18, 0xFF	; 255
    1c9c:	3f 4f       	sbci	r19, 0xFF	; 255
    1c9e:	31 83       	std	Z+1, r19	; 0x01
    1ca0:	20 83       	st	Z, r18
    1ca2:	8c 93       	st	X, r24
    1ca4:	26 81       	ldd	r18, Z+6	; 0x06
    1ca6:	37 81       	ldd	r19, Z+7	; 0x07
    1ca8:	2f 5f       	subi	r18, 0xFF	; 255
    1caa:	3f 4f       	sbci	r19, 0xFF	; 255
    1cac:	37 83       	std	Z+7, r19	; 0x07
    1cae:	26 83       	std	Z+6, r18	; 0x06
    1cb0:	14 c0       	rjmp	.+40     	; 0x1cda <fputc+0x6e>
    1cb2:	8b 01       	movw	r16, r22
    1cb4:	ec 01       	movw	r28, r24
    1cb6:	fb 01       	movw	r30, r22
    1cb8:	00 84       	ldd	r0, Z+8	; 0x08
    1cba:	f1 85       	ldd	r31, Z+9	; 0x09
    1cbc:	e0 2d       	mov	r30, r0
    1cbe:	19 95       	eicall
    1cc0:	89 2b       	or	r24, r25
    1cc2:	e1 f6       	brne	.-72     	; 0x1c7c <fputc+0x10>
    1cc4:	d8 01       	movw	r26, r16
    1cc6:	16 96       	adiw	r26, 0x06	; 6
    1cc8:	8d 91       	ld	r24, X+
    1cca:	9c 91       	ld	r25, X
    1ccc:	17 97       	sbiw	r26, 0x07	; 7
    1cce:	01 96       	adiw	r24, 0x01	; 1
    1cd0:	17 96       	adiw	r26, 0x07	; 7
    1cd2:	9c 93       	st	X, r25
    1cd4:	8e 93       	st	-X, r24
    1cd6:	16 97       	sbiw	r26, 0x06	; 6
    1cd8:	ce 01       	movw	r24, r28
    1cda:	df 91       	pop	r29
    1cdc:	cf 91       	pop	r28
    1cde:	1f 91       	pop	r17
    1ce0:	0f 91       	pop	r16
    1ce2:	08 95       	ret

00001ce4 <__ultoa_invert>:
    1ce4:	fa 01       	movw	r30, r20
    1ce6:	aa 27       	eor	r26, r26
    1ce8:	28 30       	cpi	r18, 0x08	; 8
    1cea:	51 f1       	breq	.+84     	; 0x1d40 <__ultoa_invert+0x5c>
    1cec:	20 31       	cpi	r18, 0x10	; 16
    1cee:	81 f1       	breq	.+96     	; 0x1d50 <__ultoa_invert+0x6c>
    1cf0:	e8 94       	clt
    1cf2:	6f 93       	push	r22
    1cf4:	6e 7f       	andi	r22, 0xFE	; 254
    1cf6:	6e 5f       	subi	r22, 0xFE	; 254
    1cf8:	7f 4f       	sbci	r23, 0xFF	; 255
    1cfa:	8f 4f       	sbci	r24, 0xFF	; 255
    1cfc:	9f 4f       	sbci	r25, 0xFF	; 255
    1cfe:	af 4f       	sbci	r26, 0xFF	; 255
    1d00:	b1 e0       	ldi	r27, 0x01	; 1
    1d02:	3e d0       	rcall	.+124    	; 0x1d80 <__ultoa_invert+0x9c>
    1d04:	b4 e0       	ldi	r27, 0x04	; 4
    1d06:	3c d0       	rcall	.+120    	; 0x1d80 <__ultoa_invert+0x9c>
    1d08:	67 0f       	add	r22, r23
    1d0a:	78 1f       	adc	r23, r24
    1d0c:	89 1f       	adc	r24, r25
    1d0e:	9a 1f       	adc	r25, r26
    1d10:	a1 1d       	adc	r26, r1
    1d12:	68 0f       	add	r22, r24
    1d14:	79 1f       	adc	r23, r25
    1d16:	8a 1f       	adc	r24, r26
    1d18:	91 1d       	adc	r25, r1
    1d1a:	a1 1d       	adc	r26, r1
    1d1c:	6a 0f       	add	r22, r26
    1d1e:	71 1d       	adc	r23, r1
    1d20:	81 1d       	adc	r24, r1
    1d22:	91 1d       	adc	r25, r1
    1d24:	a1 1d       	adc	r26, r1
    1d26:	20 d0       	rcall	.+64     	; 0x1d68 <__ultoa_invert+0x84>
    1d28:	09 f4       	brne	.+2      	; 0x1d2c <__ultoa_invert+0x48>
    1d2a:	68 94       	set
    1d2c:	3f 91       	pop	r19
    1d2e:	2a e0       	ldi	r18, 0x0A	; 10
    1d30:	26 9f       	mul	r18, r22
    1d32:	11 24       	eor	r1, r1
    1d34:	30 19       	sub	r19, r0
    1d36:	30 5d       	subi	r19, 0xD0	; 208
    1d38:	31 93       	st	Z+, r19
    1d3a:	de f6       	brtc	.-74     	; 0x1cf2 <__ultoa_invert+0xe>
    1d3c:	cf 01       	movw	r24, r30
    1d3e:	08 95       	ret
    1d40:	46 2f       	mov	r20, r22
    1d42:	47 70       	andi	r20, 0x07	; 7
    1d44:	40 5d       	subi	r20, 0xD0	; 208
    1d46:	41 93       	st	Z+, r20
    1d48:	b3 e0       	ldi	r27, 0x03	; 3
    1d4a:	0f d0       	rcall	.+30     	; 0x1d6a <__ultoa_invert+0x86>
    1d4c:	c9 f7       	brne	.-14     	; 0x1d40 <__ultoa_invert+0x5c>
    1d4e:	f6 cf       	rjmp	.-20     	; 0x1d3c <__ultoa_invert+0x58>
    1d50:	46 2f       	mov	r20, r22
    1d52:	4f 70       	andi	r20, 0x0F	; 15
    1d54:	40 5d       	subi	r20, 0xD0	; 208
    1d56:	4a 33       	cpi	r20, 0x3A	; 58
    1d58:	18 f0       	brcs	.+6      	; 0x1d60 <__ultoa_invert+0x7c>
    1d5a:	49 5d       	subi	r20, 0xD9	; 217
    1d5c:	31 fd       	sbrc	r19, 1
    1d5e:	40 52       	subi	r20, 0x20	; 32
    1d60:	41 93       	st	Z+, r20
    1d62:	02 d0       	rcall	.+4      	; 0x1d68 <__ultoa_invert+0x84>
    1d64:	a9 f7       	brne	.-22     	; 0x1d50 <__ultoa_invert+0x6c>
    1d66:	ea cf       	rjmp	.-44     	; 0x1d3c <__ultoa_invert+0x58>
    1d68:	b4 e0       	ldi	r27, 0x04	; 4
    1d6a:	a6 95       	lsr	r26
    1d6c:	97 95       	ror	r25
    1d6e:	87 95       	ror	r24
    1d70:	77 95       	ror	r23
    1d72:	67 95       	ror	r22
    1d74:	ba 95       	dec	r27
    1d76:	c9 f7       	brne	.-14     	; 0x1d6a <__ultoa_invert+0x86>
    1d78:	00 97       	sbiw	r24, 0x00	; 0
    1d7a:	61 05       	cpc	r22, r1
    1d7c:	71 05       	cpc	r23, r1
    1d7e:	08 95       	ret
    1d80:	9b 01       	movw	r18, r22
    1d82:	ac 01       	movw	r20, r24
    1d84:	0a 2e       	mov	r0, r26
    1d86:	06 94       	lsr	r0
    1d88:	57 95       	ror	r21
    1d8a:	47 95       	ror	r20
    1d8c:	37 95       	ror	r19
    1d8e:	27 95       	ror	r18
    1d90:	ba 95       	dec	r27
    1d92:	c9 f7       	brne	.-14     	; 0x1d86 <__ultoa_invert+0xa2>
    1d94:	62 0f       	add	r22, r18
    1d96:	73 1f       	adc	r23, r19
    1d98:	84 1f       	adc	r24, r20
    1d9a:	95 1f       	adc	r25, r21
    1d9c:	a0 1d       	adc	r26, r0
    1d9e:	08 95       	ret

00001da0 <__muluhisi3>:
    1da0:	0f d0       	rcall	.+30     	; 0x1dc0 <__umulhisi3>
    1da2:	a5 9f       	mul	r26, r21
    1da4:	90 0d       	add	r25, r0
    1da6:	b4 9f       	mul	r27, r20
    1da8:	90 0d       	add	r25, r0
    1daa:	a4 9f       	mul	r26, r20
    1dac:	80 0d       	add	r24, r0
    1dae:	91 1d       	adc	r25, r1
    1db0:	11 24       	eor	r1, r1
    1db2:	08 95       	ret

00001db4 <__mulshisi3>:
    1db4:	b7 ff       	sbrs	r27, 7
    1db6:	f4 cf       	rjmp	.-24     	; 0x1da0 <__muluhisi3>

00001db8 <__mulohisi3>:
    1db8:	f3 df       	rcall	.-26     	; 0x1da0 <__muluhisi3>
    1dba:	82 1b       	sub	r24, r18
    1dbc:	93 0b       	sbc	r25, r19
    1dbe:	08 95       	ret

00001dc0 <__umulhisi3>:
    1dc0:	a2 9f       	mul	r26, r18
    1dc2:	b0 01       	movw	r22, r0
    1dc4:	b3 9f       	mul	r27, r19
    1dc6:	c0 01       	movw	r24, r0
    1dc8:	a3 9f       	mul	r26, r19
    1dca:	70 0d       	add	r23, r0
    1dcc:	81 1d       	adc	r24, r1
    1dce:	11 24       	eor	r1, r1
    1dd0:	91 1d       	adc	r25, r1
    1dd2:	b2 9f       	mul	r27, r18
    1dd4:	70 0d       	add	r23, r0
    1dd6:	81 1d       	adc	r24, r1
    1dd8:	11 24       	eor	r1, r1
    1dda:	91 1d       	adc	r25, r1
    1ddc:	08 95       	ret

00001dde <_exit>:
    1dde:	f8 94       	cli

00001de0 <__stop_program>:
    1de0:	ff cf       	rjmp	.-2      	; 0x1de0 <__stop_program>
