
uCBoardBeispiele.elf:     file format elf32-avr

Sections:
Idx Name          Size      VMA       LMA       File off  Algn
  0 .data         00000074  00800200  00000d6c  00000e00  2**0
                  CONTENTS, ALLOC, LOAD, DATA
  1 .text         00000d6c  00000000  00000000  00000094  2**1
                  CONTENTS, ALLOC, LOAD, READONLY, CODE
  2 .bss          0000007e  00800274  00800274  00000e74  2**0
                  ALLOC
  3 .comment      0000005c  00000000  00000000  00000e74  2**0
                  CONTENTS, READONLY
  4 .note.gnu.avr.deviceinfo 00000040  00000000  00000000  00000ed0  2**2
                  CONTENTS, READONLY
  5 .debug_aranges 000001e8  00000000  00000000  00000f10  2**0
                  CONTENTS, READONLY, DEBUGGING
  6 .debug_info   000023cf  00000000  00000000  000010f8  2**0
                  CONTENTS, READONLY, DEBUGGING
  7 .debug_abbrev 00000f67  00000000  00000000  000034c7  2**0
                  CONTENTS, READONLY, DEBUGGING
  8 .debug_line   000013cd  00000000  00000000  0000442e  2**0
                  CONTENTS, READONLY, DEBUGGING
  9 .debug_frame  00000678  00000000  00000000  000057fc  2**2
                  CONTENTS, READONLY, DEBUGGING
 10 .debug_str    00000cad  00000000  00000000  00005e74  2**0
                  CONTENTS, READONLY, DEBUGGING
 11 .debug_loc    000019c2  00000000  00000000  00006b21  2**0
                  CONTENTS, READONLY, DEBUGGING
 12 .debug_ranges 00000218  00000000  00000000  000084e3  2**0
                  CONTENTS, READONLY, DEBUGGING

Disassembly of section .text:

00000000 <__vectors>:
   0:	71 c0       	rjmp	.+226    	; 0xe4 <__ctors_end>
   2:	00 00       	nop
   4:	8e c0       	rjmp	.+284    	; 0x122 <__bad_interrupt>
   6:	00 00       	nop
   8:	8c c0       	rjmp	.+280    	; 0x122 <__bad_interrupt>
   a:	00 00       	nop
   c:	8a c0       	rjmp	.+276    	; 0x122 <__bad_interrupt>
   e:	00 00       	nop
  10:	88 c0       	rjmp	.+272    	; 0x122 <__bad_interrupt>
  12:	00 00       	nop
  14:	86 c0       	rjmp	.+268    	; 0x122 <__bad_interrupt>
  16:	00 00       	nop
  18:	84 c0       	rjmp	.+264    	; 0x122 <__bad_interrupt>
  1a:	00 00       	nop
  1c:	82 c0       	rjmp	.+260    	; 0x122 <__bad_interrupt>
  1e:	00 00       	nop
  20:	80 c0       	rjmp	.+256    	; 0x122 <__bad_interrupt>
  22:	00 00       	nop
  24:	7e c0       	rjmp	.+252    	; 0x122 <__bad_interrupt>
  26:	00 00       	nop
  28:	7c c0       	rjmp	.+248    	; 0x122 <__bad_interrupt>
  2a:	00 00       	nop
  2c:	7a c0       	rjmp	.+244    	; 0x122 <__bad_interrupt>
  2e:	00 00       	nop
  30:	78 c0       	rjmp	.+240    	; 0x122 <__bad_interrupt>
  32:	00 00       	nop
  34:	76 c0       	rjmp	.+236    	; 0x122 <__bad_interrupt>
  36:	00 00       	nop
  38:	74 c0       	rjmp	.+232    	; 0x122 <__bad_interrupt>
  3a:	00 00       	nop
  3c:	72 c0       	rjmp	.+228    	; 0x122 <__bad_interrupt>
  3e:	00 00       	nop
  40:	70 c0       	rjmp	.+224    	; 0x122 <__bad_interrupt>
  42:	00 00       	nop
  44:	6e c0       	rjmp	.+220    	; 0x122 <__bad_interrupt>
  46:	00 00       	nop
  48:	6c c0       	rjmp	.+216    	; 0x122 <__bad_interrupt>
  4a:	00 00       	nop
  4c:	6a c0       	rjmp	.+212    	; 0x122 <__bad_interrupt>
  4e:	00 00       	nop
  50:	68 c0       	rjmp	.+208    	; 0x122 <__bad_interrupt>
  52:	00 00       	nop
  54:	66 c0       	rjmp	.+204    	; 0x122 <__bad_interrupt>
  56:	00 00       	nop
  58:	64 c0       	rjmp	.+200    	; 0x122 <__bad_interrupt>
  5a:	00 00       	nop
  5c:	48 c3       	rjmp	.+1680   	; 0x6ee <__vector_23>
  5e:	00 00       	nop
  60:	60 c0       	rjmp	.+192    	; 0x122 <__bad_interrupt>
  62:	00 00       	nop
  64:	5e c0       	rjmp	.+188    	; 0x122 <__bad_interrupt>
  66:	00 00       	nop
  68:	5c c0       	rjmp	.+184    	; 0x122 <__bad_interrupt>
  6a:	00 00       	nop
  6c:	5a c0       	rjmp	.+180    	; 0x122 <__bad_interrupt>
  6e:	00 00       	nop
  70:	58 c0       	rjmp	.+176    	; 0x122 <__bad_interrupt>
  72:	00 00       	nop
  74:	56 c0       	rjmp	.+172    	; 0x122 <__bad_interrupt>
  76:	00 00       	nop
  78:	54 c0       	rjmp	.+168    	; 0x122 <__bad_interrupt>
  7a:	00 00       	nop
  7c:	52 c0       	rjmp	.+164    	; 0x122 <__bad_interrupt>
  7e:	00 00       	nop
  80:	50 c0       	rjmp	.+160    	; 0x122 <__bad_interrupt>
  82:	00 00       	nop
  84:	4e c0       	rjmp	.+156    	; 0x122 <__bad_interrupt>
  86:	00 00       	nop
  88:	4c c0       	rjmp	.+152    	; 0x122 <__bad_interrupt>
  8a:	00 00       	nop
  8c:	4a c0       	rjmp	.+148    	; 0x122 <__bad_interrupt>
  8e:	00 00       	nop
  90:	48 c0       	rjmp	.+144    	; 0x122 <__bad_interrupt>
  92:	00 00       	nop
  94:	46 c0       	rjmp	.+140    	; 0x122 <__bad_interrupt>
  96:	00 00       	nop
  98:	44 c0       	rjmp	.+136    	; 0x122 <__bad_interrupt>
  9a:	00 00       	nop
  9c:	42 c0       	rjmp	.+132    	; 0x122 <__bad_interrupt>
  9e:	00 00       	nop
  a0:	40 c0       	rjmp	.+128    	; 0x122 <__bad_interrupt>
  a2:	00 00       	nop
  a4:	3e c0       	rjmp	.+124    	; 0x122 <__bad_interrupt>
  a6:	00 00       	nop
  a8:	3c c0       	rjmp	.+120    	; 0x122 <__bad_interrupt>
  aa:	00 00       	nop
  ac:	3a c0       	rjmp	.+116    	; 0x122 <__bad_interrupt>
  ae:	00 00       	nop
  b0:	38 c0       	rjmp	.+112    	; 0x122 <__bad_interrupt>
  b2:	00 00       	nop
  b4:	36 c0       	rjmp	.+108    	; 0x122 <__bad_interrupt>
  b6:	00 00       	nop
  b8:	34 c0       	rjmp	.+104    	; 0x122 <__bad_interrupt>
  ba:	00 00       	nop
  bc:	32 c0       	rjmp	.+100    	; 0x122 <__bad_interrupt>
  be:	00 00       	nop
  c0:	30 c0       	rjmp	.+96     	; 0x122 <__bad_interrupt>
  c2:	00 00       	nop
  c4:	2e c0       	rjmp	.+92     	; 0x122 <__bad_interrupt>
  c6:	00 00       	nop
  c8:	2c c0       	rjmp	.+88     	; 0x122 <__bad_interrupt>
  ca:	00 00       	nop
  cc:	2a c0       	rjmp	.+84     	; 0x122 <__bad_interrupt>
  ce:	00 00       	nop
  d0:	28 c0       	rjmp	.+80     	; 0x122 <__bad_interrupt>
  d2:	00 00       	nop
  d4:	26 c0       	rjmp	.+76     	; 0x122 <__bad_interrupt>
  d6:	00 00       	nop
  d8:	24 c0       	rjmp	.+72     	; 0x122 <__bad_interrupt>
  da:	00 00       	nop
  dc:	22 c0       	rjmp	.+68     	; 0x122 <__bad_interrupt>
  de:	00 00       	nop
  e0:	20 c0       	rjmp	.+64     	; 0x122 <__bad_interrupt>
	...

000000e4 <__ctors_end>:
  e4:	11 24       	eor	r1, r1
  e6:	1f be       	out	0x3f, r1	; 63
  e8:	cf ef       	ldi	r28, 0xFF	; 255
  ea:	d1 e2       	ldi	r29, 0x21	; 33
  ec:	de bf       	out	0x3e, r29	; 62
  ee:	cd bf       	out	0x3d, r28	; 61
  f0:	00 e0       	ldi	r16, 0x00	; 0
  f2:	0c bf       	out	0x3c, r16	; 60

000000f4 <__do_copy_data>:
  f4:	12 e0       	ldi	r17, 0x02	; 2
  f6:	a0 e0       	ldi	r26, 0x00	; 0
  f8:	b2 e0       	ldi	r27, 0x02	; 2
  fa:	ec e6       	ldi	r30, 0x6C	; 108
  fc:	fd e0       	ldi	r31, 0x0D	; 13
  fe:	00 e0       	ldi	r16, 0x00	; 0
 100:	0b bf       	out	0x3b, r16	; 59
 102:	02 c0       	rjmp	.+4      	; 0x108 <__do_copy_data+0x14>
 104:	07 90       	elpm	r0, Z+
 106:	0d 92       	st	X+, r0
 108:	a4 37       	cpi	r26, 0x74	; 116
 10a:	b1 07       	cpc	r27, r17
 10c:	d9 f7       	brne	.-10     	; 0x104 <__do_copy_data+0x10>

0000010e <__do_clear_bss>:
 10e:	22 e0       	ldi	r18, 0x02	; 2
 110:	a4 e7       	ldi	r26, 0x74	; 116
 112:	b2 e0       	ldi	r27, 0x02	; 2
 114:	01 c0       	rjmp	.+2      	; 0x118 <.do_clear_bss_start>

00000116 <.do_clear_bss_loop>:
 116:	1d 92       	st	X+, r1

00000118 <.do_clear_bss_start>:
 118:	a2 3f       	cpi	r26, 0xF2	; 242
 11a:	b2 07       	cpc	r27, r18
 11c:	e1 f7       	brne	.-8      	; 0x116 <.do_clear_bss_loop>
 11e:	02 d0       	rcall	.+4      	; 0x124 <main>
 120:	23 c6       	rjmp	.+3142   	; 0xd68 <_exit>

00000122 <__bad_interrupt>:
 122:	6e cf       	rjmp	.-292    	; 0x0 <__vectors>

00000124 <main>:
int main(void)
{
    //Variablen                                                             C Bibel seite 31
    
    //Initialisieren
    initBoard(0);
 124:	80 e0       	ldi	r24, 0x00	; 0
 126:	60 d1       	rcall	.+704    	; 0x3e8 <initBoard>
    
    DDRA=0xff;
 128:	8f ef       	ldi	r24, 0xFF	; 255
 12a:	81 b9       	out	0x01, r24	; 1
    PORTA=0;
 12c:	12 b8       	out	0x02, r1	; 2
 12e:	ff cf       	rjmp	.-2      	; 0x12e <main+0xa>

00000130 <ledWriteAll>:
            }
        }
        matrix_buffer_pos += breite + Zeichenabstand;           // Position für das nächste Zeichen berechnen
        str_p++;                                                // Zeichen-Zeiger auf das nächste Zeichen richten
    }
}
 130:	82 b9       	out	0x02, r24	; 2
 132:	95 b9       	out	0x05, r25	; 5
 134:	08 95       	ret

00000136 <startSystemTimeMs>:
 136:	83 e0       	ldi	r24, 0x03	; 3
 138:	84 bd       	out	0x24, r24	; 36
 13a:	8b e0       	ldi	r24, 0x0B	; 11
 13c:	85 bd       	out	0x25, r24	; 37
 13e:	81 e0       	ldi	r24, 0x01	; 1
 140:	80 93 6e 00 	sts	0x006E, r24	; 0x80006e <__TEXT_REGION_LENGTH__+0x70006e>
 144:	89 ef       	ldi	r24, 0xF9	; 249
 146:	87 bd       	out	0x27, r24	; 39
 148:	08 95       	ret

0000014a <initAdc>:
 14a:	11 ba       	out	0x11, r1	; 17
 14c:	10 ba       	out	0x10, r1	; 16
 14e:	10 92 08 01 	sts	0x0108, r1	; 0x800108 <__TEXT_REGION_LENGTH__+0x700108>
 152:	10 92 07 01 	sts	0x0107, r1	; 0x800107 <__TEXT_REGION_LENGTH__+0x700107>
 156:	80 e4       	ldi	r24, 0x40	; 64
 158:	80 93 7c 00 	sts	0x007C, r24	; 0x80007c <__TEXT_REGION_LENGTH__+0x70007c>
 15c:	8f e0       	ldi	r24, 0x0F	; 15
 15e:	80 93 7e 00 	sts	0x007E, r24	; 0x80007e <__TEXT_REGION_LENGTH__+0x70007e>
 162:	8f ef       	ldi	r24, 0xFF	; 255
 164:	80 93 7d 00 	sts	0x007D, r24	; 0x80007d <__TEXT_REGION_LENGTH__+0x70007d>
 168:	ea e7       	ldi	r30, 0x7A	; 122
 16a:	f0 e0       	ldi	r31, 0x00	; 0
 16c:	87 ea       	ldi	r24, 0xA7	; 167
 16e:	80 83       	st	Z, r24
 170:	10 92 7b 00 	sts	0x007B, r1	; 0x80007b <__TEXT_REGION_LENGTH__+0x70007b>
 174:	80 81       	ld	r24, Z
 176:	80 64       	ori	r24, 0x40	; 64
 178:	80 83       	st	Z, r24
 17a:	80 81       	ld	r24, Z
 17c:	84 ff       	sbrs	r24, 4
 17e:	fd cf       	rjmp	.-6      	; 0x17a <initAdc+0x30>
 180:	ea e7       	ldi	r30, 0x7A	; 122
 182:	f0 e0       	ldi	r31, 0x00	; 0
 184:	80 81       	ld	r24, Z
 186:	8f 7e       	andi	r24, 0xEF	; 239
 188:	80 83       	st	Z, r24
 18a:	08 95       	ret

0000018c <rgbWrite>:
 18c:	2f ef       	ldi	r18, 0xFF	; 255
 18e:	33 e0       	ldi	r19, 0x03	; 3
 190:	f9 01       	movw	r30, r18
 192:	e8 1b       	sub	r30, r24
 194:	f9 0b       	sbc	r31, r25
 196:	c9 01       	movw	r24, r18
 198:	86 1b       	sub	r24, r22
 19a:	97 0b       	sbc	r25, r23
 19c:	24 1b       	sub	r18, r20
 19e:	35 0b       	sbc	r19, r21
 1a0:	f0 93 a9 00 	sts	0x00A9, r31	; 0x8000a9 <__TEXT_REGION_LENGTH__+0x7000a9>
 1a4:	e0 93 a8 00 	sts	0x00A8, r30	; 0x8000a8 <__TEXT_REGION_LENGTH__+0x7000a8>
 1a8:	90 93 ab 00 	sts	0x00AB, r25	; 0x8000ab <__TEXT_REGION_LENGTH__+0x7000ab>
 1ac:	80 93 aa 00 	sts	0x00AA, r24	; 0x8000aa <__TEXT_REGION_LENGTH__+0x7000aa>
 1b0:	30 93 ad 00 	sts	0x00AD, r19	; 0x8000ad <__TEXT_REGION_LENGTH__+0x7000ad>
 1b4:	20 93 ac 00 	sts	0x00AC, r18	; 0x8000ac <__TEXT_REGION_LENGTH__+0x7000ac>
 1b8:	08 95       	ret

000001ba <initRgb>:
 1ba:	8e ef       	ldi	r24, 0xFE	; 254
 1bc:	80 93 a0 00 	sts	0x00A0, r24	; 0x8000a0 <__TEXT_REGION_LENGTH__+0x7000a0>
 1c0:	8b e1       	ldi	r24, 0x1B	; 27
 1c2:	80 93 a1 00 	sts	0x00A1, r24	; 0x8000a1 <__TEXT_REGION_LENGTH__+0x7000a1>
 1c6:	83 e0       	ldi	r24, 0x03	; 3
 1c8:	80 93 a7 00 	sts	0x00A7, r24	; 0x8000a7 <__TEXT_REGION_LENGTH__+0x7000a7>
 1cc:	8f ef       	ldi	r24, 0xFF	; 255
 1ce:	80 93 a6 00 	sts	0x00A6, r24	; 0x8000a6 <__TEXT_REGION_LENGTH__+0x7000a6>
 1d2:	40 e0       	ldi	r20, 0x00	; 0
 1d4:	50 e0       	ldi	r21, 0x00	; 0
 1d6:	60 e0       	ldi	r22, 0x00	; 0
 1d8:	70 e0       	ldi	r23, 0x00	; 0
 1da:	80 e0       	ldi	r24, 0x00	; 0
 1dc:	90 e0       	ldi	r25, 0x00	; 0
 1de:	d6 cf       	rjmp	.-84     	; 0x18c <rgbWrite>
 1e0:	08 95       	ret

000001e2 <lcdSid>:
 1e2:	88 23       	and	r24, r24
 1e4:	11 f0       	breq	.+4      	; 0x1ea <lcdSid+0x8>
 1e6:	a0 9a       	sbi	0x14, 0	; 20
 1e8:	08 95       	ret
 1ea:	a0 98       	cbi	0x14, 0	; 20
 1ec:	08 95       	ret

000001ee <lcdSclk>:
 1ee:	88 23       	and	r24, r24
 1f0:	11 f0       	breq	.+4      	; 0x1f6 <lcdSclk+0x8>
 1f2:	a1 9a       	sbi	0x14, 1	; 20
 1f4:	08 95       	ret
 1f6:	a1 98       	cbi	0x14, 1	; 20
 1f8:	08 95       	ret

000001fa <lcdLight>:
 1fa:	81 11       	cpse	r24, r1
 1fc:	04 c0       	rjmp	.+8      	; 0x206 <lcdLight+0xc>
 1fe:	84 b5       	in	r24, 0x24	; 36
 200:	8f 7d       	andi	r24, 0xDF	; 223
 202:	84 bd       	out	0x24, r24	; 36
 204:	08 95       	ret
 206:	94 b5       	in	r25, 0x24	; 36
 208:	90 62       	ori	r25, 0x20	; 32
 20a:	94 bd       	out	0x24, r25	; 36
 20c:	88 bd       	out	0x28, r24	; 40
 20e:	08 95       	ret

00000210 <writeLcdF>:
 210:	ef 92       	push	r14
 212:	ff 92       	push	r15
 214:	0f 93       	push	r16
 216:	1f 93       	push	r17
 218:	cf 93       	push	r28
 21a:	df 93       	push	r29
 21c:	7c 01       	movw	r14, r24
 21e:	eb 01       	movw	r28, r22
 220:	81 e0       	ldi	r24, 0x01	; 1
 222:	df df       	rcall	.-66     	; 0x1e2 <lcdSid>
 224:	05 e0       	ldi	r16, 0x05	; 5
 226:	10 e0       	ldi	r17, 0x00	; 0
 228:	80 e0       	ldi	r24, 0x00	; 0
 22a:	e1 df       	rcall	.-62     	; 0x1ee <lcdSclk>
 22c:	81 e0       	ldi	r24, 0x01	; 1
 22e:	df df       	rcall	.-66     	; 0x1ee <lcdSclk>
 230:	01 50       	subi	r16, 0x01	; 1
 232:	11 09       	sbc	r17, r1
 234:	c9 f7       	brne	.-14     	; 0x228 <writeLcdF+0x18>
 236:	80 e0       	ldi	r24, 0x00	; 0
 238:	d4 df       	rcall	.-88     	; 0x1e2 <lcdSid>
 23a:	80 e0       	ldi	r24, 0x00	; 0
 23c:	d8 df       	rcall	.-80     	; 0x1ee <lcdSclk>
 23e:	81 e0       	ldi	r24, 0x01	; 1
 240:	d6 df       	rcall	.-84     	; 0x1ee <lcdSclk>
 242:	83 e4       	ldi	r24, 0x43	; 67
 244:	e8 16       	cp	r14, r24
 246:	f1 04       	cpc	r15, r1
 248:	19 f4       	brne	.+6      	; 0x250 <writeLcdF+0x40>
 24a:	80 e0       	ldi	r24, 0x00	; 0
 24c:	ca df       	rcall	.-108    	; 0x1e2 <lcdSid>
 24e:	02 c0       	rjmp	.+4      	; 0x254 <writeLcdF+0x44>
 250:	81 e0       	ldi	r24, 0x01	; 1
 252:	c7 df       	rcall	.-114    	; 0x1e2 <lcdSid>
 254:	80 e0       	ldi	r24, 0x00	; 0
 256:	cb df       	rcall	.-106    	; 0x1ee <lcdSclk>
 258:	81 e0       	ldi	r24, 0x01	; 1
 25a:	c9 df       	rcall	.-110    	; 0x1ee <lcdSclk>
 25c:	80 e0       	ldi	r24, 0x00	; 0
 25e:	c1 df       	rcall	.-126    	; 0x1e2 <lcdSid>
 260:	80 e0       	ldi	r24, 0x00	; 0
 262:	c5 df       	rcall	.-118    	; 0x1ee <lcdSclk>
 264:	81 e0       	ldi	r24, 0x01	; 1
 266:	c3 df       	rcall	.-122    	; 0x1ee <lcdSclk>
 268:	04 e0       	ldi	r16, 0x04	; 4
 26a:	10 e0       	ldi	r17, 0x00	; 0
 26c:	80 e0       	ldi	r24, 0x00	; 0
 26e:	bf df       	rcall	.-130    	; 0x1ee <lcdSclk>
 270:	c0 ff       	sbrs	r28, 0
 272:	03 c0       	rjmp	.+6      	; 0x27a <writeLcdF+0x6a>
 274:	81 e0       	ldi	r24, 0x01	; 1
 276:	b5 df       	rcall	.-150    	; 0x1e2 <lcdSid>
 278:	02 c0       	rjmp	.+4      	; 0x27e <writeLcdF+0x6e>
 27a:	80 e0       	ldi	r24, 0x00	; 0
 27c:	b2 df       	rcall	.-156    	; 0x1e2 <lcdSid>
 27e:	d6 95       	lsr	r29
 280:	c7 95       	ror	r28
 282:	80 e0       	ldi	r24, 0x00	; 0
 284:	b4 df       	rcall	.-152    	; 0x1ee <lcdSclk>
 286:	81 e0       	ldi	r24, 0x01	; 1
 288:	b2 df       	rcall	.-156    	; 0x1ee <lcdSclk>
 28a:	01 50       	subi	r16, 0x01	; 1
 28c:	11 09       	sbc	r17, r1
 28e:	71 f7       	brne	.-36     	; 0x26c <writeLcdF+0x5c>
 290:	80 e0       	ldi	r24, 0x00	; 0
 292:	a7 df       	rcall	.-178    	; 0x1e2 <lcdSid>
 294:	04 e0       	ldi	r16, 0x04	; 4
 296:	10 e0       	ldi	r17, 0x00	; 0
 298:	80 e0       	ldi	r24, 0x00	; 0
 29a:	a9 df       	rcall	.-174    	; 0x1ee <lcdSclk>
 29c:	81 e0       	ldi	r24, 0x01	; 1
 29e:	a7 df       	rcall	.-178    	; 0x1ee <lcdSclk>
 2a0:	01 50       	subi	r16, 0x01	; 1
 2a2:	11 09       	sbc	r17, r1
 2a4:	c9 f7       	brne	.-14     	; 0x298 <writeLcdF+0x88>
 2a6:	04 e0       	ldi	r16, 0x04	; 4
 2a8:	10 e0       	ldi	r17, 0x00	; 0
 2aa:	80 e0       	ldi	r24, 0x00	; 0
 2ac:	a0 df       	rcall	.-192    	; 0x1ee <lcdSclk>
 2ae:	c0 ff       	sbrs	r28, 0
 2b0:	03 c0       	rjmp	.+6      	; 0x2b8 <writeLcdF+0xa8>
 2b2:	81 e0       	ldi	r24, 0x01	; 1
 2b4:	96 df       	rcall	.-212    	; 0x1e2 <lcdSid>
 2b6:	02 c0       	rjmp	.+4      	; 0x2bc <writeLcdF+0xac>
 2b8:	80 e0       	ldi	r24, 0x00	; 0
 2ba:	93 df       	rcall	.-218    	; 0x1e2 <lcdSid>
 2bc:	d6 95       	lsr	r29
 2be:	c7 95       	ror	r28
 2c0:	80 e0       	ldi	r24, 0x00	; 0
 2c2:	95 df       	rcall	.-214    	; 0x1ee <lcdSclk>
 2c4:	81 e0       	ldi	r24, 0x01	; 1
 2c6:	93 df       	rcall	.-218    	; 0x1ee <lcdSclk>
 2c8:	01 50       	subi	r16, 0x01	; 1
 2ca:	11 09       	sbc	r17, r1
 2cc:	71 f7       	brne	.-36     	; 0x2aa <writeLcdF+0x9a>
 2ce:	80 e0       	ldi	r24, 0x00	; 0
 2d0:	88 df       	rcall	.-240    	; 0x1e2 <lcdSid>
 2d2:	c4 e0       	ldi	r28, 0x04	; 4
 2d4:	d0 e0       	ldi	r29, 0x00	; 0
 2d6:	80 e0       	ldi	r24, 0x00	; 0
 2d8:	8a df       	rcall	.-236    	; 0x1ee <lcdSclk>
 2da:	81 e0       	ldi	r24, 0x01	; 1
 2dc:	88 df       	rcall	.-240    	; 0x1ee <lcdSclk>
 2de:	21 97       	sbiw	r28, 0x01	; 1
 2e0:	d1 f7       	brne	.-12     	; 0x2d6 <writeLcdF+0xc6>
 2e2:	81 e0       	ldi	r24, 0x01	; 1
 2e4:	7e df       	rcall	.-260    	; 0x1e2 <lcdSid>
 2e6:	87 ec       	ldi	r24, 0xC7	; 199
 2e8:	90 e0       	ldi	r25, 0x00	; 0
 2ea:	01 97       	sbiw	r24, 0x01	; 1
 2ec:	f1 f7       	brne	.-4      	; 0x2ea <writeLcdF+0xda>
 2ee:	00 c0       	rjmp	.+0      	; 0x2f0 <writeLcdF+0xe0>
 2f0:	00 00       	nop
 2f2:	df 91       	pop	r29
 2f4:	cf 91       	pop	r28
 2f6:	1f 91       	pop	r17
 2f8:	0f 91       	pop	r16
 2fa:	ff 90       	pop	r15
 2fc:	ef 90       	pop	r14
 2fe:	08 95       	ret

00000300 <lcdWriteText>:
 300:	1f 93       	push	r17
 302:	cf 93       	push	r28
 304:	df 93       	push	r29
 306:	cd b7       	in	r28, 0x3d	; 61
 308:	de b7       	in	r29, 0x3e	; 62
 30a:	65 97       	sbiw	r28, 0x15	; 21
 30c:	0f b6       	in	r0, 0x3f	; 63
 30e:	f8 94       	cli
 310:	de bf       	out	0x3e, r29	; 62
 312:	0f be       	out	0x3f, r0	; 63
 314:	cd bf       	out	0x3d, r28	; 61
 316:	9e 01       	movw	r18, r28
 318:	20 5e       	subi	r18, 0xE0	; 224
 31a:	3f 4f       	sbci	r19, 0xFF	; 255
 31c:	4e 8d       	ldd	r20, Y+30	; 0x1e
 31e:	5f 8d       	ldd	r21, Y+31	; 0x1f
 320:	65 e1       	ldi	r22, 0x15	; 21
 322:	70 e0       	ldi	r23, 0x00	; 0
 324:	ce 01       	movw	r24, r28
 326:	01 96       	adiw	r24, 0x01	; 1
 328:	3a d2       	rcall	.+1140   	; 0x79e <vsnprintf>
 32a:	6d 8d       	ldd	r22, Y+29	; 0x1d
 32c:	8c 8d       	ldd	r24, Y+28	; 0x1c
 32e:	90 e2       	ldi	r25, 0x20	; 32
 330:	89 9f       	mul	r24, r25
 332:	60 0d       	add	r22, r0
 334:	11 24       	eor	r1, r1
 336:	60 68       	ori	r22, 0x80	; 128
 338:	70 e0       	ldi	r23, 0x00	; 0
 33a:	83 e4       	ldi	r24, 0x43	; 67
 33c:	90 e0       	ldi	r25, 0x00	; 0
 33e:	68 df       	rcall	.-304    	; 0x210 <writeLcdF>
 340:	69 81       	ldd	r22, Y+1	; 0x01
 342:	66 23       	and	r22, r22
 344:	79 f0       	breq	.+30     	; 0x364 <lcdWriteText+0x64>
 346:	10 e0       	ldi	r17, 0x00	; 0
 348:	1f 5f       	subi	r17, 0xFF	; 255
 34a:	70 e0       	ldi	r23, 0x00	; 0
 34c:	84 e4       	ldi	r24, 0x44	; 68
 34e:	90 e0       	ldi	r25, 0x00	; 0
 350:	5f df       	rcall	.-322    	; 0x210 <writeLcdF>
 352:	e1 e0       	ldi	r30, 0x01	; 1
 354:	f0 e0       	ldi	r31, 0x00	; 0
 356:	ec 0f       	add	r30, r28
 358:	fd 1f       	adc	r31, r29
 35a:	e1 0f       	add	r30, r17
 35c:	f1 1d       	adc	r31, r1
 35e:	60 81       	ld	r22, Z
 360:	61 11       	cpse	r22, r1
 362:	f2 cf       	rjmp	.-28     	; 0x348 <lcdWriteText+0x48>
 364:	65 96       	adiw	r28, 0x15	; 21
 366:	0f b6       	in	r0, 0x3f	; 63
 368:	f8 94       	cli
 36a:	de bf       	out	0x3e, r29	; 62
 36c:	0f be       	out	0x3f, r0	; 63
 36e:	cd bf       	out	0x3d, r28	; 61
 370:	df 91       	pop	r29
 372:	cf 91       	pop	r28
 374:	1f 91       	pop	r17
 376:	08 95       	ret

00000378 <lcdClear>:
 378:	61 e0       	ldi	r22, 0x01	; 1
 37a:	70 e0       	ldi	r23, 0x00	; 0
 37c:	83 e4       	ldi	r24, 0x43	; 67
 37e:	90 e0       	ldi	r25, 0x00	; 0
 380:	47 df       	rcall	.-370    	; 0x210 <writeLcdF>
 382:	8f e3       	ldi	r24, 0x3F	; 63
 384:	9f e1       	ldi	r25, 0x1F	; 31
 386:	01 97       	sbiw	r24, 0x01	; 1
 388:	f1 f7       	brne	.-4      	; 0x386 <lcdClear+0xe>
 38a:	00 c0       	rjmp	.+0      	; 0x38c <lcdClear+0x14>
 38c:	00 00       	nop
 38e:	80 e3       	ldi	r24, 0x30	; 48
 390:	92 e0       	ldi	r25, 0x02	; 2
 392:	9f 93       	push	r25
 394:	8f 93       	push	r24
 396:	1f 92       	push	r1
 398:	1f 92       	push	r1
 39a:	b2 df       	rcall	.-156    	; 0x300 <lcdWriteText>
 39c:	0f 90       	pop	r0
 39e:	0f 90       	pop	r0
 3a0:	0f 90       	pop	r0
 3a2:	0f 90       	pop	r0
 3a4:	08 95       	ret

000003a6 <initLcd>:
 3a6:	81 e0       	ldi	r24, 0x01	; 1
 3a8:	22 df       	rcall	.-444    	; 0x1ee <lcdSclk>
 3aa:	80 e0       	ldi	r24, 0x00	; 0
 3ac:	1a df       	rcall	.-460    	; 0x1e2 <lcdSid>
 3ae:	64 e3       	ldi	r22, 0x34	; 52
 3b0:	70 e0       	ldi	r23, 0x00	; 0
 3b2:	83 e4       	ldi	r24, 0x43	; 67
 3b4:	90 e0       	ldi	r25, 0x00	; 0
 3b6:	2c df       	rcall	.-424    	; 0x210 <writeLcdF>
 3b8:	69 e0       	ldi	r22, 0x09	; 9
 3ba:	70 e0       	ldi	r23, 0x00	; 0
 3bc:	83 e4       	ldi	r24, 0x43	; 67
 3be:	90 e0       	ldi	r25, 0x00	; 0
 3c0:	27 df       	rcall	.-434    	; 0x210 <writeLcdF>
 3c2:	60 e3       	ldi	r22, 0x30	; 48
 3c4:	70 e0       	ldi	r23, 0x00	; 0
 3c6:	83 e4       	ldi	r24, 0x43	; 67
 3c8:	90 e0       	ldi	r25, 0x00	; 0
 3ca:	22 df       	rcall	.-444    	; 0x210 <writeLcdF>
 3cc:	6c e0       	ldi	r22, 0x0C	; 12
 3ce:	70 e0       	ldi	r23, 0x00	; 0
 3d0:	83 e4       	ldi	r24, 0x43	; 67
 3d2:	90 e0       	ldi	r25, 0x00	; 0
 3d4:	1d df       	rcall	.-454    	; 0x210 <writeLcdF>
 3d6:	d0 df       	rcall	.-96     	; 0x378 <lcdClear>
 3d8:	67 e0       	ldi	r22, 0x07	; 7
 3da:	70 e0       	ldi	r23, 0x00	; 0
 3dc:	83 e4       	ldi	r24, 0x43	; 67
 3de:	90 e0       	ldi	r25, 0x00	; 0
 3e0:	17 df       	rcall	.-466    	; 0x210 <writeLcdF>
 3e2:	80 e0       	ldi	r24, 0x00	; 0
 3e4:	0a cf       	rjmp	.-492    	; 0x1fa <lcdLight>
 3e6:	08 95       	ret

000003e8 <initBoard>:
 3e8:	4f 92       	push	r4
 3ea:	5f 92       	push	r5
 3ec:	6f 92       	push	r6
 3ee:	7f 92       	push	r7
 3f0:	8f 92       	push	r8
 3f2:	9f 92       	push	r9
 3f4:	af 92       	push	r10
 3f6:	bf 92       	push	r11
 3f8:	cf 92       	push	r12
 3fa:	df 92       	push	r13
 3fc:	ef 92       	push	r14
 3fe:	ff 92       	push	r15
 400:	0f 93       	push	r16
 402:	1f 93       	push	r17
 404:	cf 93       	push	r28
 406:	df 93       	push	r29
 408:	c8 2f       	mov	r28, r24
 40a:	85 b7       	in	r24, 0x35	; 53
 40c:	85 bf       	out	0x35, r24	; 53
 40e:	12 b8       	out	0x02, r1	; 2
 410:	8f ef       	ldi	r24, 0xFF	; 255
 412:	81 b9       	out	0x01, r24	; 1
 414:	15 b8       	out	0x05, r1	; 5
 416:	84 b9       	out	0x04, r24	; 4
 418:	88 b9       	out	0x08, r24	; 8
 41a:	17 b8       	out	0x07, r1	; 7
 41c:	8b b9       	out	0x0b, r24	; 11
 41e:	1a b8       	out	0x0a, r1	; 10
 420:	8e b9       	out	0x0e, r24	; 14
 422:	1d b8       	out	0x0d, r1	; 13
 424:	72 98       	cbi	0x0e, 2	; 14
 426:	11 ba       	out	0x11, r1	; 17
 428:	10 ba       	out	0x10, r1	; 16
 42a:	94 e0       	ldi	r25, 0x04	; 4
 42c:	94 bb       	out	0x14, r25	; 20
 42e:	93 b3       	in	r25, 0x13	; 19
 430:	93 60       	ori	r25, 0x03	; 3
 432:	93 bb       	out	0x13, r25	; 19
 434:	9d 9a       	sbi	0x13, 5	; 19
 436:	97 ec       	ldi	r25, 0xC7	; 199
 438:	90 93 02 01 	sts	0x0102, r25	; 0x800102 <__TEXT_REGION_LENGTH__+0x700102>
 43c:	98 e3       	ldi	r25, 0x38	; 56
 43e:	90 93 01 01 	sts	0x0101, r25	; 0x800101 <__TEXT_REGION_LENGTH__+0x700101>
 442:	10 92 05 01 	sts	0x0105, r1	; 0x800105 <__TEXT_REGION_LENGTH__+0x700105>
 446:	80 93 04 01 	sts	0x0104, r24	; 0x800104 <__TEXT_REGION_LENGTH__+0x700104>
 44a:	10 92 08 01 	sts	0x0108, r1	; 0x800108 <__TEXT_REGION_LENGTH__+0x700108>
 44e:	10 92 07 01 	sts	0x0107, r1	; 0x800107 <__TEXT_REGION_LENGTH__+0x700107>
 452:	8c e3       	ldi	r24, 0x3C	; 60
 454:	80 93 0b 01 	sts	0x010B, r24	; 0x80010b <__TEXT_REGION_LENGTH__+0x70010b>
 458:	10 92 0a 01 	sts	0x010A, r1	; 0x80010a <__TEXT_REGION_LENGTH__+0x70010a>
 45c:	78 94       	sei
 45e:	6b de       	rcall	.-810    	; 0x136 <startSystemTimeMs>
 460:	a2 df       	rcall	.-188    	; 0x3a6 <initLcd>
 462:	73 de       	rcall	.-794    	; 0x14a <initAdc>
 464:	aa de       	rcall	.-684    	; 0x1ba <initRgb>
 466:	cc 23       	and	r28, r28
 468:	09 f4       	brne	.+2      	; 0x46c <__LOCK_REGION_LENGTH__+0x6c>
 46a:	b8 c0       	rjmp	.+368    	; 0x5dc <__LOCK_REGION_LENGTH__+0x1dc>
 46c:	8f ef       	ldi	r24, 0xFF	; 255
 46e:	c5 de       	rcall	.-630    	; 0x1fa <lcdLight>
 470:	40 e0       	ldi	r20, 0x00	; 0
 472:	50 e0       	ldi	r21, 0x00	; 0
 474:	6f ef       	ldi	r22, 0xFF	; 255
 476:	73 e0       	ldi	r23, 0x03	; 3
 478:	80 e0       	ldi	r24, 0x00	; 0
 47a:	90 e0       	ldi	r25, 0x00	; 0
 47c:	87 de       	rcall	.-754    	; 0x18c <rgbWrite>
 47e:	8d e1       	ldi	r24, 0x1D	; 29
 480:	92 e0       	ldi	r25, 0x02	; 2
 482:	9f 93       	push	r25
 484:	8f 93       	push	r24
 486:	1f 92       	push	r1
 488:	1f 92       	push	r1
 48a:	3a df       	rcall	.-396    	; 0x300 <lcdWriteText>
 48c:	82 e3       	ldi	r24, 0x32	; 50
 48e:	92 e0       	ldi	r25, 0x02	; 2
 490:	9f 93       	push	r25
 492:	8f 93       	push	r24
 494:	1f 92       	push	r1
 496:	81 e0       	ldi	r24, 0x01	; 1
 498:	8f 93       	push	r24
 49a:	32 df       	rcall	.-412    	; 0x300 <lcdWriteText>
 49c:	88 e0       	ldi	r24, 0x08	; 8
 49e:	92 e0       	ldi	r25, 0x02	; 2
 4a0:	9f 93       	push	r25
 4a2:	8f 93       	push	r24
 4a4:	1f 92       	push	r1
 4a6:	82 e0       	ldi	r24, 0x02	; 2
 4a8:	8f 93       	push	r24
 4aa:	2a df       	rcall	.-428    	; 0x300 <lcdWriteText>
 4ac:	87 e4       	ldi	r24, 0x47	; 71
 4ae:	92 e0       	ldi	r25, 0x02	; 2
 4b0:	9f 93       	push	r25
 4b2:	8f 93       	push	r24
 4b4:	1f 92       	push	r1
 4b6:	83 e0       	ldi	r24, 0x03	; 3
 4b8:	8f 93       	push	r24
 4ba:	22 df       	rcall	.-444    	; 0x300 <lcdWriteText>
 4bc:	8d b7       	in	r24, 0x3d	; 61
 4be:	9e b7       	in	r25, 0x3e	; 62
 4c0:	40 96       	adiw	r24, 0x10	; 16
 4c2:	0f b6       	in	r0, 0x3f	; 63
 4c4:	f8 94       	cli
 4c6:	9e bf       	out	0x3e, r25	; 62
 4c8:	0f be       	out	0x3f, r0	; 63
 4ca:	8d bf       	out	0x3d, r24	; 61
 4cc:	88 24       	eor	r8, r8
 4ce:	83 94       	inc	r8
 4d0:	c0 e0       	ldi	r28, 0x00	; 0
 4d2:	71 2c       	mov	r7, r1
 4d4:	99 24       	eor	r9, r9
 4d6:	93 94       	inc	r9
 4d8:	d0 e0       	ldi	r29, 0x00	; 0
 4da:	cc 24       	eor	r12, r12
 4dc:	c3 94       	inc	r12
 4de:	d1 2c       	mov	r13, r1
 4e0:	e1 2c       	mov	r14, r1
 4e2:	68 94       	set
 4e4:	ff 24       	eor	r15, r15
 4e6:	f7 f8       	bld	r15, 7
 4e8:	66 24       	eor	r6, r6
 4ea:	63 94       	inc	r6
 4ec:	51 2c       	mov	r5, r1
 4ee:	09 e0       	ldi	r16, 0x09	; 9
 4f0:	11 e0       	ldi	r17, 0x01	; 1
 4f2:	0f 2e       	mov	r0, r31
 4f4:	fc e5       	ldi	r31, 0x5C	; 92
 4f6:	af 2e       	mov	r10, r31
 4f8:	f2 e0       	ldi	r31, 0x02	; 2
 4fa:	bf 2e       	mov	r11, r31
 4fc:	f0 2d       	mov	r31, r0
 4fe:	0f 2e       	mov	r0, r31
 500:	f3 e0       	ldi	r31, 0x03	; 3
 502:	4f 2e       	mov	r4, r31
 504:	f0 2d       	mov	r31, r0
 506:	99 20       	and	r9, r9
 508:	49 f0       	breq	.+18     	; 0x51c <__LOCK_REGION_LENGTH__+0x11c>
 50a:	c7 01       	movw	r24, r14
 50c:	0d 2e       	mov	r0, r29
 50e:	02 c0       	rjmp	.+4      	; 0x514 <__LOCK_REGION_LENGTH__+0x114>
 510:	96 95       	lsr	r25
 512:	87 95       	ror	r24
 514:	0a 94       	dec	r0
 516:	e2 f7       	brpl	.-8      	; 0x510 <__LOCK_REGION_LENGTH__+0x110>
 518:	0b de       	rcall	.-1002   	; 0x130 <ledWriteAll>
 51a:	08 c0       	rjmp	.+16     	; 0x52c <__LOCK_REGION_LENGTH__+0x12c>
 51c:	c6 01       	movw	r24, r12
 51e:	0d 2e       	mov	r0, r29
 520:	02 c0       	rjmp	.+4      	; 0x526 <__LOCK_REGION_LENGTH__+0x126>
 522:	88 0f       	add	r24, r24
 524:	99 1f       	adc	r25, r25
 526:	0a 94       	dec	r0
 528:	e2 f7       	brpl	.-8      	; 0x522 <__LOCK_REGION_LENGTH__+0x122>
 52a:	02 de       	rcall	.-1020   	; 0x130 <ledWriteAll>
 52c:	df 5f       	subi	r29, 0xFF	; 255
 52e:	d1 31       	cpi	r29, 0x11	; 17
 530:	28 f0       	brcs	.+10     	; 0x53c <__LOCK_REGION_LENGTH__+0x13c>
 532:	86 2d       	mov	r24, r6
 534:	91 10       	cpse	r9, r1
 536:	85 2d       	mov	r24, r5
 538:	98 2e       	mov	r9, r24
 53a:	d0 e0       	ldi	r29, 0x00	; 0
 53c:	88 20       	and	r8, r8
 53e:	11 f0       	breq	.+4      	; 0x544 <__LOCK_REGION_LENGTH__+0x144>
 540:	ce 5f       	subi	r28, 0xFE	; 254
 542:	01 c0       	rjmp	.+2      	; 0x546 <__LOCK_REGION_LENGTH__+0x146>
 544:	c2 50       	subi	r28, 0x02	; 2
 546:	8c 2f       	mov	r24, r28
 548:	58 de       	rcall	.-848    	; 0x1fa <lcdLight>
 54a:	ce 3f       	cpi	r28, 0xFE	; 254
 54c:	21 f0       	breq	.+8      	; 0x556 <__LOCK_REGION_LENGTH__+0x156>
 54e:	c8 37       	cpi	r28, 0x78	; 120
 550:	19 f4       	brne	.+6      	; 0x558 <__LOCK_REGION_LENGTH__+0x158>
 552:	86 2c       	mov	r8, r6
 554:	01 c0       	rjmp	.+2      	; 0x558 <__LOCK_REGION_LENGTH__+0x158>
 556:	85 2c       	mov	r8, r5
 558:	71 10       	cpse	r7, r1
 55a:	3b c0       	rjmp	.+118    	; 0x5d2 <__LOCK_REGION_LENGTH__+0x1d2>
 55c:	f8 01       	movw	r30, r16
 55e:	80 81       	ld	r24, Z
 560:	83 7c       	andi	r24, 0xC3	; 195
 562:	91 f0       	breq	.+36     	; 0x588 <__LOCK_REGION_LENGTH__+0x188>
 564:	40 e0       	ldi	r20, 0x00	; 0
 566:	50 e0       	ldi	r21, 0x00	; 0
 568:	66 e2       	ldi	r22, 0x26	; 38
 56a:	72 e0       	ldi	r23, 0x02	; 2
 56c:	8f ef       	ldi	r24, 0xFF	; 255
 56e:	93 e0       	ldi	r25, 0x03	; 3
 570:	0d de       	rcall	.-998    	; 0x18c <rgbWrite>
 572:	bf 92       	push	r11
 574:	af 92       	push	r10
 576:	1f 92       	push	r1
 578:	4f 92       	push	r4
 57a:	c2 de       	rcall	.-636    	; 0x300 <lcdWriteText>
 57c:	0f 90       	pop	r0
 57e:	0f 90       	pop	r0
 580:	0f 90       	pop	r0
 582:	0f 90       	pop	r0
 584:	76 2c       	mov	r7, r6
 586:	25 c0       	rjmp	.+74     	; 0x5d2 <__LOCK_REGION_LENGTH__+0x1d2>
 588:	8f ef       	ldi	r24, 0xFF	; 255
 58a:	9c e7       	ldi	r25, 0x7C	; 124
 58c:	01 97       	sbiw	r24, 0x01	; 1
 58e:	f1 f7       	brne	.-4      	; 0x58c <__LOCK_REGION_LENGTH__+0x18c>
 590:	00 c0       	rjmp	.+0      	; 0x592 <__LOCK_REGION_LENGTH__+0x192>
 592:	00 00       	nop
 594:	b8 cf       	rjmp	.-144    	; 0x506 <__LOCK_REGION_LENGTH__+0x106>
 596:	f0 de       	rcall	.-544    	; 0x378 <lcdClear>
 598:	80 e0       	ldi	r24, 0x00	; 0
 59a:	2f de       	rcall	.-930    	; 0x1fa <lcdLight>
 59c:	80 e0       	ldi	r24, 0x00	; 0
 59e:	90 e0       	ldi	r25, 0x00	; 0
 5a0:	c7 dd       	rcall	.-1138   	; 0x130 <ledWriteAll>
 5a2:	40 e0       	ldi	r20, 0x00	; 0
 5a4:	50 e0       	ldi	r21, 0x00	; 0
 5a6:	60 e0       	ldi	r22, 0x00	; 0
 5a8:	70 e0       	ldi	r23, 0x00	; 0
 5aa:	80 e0       	ldi	r24, 0x00	; 0
 5ac:	90 e0       	ldi	r25, 0x00	; 0
 5ae:	ee dd       	rcall	.-1060   	; 0x18c <rgbWrite>
 5b0:	10 92 79 02 	sts	0x0279, r1	; 0x800279 <systemTimeMs>
 5b4:	10 92 7a 02 	sts	0x027A, r1	; 0x80027a <systemTimeMs+0x1>
 5b8:	10 92 7b 02 	sts	0x027B, r1	; 0x80027b <systemTimeMs+0x2>
 5bc:	10 92 7c 02 	sts	0x027C, r1	; 0x80027c <systemTimeMs+0x3>
 5c0:	10 92 7d 02 	sts	0x027D, r1	; 0x80027d <systemTimeMs+0x4>
 5c4:	10 92 7e 02 	sts	0x027E, r1	; 0x80027e <systemTimeMs+0x5>
 5c8:	10 92 7f 02 	sts	0x027F, r1	; 0x80027f <systemTimeMs+0x6>
 5cc:	10 92 80 02 	sts	0x0280, r1	; 0x800280 <systemTimeMs+0x7>
 5d0:	05 c0       	rjmp	.+10     	; 0x5dc <__LOCK_REGION_LENGTH__+0x1dc>
 5d2:	f8 01       	movw	r30, r16
 5d4:	80 81       	ld	r24, Z
 5d6:	83 7c       	andi	r24, 0xC3	; 195
 5d8:	b9 f6       	brne	.-82     	; 0x588 <__LOCK_REGION_LENGTH__+0x188>
 5da:	dd cf       	rjmp	.-70     	; 0x596 <__LOCK_REGION_LENGTH__+0x196>
 5dc:	df 91       	pop	r29
 5de:	cf 91       	pop	r28
 5e0:	1f 91       	pop	r17
 5e2:	0f 91       	pop	r16
 5e4:	ff 90       	pop	r15
 5e6:	ef 90       	pop	r14
 5e8:	df 90       	pop	r13
 5ea:	cf 90       	pop	r12
 5ec:	bf 90       	pop	r11
 5ee:	af 90       	pop	r10
 5f0:	9f 90       	pop	r9
 5f2:	8f 90       	pop	r8
 5f4:	7f 90       	pop	r7
 5f6:	6f 90       	pop	r6
 5f8:	5f 90       	pop	r5
 5fa:	4f 90       	pop	r4
 5fc:	08 95       	ret

000005fe <matrixWriteNextLine>:




void matrixWriteNextLine(void)
{
 5fe:	cf 93       	push	r28
 600:	df 93       	push	r29
 602:	cd b7       	in	r28, 0x3d	; 61
 604:	de b7       	in	r29, 0x3e	; 62
 606:	28 97       	sbiw	r28, 0x08	; 8
 608:	0f b6       	in	r0, 0x3f	; 63
 60a:	f8 94       	cli
 60c:	de bf       	out	0x3e, r29	; 62
 60e:	0f be       	out	0x3f, r0	; 63
 610:	cd bf       	out	0x3d, r28	; 61
    const  uint8_t Bit_Muster_Tab[8] = {1,2,4,8,16,32,64,128};
 612:	88 e0       	ldi	r24, 0x08	; 8
 614:	e0 e0       	ldi	r30, 0x00	; 0
 616:	f2 e0       	ldi	r31, 0x02	; 2
 618:	de 01       	movw	r26, r28
 61a:	11 96       	adiw	r26, 0x01	; 1
 61c:	01 90       	ld	r0, Z+
 61e:	0d 92       	st	X+, r0
 620:	8a 95       	dec	r24
 622:	e1 f7       	brne	.-8      	; 0x61c <matrixWriteNextLine+0x1e>
    static uint16_t Zeilen_Nr, Bit_Muster;
    uint8_t i;
    
    STROBE_0;                             // Daten des Scheiberegisters nicht ins Latch schreiben
 624:	e5 e0       	ldi	r30, 0x05	; 5
 626:	f1 e0       	ldi	r31, 0x01	; 1
 628:	80 81       	ld	r24, Z
 62a:	8f 7b       	andi	r24, 0xBF	; 191
 62c:	80 83       	st	Z, r24

    Bit_Muster = Bit_Muster_Tab[Zeilen_Nr]; // Bitmuster aus Tabelle holen, um mit Daten in matrix[] zu vergleichen.
 62e:	e0 91 76 02 	lds	r30, 0x0276	; 0x800276 <Zeilen_Nr.2731>
 632:	f0 91 77 02 	lds	r31, 0x0277	; 0x800277 <Zeilen_Nr.2731+0x1>
 636:	81 e0       	ldi	r24, 0x01	; 1
 638:	90 e0       	ldi	r25, 0x00	; 0
 63a:	8c 0f       	add	r24, r28
 63c:	9d 1f       	adc	r25, r29
 63e:	e8 0f       	add	r30, r24
 640:	f9 1f       	adc	r31, r25
 642:	80 81       	ld	r24, Z
 644:	90 e0       	ldi	r25, 0x00	; 0
 646:	90 93 75 02 	sts	0x0275, r25	; 0x800275 <__data_end+0x1>
 64a:	80 93 74 02 	sts	0x0274, r24	; 0x800274 <__data_end>
 64e:	a2 ef       	ldi	r26, 0xF2	; 242
 650:	b2 e0       	ldi	r27, 0x02	; 2
 652:	22 e8       	ldi	r18, 0x82	; 130
 654:	32 e0       	ldi	r19, 0x02	; 2
    {                                       // Vergleicht Bit-Muster der aktuellen Zeile mit Daten in matrix[]
        if((matrix[Anzahl_Spalten-1- i] & Bit_Muster) != 0)     // Ist in matrix[] das entsprechende Bit gesetzt?
        { DATA_Modul_1_ON;                    //   JA:   ==> Datenbit "1" ins Schieberegister schreiben
        }
        else
        { DATA_Modul_1_OFF;                   //   NEIN: ==> Datenbit "0" ins Schieberegister schreiben
 656:	e5 e0       	ldi	r30, 0x05	; 5
 658:	f1 e0       	ldi	r31, 0x01	; 1
    Bit_Muster = Bit_Muster_Tab[Zeilen_Nr]; // Bitmuster aus Tabelle holen, um mit Daten in matrix[] zu vergleichen.
    
    // Alle Bits seriell ins Schieberegister hineinschreiben
    for(i=0; i<Anzahl_Spalten; i++)         // Alle Spalten durchgehen und überpüfen, ob Bit gesetzt ist
    {                                       // Vergleicht Bit-Muster der aktuellen Zeile mit Daten in matrix[]
        if((matrix[Anzahl_Spalten-1- i] & Bit_Muster) != 0)     // Ist in matrix[] das entsprechende Bit gesetzt?
 65a:	5e 91       	ld	r21, -X
 65c:	4e 91       	ld	r20, -X
 65e:	80 91 74 02 	lds	r24, 0x0274	; 0x800274 <__data_end>
 662:	90 91 75 02 	lds	r25, 0x0275	; 0x800275 <__data_end+0x1>
 666:	84 23       	and	r24, r20
 668:	95 23       	and	r25, r21
 66a:	89 2b       	or	r24, r25
 66c:	21 f0       	breq	.+8      	; 0x676 <matrixWriteNextLine+0x78>
        { DATA_Modul_1_ON;                    //   JA:   ==> Datenbit "1" ins Schieberegister schreiben
 66e:	80 81       	ld	r24, Z
 670:	80 62       	ori	r24, 0x20	; 32
 672:	80 83       	st	Z, r24
 674:	03 c0       	rjmp	.+6      	; 0x67c <matrixWriteNextLine+0x7e>
        }
        else
        { DATA_Modul_1_OFF;                   //   NEIN: ==> Datenbit "0" ins Schieberegister schreiben
 676:	80 81       	ld	r24, Z
 678:	8f 7d       	andi	r24, 0xDF	; 223
 67a:	80 83       	st	Z, r24
        }
        CLOCK_1;
 67c:	80 81       	ld	r24, Z
 67e:	80 61       	ori	r24, 0x10	; 16
 680:	80 83       	st	Z, r24
        CLOCK_0;                            // Datenbit wird bei der negativen Flanke des Clock-Signals übernommen
 682:	80 81       	ld	r24, Z
 684:	8f 7e       	andi	r24, 0xEF	; 239
 686:	80 83       	st	Z, r24
    STROBE_0;                             // Daten des Scheiberegisters nicht ins Latch schreiben

    Bit_Muster = Bit_Muster_Tab[Zeilen_Nr]; // Bitmuster aus Tabelle holen, um mit Daten in matrix[] zu vergleichen.
    
    // Alle Bits seriell ins Schieberegister hineinschreiben
    for(i=0; i<Anzahl_Spalten; i++)         // Alle Spalten durchgehen und überpüfen, ob Bit gesetzt ist
 688:	a2 17       	cp	r26, r18
 68a:	b3 07       	cpc	r27, r19
 68c:	31 f7       	brne	.-52     	; 0x65a <matrixWriteNextLine+0x5c>
        }
        CLOCK_1;
        CLOCK_0;                            // Datenbit wird bei der negativen Flanke des Clock-Signals übernommen
    }
    
    ENABLE_0;                                // +5V aller Zeilen abschalten
 68e:	e5 e0       	ldi	r30, 0x05	; 5
 690:	f1 e0       	ldi	r31, 0x01	; 1
 692:	80 81       	ld	r24, Z
 694:	87 7f       	andi	r24, 0xF7	; 247
 696:	80 83       	st	Z, r24
    PORTJ &= ~0x07;
 698:	80 81       	ld	r24, Z
 69a:	88 7f       	andi	r24, 0xF8	; 248
 69c:	80 83       	st	Z, r24
    PORTJ |= Zeilen_Nr;                     // gewünschte Zeile einstellen
 69e:	90 81       	ld	r25, Z
 6a0:	80 91 76 02 	lds	r24, 0x0276	; 0x800276 <Zeilen_Nr.2731>
 6a4:	89 2b       	or	r24, r25
 6a6:	80 83       	st	Z, r24
    STROBE_1;                             // Daten ins Latch schreiben
 6a8:	80 81       	ld	r24, Z
 6aa:	80 64       	ori	r24, 0x40	; 64
 6ac:	80 83       	st	Z, r24
    ENABLE_1;                             // +5V Speisung der eingestellten Zeile einschalten
 6ae:	80 81       	ld	r24, Z
 6b0:	88 60       	ori	r24, 0x08	; 8
 6b2:	80 83       	st	Z, r24

    // Die Zeilen werden nacheinander eingeschaltet --> zyklisch 0,1,2,3,4,5,6,7, 0,1,2,3, ...
    if (Zeilen_Nr < 7)
 6b4:	80 91 76 02 	lds	r24, 0x0276	; 0x800276 <Zeilen_Nr.2731>
 6b8:	90 91 77 02 	lds	r25, 0x0277	; 0x800277 <Zeilen_Nr.2731+0x1>
 6bc:	87 30       	cpi	r24, 0x07	; 7
 6be:	91 05       	cpc	r25, r1
 6c0:	30 f4       	brcc	.+12     	; 0x6ce <matrixWriteNextLine+0xd0>
    {
        Zeilen_Nr++;
 6c2:	01 96       	adiw	r24, 0x01	; 1
 6c4:	90 93 77 02 	sts	0x0277, r25	; 0x800277 <Zeilen_Nr.2731+0x1>
 6c8:	80 93 76 02 	sts	0x0276, r24	; 0x800276 <Zeilen_Nr.2731>
 6cc:	07 c0       	rjmp	.+14     	; 0x6dc <matrixWriteNextLine+0xde>
    }
    else
    {
        Zeilen_Nr = 0;
 6ce:	10 92 77 02 	sts	0x0277, r1	; 0x800277 <Zeilen_Nr.2731+0x1>
 6d2:	10 92 76 02 	sts	0x0276, r1	; 0x800276 <Zeilen_Nr.2731>
        writeTextFinished = 1;
 6d6:	81 e0       	ldi	r24, 0x01	; 1
 6d8:	80 93 78 02 	sts	0x0278, r24	; 0x800278 <writeTextFinished>
    }
    
 6dc:	28 96       	adiw	r28, 0x08	; 8
 6de:	0f b6       	in	r0, 0x3f	; 63
 6e0:	f8 94       	cli
 6e2:	de bf       	out	0x3e, r29	; 62
 6e4:	0f be       	out	0x3f, r0	; 63
 6e6:	cd bf       	out	0x3d, r28	; 61
 6e8:	df 91       	pop	r29
 6ea:	cf 91       	pop	r28
 6ec:	08 95       	ret

000006ee <__vector_23>:
//--------------------------------------------------------------------------------------------
// Timer 0 Overflow Interrupt ->  Wird alle 1ms aufgerufen
//--------------------------------------------------------------------------------------------

ISR(TIMER0_OVF_vect)
{
 6ee:	1f 92       	push	r1
 6f0:	0f 92       	push	r0
 6f2:	0f b6       	in	r0, 0x3f	; 63
 6f4:	0f 92       	push	r0
 6f6:	11 24       	eor	r1, r1
 6f8:	0b b6       	in	r0, 0x3b	; 59
 6fa:	0f 92       	push	r0
 6fc:	2f 93       	push	r18
 6fe:	3f 93       	push	r19
 700:	4f 93       	push	r20
 702:	5f 93       	push	r21
 704:	6f 93       	push	r22
 706:	7f 93       	push	r23
 708:	8f 93       	push	r24
 70a:	9f 93       	push	r25
 70c:	af 93       	push	r26
 70e:	bf 93       	push	r27
 710:	ef 93       	push	r30
 712:	ff 93       	push	r31
    systemTimeMs += 1;
 714:	20 91 79 02 	lds	r18, 0x0279	; 0x800279 <systemTimeMs>
 718:	30 91 7a 02 	lds	r19, 0x027A	; 0x80027a <systemTimeMs+0x1>
 71c:	40 91 7b 02 	lds	r20, 0x027B	; 0x80027b <systemTimeMs+0x2>
 720:	50 91 7c 02 	lds	r21, 0x027C	; 0x80027c <systemTimeMs+0x3>
 724:	60 91 7d 02 	lds	r22, 0x027D	; 0x80027d <systemTimeMs+0x4>
 728:	70 91 7e 02 	lds	r23, 0x027E	; 0x80027e <systemTimeMs+0x5>
 72c:	80 91 7f 02 	lds	r24, 0x027F	; 0x80027f <systemTimeMs+0x6>
 730:	90 91 80 02 	lds	r25, 0x0280	; 0x800280 <systemTimeMs+0x7>
 734:	a1 e0       	ldi	r26, 0x01	; 1
 736:	27 d0       	rcall	.+78     	; 0x786 <__adddi3_s8>
 738:	20 93 79 02 	sts	0x0279, r18	; 0x800279 <systemTimeMs>
 73c:	30 93 7a 02 	sts	0x027A, r19	; 0x80027a <systemTimeMs+0x1>
 740:	40 93 7b 02 	sts	0x027B, r20	; 0x80027b <systemTimeMs+0x2>
 744:	50 93 7c 02 	sts	0x027C, r21	; 0x80027c <systemTimeMs+0x3>
 748:	60 93 7d 02 	sts	0x027D, r22	; 0x80027d <systemTimeMs+0x4>
 74c:	70 93 7e 02 	sts	0x027E, r23	; 0x80027e <systemTimeMs+0x5>
 750:	80 93 7f 02 	sts	0x027F, r24	; 0x80027f <systemTimeMs+0x6>
 754:	90 93 80 02 	sts	0x0280, r25	; 0x800280 <systemTimeMs+0x7>

    if(matrixRunning)matrixWriteNextLine();
 758:	80 91 81 02 	lds	r24, 0x0281	; 0x800281 <matrixRunning>
 75c:	81 11       	cpse	r24, r1
 75e:	4f df       	rcall	.-354    	; 0x5fe <matrixWriteNextLine>
}
 760:	ff 91       	pop	r31
 762:	ef 91       	pop	r30
 764:	bf 91       	pop	r27
 766:	af 91       	pop	r26
 768:	9f 91       	pop	r25
 76a:	8f 91       	pop	r24
 76c:	7f 91       	pop	r23
 76e:	6f 91       	pop	r22
 770:	5f 91       	pop	r21
 772:	4f 91       	pop	r20
 774:	3f 91       	pop	r19
 776:	2f 91       	pop	r18
 778:	0f 90       	pop	r0
 77a:	0b be       	out	0x3b, r0	; 59
 77c:	0f 90       	pop	r0
 77e:	0f be       	out	0x3f, r0	; 63
 780:	0f 90       	pop	r0
 782:	1f 90       	pop	r1
 784:	18 95       	reti

00000786 <__adddi3_s8>:
 786:	00 24       	eor	r0, r0
 788:	a7 fd       	sbrc	r26, 7
 78a:	00 94       	com	r0
 78c:	2a 0f       	add	r18, r26
 78e:	30 1d       	adc	r19, r0
 790:	40 1d       	adc	r20, r0
 792:	50 1d       	adc	r21, r0
 794:	60 1d       	adc	r22, r0
 796:	70 1d       	adc	r23, r0
 798:	80 1d       	adc	r24, r0
 79a:	90 1d       	adc	r25, r0
 79c:	08 95       	ret

0000079e <vsnprintf>:
 79e:	0f 93       	push	r16
 7a0:	1f 93       	push	r17
 7a2:	cf 93       	push	r28
 7a4:	df 93       	push	r29
 7a6:	cd b7       	in	r28, 0x3d	; 61
 7a8:	de b7       	in	r29, 0x3e	; 62
 7aa:	2e 97       	sbiw	r28, 0x0e	; 14
 7ac:	0f b6       	in	r0, 0x3f	; 63
 7ae:	f8 94       	cli
 7b0:	de bf       	out	0x3e, r29	; 62
 7b2:	0f be       	out	0x3f, r0	; 63
 7b4:	cd bf       	out	0x3d, r28	; 61
 7b6:	8c 01       	movw	r16, r24
 7b8:	fa 01       	movw	r30, r20
 7ba:	86 e0       	ldi	r24, 0x06	; 6
 7bc:	8c 83       	std	Y+4, r24	; 0x04
 7be:	1a 83       	std	Y+2, r17	; 0x02
 7c0:	09 83       	std	Y+1, r16	; 0x01
 7c2:	77 ff       	sbrs	r23, 7
 7c4:	02 c0       	rjmp	.+4      	; 0x7ca <vsnprintf+0x2c>
 7c6:	60 e0       	ldi	r22, 0x00	; 0
 7c8:	70 e8       	ldi	r23, 0x80	; 128
 7ca:	cb 01       	movw	r24, r22
 7cc:	01 97       	sbiw	r24, 0x01	; 1
 7ce:	9e 83       	std	Y+6, r25	; 0x06
 7d0:	8d 83       	std	Y+5, r24	; 0x05
 7d2:	a9 01       	movw	r20, r18
 7d4:	bf 01       	movw	r22, r30
 7d6:	ce 01       	movw	r24, r28
 7d8:	01 96       	adiw	r24, 0x01	; 1
 7da:	19 d0       	rcall	.+50     	; 0x80e <vfprintf>
 7dc:	4d 81       	ldd	r20, Y+5	; 0x05
 7de:	5e 81       	ldd	r21, Y+6	; 0x06
 7e0:	57 fd       	sbrc	r21, 7
 7e2:	0a c0       	rjmp	.+20     	; 0x7f8 <vsnprintf+0x5a>
 7e4:	2f 81       	ldd	r18, Y+7	; 0x07
 7e6:	38 85       	ldd	r19, Y+8	; 0x08
 7e8:	42 17       	cp	r20, r18
 7ea:	53 07       	cpc	r21, r19
 7ec:	0c f4       	brge	.+2      	; 0x7f0 <vsnprintf+0x52>
 7ee:	9a 01       	movw	r18, r20
 7f0:	f8 01       	movw	r30, r16
 7f2:	e2 0f       	add	r30, r18
 7f4:	f3 1f       	adc	r31, r19
 7f6:	10 82       	st	Z, r1
 7f8:	2e 96       	adiw	r28, 0x0e	; 14
 7fa:	0f b6       	in	r0, 0x3f	; 63
 7fc:	f8 94       	cli
 7fe:	de bf       	out	0x3e, r29	; 62
 800:	0f be       	out	0x3f, r0	; 63
 802:	cd bf       	out	0x3d, r28	; 61
 804:	df 91       	pop	r29
 806:	cf 91       	pop	r28
 808:	1f 91       	pop	r17
 80a:	0f 91       	pop	r16
 80c:	08 95       	ret

0000080e <vfprintf>:
 80e:	2f 92       	push	r2
 810:	3f 92       	push	r3
 812:	4f 92       	push	r4
 814:	5f 92       	push	r5
 816:	6f 92       	push	r6
 818:	7f 92       	push	r7
 81a:	8f 92       	push	r8
 81c:	9f 92       	push	r9
 81e:	af 92       	push	r10
 820:	bf 92       	push	r11
 822:	cf 92       	push	r12
 824:	df 92       	push	r13
 826:	ef 92       	push	r14
 828:	ff 92       	push	r15
 82a:	0f 93       	push	r16
 82c:	1f 93       	push	r17
 82e:	cf 93       	push	r28
 830:	df 93       	push	r29
 832:	cd b7       	in	r28, 0x3d	; 61
 834:	de b7       	in	r29, 0x3e	; 62
 836:	2b 97       	sbiw	r28, 0x0b	; 11
 838:	0f b6       	in	r0, 0x3f	; 63
 83a:	f8 94       	cli
 83c:	de bf       	out	0x3e, r29	; 62
 83e:	0f be       	out	0x3f, r0	; 63
 840:	cd bf       	out	0x3d, r28	; 61
 842:	6c 01       	movw	r12, r24
 844:	7b 01       	movw	r14, r22
 846:	8a 01       	movw	r16, r20
 848:	fc 01       	movw	r30, r24
 84a:	17 82       	std	Z+7, r1	; 0x07
 84c:	16 82       	std	Z+6, r1	; 0x06
 84e:	83 81       	ldd	r24, Z+3	; 0x03
 850:	81 ff       	sbrs	r24, 1
 852:	bf c1       	rjmp	.+894    	; 0xbd2 <vfprintf+0x3c4>
 854:	ce 01       	movw	r24, r28
 856:	01 96       	adiw	r24, 0x01	; 1
 858:	3c 01       	movw	r6, r24
 85a:	f6 01       	movw	r30, r12
 85c:	93 81       	ldd	r25, Z+3	; 0x03
 85e:	f7 01       	movw	r30, r14
 860:	93 fd       	sbrc	r25, 3
 862:	85 91       	lpm	r24, Z+
 864:	93 ff       	sbrs	r25, 3
 866:	81 91       	ld	r24, Z+
 868:	7f 01       	movw	r14, r30
 86a:	88 23       	and	r24, r24
 86c:	09 f4       	brne	.+2      	; 0x870 <vfprintf+0x62>
 86e:	ad c1       	rjmp	.+858    	; 0xbca <vfprintf+0x3bc>
 870:	85 32       	cpi	r24, 0x25	; 37
 872:	39 f4       	brne	.+14     	; 0x882 <vfprintf+0x74>
 874:	93 fd       	sbrc	r25, 3
 876:	85 91       	lpm	r24, Z+
 878:	93 ff       	sbrs	r25, 3
 87a:	81 91       	ld	r24, Z+
 87c:	7f 01       	movw	r14, r30
 87e:	85 32       	cpi	r24, 0x25	; 37
 880:	21 f4       	brne	.+8      	; 0x88a <vfprintf+0x7c>
 882:	b6 01       	movw	r22, r12
 884:	90 e0       	ldi	r25, 0x00	; 0
 886:	d6 d1       	rcall	.+940    	; 0xc34 <fputc>
 888:	e8 cf       	rjmp	.-48     	; 0x85a <vfprintf+0x4c>
 88a:	91 2c       	mov	r9, r1
 88c:	21 2c       	mov	r2, r1
 88e:	31 2c       	mov	r3, r1
 890:	ff e1       	ldi	r31, 0x1F	; 31
 892:	f3 15       	cp	r31, r3
 894:	d8 f0       	brcs	.+54     	; 0x8cc <vfprintf+0xbe>
 896:	8b 32       	cpi	r24, 0x2B	; 43
 898:	79 f0       	breq	.+30     	; 0x8b8 <vfprintf+0xaa>
 89a:	38 f4       	brcc	.+14     	; 0x8aa <vfprintf+0x9c>
 89c:	80 32       	cpi	r24, 0x20	; 32
 89e:	79 f0       	breq	.+30     	; 0x8be <vfprintf+0xb0>
 8a0:	83 32       	cpi	r24, 0x23	; 35
 8a2:	a1 f4       	brne	.+40     	; 0x8cc <vfprintf+0xbe>
 8a4:	23 2d       	mov	r18, r3
 8a6:	20 61       	ori	r18, 0x10	; 16
 8a8:	1d c0       	rjmp	.+58     	; 0x8e4 <vfprintf+0xd6>
 8aa:	8d 32       	cpi	r24, 0x2D	; 45
 8ac:	61 f0       	breq	.+24     	; 0x8c6 <vfprintf+0xb8>
 8ae:	80 33       	cpi	r24, 0x30	; 48
 8b0:	69 f4       	brne	.+26     	; 0x8cc <vfprintf+0xbe>
 8b2:	23 2d       	mov	r18, r3
 8b4:	21 60       	ori	r18, 0x01	; 1
 8b6:	16 c0       	rjmp	.+44     	; 0x8e4 <vfprintf+0xd6>
 8b8:	83 2d       	mov	r24, r3
 8ba:	82 60       	ori	r24, 0x02	; 2
 8bc:	38 2e       	mov	r3, r24
 8be:	e3 2d       	mov	r30, r3
 8c0:	e4 60       	ori	r30, 0x04	; 4
 8c2:	3e 2e       	mov	r3, r30
 8c4:	2a c0       	rjmp	.+84     	; 0x91a <vfprintf+0x10c>
 8c6:	f3 2d       	mov	r31, r3
 8c8:	f8 60       	ori	r31, 0x08	; 8
 8ca:	1d c0       	rjmp	.+58     	; 0x906 <vfprintf+0xf8>
 8cc:	37 fc       	sbrc	r3, 7
 8ce:	2d c0       	rjmp	.+90     	; 0x92a <vfprintf+0x11c>
 8d0:	20 ed       	ldi	r18, 0xD0	; 208
 8d2:	28 0f       	add	r18, r24
 8d4:	2a 30       	cpi	r18, 0x0A	; 10
 8d6:	40 f0       	brcs	.+16     	; 0x8e8 <vfprintf+0xda>
 8d8:	8e 32       	cpi	r24, 0x2E	; 46
 8da:	b9 f4       	brne	.+46     	; 0x90a <vfprintf+0xfc>
 8dc:	36 fc       	sbrc	r3, 6
 8de:	75 c1       	rjmp	.+746    	; 0xbca <vfprintf+0x3bc>
 8e0:	23 2d       	mov	r18, r3
 8e2:	20 64       	ori	r18, 0x40	; 64
 8e4:	32 2e       	mov	r3, r18
 8e6:	19 c0       	rjmp	.+50     	; 0x91a <vfprintf+0x10c>
 8e8:	36 fe       	sbrs	r3, 6
 8ea:	06 c0       	rjmp	.+12     	; 0x8f8 <vfprintf+0xea>
 8ec:	8a e0       	ldi	r24, 0x0A	; 10
 8ee:	98 9e       	mul	r9, r24
 8f0:	20 0d       	add	r18, r0
 8f2:	11 24       	eor	r1, r1
 8f4:	92 2e       	mov	r9, r18
 8f6:	11 c0       	rjmp	.+34     	; 0x91a <vfprintf+0x10c>
 8f8:	ea e0       	ldi	r30, 0x0A	; 10
 8fa:	2e 9e       	mul	r2, r30
 8fc:	20 0d       	add	r18, r0
 8fe:	11 24       	eor	r1, r1
 900:	22 2e       	mov	r2, r18
 902:	f3 2d       	mov	r31, r3
 904:	f0 62       	ori	r31, 0x20	; 32
 906:	3f 2e       	mov	r3, r31
 908:	08 c0       	rjmp	.+16     	; 0x91a <vfprintf+0x10c>
 90a:	8c 36       	cpi	r24, 0x6C	; 108
 90c:	21 f4       	brne	.+8      	; 0x916 <vfprintf+0x108>
 90e:	83 2d       	mov	r24, r3
 910:	80 68       	ori	r24, 0x80	; 128
 912:	38 2e       	mov	r3, r24
 914:	02 c0       	rjmp	.+4      	; 0x91a <vfprintf+0x10c>
 916:	88 36       	cpi	r24, 0x68	; 104
 918:	41 f4       	brne	.+16     	; 0x92a <vfprintf+0x11c>
 91a:	f7 01       	movw	r30, r14
 91c:	93 fd       	sbrc	r25, 3
 91e:	85 91       	lpm	r24, Z+
 920:	93 ff       	sbrs	r25, 3
 922:	81 91       	ld	r24, Z+
 924:	7f 01       	movw	r14, r30
 926:	81 11       	cpse	r24, r1
 928:	b3 cf       	rjmp	.-154    	; 0x890 <vfprintf+0x82>
 92a:	98 2f       	mov	r25, r24
 92c:	9f 7d       	andi	r25, 0xDF	; 223
 92e:	95 54       	subi	r25, 0x45	; 69
 930:	93 30       	cpi	r25, 0x03	; 3
 932:	28 f4       	brcc	.+10     	; 0x93e <vfprintf+0x130>
 934:	0c 5f       	subi	r16, 0xFC	; 252
 936:	1f 4f       	sbci	r17, 0xFF	; 255
 938:	9f e3       	ldi	r25, 0x3F	; 63
 93a:	99 83       	std	Y+1, r25	; 0x01
 93c:	0d c0       	rjmp	.+26     	; 0x958 <vfprintf+0x14a>
 93e:	83 36       	cpi	r24, 0x63	; 99
 940:	31 f0       	breq	.+12     	; 0x94e <vfprintf+0x140>
 942:	83 37       	cpi	r24, 0x73	; 115
 944:	71 f0       	breq	.+28     	; 0x962 <vfprintf+0x154>
 946:	83 35       	cpi	r24, 0x53	; 83
 948:	09 f0       	breq	.+2      	; 0x94c <vfprintf+0x13e>
 94a:	55 c0       	rjmp	.+170    	; 0x9f6 <vfprintf+0x1e8>
 94c:	20 c0       	rjmp	.+64     	; 0x98e <vfprintf+0x180>
 94e:	f8 01       	movw	r30, r16
 950:	80 81       	ld	r24, Z
 952:	89 83       	std	Y+1, r24	; 0x01
 954:	0e 5f       	subi	r16, 0xFE	; 254
 956:	1f 4f       	sbci	r17, 0xFF	; 255
 958:	88 24       	eor	r8, r8
 95a:	83 94       	inc	r8
 95c:	91 2c       	mov	r9, r1
 95e:	53 01       	movw	r10, r6
 960:	12 c0       	rjmp	.+36     	; 0x986 <vfprintf+0x178>
 962:	28 01       	movw	r4, r16
 964:	f2 e0       	ldi	r31, 0x02	; 2
 966:	4f 0e       	add	r4, r31
 968:	51 1c       	adc	r5, r1
 96a:	f8 01       	movw	r30, r16
 96c:	a0 80       	ld	r10, Z
 96e:	b1 80       	ldd	r11, Z+1	; 0x01
 970:	36 fe       	sbrs	r3, 6
 972:	03 c0       	rjmp	.+6      	; 0x97a <vfprintf+0x16c>
 974:	69 2d       	mov	r22, r9
 976:	70 e0       	ldi	r23, 0x00	; 0
 978:	02 c0       	rjmp	.+4      	; 0x97e <vfprintf+0x170>
 97a:	6f ef       	ldi	r22, 0xFF	; 255
 97c:	7f ef       	ldi	r23, 0xFF	; 255
 97e:	c5 01       	movw	r24, r10
 980:	4e d1       	rcall	.+668    	; 0xc1e <strnlen>
 982:	4c 01       	movw	r8, r24
 984:	82 01       	movw	r16, r4
 986:	f3 2d       	mov	r31, r3
 988:	ff 77       	andi	r31, 0x7F	; 127
 98a:	3f 2e       	mov	r3, r31
 98c:	15 c0       	rjmp	.+42     	; 0x9b8 <vfprintf+0x1aa>
 98e:	28 01       	movw	r4, r16
 990:	22 e0       	ldi	r18, 0x02	; 2
 992:	42 0e       	add	r4, r18
 994:	51 1c       	adc	r5, r1
 996:	f8 01       	movw	r30, r16
 998:	a0 80       	ld	r10, Z
 99a:	b1 80       	ldd	r11, Z+1	; 0x01
 99c:	36 fe       	sbrs	r3, 6
 99e:	03 c0       	rjmp	.+6      	; 0x9a6 <vfprintf+0x198>
 9a0:	69 2d       	mov	r22, r9
 9a2:	70 e0       	ldi	r23, 0x00	; 0
 9a4:	02 c0       	rjmp	.+4      	; 0x9aa <vfprintf+0x19c>
 9a6:	6f ef       	ldi	r22, 0xFF	; 255
 9a8:	7f ef       	ldi	r23, 0xFF	; 255
 9aa:	c5 01       	movw	r24, r10
 9ac:	2d d1       	rcall	.+602    	; 0xc08 <strnlen_P>
 9ae:	4c 01       	movw	r8, r24
 9b0:	f3 2d       	mov	r31, r3
 9b2:	f0 68       	ori	r31, 0x80	; 128
 9b4:	3f 2e       	mov	r3, r31
 9b6:	82 01       	movw	r16, r4
 9b8:	33 fc       	sbrc	r3, 3
 9ba:	19 c0       	rjmp	.+50     	; 0x9ee <vfprintf+0x1e0>
 9bc:	82 2d       	mov	r24, r2
 9be:	90 e0       	ldi	r25, 0x00	; 0
 9c0:	88 16       	cp	r8, r24
 9c2:	99 06       	cpc	r9, r25
 9c4:	a0 f4       	brcc	.+40     	; 0x9ee <vfprintf+0x1e0>
 9c6:	b6 01       	movw	r22, r12
 9c8:	80 e2       	ldi	r24, 0x20	; 32
 9ca:	90 e0       	ldi	r25, 0x00	; 0
 9cc:	33 d1       	rcall	.+614    	; 0xc34 <fputc>
 9ce:	2a 94       	dec	r2
 9d0:	f5 cf       	rjmp	.-22     	; 0x9bc <vfprintf+0x1ae>
 9d2:	f5 01       	movw	r30, r10
 9d4:	37 fc       	sbrc	r3, 7
 9d6:	85 91       	lpm	r24, Z+
 9d8:	37 fe       	sbrs	r3, 7
 9da:	81 91       	ld	r24, Z+
 9dc:	5f 01       	movw	r10, r30
 9de:	b6 01       	movw	r22, r12
 9e0:	90 e0       	ldi	r25, 0x00	; 0
 9e2:	28 d1       	rcall	.+592    	; 0xc34 <fputc>
 9e4:	21 10       	cpse	r2, r1
 9e6:	2a 94       	dec	r2
 9e8:	21 e0       	ldi	r18, 0x01	; 1
 9ea:	82 1a       	sub	r8, r18
 9ec:	91 08       	sbc	r9, r1
 9ee:	81 14       	cp	r8, r1
 9f0:	91 04       	cpc	r9, r1
 9f2:	79 f7       	brne	.-34     	; 0x9d2 <vfprintf+0x1c4>
 9f4:	e1 c0       	rjmp	.+450    	; 0xbb8 <vfprintf+0x3aa>
 9f6:	84 36       	cpi	r24, 0x64	; 100
 9f8:	11 f0       	breq	.+4      	; 0x9fe <vfprintf+0x1f0>
 9fa:	89 36       	cpi	r24, 0x69	; 105
 9fc:	39 f5       	brne	.+78     	; 0xa4c <vfprintf+0x23e>
 9fe:	f8 01       	movw	r30, r16
 a00:	37 fe       	sbrs	r3, 7
 a02:	07 c0       	rjmp	.+14     	; 0xa12 <vfprintf+0x204>
 a04:	60 81       	ld	r22, Z
 a06:	71 81       	ldd	r23, Z+1	; 0x01
 a08:	82 81       	ldd	r24, Z+2	; 0x02
 a0a:	93 81       	ldd	r25, Z+3	; 0x03
 a0c:	0c 5f       	subi	r16, 0xFC	; 252
 a0e:	1f 4f       	sbci	r17, 0xFF	; 255
 a10:	08 c0       	rjmp	.+16     	; 0xa22 <vfprintf+0x214>
 a12:	60 81       	ld	r22, Z
 a14:	71 81       	ldd	r23, Z+1	; 0x01
 a16:	07 2e       	mov	r0, r23
 a18:	00 0c       	add	r0, r0
 a1a:	88 0b       	sbc	r24, r24
 a1c:	99 0b       	sbc	r25, r25
 a1e:	0e 5f       	subi	r16, 0xFE	; 254
 a20:	1f 4f       	sbci	r17, 0xFF	; 255
 a22:	f3 2d       	mov	r31, r3
 a24:	ff 76       	andi	r31, 0x6F	; 111
 a26:	3f 2e       	mov	r3, r31
 a28:	97 ff       	sbrs	r25, 7
 a2a:	09 c0       	rjmp	.+18     	; 0xa3e <vfprintf+0x230>
 a2c:	90 95       	com	r25
 a2e:	80 95       	com	r24
 a30:	70 95       	com	r23
 a32:	61 95       	neg	r22
 a34:	7f 4f       	sbci	r23, 0xFF	; 255
 a36:	8f 4f       	sbci	r24, 0xFF	; 255
 a38:	9f 4f       	sbci	r25, 0xFF	; 255
 a3a:	f0 68       	ori	r31, 0x80	; 128
 a3c:	3f 2e       	mov	r3, r31
 a3e:	2a e0       	ldi	r18, 0x0A	; 10
 a40:	30 e0       	ldi	r19, 0x00	; 0
 a42:	a3 01       	movw	r20, r6
 a44:	33 d1       	rcall	.+614    	; 0xcac <__ultoa_invert>
 a46:	88 2e       	mov	r8, r24
 a48:	86 18       	sub	r8, r6
 a4a:	44 c0       	rjmp	.+136    	; 0xad4 <vfprintf+0x2c6>
 a4c:	85 37       	cpi	r24, 0x75	; 117
 a4e:	31 f4       	brne	.+12     	; 0xa5c <vfprintf+0x24e>
 a50:	23 2d       	mov	r18, r3
 a52:	2f 7e       	andi	r18, 0xEF	; 239
 a54:	b2 2e       	mov	r11, r18
 a56:	2a e0       	ldi	r18, 0x0A	; 10
 a58:	30 e0       	ldi	r19, 0x00	; 0
 a5a:	25 c0       	rjmp	.+74     	; 0xaa6 <vfprintf+0x298>
 a5c:	93 2d       	mov	r25, r3
 a5e:	99 7f       	andi	r25, 0xF9	; 249
 a60:	b9 2e       	mov	r11, r25
 a62:	8f 36       	cpi	r24, 0x6F	; 111
 a64:	c1 f0       	breq	.+48     	; 0xa96 <vfprintf+0x288>
 a66:	18 f4       	brcc	.+6      	; 0xa6e <vfprintf+0x260>
 a68:	88 35       	cpi	r24, 0x58	; 88
 a6a:	79 f0       	breq	.+30     	; 0xa8a <vfprintf+0x27c>
 a6c:	ae c0       	rjmp	.+348    	; 0xbca <vfprintf+0x3bc>
 a6e:	80 37       	cpi	r24, 0x70	; 112
 a70:	19 f0       	breq	.+6      	; 0xa78 <vfprintf+0x26a>
 a72:	88 37       	cpi	r24, 0x78	; 120
 a74:	21 f0       	breq	.+8      	; 0xa7e <vfprintf+0x270>
 a76:	a9 c0       	rjmp	.+338    	; 0xbca <vfprintf+0x3bc>
 a78:	e9 2f       	mov	r30, r25
 a7a:	e0 61       	ori	r30, 0x10	; 16
 a7c:	be 2e       	mov	r11, r30
 a7e:	b4 fe       	sbrs	r11, 4
 a80:	0d c0       	rjmp	.+26     	; 0xa9c <vfprintf+0x28e>
 a82:	fb 2d       	mov	r31, r11
 a84:	f4 60       	ori	r31, 0x04	; 4
 a86:	bf 2e       	mov	r11, r31
 a88:	09 c0       	rjmp	.+18     	; 0xa9c <vfprintf+0x28e>
 a8a:	34 fe       	sbrs	r3, 4
 a8c:	0a c0       	rjmp	.+20     	; 0xaa2 <vfprintf+0x294>
 a8e:	29 2f       	mov	r18, r25
 a90:	26 60       	ori	r18, 0x06	; 6
 a92:	b2 2e       	mov	r11, r18
 a94:	06 c0       	rjmp	.+12     	; 0xaa2 <vfprintf+0x294>
 a96:	28 e0       	ldi	r18, 0x08	; 8
 a98:	30 e0       	ldi	r19, 0x00	; 0
 a9a:	05 c0       	rjmp	.+10     	; 0xaa6 <vfprintf+0x298>
 a9c:	20 e1       	ldi	r18, 0x10	; 16
 a9e:	30 e0       	ldi	r19, 0x00	; 0
 aa0:	02 c0       	rjmp	.+4      	; 0xaa6 <vfprintf+0x298>
 aa2:	20 e1       	ldi	r18, 0x10	; 16
 aa4:	32 e0       	ldi	r19, 0x02	; 2
 aa6:	f8 01       	movw	r30, r16
 aa8:	b7 fe       	sbrs	r11, 7
 aaa:	07 c0       	rjmp	.+14     	; 0xaba <vfprintf+0x2ac>
 aac:	60 81       	ld	r22, Z
 aae:	71 81       	ldd	r23, Z+1	; 0x01
 ab0:	82 81       	ldd	r24, Z+2	; 0x02
 ab2:	93 81       	ldd	r25, Z+3	; 0x03
 ab4:	0c 5f       	subi	r16, 0xFC	; 252
 ab6:	1f 4f       	sbci	r17, 0xFF	; 255
 ab8:	06 c0       	rjmp	.+12     	; 0xac6 <vfprintf+0x2b8>
 aba:	60 81       	ld	r22, Z
 abc:	71 81       	ldd	r23, Z+1	; 0x01
 abe:	80 e0       	ldi	r24, 0x00	; 0
 ac0:	90 e0       	ldi	r25, 0x00	; 0
 ac2:	0e 5f       	subi	r16, 0xFE	; 254
 ac4:	1f 4f       	sbci	r17, 0xFF	; 255
 ac6:	a3 01       	movw	r20, r6
 ac8:	f1 d0       	rcall	.+482    	; 0xcac <__ultoa_invert>
 aca:	88 2e       	mov	r8, r24
 acc:	86 18       	sub	r8, r6
 ace:	fb 2d       	mov	r31, r11
 ad0:	ff 77       	andi	r31, 0x7F	; 127
 ad2:	3f 2e       	mov	r3, r31
 ad4:	36 fe       	sbrs	r3, 6
 ad6:	0d c0       	rjmp	.+26     	; 0xaf2 <vfprintf+0x2e4>
 ad8:	23 2d       	mov	r18, r3
 ada:	2e 7f       	andi	r18, 0xFE	; 254
 adc:	a2 2e       	mov	r10, r18
 ade:	89 14       	cp	r8, r9
 ae0:	58 f4       	brcc	.+22     	; 0xaf8 <vfprintf+0x2ea>
 ae2:	34 fe       	sbrs	r3, 4
 ae4:	0b c0       	rjmp	.+22     	; 0xafc <vfprintf+0x2ee>
 ae6:	32 fc       	sbrc	r3, 2
 ae8:	09 c0       	rjmp	.+18     	; 0xafc <vfprintf+0x2ee>
 aea:	83 2d       	mov	r24, r3
 aec:	8e 7e       	andi	r24, 0xEE	; 238
 aee:	a8 2e       	mov	r10, r24
 af0:	05 c0       	rjmp	.+10     	; 0xafc <vfprintf+0x2ee>
 af2:	b8 2c       	mov	r11, r8
 af4:	a3 2c       	mov	r10, r3
 af6:	03 c0       	rjmp	.+6      	; 0xafe <vfprintf+0x2f0>
 af8:	b8 2c       	mov	r11, r8
 afa:	01 c0       	rjmp	.+2      	; 0xafe <vfprintf+0x2f0>
 afc:	b9 2c       	mov	r11, r9
 afe:	a4 fe       	sbrs	r10, 4
 b00:	0f c0       	rjmp	.+30     	; 0xb20 <vfprintf+0x312>
 b02:	fe 01       	movw	r30, r28
 b04:	e8 0d       	add	r30, r8
 b06:	f1 1d       	adc	r31, r1
 b08:	80 81       	ld	r24, Z
 b0a:	80 33       	cpi	r24, 0x30	; 48
 b0c:	21 f4       	brne	.+8      	; 0xb16 <vfprintf+0x308>
 b0e:	9a 2d       	mov	r25, r10
 b10:	99 7e       	andi	r25, 0xE9	; 233
 b12:	a9 2e       	mov	r10, r25
 b14:	09 c0       	rjmp	.+18     	; 0xb28 <vfprintf+0x31a>
 b16:	a2 fe       	sbrs	r10, 2
 b18:	06 c0       	rjmp	.+12     	; 0xb26 <vfprintf+0x318>
 b1a:	b3 94       	inc	r11
 b1c:	b3 94       	inc	r11
 b1e:	04 c0       	rjmp	.+8      	; 0xb28 <vfprintf+0x31a>
 b20:	8a 2d       	mov	r24, r10
 b22:	86 78       	andi	r24, 0x86	; 134
 b24:	09 f0       	breq	.+2      	; 0xb28 <vfprintf+0x31a>
 b26:	b3 94       	inc	r11
 b28:	a3 fc       	sbrc	r10, 3
 b2a:	10 c0       	rjmp	.+32     	; 0xb4c <vfprintf+0x33e>
 b2c:	a0 fe       	sbrs	r10, 0
 b2e:	06 c0       	rjmp	.+12     	; 0xb3c <vfprintf+0x32e>
 b30:	b2 14       	cp	r11, r2
 b32:	80 f4       	brcc	.+32     	; 0xb54 <vfprintf+0x346>
 b34:	28 0c       	add	r2, r8
 b36:	92 2c       	mov	r9, r2
 b38:	9b 18       	sub	r9, r11
 b3a:	0d c0       	rjmp	.+26     	; 0xb56 <vfprintf+0x348>
 b3c:	b2 14       	cp	r11, r2
 b3e:	58 f4       	brcc	.+22     	; 0xb56 <vfprintf+0x348>
 b40:	b6 01       	movw	r22, r12
 b42:	80 e2       	ldi	r24, 0x20	; 32
 b44:	90 e0       	ldi	r25, 0x00	; 0
 b46:	76 d0       	rcall	.+236    	; 0xc34 <fputc>
 b48:	b3 94       	inc	r11
 b4a:	f8 cf       	rjmp	.-16     	; 0xb3c <vfprintf+0x32e>
 b4c:	b2 14       	cp	r11, r2
 b4e:	18 f4       	brcc	.+6      	; 0xb56 <vfprintf+0x348>
 b50:	2b 18       	sub	r2, r11
 b52:	02 c0       	rjmp	.+4      	; 0xb58 <vfprintf+0x34a>
 b54:	98 2c       	mov	r9, r8
 b56:	21 2c       	mov	r2, r1
 b58:	a4 fe       	sbrs	r10, 4
 b5a:	0f c0       	rjmp	.+30     	; 0xb7a <vfprintf+0x36c>
 b5c:	b6 01       	movw	r22, r12
 b5e:	80 e3       	ldi	r24, 0x30	; 48
 b60:	90 e0       	ldi	r25, 0x00	; 0
 b62:	68 d0       	rcall	.+208    	; 0xc34 <fputc>
 b64:	a2 fe       	sbrs	r10, 2
 b66:	16 c0       	rjmp	.+44     	; 0xb94 <vfprintf+0x386>
 b68:	a1 fc       	sbrc	r10, 1
 b6a:	03 c0       	rjmp	.+6      	; 0xb72 <vfprintf+0x364>
 b6c:	88 e7       	ldi	r24, 0x78	; 120
 b6e:	90 e0       	ldi	r25, 0x00	; 0
 b70:	02 c0       	rjmp	.+4      	; 0xb76 <vfprintf+0x368>
 b72:	88 e5       	ldi	r24, 0x58	; 88
 b74:	90 e0       	ldi	r25, 0x00	; 0
 b76:	b6 01       	movw	r22, r12
 b78:	0c c0       	rjmp	.+24     	; 0xb92 <vfprintf+0x384>
 b7a:	8a 2d       	mov	r24, r10
 b7c:	86 78       	andi	r24, 0x86	; 134
 b7e:	51 f0       	breq	.+20     	; 0xb94 <vfprintf+0x386>
 b80:	a1 fe       	sbrs	r10, 1
 b82:	02 c0       	rjmp	.+4      	; 0xb88 <vfprintf+0x37a>
 b84:	8b e2       	ldi	r24, 0x2B	; 43
 b86:	01 c0       	rjmp	.+2      	; 0xb8a <vfprintf+0x37c>
 b88:	80 e2       	ldi	r24, 0x20	; 32
 b8a:	a7 fc       	sbrc	r10, 7
 b8c:	8d e2       	ldi	r24, 0x2D	; 45
 b8e:	b6 01       	movw	r22, r12
 b90:	90 e0       	ldi	r25, 0x00	; 0
 b92:	50 d0       	rcall	.+160    	; 0xc34 <fputc>
 b94:	89 14       	cp	r8, r9
 b96:	30 f4       	brcc	.+12     	; 0xba4 <vfprintf+0x396>
 b98:	b6 01       	movw	r22, r12
 b9a:	80 e3       	ldi	r24, 0x30	; 48
 b9c:	90 e0       	ldi	r25, 0x00	; 0
 b9e:	4a d0       	rcall	.+148    	; 0xc34 <fputc>
 ba0:	9a 94       	dec	r9
 ba2:	f8 cf       	rjmp	.-16     	; 0xb94 <vfprintf+0x386>
 ba4:	8a 94       	dec	r8
 ba6:	f3 01       	movw	r30, r6
 ba8:	e8 0d       	add	r30, r8
 baa:	f1 1d       	adc	r31, r1
 bac:	80 81       	ld	r24, Z
 bae:	b6 01       	movw	r22, r12
 bb0:	90 e0       	ldi	r25, 0x00	; 0
 bb2:	40 d0       	rcall	.+128    	; 0xc34 <fputc>
 bb4:	81 10       	cpse	r8, r1
 bb6:	f6 cf       	rjmp	.-20     	; 0xba4 <vfprintf+0x396>
 bb8:	22 20       	and	r2, r2
 bba:	09 f4       	brne	.+2      	; 0xbbe <vfprintf+0x3b0>
 bbc:	4e ce       	rjmp	.-868    	; 0x85a <vfprintf+0x4c>
 bbe:	b6 01       	movw	r22, r12
 bc0:	80 e2       	ldi	r24, 0x20	; 32
 bc2:	90 e0       	ldi	r25, 0x00	; 0
 bc4:	37 d0       	rcall	.+110    	; 0xc34 <fputc>
 bc6:	2a 94       	dec	r2
 bc8:	f7 cf       	rjmp	.-18     	; 0xbb8 <vfprintf+0x3aa>
 bca:	f6 01       	movw	r30, r12
 bcc:	86 81       	ldd	r24, Z+6	; 0x06
 bce:	97 81       	ldd	r25, Z+7	; 0x07
 bd0:	02 c0       	rjmp	.+4      	; 0xbd6 <vfprintf+0x3c8>
 bd2:	8f ef       	ldi	r24, 0xFF	; 255
 bd4:	9f ef       	ldi	r25, 0xFF	; 255
 bd6:	2b 96       	adiw	r28, 0x0b	; 11
 bd8:	0f b6       	in	r0, 0x3f	; 63
 bda:	f8 94       	cli
 bdc:	de bf       	out	0x3e, r29	; 62
 bde:	0f be       	out	0x3f, r0	; 63
 be0:	cd bf       	out	0x3d, r28	; 61
 be2:	df 91       	pop	r29
 be4:	cf 91       	pop	r28
 be6:	1f 91       	pop	r17
 be8:	0f 91       	pop	r16
 bea:	ff 90       	pop	r15
 bec:	ef 90       	pop	r14
 bee:	df 90       	pop	r13
 bf0:	cf 90       	pop	r12
 bf2:	bf 90       	pop	r11
 bf4:	af 90       	pop	r10
 bf6:	9f 90       	pop	r9
 bf8:	8f 90       	pop	r8
 bfa:	7f 90       	pop	r7
 bfc:	6f 90       	pop	r6
 bfe:	5f 90       	pop	r5
 c00:	4f 90       	pop	r4
 c02:	3f 90       	pop	r3
 c04:	2f 90       	pop	r2
 c06:	08 95       	ret

00000c08 <strnlen_P>:
 c08:	fc 01       	movw	r30, r24
 c0a:	05 90       	lpm	r0, Z+
 c0c:	61 50       	subi	r22, 0x01	; 1
 c0e:	70 40       	sbci	r23, 0x00	; 0
 c10:	01 10       	cpse	r0, r1
 c12:	d8 f7       	brcc	.-10     	; 0xc0a <strnlen_P+0x2>
 c14:	80 95       	com	r24
 c16:	90 95       	com	r25
 c18:	8e 0f       	add	r24, r30
 c1a:	9f 1f       	adc	r25, r31
 c1c:	08 95       	ret

00000c1e <strnlen>:
 c1e:	fc 01       	movw	r30, r24
 c20:	61 50       	subi	r22, 0x01	; 1
 c22:	70 40       	sbci	r23, 0x00	; 0
 c24:	01 90       	ld	r0, Z+
 c26:	01 10       	cpse	r0, r1
 c28:	d8 f7       	brcc	.-10     	; 0xc20 <strnlen+0x2>
 c2a:	80 95       	com	r24
 c2c:	90 95       	com	r25
 c2e:	8e 0f       	add	r24, r30
 c30:	9f 1f       	adc	r25, r31
 c32:	08 95       	ret

00000c34 <fputc>:
 c34:	0f 93       	push	r16
 c36:	1f 93       	push	r17
 c38:	cf 93       	push	r28
 c3a:	df 93       	push	r29
 c3c:	fb 01       	movw	r30, r22
 c3e:	23 81       	ldd	r18, Z+3	; 0x03
 c40:	21 fd       	sbrc	r18, 1
 c42:	03 c0       	rjmp	.+6      	; 0xc4a <fputc+0x16>
 c44:	8f ef       	ldi	r24, 0xFF	; 255
 c46:	9f ef       	ldi	r25, 0xFF	; 255
 c48:	2c c0       	rjmp	.+88     	; 0xca2 <fputc+0x6e>
 c4a:	22 ff       	sbrs	r18, 2
 c4c:	16 c0       	rjmp	.+44     	; 0xc7a <fputc+0x46>
 c4e:	46 81       	ldd	r20, Z+6	; 0x06
 c50:	57 81       	ldd	r21, Z+7	; 0x07
 c52:	24 81       	ldd	r18, Z+4	; 0x04
 c54:	35 81       	ldd	r19, Z+5	; 0x05
 c56:	42 17       	cp	r20, r18
 c58:	53 07       	cpc	r21, r19
 c5a:	44 f4       	brge	.+16     	; 0xc6c <fputc+0x38>
 c5c:	a0 81       	ld	r26, Z
 c5e:	b1 81       	ldd	r27, Z+1	; 0x01
 c60:	9d 01       	movw	r18, r26
 c62:	2f 5f       	subi	r18, 0xFF	; 255
 c64:	3f 4f       	sbci	r19, 0xFF	; 255
 c66:	31 83       	std	Z+1, r19	; 0x01
 c68:	20 83       	st	Z, r18
 c6a:	8c 93       	st	X, r24
 c6c:	26 81       	ldd	r18, Z+6	; 0x06
 c6e:	37 81       	ldd	r19, Z+7	; 0x07
 c70:	2f 5f       	subi	r18, 0xFF	; 255
 c72:	3f 4f       	sbci	r19, 0xFF	; 255
 c74:	37 83       	std	Z+7, r19	; 0x07
 c76:	26 83       	std	Z+6, r18	; 0x06
 c78:	14 c0       	rjmp	.+40     	; 0xca2 <fputc+0x6e>
 c7a:	8b 01       	movw	r16, r22
 c7c:	ec 01       	movw	r28, r24
 c7e:	fb 01       	movw	r30, r22
 c80:	00 84       	ldd	r0, Z+8	; 0x08
 c82:	f1 85       	ldd	r31, Z+9	; 0x09
 c84:	e0 2d       	mov	r30, r0
 c86:	19 95       	eicall
 c88:	89 2b       	or	r24, r25
 c8a:	e1 f6       	brne	.-72     	; 0xc44 <fputc+0x10>
 c8c:	d8 01       	movw	r26, r16
 c8e:	16 96       	adiw	r26, 0x06	; 6
 c90:	8d 91       	ld	r24, X+
 c92:	9c 91       	ld	r25, X
 c94:	17 97       	sbiw	r26, 0x07	; 7
 c96:	01 96       	adiw	r24, 0x01	; 1
 c98:	17 96       	adiw	r26, 0x07	; 7
 c9a:	9c 93       	st	X, r25
 c9c:	8e 93       	st	-X, r24
 c9e:	16 97       	sbiw	r26, 0x06	; 6
 ca0:	ce 01       	movw	r24, r28
 ca2:	df 91       	pop	r29
 ca4:	cf 91       	pop	r28
 ca6:	1f 91       	pop	r17
 ca8:	0f 91       	pop	r16
 caa:	08 95       	ret

00000cac <__ultoa_invert>:
 cac:	fa 01       	movw	r30, r20
 cae:	aa 27       	eor	r26, r26
 cb0:	28 30       	cpi	r18, 0x08	; 8
 cb2:	51 f1       	breq	.+84     	; 0xd08 <__ultoa_invert+0x5c>
 cb4:	20 31       	cpi	r18, 0x10	; 16
 cb6:	81 f1       	breq	.+96     	; 0xd18 <__ultoa_invert+0x6c>
 cb8:	e8 94       	clt
 cba:	6f 93       	push	r22
 cbc:	6e 7f       	andi	r22, 0xFE	; 254
 cbe:	6e 5f       	subi	r22, 0xFE	; 254
 cc0:	7f 4f       	sbci	r23, 0xFF	; 255
 cc2:	8f 4f       	sbci	r24, 0xFF	; 255
 cc4:	9f 4f       	sbci	r25, 0xFF	; 255
 cc6:	af 4f       	sbci	r26, 0xFF	; 255
 cc8:	b1 e0       	ldi	r27, 0x01	; 1
 cca:	3e d0       	rcall	.+124    	; 0xd48 <__ultoa_invert+0x9c>
 ccc:	b4 e0       	ldi	r27, 0x04	; 4
 cce:	3c d0       	rcall	.+120    	; 0xd48 <__ultoa_invert+0x9c>
 cd0:	67 0f       	add	r22, r23
 cd2:	78 1f       	adc	r23, r24
 cd4:	89 1f       	adc	r24, r25
 cd6:	9a 1f       	adc	r25, r26
 cd8:	a1 1d       	adc	r26, r1
 cda:	68 0f       	add	r22, r24
 cdc:	79 1f       	adc	r23, r25
 cde:	8a 1f       	adc	r24, r26
 ce0:	91 1d       	adc	r25, r1
 ce2:	a1 1d       	adc	r26, r1
 ce4:	6a 0f       	add	r22, r26
 ce6:	71 1d       	adc	r23, r1
 ce8:	81 1d       	adc	r24, r1
 cea:	91 1d       	adc	r25, r1
 cec:	a1 1d       	adc	r26, r1
 cee:	20 d0       	rcall	.+64     	; 0xd30 <__ultoa_invert+0x84>
 cf0:	09 f4       	brne	.+2      	; 0xcf4 <__ultoa_invert+0x48>
 cf2:	68 94       	set
 cf4:	3f 91       	pop	r19
 cf6:	2a e0       	ldi	r18, 0x0A	; 10
 cf8:	26 9f       	mul	r18, r22
 cfa:	11 24       	eor	r1, r1
 cfc:	30 19       	sub	r19, r0
 cfe:	30 5d       	subi	r19, 0xD0	; 208
 d00:	31 93       	st	Z+, r19
 d02:	de f6       	brtc	.-74     	; 0xcba <__ultoa_invert+0xe>
 d04:	cf 01       	movw	r24, r30
 d06:	08 95       	ret
 d08:	46 2f       	mov	r20, r22
 d0a:	47 70       	andi	r20, 0x07	; 7
 d0c:	40 5d       	subi	r20, 0xD0	; 208
 d0e:	41 93       	st	Z+, r20
 d10:	b3 e0       	ldi	r27, 0x03	; 3
 d12:	0f d0       	rcall	.+30     	; 0xd32 <__ultoa_invert+0x86>
 d14:	c9 f7       	brne	.-14     	; 0xd08 <__ultoa_invert+0x5c>
 d16:	f6 cf       	rjmp	.-20     	; 0xd04 <__ultoa_invert+0x58>
 d18:	46 2f       	mov	r20, r22
 d1a:	4f 70       	andi	r20, 0x0F	; 15
 d1c:	40 5d       	subi	r20, 0xD0	; 208
 d1e:	4a 33       	cpi	r20, 0x3A	; 58
 d20:	18 f0       	brcs	.+6      	; 0xd28 <__ultoa_invert+0x7c>
 d22:	49 5d       	subi	r20, 0xD9	; 217
 d24:	31 fd       	sbrc	r19, 1
 d26:	40 52       	subi	r20, 0x20	; 32
 d28:	41 93       	st	Z+, r20
 d2a:	02 d0       	rcall	.+4      	; 0xd30 <__ultoa_invert+0x84>
 d2c:	a9 f7       	brne	.-22     	; 0xd18 <__ultoa_invert+0x6c>
 d2e:	ea cf       	rjmp	.-44     	; 0xd04 <__ultoa_invert+0x58>
 d30:	b4 e0       	ldi	r27, 0x04	; 4
 d32:	a6 95       	lsr	r26
 d34:	97 95       	ror	r25
 d36:	87 95       	ror	r24
 d38:	77 95       	ror	r23
 d3a:	67 95       	ror	r22
 d3c:	ba 95       	dec	r27
 d3e:	c9 f7       	brne	.-14     	; 0xd32 <__ultoa_invert+0x86>
 d40:	00 97       	sbiw	r24, 0x00	; 0
 d42:	61 05       	cpc	r22, r1
 d44:	71 05       	cpc	r23, r1
 d46:	08 95       	ret
 d48:	9b 01       	movw	r18, r22
 d4a:	ac 01       	movw	r20, r24
 d4c:	0a 2e       	mov	r0, r26
 d4e:	06 94       	lsr	r0
 d50:	57 95       	ror	r21
 d52:	47 95       	ror	r20
 d54:	37 95       	ror	r19
 d56:	27 95       	ror	r18
 d58:	ba 95       	dec	r27
 d5a:	c9 f7       	brne	.-14     	; 0xd4e <__ultoa_invert+0xa2>
 d5c:	62 0f       	add	r22, r18
 d5e:	73 1f       	adc	r23, r19
 d60:	84 1f       	adc	r24, r20
 d62:	95 1f       	adc	r25, r21
 d64:	a0 1d       	adc	r26, r0
 d66:	08 95       	ret

00000d68 <_exit>:
 d68:	f8 94       	cli

00000d6a <__stop_program>:
 d6a:	ff cf       	rjmp	.-2      	; 0xd6a <__stop_program>
