
uCBoardBeispiele.elf:     file format elf32-avr

Sections:
Idx Name          Size      VMA       LMA       File off  Algn
  0 .data         00000074  00800200  00000e4a  00000ede  2**0
                  CONTENTS, ALLOC, LOAD, DATA
  1 .text         00000e4a  00000000  00000000  00000094  2**1
                  CONTENTS, ALLOC, LOAD, READONLY, CODE
  2 .bss          0000007e  00800274  00800274  00000f52  2**0
                  ALLOC
  3 .comment      0000005c  00000000  00000000  00000f52  2**0
                  CONTENTS, READONLY
  4 .note.gnu.avr.deviceinfo 00000040  00000000  00000000  00000fb0  2**2
                  CONTENTS, READONLY
  5 .debug_aranges 000001e0  00000000  00000000  00000ff0  2**0
                  CONTENTS, READONLY, DEBUGGING
  6 .debug_info   0000248b  00000000  00000000  000011d0  2**0
                  CONTENTS, READONLY, DEBUGGING
  7 .debug_abbrev 00000feb  00000000  00000000  0000365b  2**0
                  CONTENTS, READONLY, DEBUGGING
  8 .debug_line   00001482  00000000  00000000  00004646  2**0
                  CONTENTS, READONLY, DEBUGGING
  9 .debug_frame  00000668  00000000  00000000  00005ac8  2**2
                  CONTENTS, READONLY, DEBUGGING
 10 .debug_str    00000ca9  00000000  00000000  00006130  2**0
                  CONTENTS, READONLY, DEBUGGING
 11 .debug_loc    00001bbe  00000000  00000000  00006dd9  2**0
                  CONTENTS, READONLY, DEBUGGING
 12 .debug_ranges 00000210  00000000  00000000  00008997  2**0
                  CONTENTS, READONLY, DEBUGGING

Disassembly of section .text:

00000000 <__vectors>:
   0:	71 c0       	rjmp	.+226    	; 0xe4 <__ctors_end>
   2:	00 00       	nop
   4:	8e c0       	rjmp	.+284    	; 0x122 <__bad_interrupt>
   6:	00 00       	nop
   8:	8c c0       	rjmp	.+280    	; 0x122 <__bad_interrupt>
   a:	00 00       	nop
   c:	8a c0       	rjmp	.+276    	; 0x122 <__bad_interrupt>
   e:	00 00       	nop
  10:	88 c0       	rjmp	.+272    	; 0x122 <__bad_interrupt>
  12:	00 00       	nop
  14:	86 c0       	rjmp	.+268    	; 0x122 <__bad_interrupt>
  16:	00 00       	nop
  18:	84 c0       	rjmp	.+264    	; 0x122 <__bad_interrupt>
  1a:	00 00       	nop
  1c:	82 c0       	rjmp	.+260    	; 0x122 <__bad_interrupt>
  1e:	00 00       	nop
  20:	80 c0       	rjmp	.+256    	; 0x122 <__bad_interrupt>
  22:	00 00       	nop
  24:	7e c0       	rjmp	.+252    	; 0x122 <__bad_interrupt>
  26:	00 00       	nop
  28:	7c c0       	rjmp	.+248    	; 0x122 <__bad_interrupt>
  2a:	00 00       	nop
  2c:	7a c0       	rjmp	.+244    	; 0x122 <__bad_interrupt>
  2e:	00 00       	nop
  30:	78 c0       	rjmp	.+240    	; 0x122 <__bad_interrupt>
  32:	00 00       	nop
  34:	76 c0       	rjmp	.+236    	; 0x122 <__bad_interrupt>
  36:	00 00       	nop
  38:	74 c0       	rjmp	.+232    	; 0x122 <__bad_interrupt>
  3a:	00 00       	nop
  3c:	72 c0       	rjmp	.+228    	; 0x122 <__bad_interrupt>
  3e:	00 00       	nop
  40:	70 c0       	rjmp	.+224    	; 0x122 <__bad_interrupt>
  42:	00 00       	nop
  44:	6e c0       	rjmp	.+220    	; 0x122 <__bad_interrupt>
  46:	00 00       	nop
  48:	6c c0       	rjmp	.+216    	; 0x122 <__bad_interrupt>
  4a:	00 00       	nop
  4c:	6a c0       	rjmp	.+212    	; 0x122 <__bad_interrupt>
  4e:	00 00       	nop
  50:	68 c0       	rjmp	.+208    	; 0x122 <__bad_interrupt>
  52:	00 00       	nop
  54:	66 c0       	rjmp	.+204    	; 0x122 <__bad_interrupt>
  56:	00 00       	nop
  58:	64 c0       	rjmp	.+200    	; 0x122 <__bad_interrupt>
  5a:	00 00       	nop
  5c:	ab c3       	rjmp	.+1878   	; 0x7b4 <__vector_23>
  5e:	00 00       	nop
  60:	60 c0       	rjmp	.+192    	; 0x122 <__bad_interrupt>
  62:	00 00       	nop
  64:	5e c0       	rjmp	.+188    	; 0x122 <__bad_interrupt>
  66:	00 00       	nop
  68:	5c c0       	rjmp	.+184    	; 0x122 <__bad_interrupt>
  6a:	00 00       	nop
  6c:	5a c0       	rjmp	.+180    	; 0x122 <__bad_interrupt>
  6e:	00 00       	nop
  70:	58 c0       	rjmp	.+176    	; 0x122 <__bad_interrupt>
  72:	00 00       	nop
  74:	56 c0       	rjmp	.+172    	; 0x122 <__bad_interrupt>
  76:	00 00       	nop
  78:	54 c0       	rjmp	.+168    	; 0x122 <__bad_interrupt>
  7a:	00 00       	nop
  7c:	52 c0       	rjmp	.+164    	; 0x122 <__bad_interrupt>
  7e:	00 00       	nop
  80:	50 c0       	rjmp	.+160    	; 0x122 <__bad_interrupt>
  82:	00 00       	nop
  84:	4e c0       	rjmp	.+156    	; 0x122 <__bad_interrupt>
  86:	00 00       	nop
  88:	4c c0       	rjmp	.+152    	; 0x122 <__bad_interrupt>
  8a:	00 00       	nop
  8c:	4a c0       	rjmp	.+148    	; 0x122 <__bad_interrupt>
  8e:	00 00       	nop
  90:	48 c0       	rjmp	.+144    	; 0x122 <__bad_interrupt>
  92:	00 00       	nop
  94:	46 c0       	rjmp	.+140    	; 0x122 <__bad_interrupt>
  96:	00 00       	nop
  98:	44 c0       	rjmp	.+136    	; 0x122 <__bad_interrupt>
  9a:	00 00       	nop
  9c:	42 c0       	rjmp	.+132    	; 0x122 <__bad_interrupt>
  9e:	00 00       	nop
  a0:	40 c0       	rjmp	.+128    	; 0x122 <__bad_interrupt>
  a2:	00 00       	nop
  a4:	3e c0       	rjmp	.+124    	; 0x122 <__bad_interrupt>
  a6:	00 00       	nop
  a8:	3c c0       	rjmp	.+120    	; 0x122 <__bad_interrupt>
  aa:	00 00       	nop
  ac:	3a c0       	rjmp	.+116    	; 0x122 <__bad_interrupt>
  ae:	00 00       	nop
  b0:	38 c0       	rjmp	.+112    	; 0x122 <__bad_interrupt>
  b2:	00 00       	nop
  b4:	36 c0       	rjmp	.+108    	; 0x122 <__bad_interrupt>
  b6:	00 00       	nop
  b8:	34 c0       	rjmp	.+104    	; 0x122 <__bad_interrupt>
  ba:	00 00       	nop
  bc:	32 c0       	rjmp	.+100    	; 0x122 <__bad_interrupt>
  be:	00 00       	nop
  c0:	30 c0       	rjmp	.+96     	; 0x122 <__bad_interrupt>
  c2:	00 00       	nop
  c4:	2e c0       	rjmp	.+92     	; 0x122 <__bad_interrupt>
  c6:	00 00       	nop
  c8:	2c c0       	rjmp	.+88     	; 0x122 <__bad_interrupt>
  ca:	00 00       	nop
  cc:	2a c0       	rjmp	.+84     	; 0x122 <__bad_interrupt>
  ce:	00 00       	nop
  d0:	28 c0       	rjmp	.+80     	; 0x122 <__bad_interrupt>
  d2:	00 00       	nop
  d4:	26 c0       	rjmp	.+76     	; 0x122 <__bad_interrupt>
  d6:	00 00       	nop
  d8:	24 c0       	rjmp	.+72     	; 0x122 <__bad_interrupt>
  da:	00 00       	nop
  dc:	22 c0       	rjmp	.+68     	; 0x122 <__bad_interrupt>
  de:	00 00       	nop
  e0:	20 c0       	rjmp	.+64     	; 0x122 <__bad_interrupt>
	...

000000e4 <__ctors_end>:
  e4:	11 24       	eor	r1, r1
  e6:	1f be       	out	0x3f, r1	; 63
  e8:	cf ef       	ldi	r28, 0xFF	; 255
  ea:	d1 e2       	ldi	r29, 0x21	; 33
  ec:	de bf       	out	0x3e, r29	; 62
  ee:	cd bf       	out	0x3d, r28	; 61
  f0:	00 e0       	ldi	r16, 0x00	; 0
  f2:	0c bf       	out	0x3c, r16	; 60

000000f4 <__do_copy_data>:
  f4:	12 e0       	ldi	r17, 0x02	; 2
  f6:	a0 e0       	ldi	r26, 0x00	; 0
  f8:	b2 e0       	ldi	r27, 0x02	; 2
  fa:	ea e4       	ldi	r30, 0x4A	; 74
  fc:	fe e0       	ldi	r31, 0x0E	; 14
  fe:	00 e0       	ldi	r16, 0x00	; 0
 100:	0b bf       	out	0x3b, r16	; 59
 102:	02 c0       	rjmp	.+4      	; 0x108 <__do_copy_data+0x14>
 104:	07 90       	elpm	r0, Z+
 106:	0d 92       	st	X+, r0
 108:	a4 37       	cpi	r26, 0x74	; 116
 10a:	b1 07       	cpc	r27, r17
 10c:	d9 f7       	brne	.-10     	; 0x104 <__do_copy_data+0x10>

0000010e <__do_clear_bss>:
 10e:	22 e0       	ldi	r18, 0x02	; 2
 110:	a4 e7       	ldi	r26, 0x74	; 116
 112:	b2 e0       	ldi	r27, 0x02	; 2
 114:	01 c0       	rjmp	.+2      	; 0x118 <.do_clear_bss_start>

00000116 <.do_clear_bss_loop>:
 116:	1d 92       	st	X+, r1

00000118 <.do_clear_bss_start>:
 118:	a2 3f       	cpi	r26, 0xF2	; 242
 11a:	b2 07       	cpc	r27, r18
 11c:	e1 f7       	brne	.-8      	; 0x116 <.do_clear_bss_loop>
 11e:	02 d0       	rcall	.+4      	; 0x124 <main>
 120:	92 c6       	rjmp	.+3364   	; 0xe46 <_exit>

00000122 <__bad_interrupt>:
 122:	6e cf       	rjmp	.-292    	; 0x0 <__vectors>

00000124 <main>:
    uint16_t schalter = 0;
    uint16_t powerschalter = 0;
    uint16_t LedAusgabe = 0;
    uint64_t stopuhr_ms = 0;
    //Initialisieren
    initBoard(0);
 124:	80 e0       	ldi	r24, 0x00	; 0
 126:	c3 d1       	rcall	.+902    	; 0x4ae <initBoard>
{
    //Variablen
    uint16_t schalter = 0;
    uint16_t powerschalter = 0;
    uint16_t LedAusgabe = 0;
    uint64_t stopuhr_ms = 0;
 128:	e1 2c       	mov	r14, r1
 12a:	f1 2c       	mov	r15, r1
 12c:	00 e0       	ldi	r16, 0x00	; 0
 12e:	10 e0       	ldi	r17, 0x00	; 0
 130:	d0 e0       	ldi	r29, 0x00	; 0
 132:	c0 e0       	ldi	r28, 0x00	; 0
 134:	51 2c       	mov	r5, r1
 136:	c1 2c       	mov	r12, r1
int main(void)
{
    //Variablen
    uint16_t schalter = 0;
    uint16_t powerschalter = 0;
    uint16_t LedAusgabe = 0;
 138:	a1 2c       	mov	r10, r1
 13a:	b1 2c       	mov	r11, r1
         
     } 
     else
     {
         LedAusgabe = OFF;
         stopuhr_ms = 0;
 13c:	d1 2c       	mov	r13, r1
         }
         
     } 
     else
     {
         LedAusgabe = OFF;
 13e:	81 2c       	mov	r8, r1
 140:	91 2c       	mov	r9, r1
        //Verarbeitung-------------------------------------------------------------
     if (powerschalter)
     {
         if (stopuhr_ms <= VERZOEGERUNG)
         {
             LedAusgabe = ON_LEDS;
 142:	66 24       	eor	r6, r6
 144:	6a 94       	dec	r6
 146:	77 24       	eor	r7, r7
    
    //Unendlichschlaufe
    while(1)
    {
        //Eingabe------------------------------------------------------------------       
        schalter = switchReadAll();
 148:	7a 94       	dec	r7
 14a:	56 d0       	rcall	.+172    	; 0x1f8 <switchReadAll>
        powerschalter = schalter & IN_MASKE_EIN_AUS ;
        
        //Verarbeitung-------------------------------------------------------------
     if (powerschalter)
 14c:	80 ff       	sbrs	r24, 0
 14e:	25 c0       	rjmp	.+74     	; 0x19a <main+0x76>
     {
         if (stopuhr_ms <= VERZOEGERUNG)
 150:	2e 2d       	mov	r18, r14
 152:	3f 2d       	mov	r19, r15
 154:	40 2f       	mov	r20, r16
 156:	51 2f       	mov	r21, r17
 158:	6d 2f       	mov	r22, r29
 15a:	7c 2f       	mov	r23, r28
 15c:	85 2d       	mov	r24, r5
 15e:	9c 2d       	mov	r25, r12
 160:	a4 e6       	ldi	r26, 0x64	; 100
 162:	80 d3       	rcall	.+1792   	; 0x864 <__cmpdi2_s8>
 164:	29 f1       	breq	.+74     	; 0x1b0 <main+0x8c>
         {
             LedAusgabe = ON_LEDS;
         }
         else if (stopuhr_ms >= VERZOEGERUNG)
 166:	20 f1       	brcs	.+72     	; 0x1b0 <main+0x8c>
 168:	a3 e6       	ldi	r26, 0x63	; 99
 16a:	7c d3       	rcall	.+1784   	; 0x864 <__cmpdi2_s8>
 16c:	31 f1       	breq	.+76     	; 0x1ba <main+0x96>
 16e:	28 f1       	brcs	.+74     	; 0x1ba <main+0x96>
         {
             LedAusgabe = OFF_LEDS;
             if (stopuhr_ms>= VERZOEGERUNG_1)
 170:	27 3c       	cpi	r18, 0xC7	; 199
 172:	31 05       	cpc	r19, r1
 174:	41 05       	cpc	r20, r1
 176:	51 05       	cpc	r21, r1
 178:	61 05       	cpc	r22, r1
 17a:	71 05       	cpc	r23, r1
 17c:	81 05       	cpc	r24, r1
 17e:	91 05       	cpc	r25, r1
 180:	d1 f0       	breq	.+52     	; 0x1b6 <main+0x92>
 182:	c8 f0       	brcs	.+50     	; 0x1b6 <main+0x92>
             {
                 stopuhr_ms = 0;
 184:	ed 2c       	mov	r14, r13
 186:	fd 2c       	mov	r15, r13
 188:	0d 2d       	mov	r16, r13
 18a:	1d 2d       	mov	r17, r13
 18c:	dd 2d       	mov	r29, r13
 18e:	cd 2d       	mov	r28, r13
 190:	5d 2c       	mov	r5, r13
 192:	cd 2c       	mov	r12, r13
         {
             LedAusgabe = ON_LEDS;
         }
         else if (stopuhr_ms >= VERZOEGERUNG)
         {
             LedAusgabe = OFF_LEDS;
 194:	a8 2c       	mov	r10, r8
 196:	b9 2c       	mov	r11, r9
 198:	10 c0       	rjmp	.+32     	; 0x1ba <main+0x96>
         
     } 
     else
     {
         LedAusgabe = OFF;
         stopuhr_ms = 0;
 19a:	ed 2c       	mov	r14, r13
 19c:	fd 2c       	mov	r15, r13
 19e:	0d 2d       	mov	r16, r13
 1a0:	1d 2d       	mov	r17, r13
 1a2:	dd 2d       	mov	r29, r13
 1a4:	cd 2d       	mov	r28, r13
 1a6:	5d 2c       	mov	r5, r13
 1a8:	cd 2c       	mov	r12, r13
         }
         
     } 
     else
     {
         LedAusgabe = OFF;
 1aa:	a8 2c       	mov	r10, r8
 1ac:	b9 2c       	mov	r11, r9
 1ae:	05 c0       	rjmp	.+10     	; 0x1ba <main+0x96>
        //Verarbeitung-------------------------------------------------------------
     if (powerschalter)
     {
         if (stopuhr_ms <= VERZOEGERUNG)
         {
             LedAusgabe = ON_LEDS;
 1b0:	a6 2c       	mov	r10, r6
 1b2:	b7 2c       	mov	r11, r7
 1b4:	02 c0       	rjmp	.+4      	; 0x1ba <main+0x96>
         }
         else if (stopuhr_ms >= VERZOEGERUNG)
         {
             LedAusgabe = OFF_LEDS;
 1b6:	a8 2c       	mov	r10, r8
      
     
        
        
        //Ausgabe------------------------------------------------------------------
        ledWriteAll(LedAusgabe);
 1b8:	b9 2c       	mov	r11, r9
 1ba:	8a 2d       	mov	r24, r10
 1bc:	9b 2d       	mov	r25, r11
 1be:	19 d0       	rcall	.+50     	; 0x1f2 <ledWriteAll>
	#else
		//round up by default
		__ticks_dc = (uint32_t)(ceil(fabs(__tmp)));
	#endif

	__builtin_avr_delay_cycles(__ticks_dc);
 1c0:	8f e3       	ldi	r24, 0x3F	; 63
 1c2:	9c e9       	ldi	r25, 0x9C	; 156
 1c4:	01 97       	sbiw	r24, 0x01	; 1
 1c6:	f1 f7       	brne	.-4      	; 0x1c4 <main+0xa0>
 1c8:	00 c0       	rjmp	.+0      	; 0x1ca <main+0xa6>
 1ca:	00 00       	nop
        
       //Warten--------------------------------------------------------------------
       _delay_ms(SYSTEMTAKT);
       stopuhr_ms = stopuhr_ms + SYSTEMTAKT;
 1cc:	2e 2d       	mov	r18, r14
 1ce:	3f 2d       	mov	r19, r15
 1d0:	40 2f       	mov	r20, r16
 1d2:	51 2f       	mov	r21, r17
 1d4:	6d 2f       	mov	r22, r29
 1d6:	7c 2f       	mov	r23, r28
 1d8:	85 2d       	mov	r24, r5
 1da:	9c 2d       	mov	r25, r12
 1dc:	aa e0       	ldi	r26, 0x0A	; 10
 1de:	36 d3       	rcall	.+1644   	; 0x84c <__adddi3_s8>
 1e0:	e2 2e       	mov	r14, r18
 1e2:	f3 2e       	mov	r15, r19
 1e4:	04 2f       	mov	r16, r20
 1e6:	15 2f       	mov	r17, r21
 1e8:	d6 2f       	mov	r29, r22
 1ea:	c7 2f       	mov	r28, r23
 1ec:	58 2e       	mov	r5, r24
 1ee:	c9 2e       	mov	r12, r25

    }
 1f0:	ac cf       	rjmp	.-168    	; 0x14a <main+0x26>

000001f2 <ledWriteAll>:
            }
        }
        matrix_buffer_pos += breite + Zeichenabstand;           // Position für das nächste Zeichen berechnen
        str_p++;                                                // Zeichen-Zeiger auf das nächste Zeichen richten
    }
}
 1f2:	82 b9       	out	0x02, r24	; 2
 1f4:	95 b9       	out	0x05, r25	; 5
 1f6:	08 95       	ret

000001f8 <switchReadAll>:
 1f8:	86 b1       	in	r24, 0x06	; 6
 1fa:	08 95       	ret

000001fc <startSystemTimeMs>:
 1fc:	83 e0       	ldi	r24, 0x03	; 3
 1fe:	84 bd       	out	0x24, r24	; 36
 200:	8b e0       	ldi	r24, 0x0B	; 11
 202:	85 bd       	out	0x25, r24	; 37
 204:	81 e0       	ldi	r24, 0x01	; 1
 206:	80 93 6e 00 	sts	0x006E, r24	; 0x80006e <__TEXT_REGION_LENGTH__+0x70006e>
 20a:	89 ef       	ldi	r24, 0xF9	; 249
 20c:	87 bd       	out	0x27, r24	; 39
 20e:	08 95       	ret

00000210 <initAdc>:
 210:	11 ba       	out	0x11, r1	; 17
 212:	10 ba       	out	0x10, r1	; 16
 214:	10 92 08 01 	sts	0x0108, r1	; 0x800108 <__TEXT_REGION_LENGTH__+0x700108>
 218:	10 92 07 01 	sts	0x0107, r1	; 0x800107 <__TEXT_REGION_LENGTH__+0x700107>
 21c:	80 e4       	ldi	r24, 0x40	; 64
 21e:	80 93 7c 00 	sts	0x007C, r24	; 0x80007c <__TEXT_REGION_LENGTH__+0x70007c>
 222:	8f e0       	ldi	r24, 0x0F	; 15
 224:	80 93 7e 00 	sts	0x007E, r24	; 0x80007e <__TEXT_REGION_LENGTH__+0x70007e>
 228:	8f ef       	ldi	r24, 0xFF	; 255
 22a:	80 93 7d 00 	sts	0x007D, r24	; 0x80007d <__TEXT_REGION_LENGTH__+0x70007d>
 22e:	ea e7       	ldi	r30, 0x7A	; 122
 230:	f0 e0       	ldi	r31, 0x00	; 0
 232:	87 ea       	ldi	r24, 0xA7	; 167
 234:	80 83       	st	Z, r24
 236:	10 92 7b 00 	sts	0x007B, r1	; 0x80007b <__TEXT_REGION_LENGTH__+0x70007b>
 23a:	80 81       	ld	r24, Z
 23c:	80 64       	ori	r24, 0x40	; 64
 23e:	80 83       	st	Z, r24
 240:	80 81       	ld	r24, Z
 242:	84 ff       	sbrs	r24, 4
 244:	fd cf       	rjmp	.-6      	; 0x240 <initAdc+0x30>
 246:	ea e7       	ldi	r30, 0x7A	; 122
 248:	f0 e0       	ldi	r31, 0x00	; 0
 24a:	80 81       	ld	r24, Z
 24c:	8f 7e       	andi	r24, 0xEF	; 239
 24e:	80 83       	st	Z, r24
 250:	08 95       	ret

00000252 <rgbWrite>:
 252:	2f ef       	ldi	r18, 0xFF	; 255
 254:	33 e0       	ldi	r19, 0x03	; 3
 256:	f9 01       	movw	r30, r18
 258:	e8 1b       	sub	r30, r24
 25a:	f9 0b       	sbc	r31, r25
 25c:	c9 01       	movw	r24, r18
 25e:	86 1b       	sub	r24, r22
 260:	97 0b       	sbc	r25, r23
 262:	24 1b       	sub	r18, r20
 264:	35 0b       	sbc	r19, r21
 266:	f0 93 a9 00 	sts	0x00A9, r31	; 0x8000a9 <__TEXT_REGION_LENGTH__+0x7000a9>
 26a:	e0 93 a8 00 	sts	0x00A8, r30	; 0x8000a8 <__TEXT_REGION_LENGTH__+0x7000a8>
 26e:	90 93 ab 00 	sts	0x00AB, r25	; 0x8000ab <__TEXT_REGION_LENGTH__+0x7000ab>
 272:	80 93 aa 00 	sts	0x00AA, r24	; 0x8000aa <__TEXT_REGION_LENGTH__+0x7000aa>
 276:	30 93 ad 00 	sts	0x00AD, r19	; 0x8000ad <__TEXT_REGION_LENGTH__+0x7000ad>
 27a:	20 93 ac 00 	sts	0x00AC, r18	; 0x8000ac <__TEXT_REGION_LENGTH__+0x7000ac>
 27e:	08 95       	ret

00000280 <initRgb>:
 280:	8e ef       	ldi	r24, 0xFE	; 254
 282:	80 93 a0 00 	sts	0x00A0, r24	; 0x8000a0 <__TEXT_REGION_LENGTH__+0x7000a0>
 286:	8b e1       	ldi	r24, 0x1B	; 27
 288:	80 93 a1 00 	sts	0x00A1, r24	; 0x8000a1 <__TEXT_REGION_LENGTH__+0x7000a1>
 28c:	83 e0       	ldi	r24, 0x03	; 3
 28e:	80 93 a7 00 	sts	0x00A7, r24	; 0x8000a7 <__TEXT_REGION_LENGTH__+0x7000a7>
 292:	8f ef       	ldi	r24, 0xFF	; 255
 294:	80 93 a6 00 	sts	0x00A6, r24	; 0x8000a6 <__TEXT_REGION_LENGTH__+0x7000a6>
 298:	40 e0       	ldi	r20, 0x00	; 0
 29a:	50 e0       	ldi	r21, 0x00	; 0
 29c:	60 e0       	ldi	r22, 0x00	; 0
 29e:	70 e0       	ldi	r23, 0x00	; 0
 2a0:	80 e0       	ldi	r24, 0x00	; 0
 2a2:	90 e0       	ldi	r25, 0x00	; 0
 2a4:	d6 cf       	rjmp	.-84     	; 0x252 <rgbWrite>
 2a6:	08 95       	ret

000002a8 <lcdSid>:
 2a8:	88 23       	and	r24, r24
 2aa:	11 f0       	breq	.+4      	; 0x2b0 <lcdSid+0x8>
 2ac:	a0 9a       	sbi	0x14, 0	; 20
 2ae:	08 95       	ret
 2b0:	a0 98       	cbi	0x14, 0	; 20
 2b2:	08 95       	ret

000002b4 <lcdSclk>:
 2b4:	88 23       	and	r24, r24
 2b6:	11 f0       	breq	.+4      	; 0x2bc <lcdSclk+0x8>
 2b8:	a1 9a       	sbi	0x14, 1	; 20
 2ba:	08 95       	ret
 2bc:	a1 98       	cbi	0x14, 1	; 20
 2be:	08 95       	ret

000002c0 <lcdLight>:
 2c0:	81 11       	cpse	r24, r1
 2c2:	04 c0       	rjmp	.+8      	; 0x2cc <lcdLight+0xc>
 2c4:	84 b5       	in	r24, 0x24	; 36
 2c6:	8f 7d       	andi	r24, 0xDF	; 223
 2c8:	84 bd       	out	0x24, r24	; 36
 2ca:	08 95       	ret
 2cc:	94 b5       	in	r25, 0x24	; 36
 2ce:	90 62       	ori	r25, 0x20	; 32
 2d0:	94 bd       	out	0x24, r25	; 36
 2d2:	88 bd       	out	0x28, r24	; 40
 2d4:	08 95       	ret

000002d6 <writeLcdF>:
 2d6:	ef 92       	push	r14
 2d8:	ff 92       	push	r15
 2da:	0f 93       	push	r16
 2dc:	1f 93       	push	r17
 2de:	cf 93       	push	r28
 2e0:	df 93       	push	r29
 2e2:	7c 01       	movw	r14, r24
 2e4:	eb 01       	movw	r28, r22
 2e6:	81 e0       	ldi	r24, 0x01	; 1
 2e8:	df df       	rcall	.-66     	; 0x2a8 <lcdSid>
 2ea:	05 e0       	ldi	r16, 0x05	; 5
 2ec:	10 e0       	ldi	r17, 0x00	; 0
 2ee:	80 e0       	ldi	r24, 0x00	; 0
 2f0:	e1 df       	rcall	.-62     	; 0x2b4 <lcdSclk>
 2f2:	81 e0       	ldi	r24, 0x01	; 1
 2f4:	df df       	rcall	.-66     	; 0x2b4 <lcdSclk>
 2f6:	01 50       	subi	r16, 0x01	; 1
 2f8:	11 09       	sbc	r17, r1
 2fa:	c9 f7       	brne	.-14     	; 0x2ee <writeLcdF+0x18>
 2fc:	80 e0       	ldi	r24, 0x00	; 0
 2fe:	d4 df       	rcall	.-88     	; 0x2a8 <lcdSid>
 300:	80 e0       	ldi	r24, 0x00	; 0
 302:	d8 df       	rcall	.-80     	; 0x2b4 <lcdSclk>
 304:	81 e0       	ldi	r24, 0x01	; 1
 306:	d6 df       	rcall	.-84     	; 0x2b4 <lcdSclk>
 308:	83 e4       	ldi	r24, 0x43	; 67
 30a:	e8 16       	cp	r14, r24
 30c:	f1 04       	cpc	r15, r1
 30e:	19 f4       	brne	.+6      	; 0x316 <writeLcdF+0x40>
 310:	80 e0       	ldi	r24, 0x00	; 0
 312:	ca df       	rcall	.-108    	; 0x2a8 <lcdSid>
 314:	02 c0       	rjmp	.+4      	; 0x31a <writeLcdF+0x44>
 316:	81 e0       	ldi	r24, 0x01	; 1
 318:	c7 df       	rcall	.-114    	; 0x2a8 <lcdSid>
 31a:	80 e0       	ldi	r24, 0x00	; 0
 31c:	cb df       	rcall	.-106    	; 0x2b4 <lcdSclk>
 31e:	81 e0       	ldi	r24, 0x01	; 1
 320:	c9 df       	rcall	.-110    	; 0x2b4 <lcdSclk>
 322:	80 e0       	ldi	r24, 0x00	; 0
 324:	c1 df       	rcall	.-126    	; 0x2a8 <lcdSid>
 326:	80 e0       	ldi	r24, 0x00	; 0
 328:	c5 df       	rcall	.-118    	; 0x2b4 <lcdSclk>
 32a:	81 e0       	ldi	r24, 0x01	; 1
 32c:	c3 df       	rcall	.-122    	; 0x2b4 <lcdSclk>
 32e:	04 e0       	ldi	r16, 0x04	; 4
 330:	10 e0       	ldi	r17, 0x00	; 0
 332:	80 e0       	ldi	r24, 0x00	; 0
 334:	bf df       	rcall	.-130    	; 0x2b4 <lcdSclk>
 336:	c0 ff       	sbrs	r28, 0
 338:	03 c0       	rjmp	.+6      	; 0x340 <writeLcdF+0x6a>
 33a:	81 e0       	ldi	r24, 0x01	; 1
 33c:	b5 df       	rcall	.-150    	; 0x2a8 <lcdSid>
 33e:	02 c0       	rjmp	.+4      	; 0x344 <writeLcdF+0x6e>
 340:	80 e0       	ldi	r24, 0x00	; 0
 342:	b2 df       	rcall	.-156    	; 0x2a8 <lcdSid>
 344:	d6 95       	lsr	r29
 346:	c7 95       	ror	r28
 348:	80 e0       	ldi	r24, 0x00	; 0
 34a:	b4 df       	rcall	.-152    	; 0x2b4 <lcdSclk>
 34c:	81 e0       	ldi	r24, 0x01	; 1
 34e:	b2 df       	rcall	.-156    	; 0x2b4 <lcdSclk>
 350:	01 50       	subi	r16, 0x01	; 1
 352:	11 09       	sbc	r17, r1
 354:	71 f7       	brne	.-36     	; 0x332 <writeLcdF+0x5c>
 356:	80 e0       	ldi	r24, 0x00	; 0
 358:	a7 df       	rcall	.-178    	; 0x2a8 <lcdSid>
 35a:	04 e0       	ldi	r16, 0x04	; 4
 35c:	10 e0       	ldi	r17, 0x00	; 0
 35e:	80 e0       	ldi	r24, 0x00	; 0
 360:	a9 df       	rcall	.-174    	; 0x2b4 <lcdSclk>
 362:	81 e0       	ldi	r24, 0x01	; 1
 364:	a7 df       	rcall	.-178    	; 0x2b4 <lcdSclk>
 366:	01 50       	subi	r16, 0x01	; 1
 368:	11 09       	sbc	r17, r1
 36a:	c9 f7       	brne	.-14     	; 0x35e <writeLcdF+0x88>
 36c:	04 e0       	ldi	r16, 0x04	; 4
 36e:	10 e0       	ldi	r17, 0x00	; 0
 370:	80 e0       	ldi	r24, 0x00	; 0
 372:	a0 df       	rcall	.-192    	; 0x2b4 <lcdSclk>
 374:	c0 ff       	sbrs	r28, 0
 376:	03 c0       	rjmp	.+6      	; 0x37e <writeLcdF+0xa8>
 378:	81 e0       	ldi	r24, 0x01	; 1
 37a:	96 df       	rcall	.-212    	; 0x2a8 <lcdSid>
 37c:	02 c0       	rjmp	.+4      	; 0x382 <writeLcdF+0xac>
 37e:	80 e0       	ldi	r24, 0x00	; 0
 380:	93 df       	rcall	.-218    	; 0x2a8 <lcdSid>
 382:	d6 95       	lsr	r29
 384:	c7 95       	ror	r28
 386:	80 e0       	ldi	r24, 0x00	; 0
 388:	95 df       	rcall	.-214    	; 0x2b4 <lcdSclk>
 38a:	81 e0       	ldi	r24, 0x01	; 1
 38c:	93 df       	rcall	.-218    	; 0x2b4 <lcdSclk>
 38e:	01 50       	subi	r16, 0x01	; 1
 390:	11 09       	sbc	r17, r1
 392:	71 f7       	brne	.-36     	; 0x370 <writeLcdF+0x9a>
 394:	80 e0       	ldi	r24, 0x00	; 0
 396:	88 df       	rcall	.-240    	; 0x2a8 <lcdSid>
 398:	c4 e0       	ldi	r28, 0x04	; 4
 39a:	d0 e0       	ldi	r29, 0x00	; 0
 39c:	80 e0       	ldi	r24, 0x00	; 0
 39e:	8a df       	rcall	.-236    	; 0x2b4 <lcdSclk>
 3a0:	81 e0       	ldi	r24, 0x01	; 1
 3a2:	88 df       	rcall	.-240    	; 0x2b4 <lcdSclk>
 3a4:	21 97       	sbiw	r28, 0x01	; 1
 3a6:	d1 f7       	brne	.-12     	; 0x39c <writeLcdF+0xc6>
 3a8:	81 e0       	ldi	r24, 0x01	; 1
 3aa:	7e df       	rcall	.-260    	; 0x2a8 <lcdSid>
 3ac:	87 ec       	ldi	r24, 0xC7	; 199
 3ae:	90 e0       	ldi	r25, 0x00	; 0
 3b0:	01 97       	sbiw	r24, 0x01	; 1
 3b2:	f1 f7       	brne	.-4      	; 0x3b0 <writeLcdF+0xda>
 3b4:	00 c0       	rjmp	.+0      	; 0x3b6 <writeLcdF+0xe0>
 3b6:	00 00       	nop
 3b8:	df 91       	pop	r29
 3ba:	cf 91       	pop	r28
 3bc:	1f 91       	pop	r17
 3be:	0f 91       	pop	r16
 3c0:	ff 90       	pop	r15
 3c2:	ef 90       	pop	r14
 3c4:	08 95       	ret

000003c6 <lcdWriteText>:
 3c6:	1f 93       	push	r17
 3c8:	cf 93       	push	r28
 3ca:	df 93       	push	r29
 3cc:	cd b7       	in	r28, 0x3d	; 61
 3ce:	de b7       	in	r29, 0x3e	; 62
 3d0:	65 97       	sbiw	r28, 0x15	; 21
 3d2:	0f b6       	in	r0, 0x3f	; 63
 3d4:	f8 94       	cli
 3d6:	de bf       	out	0x3e, r29	; 62
 3d8:	0f be       	out	0x3f, r0	; 63
 3da:	cd bf       	out	0x3d, r28	; 61
 3dc:	9e 01       	movw	r18, r28
 3de:	20 5e       	subi	r18, 0xE0	; 224
 3e0:	3f 4f       	sbci	r19, 0xFF	; 255
 3e2:	4e 8d       	ldd	r20, Y+30	; 0x1e
 3e4:	5f 8d       	ldd	r21, Y+31	; 0x1f
 3e6:	65 e1       	ldi	r22, 0x15	; 21
 3e8:	70 e0       	ldi	r23, 0x00	; 0
 3ea:	ce 01       	movw	r24, r28
 3ec:	01 96       	adiw	r24, 0x01	; 1
 3ee:	46 d2       	rcall	.+1164   	; 0x87c <vsnprintf>
 3f0:	6d 8d       	ldd	r22, Y+29	; 0x1d
 3f2:	8c 8d       	ldd	r24, Y+28	; 0x1c
 3f4:	90 e2       	ldi	r25, 0x20	; 32
 3f6:	89 9f       	mul	r24, r25
 3f8:	60 0d       	add	r22, r0
 3fa:	11 24       	eor	r1, r1
 3fc:	60 68       	ori	r22, 0x80	; 128
 3fe:	70 e0       	ldi	r23, 0x00	; 0
 400:	83 e4       	ldi	r24, 0x43	; 67
 402:	90 e0       	ldi	r25, 0x00	; 0
 404:	68 df       	rcall	.-304    	; 0x2d6 <writeLcdF>
 406:	69 81       	ldd	r22, Y+1	; 0x01
 408:	66 23       	and	r22, r22
 40a:	79 f0       	breq	.+30     	; 0x42a <__LOCK_REGION_LENGTH__+0x2a>
 40c:	10 e0       	ldi	r17, 0x00	; 0
 40e:	1f 5f       	subi	r17, 0xFF	; 255
 410:	70 e0       	ldi	r23, 0x00	; 0
 412:	84 e4       	ldi	r24, 0x44	; 68
 414:	90 e0       	ldi	r25, 0x00	; 0
 416:	5f df       	rcall	.-322    	; 0x2d6 <writeLcdF>
 418:	e1 e0       	ldi	r30, 0x01	; 1
 41a:	f0 e0       	ldi	r31, 0x00	; 0
 41c:	ec 0f       	add	r30, r28
 41e:	fd 1f       	adc	r31, r29
 420:	e1 0f       	add	r30, r17
 422:	f1 1d       	adc	r31, r1
 424:	60 81       	ld	r22, Z
 426:	61 11       	cpse	r22, r1
 428:	f2 cf       	rjmp	.-28     	; 0x40e <__LOCK_REGION_LENGTH__+0xe>
 42a:	65 96       	adiw	r28, 0x15	; 21
 42c:	0f b6       	in	r0, 0x3f	; 63
 42e:	f8 94       	cli
 430:	de bf       	out	0x3e, r29	; 62
 432:	0f be       	out	0x3f, r0	; 63
 434:	cd bf       	out	0x3d, r28	; 61
 436:	df 91       	pop	r29
 438:	cf 91       	pop	r28
 43a:	1f 91       	pop	r17
 43c:	08 95       	ret

0000043e <lcdClear>:
 43e:	61 e0       	ldi	r22, 0x01	; 1
 440:	70 e0       	ldi	r23, 0x00	; 0
 442:	83 e4       	ldi	r24, 0x43	; 67
 444:	90 e0       	ldi	r25, 0x00	; 0
 446:	47 df       	rcall	.-370    	; 0x2d6 <writeLcdF>
 448:	8f e3       	ldi	r24, 0x3F	; 63
 44a:	9f e1       	ldi	r25, 0x1F	; 31
 44c:	01 97       	sbiw	r24, 0x01	; 1
 44e:	f1 f7       	brne	.-4      	; 0x44c <lcdClear+0xe>
 450:	00 c0       	rjmp	.+0      	; 0x452 <lcdClear+0x14>
 452:	00 00       	nop
 454:	80 e3       	ldi	r24, 0x30	; 48
 456:	92 e0       	ldi	r25, 0x02	; 2
 458:	9f 93       	push	r25
 45a:	8f 93       	push	r24
 45c:	1f 92       	push	r1
 45e:	1f 92       	push	r1
 460:	b2 df       	rcall	.-156    	; 0x3c6 <lcdWriteText>
 462:	0f 90       	pop	r0
 464:	0f 90       	pop	r0
 466:	0f 90       	pop	r0
 468:	0f 90       	pop	r0
 46a:	08 95       	ret

0000046c <initLcd>:
 46c:	81 e0       	ldi	r24, 0x01	; 1
 46e:	22 df       	rcall	.-444    	; 0x2b4 <lcdSclk>
 470:	80 e0       	ldi	r24, 0x00	; 0
 472:	1a df       	rcall	.-460    	; 0x2a8 <lcdSid>
 474:	64 e3       	ldi	r22, 0x34	; 52
 476:	70 e0       	ldi	r23, 0x00	; 0
 478:	83 e4       	ldi	r24, 0x43	; 67
 47a:	90 e0       	ldi	r25, 0x00	; 0
 47c:	2c df       	rcall	.-424    	; 0x2d6 <writeLcdF>
 47e:	69 e0       	ldi	r22, 0x09	; 9
 480:	70 e0       	ldi	r23, 0x00	; 0
 482:	83 e4       	ldi	r24, 0x43	; 67
 484:	90 e0       	ldi	r25, 0x00	; 0
 486:	27 df       	rcall	.-434    	; 0x2d6 <writeLcdF>
 488:	60 e3       	ldi	r22, 0x30	; 48
 48a:	70 e0       	ldi	r23, 0x00	; 0
 48c:	83 e4       	ldi	r24, 0x43	; 67
 48e:	90 e0       	ldi	r25, 0x00	; 0
 490:	22 df       	rcall	.-444    	; 0x2d6 <writeLcdF>
 492:	6c e0       	ldi	r22, 0x0C	; 12
 494:	70 e0       	ldi	r23, 0x00	; 0
 496:	83 e4       	ldi	r24, 0x43	; 67
 498:	90 e0       	ldi	r25, 0x00	; 0
 49a:	1d df       	rcall	.-454    	; 0x2d6 <writeLcdF>
 49c:	d0 df       	rcall	.-96     	; 0x43e <lcdClear>
 49e:	67 e0       	ldi	r22, 0x07	; 7
 4a0:	70 e0       	ldi	r23, 0x00	; 0
 4a2:	83 e4       	ldi	r24, 0x43	; 67
 4a4:	90 e0       	ldi	r25, 0x00	; 0
 4a6:	17 df       	rcall	.-466    	; 0x2d6 <writeLcdF>
 4a8:	80 e0       	ldi	r24, 0x00	; 0
 4aa:	0a cf       	rjmp	.-492    	; 0x2c0 <lcdLight>
 4ac:	08 95       	ret

000004ae <initBoard>:
 4ae:	4f 92       	push	r4
 4b0:	5f 92       	push	r5
 4b2:	6f 92       	push	r6
 4b4:	7f 92       	push	r7
 4b6:	8f 92       	push	r8
 4b8:	9f 92       	push	r9
 4ba:	af 92       	push	r10
 4bc:	bf 92       	push	r11
 4be:	cf 92       	push	r12
 4c0:	df 92       	push	r13
 4c2:	ef 92       	push	r14
 4c4:	ff 92       	push	r15
 4c6:	0f 93       	push	r16
 4c8:	1f 93       	push	r17
 4ca:	cf 93       	push	r28
 4cc:	df 93       	push	r29
 4ce:	c8 2f       	mov	r28, r24
 4d0:	85 b7       	in	r24, 0x35	; 53
 4d2:	85 bf       	out	0x35, r24	; 53
 4d4:	12 b8       	out	0x02, r1	; 2
 4d6:	8f ef       	ldi	r24, 0xFF	; 255
 4d8:	81 b9       	out	0x01, r24	; 1
 4da:	15 b8       	out	0x05, r1	; 5
 4dc:	84 b9       	out	0x04, r24	; 4
 4de:	88 b9       	out	0x08, r24	; 8
 4e0:	17 b8       	out	0x07, r1	; 7
 4e2:	8b b9       	out	0x0b, r24	; 11
 4e4:	1a b8       	out	0x0a, r1	; 10
 4e6:	8e b9       	out	0x0e, r24	; 14
 4e8:	1d b8       	out	0x0d, r1	; 13
 4ea:	72 98       	cbi	0x0e, 2	; 14
 4ec:	11 ba       	out	0x11, r1	; 17
 4ee:	10 ba       	out	0x10, r1	; 16
 4f0:	94 e0       	ldi	r25, 0x04	; 4
 4f2:	94 bb       	out	0x14, r25	; 20
 4f4:	93 b3       	in	r25, 0x13	; 19
 4f6:	93 60       	ori	r25, 0x03	; 3
 4f8:	93 bb       	out	0x13, r25	; 19
 4fa:	9d 9a       	sbi	0x13, 5	; 19
 4fc:	97 ec       	ldi	r25, 0xC7	; 199
 4fe:	90 93 02 01 	sts	0x0102, r25	; 0x800102 <__TEXT_REGION_LENGTH__+0x700102>
 502:	98 e3       	ldi	r25, 0x38	; 56
 504:	90 93 01 01 	sts	0x0101, r25	; 0x800101 <__TEXT_REGION_LENGTH__+0x700101>
 508:	10 92 05 01 	sts	0x0105, r1	; 0x800105 <__TEXT_REGION_LENGTH__+0x700105>
 50c:	80 93 04 01 	sts	0x0104, r24	; 0x800104 <__TEXT_REGION_LENGTH__+0x700104>
 510:	10 92 08 01 	sts	0x0108, r1	; 0x800108 <__TEXT_REGION_LENGTH__+0x700108>
 514:	10 92 07 01 	sts	0x0107, r1	; 0x800107 <__TEXT_REGION_LENGTH__+0x700107>
 518:	8c e3       	ldi	r24, 0x3C	; 60
 51a:	80 93 0b 01 	sts	0x010B, r24	; 0x80010b <__TEXT_REGION_LENGTH__+0x70010b>
 51e:	10 92 0a 01 	sts	0x010A, r1	; 0x80010a <__TEXT_REGION_LENGTH__+0x70010a>
 522:	78 94       	sei
 524:	6b de       	rcall	.-810    	; 0x1fc <startSystemTimeMs>
 526:	a2 df       	rcall	.-188    	; 0x46c <initLcd>
 528:	73 de       	rcall	.-794    	; 0x210 <initAdc>
 52a:	aa de       	rcall	.-684    	; 0x280 <initRgb>
 52c:	cc 23       	and	r28, r28
 52e:	09 f4       	brne	.+2      	; 0x532 <initBoard+0x84>
 530:	b8 c0       	rjmp	.+368    	; 0x6a2 <initBoard+0x1f4>
 532:	8f ef       	ldi	r24, 0xFF	; 255
 534:	c5 de       	rcall	.-630    	; 0x2c0 <lcdLight>
 536:	40 e0       	ldi	r20, 0x00	; 0
 538:	50 e0       	ldi	r21, 0x00	; 0
 53a:	6f ef       	ldi	r22, 0xFF	; 255
 53c:	73 e0       	ldi	r23, 0x03	; 3
 53e:	80 e0       	ldi	r24, 0x00	; 0
 540:	90 e0       	ldi	r25, 0x00	; 0
 542:	87 de       	rcall	.-754    	; 0x252 <rgbWrite>
 544:	8d e1       	ldi	r24, 0x1D	; 29
 546:	92 e0       	ldi	r25, 0x02	; 2
 548:	9f 93       	push	r25
 54a:	8f 93       	push	r24
 54c:	1f 92       	push	r1
 54e:	1f 92       	push	r1
 550:	3a df       	rcall	.-396    	; 0x3c6 <lcdWriteText>
 552:	82 e3       	ldi	r24, 0x32	; 50
 554:	92 e0       	ldi	r25, 0x02	; 2
 556:	9f 93       	push	r25
 558:	8f 93       	push	r24
 55a:	1f 92       	push	r1
 55c:	81 e0       	ldi	r24, 0x01	; 1
 55e:	8f 93       	push	r24
 560:	32 df       	rcall	.-412    	; 0x3c6 <lcdWriteText>
 562:	88 e0       	ldi	r24, 0x08	; 8
 564:	92 e0       	ldi	r25, 0x02	; 2
 566:	9f 93       	push	r25
 568:	8f 93       	push	r24
 56a:	1f 92       	push	r1
 56c:	82 e0       	ldi	r24, 0x02	; 2
 56e:	8f 93       	push	r24
 570:	2a df       	rcall	.-428    	; 0x3c6 <lcdWriteText>
 572:	87 e4       	ldi	r24, 0x47	; 71
 574:	92 e0       	ldi	r25, 0x02	; 2
 576:	9f 93       	push	r25
 578:	8f 93       	push	r24
 57a:	1f 92       	push	r1
 57c:	83 e0       	ldi	r24, 0x03	; 3
 57e:	8f 93       	push	r24
 580:	22 df       	rcall	.-444    	; 0x3c6 <lcdWriteText>
 582:	8d b7       	in	r24, 0x3d	; 61
 584:	9e b7       	in	r25, 0x3e	; 62
 586:	40 96       	adiw	r24, 0x10	; 16
 588:	0f b6       	in	r0, 0x3f	; 63
 58a:	f8 94       	cli
 58c:	9e bf       	out	0x3e, r25	; 62
 58e:	0f be       	out	0x3f, r0	; 63
 590:	8d bf       	out	0x3d, r24	; 61
 592:	88 24       	eor	r8, r8
 594:	83 94       	inc	r8
 596:	c0 e0       	ldi	r28, 0x00	; 0
 598:	71 2c       	mov	r7, r1
 59a:	99 24       	eor	r9, r9
 59c:	93 94       	inc	r9
 59e:	d0 e0       	ldi	r29, 0x00	; 0
 5a0:	cc 24       	eor	r12, r12
 5a2:	c3 94       	inc	r12
 5a4:	d1 2c       	mov	r13, r1
 5a6:	e1 2c       	mov	r14, r1
 5a8:	68 94       	set
 5aa:	ff 24       	eor	r15, r15
 5ac:	f7 f8       	bld	r15, 7
 5ae:	66 24       	eor	r6, r6
 5b0:	63 94       	inc	r6
 5b2:	51 2c       	mov	r5, r1
 5b4:	09 e0       	ldi	r16, 0x09	; 9
 5b6:	11 e0       	ldi	r17, 0x01	; 1
 5b8:	0f 2e       	mov	r0, r31
 5ba:	fc e5       	ldi	r31, 0x5C	; 92
 5bc:	af 2e       	mov	r10, r31
 5be:	f2 e0       	ldi	r31, 0x02	; 2
 5c0:	bf 2e       	mov	r11, r31
 5c2:	f0 2d       	mov	r31, r0
 5c4:	0f 2e       	mov	r0, r31
 5c6:	f3 e0       	ldi	r31, 0x03	; 3
 5c8:	4f 2e       	mov	r4, r31
 5ca:	f0 2d       	mov	r31, r0
 5cc:	99 20       	and	r9, r9
 5ce:	49 f0       	breq	.+18     	; 0x5e2 <initBoard+0x134>
 5d0:	c7 01       	movw	r24, r14
 5d2:	0d 2e       	mov	r0, r29
 5d4:	02 c0       	rjmp	.+4      	; 0x5da <initBoard+0x12c>
 5d6:	96 95       	lsr	r25
 5d8:	87 95       	ror	r24
 5da:	0a 94       	dec	r0
 5dc:	e2 f7       	brpl	.-8      	; 0x5d6 <initBoard+0x128>
 5de:	09 de       	rcall	.-1006   	; 0x1f2 <ledWriteAll>
 5e0:	08 c0       	rjmp	.+16     	; 0x5f2 <initBoard+0x144>
 5e2:	c6 01       	movw	r24, r12
 5e4:	0d 2e       	mov	r0, r29
 5e6:	02 c0       	rjmp	.+4      	; 0x5ec <initBoard+0x13e>
 5e8:	88 0f       	add	r24, r24
 5ea:	99 1f       	adc	r25, r25
 5ec:	0a 94       	dec	r0
 5ee:	e2 f7       	brpl	.-8      	; 0x5e8 <initBoard+0x13a>
 5f0:	00 de       	rcall	.-1024   	; 0x1f2 <ledWriteAll>
 5f2:	df 5f       	subi	r29, 0xFF	; 255
 5f4:	d1 31       	cpi	r29, 0x11	; 17
 5f6:	28 f0       	brcs	.+10     	; 0x602 <initBoard+0x154>
 5f8:	86 2d       	mov	r24, r6
 5fa:	91 10       	cpse	r9, r1
 5fc:	85 2d       	mov	r24, r5
 5fe:	98 2e       	mov	r9, r24
 600:	d0 e0       	ldi	r29, 0x00	; 0
 602:	88 20       	and	r8, r8
 604:	11 f0       	breq	.+4      	; 0x60a <initBoard+0x15c>
 606:	ce 5f       	subi	r28, 0xFE	; 254
 608:	01 c0       	rjmp	.+2      	; 0x60c <initBoard+0x15e>
 60a:	c2 50       	subi	r28, 0x02	; 2
 60c:	8c 2f       	mov	r24, r28
 60e:	58 de       	rcall	.-848    	; 0x2c0 <lcdLight>
 610:	ce 3f       	cpi	r28, 0xFE	; 254
 612:	21 f0       	breq	.+8      	; 0x61c <initBoard+0x16e>
 614:	c8 37       	cpi	r28, 0x78	; 120
 616:	19 f4       	brne	.+6      	; 0x61e <initBoard+0x170>
 618:	86 2c       	mov	r8, r6
 61a:	01 c0       	rjmp	.+2      	; 0x61e <initBoard+0x170>
 61c:	85 2c       	mov	r8, r5
 61e:	71 10       	cpse	r7, r1
 620:	3b c0       	rjmp	.+118    	; 0x698 <initBoard+0x1ea>
 622:	f8 01       	movw	r30, r16
 624:	80 81       	ld	r24, Z
 626:	83 7c       	andi	r24, 0xC3	; 195
 628:	91 f0       	breq	.+36     	; 0x64e <initBoard+0x1a0>
 62a:	40 e0       	ldi	r20, 0x00	; 0
 62c:	50 e0       	ldi	r21, 0x00	; 0
 62e:	66 e2       	ldi	r22, 0x26	; 38
 630:	72 e0       	ldi	r23, 0x02	; 2
 632:	8f ef       	ldi	r24, 0xFF	; 255
 634:	93 e0       	ldi	r25, 0x03	; 3
 636:	0d de       	rcall	.-998    	; 0x252 <rgbWrite>
 638:	bf 92       	push	r11
 63a:	af 92       	push	r10
 63c:	1f 92       	push	r1
 63e:	4f 92       	push	r4
 640:	c2 de       	rcall	.-636    	; 0x3c6 <lcdWriteText>
 642:	0f 90       	pop	r0
 644:	0f 90       	pop	r0
 646:	0f 90       	pop	r0
 648:	0f 90       	pop	r0
 64a:	76 2c       	mov	r7, r6
 64c:	25 c0       	rjmp	.+74     	; 0x698 <initBoard+0x1ea>
 64e:	8f ef       	ldi	r24, 0xFF	; 255
 650:	9c e7       	ldi	r25, 0x7C	; 124
 652:	01 97       	sbiw	r24, 0x01	; 1
 654:	f1 f7       	brne	.-4      	; 0x652 <initBoard+0x1a4>
 656:	00 c0       	rjmp	.+0      	; 0x658 <initBoard+0x1aa>
 658:	00 00       	nop
 65a:	b8 cf       	rjmp	.-144    	; 0x5cc <initBoard+0x11e>
 65c:	f0 de       	rcall	.-544    	; 0x43e <lcdClear>
 65e:	80 e0       	ldi	r24, 0x00	; 0
 660:	2f de       	rcall	.-930    	; 0x2c0 <lcdLight>
 662:	80 e0       	ldi	r24, 0x00	; 0
 664:	90 e0       	ldi	r25, 0x00	; 0
 666:	c5 dd       	rcall	.-1142   	; 0x1f2 <ledWriteAll>
 668:	40 e0       	ldi	r20, 0x00	; 0
 66a:	50 e0       	ldi	r21, 0x00	; 0
 66c:	60 e0       	ldi	r22, 0x00	; 0
 66e:	70 e0       	ldi	r23, 0x00	; 0
 670:	80 e0       	ldi	r24, 0x00	; 0
 672:	90 e0       	ldi	r25, 0x00	; 0
 674:	ee dd       	rcall	.-1060   	; 0x252 <rgbWrite>
 676:	10 92 79 02 	sts	0x0279, r1	; 0x800279 <systemTimeMs>
 67a:	10 92 7a 02 	sts	0x027A, r1	; 0x80027a <systemTimeMs+0x1>
 67e:	10 92 7b 02 	sts	0x027B, r1	; 0x80027b <systemTimeMs+0x2>
 682:	10 92 7c 02 	sts	0x027C, r1	; 0x80027c <systemTimeMs+0x3>
 686:	10 92 7d 02 	sts	0x027D, r1	; 0x80027d <systemTimeMs+0x4>
 68a:	10 92 7e 02 	sts	0x027E, r1	; 0x80027e <systemTimeMs+0x5>
 68e:	10 92 7f 02 	sts	0x027F, r1	; 0x80027f <systemTimeMs+0x6>
 692:	10 92 80 02 	sts	0x0280, r1	; 0x800280 <systemTimeMs+0x7>
 696:	05 c0       	rjmp	.+10     	; 0x6a2 <initBoard+0x1f4>
 698:	f8 01       	movw	r30, r16
 69a:	80 81       	ld	r24, Z
 69c:	83 7c       	andi	r24, 0xC3	; 195
 69e:	b9 f6       	brne	.-82     	; 0x64e <initBoard+0x1a0>
 6a0:	dd cf       	rjmp	.-70     	; 0x65c <initBoard+0x1ae>
 6a2:	df 91       	pop	r29
 6a4:	cf 91       	pop	r28
 6a6:	1f 91       	pop	r17
 6a8:	0f 91       	pop	r16
 6aa:	ff 90       	pop	r15
 6ac:	ef 90       	pop	r14
 6ae:	df 90       	pop	r13
 6b0:	cf 90       	pop	r12
 6b2:	bf 90       	pop	r11
 6b4:	af 90       	pop	r10
 6b6:	9f 90       	pop	r9
 6b8:	8f 90       	pop	r8
 6ba:	7f 90       	pop	r7
 6bc:	6f 90       	pop	r6
 6be:	5f 90       	pop	r5
 6c0:	4f 90       	pop	r4
 6c2:	08 95       	ret

000006c4 <matrixWriteNextLine>:




void matrixWriteNextLine(void)
{
 6c4:	cf 93       	push	r28
 6c6:	df 93       	push	r29
 6c8:	cd b7       	in	r28, 0x3d	; 61
 6ca:	de b7       	in	r29, 0x3e	; 62
 6cc:	28 97       	sbiw	r28, 0x08	; 8
 6ce:	0f b6       	in	r0, 0x3f	; 63
 6d0:	f8 94       	cli
 6d2:	de bf       	out	0x3e, r29	; 62
 6d4:	0f be       	out	0x3f, r0	; 63
 6d6:	cd bf       	out	0x3d, r28	; 61
    const  uint8_t Bit_Muster_Tab[8] = {1,2,4,8,16,32,64,128};
 6d8:	88 e0       	ldi	r24, 0x08	; 8
 6da:	e0 e0       	ldi	r30, 0x00	; 0
 6dc:	f2 e0       	ldi	r31, 0x02	; 2
 6de:	de 01       	movw	r26, r28
 6e0:	11 96       	adiw	r26, 0x01	; 1
 6e2:	01 90       	ld	r0, Z+
 6e4:	0d 92       	st	X+, r0
 6e6:	8a 95       	dec	r24
 6e8:	e1 f7       	brne	.-8      	; 0x6e2 <matrixWriteNextLine+0x1e>
    static uint16_t Zeilen_Nr, Bit_Muster;
    uint8_t i;
    
    STROBE_0;                             // Daten des Scheiberegisters nicht ins Latch schreiben
 6ea:	e5 e0       	ldi	r30, 0x05	; 5
 6ec:	f1 e0       	ldi	r31, 0x01	; 1
 6ee:	80 81       	ld	r24, Z
 6f0:	8f 7b       	andi	r24, 0xBF	; 191
 6f2:	80 83       	st	Z, r24

    Bit_Muster = Bit_Muster_Tab[Zeilen_Nr]; // Bitmuster aus Tabelle holen, um mit Daten in matrix[] zu vergleichen.
 6f4:	e0 91 76 02 	lds	r30, 0x0276	; 0x800276 <Zeilen_Nr.2725>
 6f8:	f0 91 77 02 	lds	r31, 0x0277	; 0x800277 <Zeilen_Nr.2725+0x1>
 6fc:	81 e0       	ldi	r24, 0x01	; 1
 6fe:	90 e0       	ldi	r25, 0x00	; 0
 700:	8c 0f       	add	r24, r28
 702:	9d 1f       	adc	r25, r29
 704:	e8 0f       	add	r30, r24
 706:	f9 1f       	adc	r31, r25
 708:	80 81       	ld	r24, Z
 70a:	90 e0       	ldi	r25, 0x00	; 0
 70c:	90 93 75 02 	sts	0x0275, r25	; 0x800275 <__data_end+0x1>
 710:	80 93 74 02 	sts	0x0274, r24	; 0x800274 <__data_end>
 714:	a2 ef       	ldi	r26, 0xF2	; 242
 716:	b2 e0       	ldi	r27, 0x02	; 2
 718:	22 e8       	ldi	r18, 0x82	; 130
 71a:	32 e0       	ldi	r19, 0x02	; 2
    {                                       // Vergleicht Bit-Muster der aktuellen Zeile mit Daten in matrix[]
        if((matrix[Anzahl_Spalten-1- i] & Bit_Muster) != 0)     // Ist in matrix[] das entsprechende Bit gesetzt?
        { DATA_Modul_1_ON;                    //   JA:   ==> Datenbit "1" ins Schieberegister schreiben
        }
        else
        { DATA_Modul_1_OFF;                   //   NEIN: ==> Datenbit "0" ins Schieberegister schreiben
 71c:	e5 e0       	ldi	r30, 0x05	; 5
 71e:	f1 e0       	ldi	r31, 0x01	; 1
    Bit_Muster = Bit_Muster_Tab[Zeilen_Nr]; // Bitmuster aus Tabelle holen, um mit Daten in matrix[] zu vergleichen.
    
    // Alle Bits seriell ins Schieberegister hineinschreiben
    for(i=0; i<Anzahl_Spalten; i++)         // Alle Spalten durchgehen und überpüfen, ob Bit gesetzt ist
    {                                       // Vergleicht Bit-Muster der aktuellen Zeile mit Daten in matrix[]
        if((matrix[Anzahl_Spalten-1- i] & Bit_Muster) != 0)     // Ist in matrix[] das entsprechende Bit gesetzt?
 720:	5e 91       	ld	r21, -X
 722:	4e 91       	ld	r20, -X
 724:	80 91 74 02 	lds	r24, 0x0274	; 0x800274 <__data_end>
 728:	90 91 75 02 	lds	r25, 0x0275	; 0x800275 <__data_end+0x1>
 72c:	84 23       	and	r24, r20
 72e:	95 23       	and	r25, r21
 730:	89 2b       	or	r24, r25
 732:	21 f0       	breq	.+8      	; 0x73c <matrixWriteNextLine+0x78>
        { DATA_Modul_1_ON;                    //   JA:   ==> Datenbit "1" ins Schieberegister schreiben
 734:	80 81       	ld	r24, Z
 736:	80 62       	ori	r24, 0x20	; 32
 738:	80 83       	st	Z, r24
 73a:	03 c0       	rjmp	.+6      	; 0x742 <matrixWriteNextLine+0x7e>
        }
        else
        { DATA_Modul_1_OFF;                   //   NEIN: ==> Datenbit "0" ins Schieberegister schreiben
 73c:	80 81       	ld	r24, Z
 73e:	8f 7d       	andi	r24, 0xDF	; 223
 740:	80 83       	st	Z, r24
        }
        CLOCK_1;
 742:	80 81       	ld	r24, Z
 744:	80 61       	ori	r24, 0x10	; 16
 746:	80 83       	st	Z, r24
        CLOCK_0;                            // Datenbit wird bei der negativen Flanke des Clock-Signals übernommen
 748:	80 81       	ld	r24, Z
 74a:	8f 7e       	andi	r24, 0xEF	; 239
 74c:	80 83       	st	Z, r24
    STROBE_0;                             // Daten des Scheiberegisters nicht ins Latch schreiben

    Bit_Muster = Bit_Muster_Tab[Zeilen_Nr]; // Bitmuster aus Tabelle holen, um mit Daten in matrix[] zu vergleichen.
    
    // Alle Bits seriell ins Schieberegister hineinschreiben
    for(i=0; i<Anzahl_Spalten; i++)         // Alle Spalten durchgehen und überpüfen, ob Bit gesetzt ist
 74e:	a2 17       	cp	r26, r18
 750:	b3 07       	cpc	r27, r19
 752:	31 f7       	brne	.-52     	; 0x720 <matrixWriteNextLine+0x5c>
        }
        CLOCK_1;
        CLOCK_0;                            // Datenbit wird bei der negativen Flanke des Clock-Signals übernommen
    }
    
    ENABLE_0;                                // +5V aller Zeilen abschalten
 754:	e5 e0       	ldi	r30, 0x05	; 5
 756:	f1 e0       	ldi	r31, 0x01	; 1
 758:	80 81       	ld	r24, Z
 75a:	87 7f       	andi	r24, 0xF7	; 247
 75c:	80 83       	st	Z, r24
    PORTJ &= ~0x07;
 75e:	80 81       	ld	r24, Z
 760:	88 7f       	andi	r24, 0xF8	; 248
 762:	80 83       	st	Z, r24
    PORTJ |= Zeilen_Nr;                     // gewünschte Zeile einstellen
 764:	90 81       	ld	r25, Z
 766:	80 91 76 02 	lds	r24, 0x0276	; 0x800276 <Zeilen_Nr.2725>
 76a:	89 2b       	or	r24, r25
 76c:	80 83       	st	Z, r24
    STROBE_1;                             // Daten ins Latch schreiben
 76e:	80 81       	ld	r24, Z
 770:	80 64       	ori	r24, 0x40	; 64
 772:	80 83       	st	Z, r24
    ENABLE_1;                             // +5V Speisung der eingestellten Zeile einschalten
 774:	80 81       	ld	r24, Z
 776:	88 60       	ori	r24, 0x08	; 8
 778:	80 83       	st	Z, r24

    // Die Zeilen werden nacheinander eingeschaltet --> zyklisch 0,1,2,3,4,5,6,7, 0,1,2,3, ...
    if (Zeilen_Nr < 7)
 77a:	80 91 76 02 	lds	r24, 0x0276	; 0x800276 <Zeilen_Nr.2725>
 77e:	90 91 77 02 	lds	r25, 0x0277	; 0x800277 <Zeilen_Nr.2725+0x1>
 782:	87 30       	cpi	r24, 0x07	; 7
 784:	91 05       	cpc	r25, r1
 786:	30 f4       	brcc	.+12     	; 0x794 <matrixWriteNextLine+0xd0>
    {
        Zeilen_Nr++;
 788:	01 96       	adiw	r24, 0x01	; 1
 78a:	90 93 77 02 	sts	0x0277, r25	; 0x800277 <Zeilen_Nr.2725+0x1>
 78e:	80 93 76 02 	sts	0x0276, r24	; 0x800276 <Zeilen_Nr.2725>
 792:	07 c0       	rjmp	.+14     	; 0x7a2 <matrixWriteNextLine+0xde>
    }
    else
    {
        Zeilen_Nr = 0;
 794:	10 92 77 02 	sts	0x0277, r1	; 0x800277 <Zeilen_Nr.2725+0x1>
 798:	10 92 76 02 	sts	0x0276, r1	; 0x800276 <Zeilen_Nr.2725>
        writeTextFinished = 1;
 79c:	81 e0       	ldi	r24, 0x01	; 1
 79e:	80 93 78 02 	sts	0x0278, r24	; 0x800278 <writeTextFinished>
    }
    
 7a2:	28 96       	adiw	r28, 0x08	; 8
 7a4:	0f b6       	in	r0, 0x3f	; 63
 7a6:	f8 94       	cli
 7a8:	de bf       	out	0x3e, r29	; 62
 7aa:	0f be       	out	0x3f, r0	; 63
 7ac:	cd bf       	out	0x3d, r28	; 61
 7ae:	df 91       	pop	r29
 7b0:	cf 91       	pop	r28
 7b2:	08 95       	ret

000007b4 <__vector_23>:
//--------------------------------------------------------------------------------------------
// Timer 0 Overflow Interrupt ->  Wird alle 1ms aufgerufen
//--------------------------------------------------------------------------------------------

ISR(TIMER0_OVF_vect)
{
 7b4:	1f 92       	push	r1
 7b6:	0f 92       	push	r0
 7b8:	0f b6       	in	r0, 0x3f	; 63
 7ba:	0f 92       	push	r0
 7bc:	11 24       	eor	r1, r1
 7be:	0b b6       	in	r0, 0x3b	; 59
 7c0:	0f 92       	push	r0
 7c2:	2f 93       	push	r18
 7c4:	3f 93       	push	r19
 7c6:	4f 93       	push	r20
 7c8:	5f 93       	push	r21
 7ca:	6f 93       	push	r22
 7cc:	7f 93       	push	r23
 7ce:	8f 93       	push	r24
 7d0:	9f 93       	push	r25
 7d2:	af 93       	push	r26
 7d4:	bf 93       	push	r27
 7d6:	ef 93       	push	r30
 7d8:	ff 93       	push	r31
    systemTimeMs += 1;
 7da:	20 91 79 02 	lds	r18, 0x0279	; 0x800279 <systemTimeMs>
 7de:	30 91 7a 02 	lds	r19, 0x027A	; 0x80027a <systemTimeMs+0x1>
 7e2:	40 91 7b 02 	lds	r20, 0x027B	; 0x80027b <systemTimeMs+0x2>
 7e6:	50 91 7c 02 	lds	r21, 0x027C	; 0x80027c <systemTimeMs+0x3>
 7ea:	60 91 7d 02 	lds	r22, 0x027D	; 0x80027d <systemTimeMs+0x4>
 7ee:	70 91 7e 02 	lds	r23, 0x027E	; 0x80027e <systemTimeMs+0x5>
 7f2:	80 91 7f 02 	lds	r24, 0x027F	; 0x80027f <systemTimeMs+0x6>
 7f6:	90 91 80 02 	lds	r25, 0x0280	; 0x800280 <systemTimeMs+0x7>
 7fa:	a1 e0       	ldi	r26, 0x01	; 1
 7fc:	27 d0       	rcall	.+78     	; 0x84c <__adddi3_s8>
 7fe:	20 93 79 02 	sts	0x0279, r18	; 0x800279 <systemTimeMs>
 802:	30 93 7a 02 	sts	0x027A, r19	; 0x80027a <systemTimeMs+0x1>
 806:	40 93 7b 02 	sts	0x027B, r20	; 0x80027b <systemTimeMs+0x2>
 80a:	50 93 7c 02 	sts	0x027C, r21	; 0x80027c <systemTimeMs+0x3>
 80e:	60 93 7d 02 	sts	0x027D, r22	; 0x80027d <systemTimeMs+0x4>
 812:	70 93 7e 02 	sts	0x027E, r23	; 0x80027e <systemTimeMs+0x5>
 816:	80 93 7f 02 	sts	0x027F, r24	; 0x80027f <systemTimeMs+0x6>
 81a:	90 93 80 02 	sts	0x0280, r25	; 0x800280 <systemTimeMs+0x7>

    if(matrixRunning)matrixWriteNextLine();
 81e:	80 91 81 02 	lds	r24, 0x0281	; 0x800281 <matrixRunning>
 822:	81 11       	cpse	r24, r1
 824:	4f df       	rcall	.-354    	; 0x6c4 <matrixWriteNextLine>
}
 826:	ff 91       	pop	r31
 828:	ef 91       	pop	r30
 82a:	bf 91       	pop	r27
 82c:	af 91       	pop	r26
 82e:	9f 91       	pop	r25
 830:	8f 91       	pop	r24
 832:	7f 91       	pop	r23
 834:	6f 91       	pop	r22
 836:	5f 91       	pop	r21
 838:	4f 91       	pop	r20
 83a:	3f 91       	pop	r19
 83c:	2f 91       	pop	r18
 83e:	0f 90       	pop	r0
 840:	0b be       	out	0x3b, r0	; 59
 842:	0f 90       	pop	r0
 844:	0f be       	out	0x3f, r0	; 63
 846:	0f 90       	pop	r0
 848:	1f 90       	pop	r1
 84a:	18 95       	reti

0000084c <__adddi3_s8>:
 84c:	00 24       	eor	r0, r0
 84e:	a7 fd       	sbrc	r26, 7
 850:	00 94       	com	r0
 852:	2a 0f       	add	r18, r26
 854:	30 1d       	adc	r19, r0
 856:	40 1d       	adc	r20, r0
 858:	50 1d       	adc	r21, r0
 85a:	60 1d       	adc	r22, r0
 85c:	70 1d       	adc	r23, r0
 85e:	80 1d       	adc	r24, r0
 860:	90 1d       	adc	r25, r0
 862:	08 95       	ret

00000864 <__cmpdi2_s8>:
 864:	00 24       	eor	r0, r0
 866:	a7 fd       	sbrc	r26, 7
 868:	00 94       	com	r0
 86a:	2a 17       	cp	r18, r26
 86c:	30 05       	cpc	r19, r0
 86e:	40 05       	cpc	r20, r0
 870:	50 05       	cpc	r21, r0
 872:	60 05       	cpc	r22, r0
 874:	70 05       	cpc	r23, r0
 876:	80 05       	cpc	r24, r0
 878:	90 05       	cpc	r25, r0
 87a:	08 95       	ret

0000087c <vsnprintf>:
 87c:	0f 93       	push	r16
 87e:	1f 93       	push	r17
 880:	cf 93       	push	r28
 882:	df 93       	push	r29
 884:	cd b7       	in	r28, 0x3d	; 61
 886:	de b7       	in	r29, 0x3e	; 62
 888:	2e 97       	sbiw	r28, 0x0e	; 14
 88a:	0f b6       	in	r0, 0x3f	; 63
 88c:	f8 94       	cli
 88e:	de bf       	out	0x3e, r29	; 62
 890:	0f be       	out	0x3f, r0	; 63
 892:	cd bf       	out	0x3d, r28	; 61
 894:	8c 01       	movw	r16, r24
 896:	fa 01       	movw	r30, r20
 898:	86 e0       	ldi	r24, 0x06	; 6
 89a:	8c 83       	std	Y+4, r24	; 0x04
 89c:	1a 83       	std	Y+2, r17	; 0x02
 89e:	09 83       	std	Y+1, r16	; 0x01
 8a0:	77 ff       	sbrs	r23, 7
 8a2:	02 c0       	rjmp	.+4      	; 0x8a8 <vsnprintf+0x2c>
 8a4:	60 e0       	ldi	r22, 0x00	; 0
 8a6:	70 e8       	ldi	r23, 0x80	; 128
 8a8:	cb 01       	movw	r24, r22
 8aa:	01 97       	sbiw	r24, 0x01	; 1
 8ac:	9e 83       	std	Y+6, r25	; 0x06
 8ae:	8d 83       	std	Y+5, r24	; 0x05
 8b0:	a9 01       	movw	r20, r18
 8b2:	bf 01       	movw	r22, r30
 8b4:	ce 01       	movw	r24, r28
 8b6:	01 96       	adiw	r24, 0x01	; 1
 8b8:	19 d0       	rcall	.+50     	; 0x8ec <vfprintf>
 8ba:	4d 81       	ldd	r20, Y+5	; 0x05
 8bc:	5e 81       	ldd	r21, Y+6	; 0x06
 8be:	57 fd       	sbrc	r21, 7
 8c0:	0a c0       	rjmp	.+20     	; 0x8d6 <vsnprintf+0x5a>
 8c2:	2f 81       	ldd	r18, Y+7	; 0x07
 8c4:	38 85       	ldd	r19, Y+8	; 0x08
 8c6:	42 17       	cp	r20, r18
 8c8:	53 07       	cpc	r21, r19
 8ca:	0c f4       	brge	.+2      	; 0x8ce <vsnprintf+0x52>
 8cc:	9a 01       	movw	r18, r20
 8ce:	f8 01       	movw	r30, r16
 8d0:	e2 0f       	add	r30, r18
 8d2:	f3 1f       	adc	r31, r19
 8d4:	10 82       	st	Z, r1
 8d6:	2e 96       	adiw	r28, 0x0e	; 14
 8d8:	0f b6       	in	r0, 0x3f	; 63
 8da:	f8 94       	cli
 8dc:	de bf       	out	0x3e, r29	; 62
 8de:	0f be       	out	0x3f, r0	; 63
 8e0:	cd bf       	out	0x3d, r28	; 61
 8e2:	df 91       	pop	r29
 8e4:	cf 91       	pop	r28
 8e6:	1f 91       	pop	r17
 8e8:	0f 91       	pop	r16
 8ea:	08 95       	ret

000008ec <vfprintf>:
 8ec:	2f 92       	push	r2
 8ee:	3f 92       	push	r3
 8f0:	4f 92       	push	r4
 8f2:	5f 92       	push	r5
 8f4:	6f 92       	push	r6
 8f6:	7f 92       	push	r7
 8f8:	8f 92       	push	r8
 8fa:	9f 92       	push	r9
 8fc:	af 92       	push	r10
 8fe:	bf 92       	push	r11
 900:	cf 92       	push	r12
 902:	df 92       	push	r13
 904:	ef 92       	push	r14
 906:	ff 92       	push	r15
 908:	0f 93       	push	r16
 90a:	1f 93       	push	r17
 90c:	cf 93       	push	r28
 90e:	df 93       	push	r29
 910:	cd b7       	in	r28, 0x3d	; 61
 912:	de b7       	in	r29, 0x3e	; 62
 914:	2b 97       	sbiw	r28, 0x0b	; 11
 916:	0f b6       	in	r0, 0x3f	; 63
 918:	f8 94       	cli
 91a:	de bf       	out	0x3e, r29	; 62
 91c:	0f be       	out	0x3f, r0	; 63
 91e:	cd bf       	out	0x3d, r28	; 61
 920:	6c 01       	movw	r12, r24
 922:	7b 01       	movw	r14, r22
 924:	8a 01       	movw	r16, r20
 926:	fc 01       	movw	r30, r24
 928:	17 82       	std	Z+7, r1	; 0x07
 92a:	16 82       	std	Z+6, r1	; 0x06
 92c:	83 81       	ldd	r24, Z+3	; 0x03
 92e:	81 ff       	sbrs	r24, 1
 930:	bf c1       	rjmp	.+894    	; 0xcb0 <vfprintf+0x3c4>
 932:	ce 01       	movw	r24, r28
 934:	01 96       	adiw	r24, 0x01	; 1
 936:	3c 01       	movw	r6, r24
 938:	f6 01       	movw	r30, r12
 93a:	93 81       	ldd	r25, Z+3	; 0x03
 93c:	f7 01       	movw	r30, r14
 93e:	93 fd       	sbrc	r25, 3
 940:	85 91       	lpm	r24, Z+
 942:	93 ff       	sbrs	r25, 3
 944:	81 91       	ld	r24, Z+
 946:	7f 01       	movw	r14, r30
 948:	88 23       	and	r24, r24
 94a:	09 f4       	brne	.+2      	; 0x94e <vfprintf+0x62>
 94c:	ad c1       	rjmp	.+858    	; 0xca8 <vfprintf+0x3bc>
 94e:	85 32       	cpi	r24, 0x25	; 37
 950:	39 f4       	brne	.+14     	; 0x960 <vfprintf+0x74>
 952:	93 fd       	sbrc	r25, 3
 954:	85 91       	lpm	r24, Z+
 956:	93 ff       	sbrs	r25, 3
 958:	81 91       	ld	r24, Z+
 95a:	7f 01       	movw	r14, r30
 95c:	85 32       	cpi	r24, 0x25	; 37
 95e:	21 f4       	brne	.+8      	; 0x968 <vfprintf+0x7c>
 960:	b6 01       	movw	r22, r12
 962:	90 e0       	ldi	r25, 0x00	; 0
 964:	d6 d1       	rcall	.+940    	; 0xd12 <fputc>
 966:	e8 cf       	rjmp	.-48     	; 0x938 <vfprintf+0x4c>
 968:	91 2c       	mov	r9, r1
 96a:	21 2c       	mov	r2, r1
 96c:	31 2c       	mov	r3, r1
 96e:	ff e1       	ldi	r31, 0x1F	; 31
 970:	f3 15       	cp	r31, r3
 972:	d8 f0       	brcs	.+54     	; 0x9aa <vfprintf+0xbe>
 974:	8b 32       	cpi	r24, 0x2B	; 43
 976:	79 f0       	breq	.+30     	; 0x996 <vfprintf+0xaa>
 978:	38 f4       	brcc	.+14     	; 0x988 <vfprintf+0x9c>
 97a:	80 32       	cpi	r24, 0x20	; 32
 97c:	79 f0       	breq	.+30     	; 0x99c <vfprintf+0xb0>
 97e:	83 32       	cpi	r24, 0x23	; 35
 980:	a1 f4       	brne	.+40     	; 0x9aa <vfprintf+0xbe>
 982:	23 2d       	mov	r18, r3
 984:	20 61       	ori	r18, 0x10	; 16
 986:	1d c0       	rjmp	.+58     	; 0x9c2 <vfprintf+0xd6>
 988:	8d 32       	cpi	r24, 0x2D	; 45
 98a:	61 f0       	breq	.+24     	; 0x9a4 <vfprintf+0xb8>
 98c:	80 33       	cpi	r24, 0x30	; 48
 98e:	69 f4       	brne	.+26     	; 0x9aa <vfprintf+0xbe>
 990:	23 2d       	mov	r18, r3
 992:	21 60       	ori	r18, 0x01	; 1
 994:	16 c0       	rjmp	.+44     	; 0x9c2 <vfprintf+0xd6>
 996:	83 2d       	mov	r24, r3
 998:	82 60       	ori	r24, 0x02	; 2
 99a:	38 2e       	mov	r3, r24
 99c:	e3 2d       	mov	r30, r3
 99e:	e4 60       	ori	r30, 0x04	; 4
 9a0:	3e 2e       	mov	r3, r30
 9a2:	2a c0       	rjmp	.+84     	; 0x9f8 <vfprintf+0x10c>
 9a4:	f3 2d       	mov	r31, r3
 9a6:	f8 60       	ori	r31, 0x08	; 8
 9a8:	1d c0       	rjmp	.+58     	; 0x9e4 <vfprintf+0xf8>
 9aa:	37 fc       	sbrc	r3, 7
 9ac:	2d c0       	rjmp	.+90     	; 0xa08 <vfprintf+0x11c>
 9ae:	20 ed       	ldi	r18, 0xD0	; 208
 9b0:	28 0f       	add	r18, r24
 9b2:	2a 30       	cpi	r18, 0x0A	; 10
 9b4:	40 f0       	brcs	.+16     	; 0x9c6 <vfprintf+0xda>
 9b6:	8e 32       	cpi	r24, 0x2E	; 46
 9b8:	b9 f4       	brne	.+46     	; 0x9e8 <vfprintf+0xfc>
 9ba:	36 fc       	sbrc	r3, 6
 9bc:	75 c1       	rjmp	.+746    	; 0xca8 <vfprintf+0x3bc>
 9be:	23 2d       	mov	r18, r3
 9c0:	20 64       	ori	r18, 0x40	; 64
 9c2:	32 2e       	mov	r3, r18
 9c4:	19 c0       	rjmp	.+50     	; 0x9f8 <vfprintf+0x10c>
 9c6:	36 fe       	sbrs	r3, 6
 9c8:	06 c0       	rjmp	.+12     	; 0x9d6 <vfprintf+0xea>
 9ca:	8a e0       	ldi	r24, 0x0A	; 10
 9cc:	98 9e       	mul	r9, r24
 9ce:	20 0d       	add	r18, r0
 9d0:	11 24       	eor	r1, r1
 9d2:	92 2e       	mov	r9, r18
 9d4:	11 c0       	rjmp	.+34     	; 0x9f8 <vfprintf+0x10c>
 9d6:	ea e0       	ldi	r30, 0x0A	; 10
 9d8:	2e 9e       	mul	r2, r30
 9da:	20 0d       	add	r18, r0
 9dc:	11 24       	eor	r1, r1
 9de:	22 2e       	mov	r2, r18
 9e0:	f3 2d       	mov	r31, r3
 9e2:	f0 62       	ori	r31, 0x20	; 32
 9e4:	3f 2e       	mov	r3, r31
 9e6:	08 c0       	rjmp	.+16     	; 0x9f8 <vfprintf+0x10c>
 9e8:	8c 36       	cpi	r24, 0x6C	; 108
 9ea:	21 f4       	brne	.+8      	; 0x9f4 <vfprintf+0x108>
 9ec:	83 2d       	mov	r24, r3
 9ee:	80 68       	ori	r24, 0x80	; 128
 9f0:	38 2e       	mov	r3, r24
 9f2:	02 c0       	rjmp	.+4      	; 0x9f8 <vfprintf+0x10c>
 9f4:	88 36       	cpi	r24, 0x68	; 104
 9f6:	41 f4       	brne	.+16     	; 0xa08 <vfprintf+0x11c>
 9f8:	f7 01       	movw	r30, r14
 9fa:	93 fd       	sbrc	r25, 3
 9fc:	85 91       	lpm	r24, Z+
 9fe:	93 ff       	sbrs	r25, 3
 a00:	81 91       	ld	r24, Z+
 a02:	7f 01       	movw	r14, r30
 a04:	81 11       	cpse	r24, r1
 a06:	b3 cf       	rjmp	.-154    	; 0x96e <vfprintf+0x82>
 a08:	98 2f       	mov	r25, r24
 a0a:	9f 7d       	andi	r25, 0xDF	; 223
 a0c:	95 54       	subi	r25, 0x45	; 69
 a0e:	93 30       	cpi	r25, 0x03	; 3
 a10:	28 f4       	brcc	.+10     	; 0xa1c <vfprintf+0x130>
 a12:	0c 5f       	subi	r16, 0xFC	; 252
 a14:	1f 4f       	sbci	r17, 0xFF	; 255
 a16:	9f e3       	ldi	r25, 0x3F	; 63
 a18:	99 83       	std	Y+1, r25	; 0x01
 a1a:	0d c0       	rjmp	.+26     	; 0xa36 <vfprintf+0x14a>
 a1c:	83 36       	cpi	r24, 0x63	; 99
 a1e:	31 f0       	breq	.+12     	; 0xa2c <vfprintf+0x140>
 a20:	83 37       	cpi	r24, 0x73	; 115
 a22:	71 f0       	breq	.+28     	; 0xa40 <vfprintf+0x154>
 a24:	83 35       	cpi	r24, 0x53	; 83
 a26:	09 f0       	breq	.+2      	; 0xa2a <vfprintf+0x13e>
 a28:	55 c0       	rjmp	.+170    	; 0xad4 <vfprintf+0x1e8>
 a2a:	20 c0       	rjmp	.+64     	; 0xa6c <vfprintf+0x180>
 a2c:	f8 01       	movw	r30, r16
 a2e:	80 81       	ld	r24, Z
 a30:	89 83       	std	Y+1, r24	; 0x01
 a32:	0e 5f       	subi	r16, 0xFE	; 254
 a34:	1f 4f       	sbci	r17, 0xFF	; 255
 a36:	88 24       	eor	r8, r8
 a38:	83 94       	inc	r8
 a3a:	91 2c       	mov	r9, r1
 a3c:	53 01       	movw	r10, r6
 a3e:	12 c0       	rjmp	.+36     	; 0xa64 <vfprintf+0x178>
 a40:	28 01       	movw	r4, r16
 a42:	f2 e0       	ldi	r31, 0x02	; 2
 a44:	4f 0e       	add	r4, r31
 a46:	51 1c       	adc	r5, r1
 a48:	f8 01       	movw	r30, r16
 a4a:	a0 80       	ld	r10, Z
 a4c:	b1 80       	ldd	r11, Z+1	; 0x01
 a4e:	36 fe       	sbrs	r3, 6
 a50:	03 c0       	rjmp	.+6      	; 0xa58 <vfprintf+0x16c>
 a52:	69 2d       	mov	r22, r9
 a54:	70 e0       	ldi	r23, 0x00	; 0
 a56:	02 c0       	rjmp	.+4      	; 0xa5c <vfprintf+0x170>
 a58:	6f ef       	ldi	r22, 0xFF	; 255
 a5a:	7f ef       	ldi	r23, 0xFF	; 255
 a5c:	c5 01       	movw	r24, r10
 a5e:	4e d1       	rcall	.+668    	; 0xcfc <strnlen>
 a60:	4c 01       	movw	r8, r24
 a62:	82 01       	movw	r16, r4
 a64:	f3 2d       	mov	r31, r3
 a66:	ff 77       	andi	r31, 0x7F	; 127
 a68:	3f 2e       	mov	r3, r31
 a6a:	15 c0       	rjmp	.+42     	; 0xa96 <vfprintf+0x1aa>
 a6c:	28 01       	movw	r4, r16
 a6e:	22 e0       	ldi	r18, 0x02	; 2
 a70:	42 0e       	add	r4, r18
 a72:	51 1c       	adc	r5, r1
 a74:	f8 01       	movw	r30, r16
 a76:	a0 80       	ld	r10, Z
 a78:	b1 80       	ldd	r11, Z+1	; 0x01
 a7a:	36 fe       	sbrs	r3, 6
 a7c:	03 c0       	rjmp	.+6      	; 0xa84 <vfprintf+0x198>
 a7e:	69 2d       	mov	r22, r9
 a80:	70 e0       	ldi	r23, 0x00	; 0
 a82:	02 c0       	rjmp	.+4      	; 0xa88 <vfprintf+0x19c>
 a84:	6f ef       	ldi	r22, 0xFF	; 255
 a86:	7f ef       	ldi	r23, 0xFF	; 255
 a88:	c5 01       	movw	r24, r10
 a8a:	2d d1       	rcall	.+602    	; 0xce6 <strnlen_P>
 a8c:	4c 01       	movw	r8, r24
 a8e:	f3 2d       	mov	r31, r3
 a90:	f0 68       	ori	r31, 0x80	; 128
 a92:	3f 2e       	mov	r3, r31
 a94:	82 01       	movw	r16, r4
 a96:	33 fc       	sbrc	r3, 3
 a98:	19 c0       	rjmp	.+50     	; 0xacc <vfprintf+0x1e0>
 a9a:	82 2d       	mov	r24, r2
 a9c:	90 e0       	ldi	r25, 0x00	; 0
 a9e:	88 16       	cp	r8, r24
 aa0:	99 06       	cpc	r9, r25
 aa2:	a0 f4       	brcc	.+40     	; 0xacc <vfprintf+0x1e0>
 aa4:	b6 01       	movw	r22, r12
 aa6:	80 e2       	ldi	r24, 0x20	; 32
 aa8:	90 e0       	ldi	r25, 0x00	; 0
 aaa:	33 d1       	rcall	.+614    	; 0xd12 <fputc>
 aac:	2a 94       	dec	r2
 aae:	f5 cf       	rjmp	.-22     	; 0xa9a <vfprintf+0x1ae>
 ab0:	f5 01       	movw	r30, r10
 ab2:	37 fc       	sbrc	r3, 7
 ab4:	85 91       	lpm	r24, Z+
 ab6:	37 fe       	sbrs	r3, 7
 ab8:	81 91       	ld	r24, Z+
 aba:	5f 01       	movw	r10, r30
 abc:	b6 01       	movw	r22, r12
 abe:	90 e0       	ldi	r25, 0x00	; 0
 ac0:	28 d1       	rcall	.+592    	; 0xd12 <fputc>
 ac2:	21 10       	cpse	r2, r1
 ac4:	2a 94       	dec	r2
 ac6:	21 e0       	ldi	r18, 0x01	; 1
 ac8:	82 1a       	sub	r8, r18
 aca:	91 08       	sbc	r9, r1
 acc:	81 14       	cp	r8, r1
 ace:	91 04       	cpc	r9, r1
 ad0:	79 f7       	brne	.-34     	; 0xab0 <vfprintf+0x1c4>
 ad2:	e1 c0       	rjmp	.+450    	; 0xc96 <vfprintf+0x3aa>
 ad4:	84 36       	cpi	r24, 0x64	; 100
 ad6:	11 f0       	breq	.+4      	; 0xadc <vfprintf+0x1f0>
 ad8:	89 36       	cpi	r24, 0x69	; 105
 ada:	39 f5       	brne	.+78     	; 0xb2a <vfprintf+0x23e>
 adc:	f8 01       	movw	r30, r16
 ade:	37 fe       	sbrs	r3, 7
 ae0:	07 c0       	rjmp	.+14     	; 0xaf0 <vfprintf+0x204>
 ae2:	60 81       	ld	r22, Z
 ae4:	71 81       	ldd	r23, Z+1	; 0x01
 ae6:	82 81       	ldd	r24, Z+2	; 0x02
 ae8:	93 81       	ldd	r25, Z+3	; 0x03
 aea:	0c 5f       	subi	r16, 0xFC	; 252
 aec:	1f 4f       	sbci	r17, 0xFF	; 255
 aee:	08 c0       	rjmp	.+16     	; 0xb00 <vfprintf+0x214>
 af0:	60 81       	ld	r22, Z
 af2:	71 81       	ldd	r23, Z+1	; 0x01
 af4:	07 2e       	mov	r0, r23
 af6:	00 0c       	add	r0, r0
 af8:	88 0b       	sbc	r24, r24
 afa:	99 0b       	sbc	r25, r25
 afc:	0e 5f       	subi	r16, 0xFE	; 254
 afe:	1f 4f       	sbci	r17, 0xFF	; 255
 b00:	f3 2d       	mov	r31, r3
 b02:	ff 76       	andi	r31, 0x6F	; 111
 b04:	3f 2e       	mov	r3, r31
 b06:	97 ff       	sbrs	r25, 7
 b08:	09 c0       	rjmp	.+18     	; 0xb1c <vfprintf+0x230>
 b0a:	90 95       	com	r25
 b0c:	80 95       	com	r24
 b0e:	70 95       	com	r23
 b10:	61 95       	neg	r22
 b12:	7f 4f       	sbci	r23, 0xFF	; 255
 b14:	8f 4f       	sbci	r24, 0xFF	; 255
 b16:	9f 4f       	sbci	r25, 0xFF	; 255
 b18:	f0 68       	ori	r31, 0x80	; 128
 b1a:	3f 2e       	mov	r3, r31
 b1c:	2a e0       	ldi	r18, 0x0A	; 10
 b1e:	30 e0       	ldi	r19, 0x00	; 0
 b20:	a3 01       	movw	r20, r6
 b22:	33 d1       	rcall	.+614    	; 0xd8a <__ultoa_invert>
 b24:	88 2e       	mov	r8, r24
 b26:	86 18       	sub	r8, r6
 b28:	44 c0       	rjmp	.+136    	; 0xbb2 <vfprintf+0x2c6>
 b2a:	85 37       	cpi	r24, 0x75	; 117
 b2c:	31 f4       	brne	.+12     	; 0xb3a <vfprintf+0x24e>
 b2e:	23 2d       	mov	r18, r3
 b30:	2f 7e       	andi	r18, 0xEF	; 239
 b32:	b2 2e       	mov	r11, r18
 b34:	2a e0       	ldi	r18, 0x0A	; 10
 b36:	30 e0       	ldi	r19, 0x00	; 0
 b38:	25 c0       	rjmp	.+74     	; 0xb84 <vfprintf+0x298>
 b3a:	93 2d       	mov	r25, r3
 b3c:	99 7f       	andi	r25, 0xF9	; 249
 b3e:	b9 2e       	mov	r11, r25
 b40:	8f 36       	cpi	r24, 0x6F	; 111
 b42:	c1 f0       	breq	.+48     	; 0xb74 <vfprintf+0x288>
 b44:	18 f4       	brcc	.+6      	; 0xb4c <vfprintf+0x260>
 b46:	88 35       	cpi	r24, 0x58	; 88
 b48:	79 f0       	breq	.+30     	; 0xb68 <vfprintf+0x27c>
 b4a:	ae c0       	rjmp	.+348    	; 0xca8 <vfprintf+0x3bc>
 b4c:	80 37       	cpi	r24, 0x70	; 112
 b4e:	19 f0       	breq	.+6      	; 0xb56 <vfprintf+0x26a>
 b50:	88 37       	cpi	r24, 0x78	; 120
 b52:	21 f0       	breq	.+8      	; 0xb5c <vfprintf+0x270>
 b54:	a9 c0       	rjmp	.+338    	; 0xca8 <vfprintf+0x3bc>
 b56:	e9 2f       	mov	r30, r25
 b58:	e0 61       	ori	r30, 0x10	; 16
 b5a:	be 2e       	mov	r11, r30
 b5c:	b4 fe       	sbrs	r11, 4
 b5e:	0d c0       	rjmp	.+26     	; 0xb7a <vfprintf+0x28e>
 b60:	fb 2d       	mov	r31, r11
 b62:	f4 60       	ori	r31, 0x04	; 4
 b64:	bf 2e       	mov	r11, r31
 b66:	09 c0       	rjmp	.+18     	; 0xb7a <vfprintf+0x28e>
 b68:	34 fe       	sbrs	r3, 4
 b6a:	0a c0       	rjmp	.+20     	; 0xb80 <vfprintf+0x294>
 b6c:	29 2f       	mov	r18, r25
 b6e:	26 60       	ori	r18, 0x06	; 6
 b70:	b2 2e       	mov	r11, r18
 b72:	06 c0       	rjmp	.+12     	; 0xb80 <vfprintf+0x294>
 b74:	28 e0       	ldi	r18, 0x08	; 8
 b76:	30 e0       	ldi	r19, 0x00	; 0
 b78:	05 c0       	rjmp	.+10     	; 0xb84 <vfprintf+0x298>
 b7a:	20 e1       	ldi	r18, 0x10	; 16
 b7c:	30 e0       	ldi	r19, 0x00	; 0
 b7e:	02 c0       	rjmp	.+4      	; 0xb84 <vfprintf+0x298>
 b80:	20 e1       	ldi	r18, 0x10	; 16
 b82:	32 e0       	ldi	r19, 0x02	; 2
 b84:	f8 01       	movw	r30, r16
 b86:	b7 fe       	sbrs	r11, 7
 b88:	07 c0       	rjmp	.+14     	; 0xb98 <vfprintf+0x2ac>
 b8a:	60 81       	ld	r22, Z
 b8c:	71 81       	ldd	r23, Z+1	; 0x01
 b8e:	82 81       	ldd	r24, Z+2	; 0x02
 b90:	93 81       	ldd	r25, Z+3	; 0x03
 b92:	0c 5f       	subi	r16, 0xFC	; 252
 b94:	1f 4f       	sbci	r17, 0xFF	; 255
 b96:	06 c0       	rjmp	.+12     	; 0xba4 <vfprintf+0x2b8>
 b98:	60 81       	ld	r22, Z
 b9a:	71 81       	ldd	r23, Z+1	; 0x01
 b9c:	80 e0       	ldi	r24, 0x00	; 0
 b9e:	90 e0       	ldi	r25, 0x00	; 0
 ba0:	0e 5f       	subi	r16, 0xFE	; 254
 ba2:	1f 4f       	sbci	r17, 0xFF	; 255
 ba4:	a3 01       	movw	r20, r6
 ba6:	f1 d0       	rcall	.+482    	; 0xd8a <__ultoa_invert>
 ba8:	88 2e       	mov	r8, r24
 baa:	86 18       	sub	r8, r6
 bac:	fb 2d       	mov	r31, r11
 bae:	ff 77       	andi	r31, 0x7F	; 127
 bb0:	3f 2e       	mov	r3, r31
 bb2:	36 fe       	sbrs	r3, 6
 bb4:	0d c0       	rjmp	.+26     	; 0xbd0 <vfprintf+0x2e4>
 bb6:	23 2d       	mov	r18, r3
 bb8:	2e 7f       	andi	r18, 0xFE	; 254
 bba:	a2 2e       	mov	r10, r18
 bbc:	89 14       	cp	r8, r9
 bbe:	58 f4       	brcc	.+22     	; 0xbd6 <vfprintf+0x2ea>
 bc0:	34 fe       	sbrs	r3, 4
 bc2:	0b c0       	rjmp	.+22     	; 0xbda <vfprintf+0x2ee>
 bc4:	32 fc       	sbrc	r3, 2
 bc6:	09 c0       	rjmp	.+18     	; 0xbda <vfprintf+0x2ee>
 bc8:	83 2d       	mov	r24, r3
 bca:	8e 7e       	andi	r24, 0xEE	; 238
 bcc:	a8 2e       	mov	r10, r24
 bce:	05 c0       	rjmp	.+10     	; 0xbda <vfprintf+0x2ee>
 bd0:	b8 2c       	mov	r11, r8
 bd2:	a3 2c       	mov	r10, r3
 bd4:	03 c0       	rjmp	.+6      	; 0xbdc <vfprintf+0x2f0>
 bd6:	b8 2c       	mov	r11, r8
 bd8:	01 c0       	rjmp	.+2      	; 0xbdc <vfprintf+0x2f0>
 bda:	b9 2c       	mov	r11, r9
 bdc:	a4 fe       	sbrs	r10, 4
 bde:	0f c0       	rjmp	.+30     	; 0xbfe <vfprintf+0x312>
 be0:	fe 01       	movw	r30, r28
 be2:	e8 0d       	add	r30, r8
 be4:	f1 1d       	adc	r31, r1
 be6:	80 81       	ld	r24, Z
 be8:	80 33       	cpi	r24, 0x30	; 48
 bea:	21 f4       	brne	.+8      	; 0xbf4 <vfprintf+0x308>
 bec:	9a 2d       	mov	r25, r10
 bee:	99 7e       	andi	r25, 0xE9	; 233
 bf0:	a9 2e       	mov	r10, r25
 bf2:	09 c0       	rjmp	.+18     	; 0xc06 <vfprintf+0x31a>
 bf4:	a2 fe       	sbrs	r10, 2
 bf6:	06 c0       	rjmp	.+12     	; 0xc04 <vfprintf+0x318>
 bf8:	b3 94       	inc	r11
 bfa:	b3 94       	inc	r11
 bfc:	04 c0       	rjmp	.+8      	; 0xc06 <vfprintf+0x31a>
 bfe:	8a 2d       	mov	r24, r10
 c00:	86 78       	andi	r24, 0x86	; 134
 c02:	09 f0       	breq	.+2      	; 0xc06 <vfprintf+0x31a>
 c04:	b3 94       	inc	r11
 c06:	a3 fc       	sbrc	r10, 3
 c08:	10 c0       	rjmp	.+32     	; 0xc2a <vfprintf+0x33e>
 c0a:	a0 fe       	sbrs	r10, 0
 c0c:	06 c0       	rjmp	.+12     	; 0xc1a <vfprintf+0x32e>
 c0e:	b2 14       	cp	r11, r2
 c10:	80 f4       	brcc	.+32     	; 0xc32 <vfprintf+0x346>
 c12:	28 0c       	add	r2, r8
 c14:	92 2c       	mov	r9, r2
 c16:	9b 18       	sub	r9, r11
 c18:	0d c0       	rjmp	.+26     	; 0xc34 <vfprintf+0x348>
 c1a:	b2 14       	cp	r11, r2
 c1c:	58 f4       	brcc	.+22     	; 0xc34 <vfprintf+0x348>
 c1e:	b6 01       	movw	r22, r12
 c20:	80 e2       	ldi	r24, 0x20	; 32
 c22:	90 e0       	ldi	r25, 0x00	; 0
 c24:	76 d0       	rcall	.+236    	; 0xd12 <fputc>
 c26:	b3 94       	inc	r11
 c28:	f8 cf       	rjmp	.-16     	; 0xc1a <vfprintf+0x32e>
 c2a:	b2 14       	cp	r11, r2
 c2c:	18 f4       	brcc	.+6      	; 0xc34 <vfprintf+0x348>
 c2e:	2b 18       	sub	r2, r11
 c30:	02 c0       	rjmp	.+4      	; 0xc36 <vfprintf+0x34a>
 c32:	98 2c       	mov	r9, r8
 c34:	21 2c       	mov	r2, r1
 c36:	a4 fe       	sbrs	r10, 4
 c38:	0f c0       	rjmp	.+30     	; 0xc58 <vfprintf+0x36c>
 c3a:	b6 01       	movw	r22, r12
 c3c:	80 e3       	ldi	r24, 0x30	; 48
 c3e:	90 e0       	ldi	r25, 0x00	; 0
 c40:	68 d0       	rcall	.+208    	; 0xd12 <fputc>
 c42:	a2 fe       	sbrs	r10, 2
 c44:	16 c0       	rjmp	.+44     	; 0xc72 <vfprintf+0x386>
 c46:	a1 fc       	sbrc	r10, 1
 c48:	03 c0       	rjmp	.+6      	; 0xc50 <vfprintf+0x364>
 c4a:	88 e7       	ldi	r24, 0x78	; 120
 c4c:	90 e0       	ldi	r25, 0x00	; 0
 c4e:	02 c0       	rjmp	.+4      	; 0xc54 <vfprintf+0x368>
 c50:	88 e5       	ldi	r24, 0x58	; 88
 c52:	90 e0       	ldi	r25, 0x00	; 0
 c54:	b6 01       	movw	r22, r12
 c56:	0c c0       	rjmp	.+24     	; 0xc70 <vfprintf+0x384>
 c58:	8a 2d       	mov	r24, r10
 c5a:	86 78       	andi	r24, 0x86	; 134
 c5c:	51 f0       	breq	.+20     	; 0xc72 <vfprintf+0x386>
 c5e:	a1 fe       	sbrs	r10, 1
 c60:	02 c0       	rjmp	.+4      	; 0xc66 <vfprintf+0x37a>
 c62:	8b e2       	ldi	r24, 0x2B	; 43
 c64:	01 c0       	rjmp	.+2      	; 0xc68 <vfprintf+0x37c>
 c66:	80 e2       	ldi	r24, 0x20	; 32
 c68:	a7 fc       	sbrc	r10, 7
 c6a:	8d e2       	ldi	r24, 0x2D	; 45
 c6c:	b6 01       	movw	r22, r12
 c6e:	90 e0       	ldi	r25, 0x00	; 0
 c70:	50 d0       	rcall	.+160    	; 0xd12 <fputc>
 c72:	89 14       	cp	r8, r9
 c74:	30 f4       	brcc	.+12     	; 0xc82 <vfprintf+0x396>
 c76:	b6 01       	movw	r22, r12
 c78:	80 e3       	ldi	r24, 0x30	; 48
 c7a:	90 e0       	ldi	r25, 0x00	; 0
 c7c:	4a d0       	rcall	.+148    	; 0xd12 <fputc>
 c7e:	9a 94       	dec	r9
 c80:	f8 cf       	rjmp	.-16     	; 0xc72 <vfprintf+0x386>
 c82:	8a 94       	dec	r8
 c84:	f3 01       	movw	r30, r6
 c86:	e8 0d       	add	r30, r8
 c88:	f1 1d       	adc	r31, r1
 c8a:	80 81       	ld	r24, Z
 c8c:	b6 01       	movw	r22, r12
 c8e:	90 e0       	ldi	r25, 0x00	; 0
 c90:	40 d0       	rcall	.+128    	; 0xd12 <fputc>
 c92:	81 10       	cpse	r8, r1
 c94:	f6 cf       	rjmp	.-20     	; 0xc82 <vfprintf+0x396>
 c96:	22 20       	and	r2, r2
 c98:	09 f4       	brne	.+2      	; 0xc9c <vfprintf+0x3b0>
 c9a:	4e ce       	rjmp	.-868    	; 0x938 <vfprintf+0x4c>
 c9c:	b6 01       	movw	r22, r12
 c9e:	80 e2       	ldi	r24, 0x20	; 32
 ca0:	90 e0       	ldi	r25, 0x00	; 0
 ca2:	37 d0       	rcall	.+110    	; 0xd12 <fputc>
 ca4:	2a 94       	dec	r2
 ca6:	f7 cf       	rjmp	.-18     	; 0xc96 <vfprintf+0x3aa>
 ca8:	f6 01       	movw	r30, r12
 caa:	86 81       	ldd	r24, Z+6	; 0x06
 cac:	97 81       	ldd	r25, Z+7	; 0x07
 cae:	02 c0       	rjmp	.+4      	; 0xcb4 <vfprintf+0x3c8>
 cb0:	8f ef       	ldi	r24, 0xFF	; 255
 cb2:	9f ef       	ldi	r25, 0xFF	; 255
 cb4:	2b 96       	adiw	r28, 0x0b	; 11
 cb6:	0f b6       	in	r0, 0x3f	; 63
 cb8:	f8 94       	cli
 cba:	de bf       	out	0x3e, r29	; 62
 cbc:	0f be       	out	0x3f, r0	; 63
 cbe:	cd bf       	out	0x3d, r28	; 61
 cc0:	df 91       	pop	r29
 cc2:	cf 91       	pop	r28
 cc4:	1f 91       	pop	r17
 cc6:	0f 91       	pop	r16
 cc8:	ff 90       	pop	r15
 cca:	ef 90       	pop	r14
 ccc:	df 90       	pop	r13
 cce:	cf 90       	pop	r12
 cd0:	bf 90       	pop	r11
 cd2:	af 90       	pop	r10
 cd4:	9f 90       	pop	r9
 cd6:	8f 90       	pop	r8
 cd8:	7f 90       	pop	r7
 cda:	6f 90       	pop	r6
 cdc:	5f 90       	pop	r5
 cde:	4f 90       	pop	r4
 ce0:	3f 90       	pop	r3
 ce2:	2f 90       	pop	r2
 ce4:	08 95       	ret

00000ce6 <strnlen_P>:
 ce6:	fc 01       	movw	r30, r24
 ce8:	05 90       	lpm	r0, Z+
 cea:	61 50       	subi	r22, 0x01	; 1
 cec:	70 40       	sbci	r23, 0x00	; 0
 cee:	01 10       	cpse	r0, r1
 cf0:	d8 f7       	brcc	.-10     	; 0xce8 <strnlen_P+0x2>
 cf2:	80 95       	com	r24
 cf4:	90 95       	com	r25
 cf6:	8e 0f       	add	r24, r30
 cf8:	9f 1f       	adc	r25, r31
 cfa:	08 95       	ret

00000cfc <strnlen>:
 cfc:	fc 01       	movw	r30, r24
 cfe:	61 50       	subi	r22, 0x01	; 1
 d00:	70 40       	sbci	r23, 0x00	; 0
 d02:	01 90       	ld	r0, Z+
 d04:	01 10       	cpse	r0, r1
 d06:	d8 f7       	brcc	.-10     	; 0xcfe <strnlen+0x2>
 d08:	80 95       	com	r24
 d0a:	90 95       	com	r25
 d0c:	8e 0f       	add	r24, r30
 d0e:	9f 1f       	adc	r25, r31
 d10:	08 95       	ret

00000d12 <fputc>:
 d12:	0f 93       	push	r16
 d14:	1f 93       	push	r17
 d16:	cf 93       	push	r28
 d18:	df 93       	push	r29
 d1a:	fb 01       	movw	r30, r22
 d1c:	23 81       	ldd	r18, Z+3	; 0x03
 d1e:	21 fd       	sbrc	r18, 1
 d20:	03 c0       	rjmp	.+6      	; 0xd28 <fputc+0x16>
 d22:	8f ef       	ldi	r24, 0xFF	; 255
 d24:	9f ef       	ldi	r25, 0xFF	; 255
 d26:	2c c0       	rjmp	.+88     	; 0xd80 <fputc+0x6e>
 d28:	22 ff       	sbrs	r18, 2
 d2a:	16 c0       	rjmp	.+44     	; 0xd58 <fputc+0x46>
 d2c:	46 81       	ldd	r20, Z+6	; 0x06
 d2e:	57 81       	ldd	r21, Z+7	; 0x07
 d30:	24 81       	ldd	r18, Z+4	; 0x04
 d32:	35 81       	ldd	r19, Z+5	; 0x05
 d34:	42 17       	cp	r20, r18
 d36:	53 07       	cpc	r21, r19
 d38:	44 f4       	brge	.+16     	; 0xd4a <fputc+0x38>
 d3a:	a0 81       	ld	r26, Z
 d3c:	b1 81       	ldd	r27, Z+1	; 0x01
 d3e:	9d 01       	movw	r18, r26
 d40:	2f 5f       	subi	r18, 0xFF	; 255
 d42:	3f 4f       	sbci	r19, 0xFF	; 255
 d44:	31 83       	std	Z+1, r19	; 0x01
 d46:	20 83       	st	Z, r18
 d48:	8c 93       	st	X, r24
 d4a:	26 81       	ldd	r18, Z+6	; 0x06
 d4c:	37 81       	ldd	r19, Z+7	; 0x07
 d4e:	2f 5f       	subi	r18, 0xFF	; 255
 d50:	3f 4f       	sbci	r19, 0xFF	; 255
 d52:	37 83       	std	Z+7, r19	; 0x07
 d54:	26 83       	std	Z+6, r18	; 0x06
 d56:	14 c0       	rjmp	.+40     	; 0xd80 <fputc+0x6e>
 d58:	8b 01       	movw	r16, r22
 d5a:	ec 01       	movw	r28, r24
 d5c:	fb 01       	movw	r30, r22
 d5e:	00 84       	ldd	r0, Z+8	; 0x08
 d60:	f1 85       	ldd	r31, Z+9	; 0x09
 d62:	e0 2d       	mov	r30, r0
 d64:	19 95       	eicall
 d66:	89 2b       	or	r24, r25
 d68:	e1 f6       	brne	.-72     	; 0xd22 <fputc+0x10>
 d6a:	d8 01       	movw	r26, r16
 d6c:	16 96       	adiw	r26, 0x06	; 6
 d6e:	8d 91       	ld	r24, X+
 d70:	9c 91       	ld	r25, X
 d72:	17 97       	sbiw	r26, 0x07	; 7
 d74:	01 96       	adiw	r24, 0x01	; 1
 d76:	17 96       	adiw	r26, 0x07	; 7
 d78:	9c 93       	st	X, r25
 d7a:	8e 93       	st	-X, r24
 d7c:	16 97       	sbiw	r26, 0x06	; 6
 d7e:	ce 01       	movw	r24, r28
 d80:	df 91       	pop	r29
 d82:	cf 91       	pop	r28
 d84:	1f 91       	pop	r17
 d86:	0f 91       	pop	r16
 d88:	08 95       	ret

00000d8a <__ultoa_invert>:
 d8a:	fa 01       	movw	r30, r20
 d8c:	aa 27       	eor	r26, r26
 d8e:	28 30       	cpi	r18, 0x08	; 8
 d90:	51 f1       	breq	.+84     	; 0xde6 <__ultoa_invert+0x5c>
 d92:	20 31       	cpi	r18, 0x10	; 16
 d94:	81 f1       	breq	.+96     	; 0xdf6 <__ultoa_invert+0x6c>
 d96:	e8 94       	clt
 d98:	6f 93       	push	r22
 d9a:	6e 7f       	andi	r22, 0xFE	; 254
 d9c:	6e 5f       	subi	r22, 0xFE	; 254
 d9e:	7f 4f       	sbci	r23, 0xFF	; 255
 da0:	8f 4f       	sbci	r24, 0xFF	; 255
 da2:	9f 4f       	sbci	r25, 0xFF	; 255
 da4:	af 4f       	sbci	r26, 0xFF	; 255
 da6:	b1 e0       	ldi	r27, 0x01	; 1
 da8:	3e d0       	rcall	.+124    	; 0xe26 <__ultoa_invert+0x9c>
 daa:	b4 e0       	ldi	r27, 0x04	; 4
 dac:	3c d0       	rcall	.+120    	; 0xe26 <__ultoa_invert+0x9c>
 dae:	67 0f       	add	r22, r23
 db0:	78 1f       	adc	r23, r24
 db2:	89 1f       	adc	r24, r25
 db4:	9a 1f       	adc	r25, r26
 db6:	a1 1d       	adc	r26, r1
 db8:	68 0f       	add	r22, r24
 dba:	79 1f       	adc	r23, r25
 dbc:	8a 1f       	adc	r24, r26
 dbe:	91 1d       	adc	r25, r1
 dc0:	a1 1d       	adc	r26, r1
 dc2:	6a 0f       	add	r22, r26
 dc4:	71 1d       	adc	r23, r1
 dc6:	81 1d       	adc	r24, r1
 dc8:	91 1d       	adc	r25, r1
 dca:	a1 1d       	adc	r26, r1
 dcc:	20 d0       	rcall	.+64     	; 0xe0e <__ultoa_invert+0x84>
 dce:	09 f4       	brne	.+2      	; 0xdd2 <__ultoa_invert+0x48>
 dd0:	68 94       	set
 dd2:	3f 91       	pop	r19
 dd4:	2a e0       	ldi	r18, 0x0A	; 10
 dd6:	26 9f       	mul	r18, r22
 dd8:	11 24       	eor	r1, r1
 dda:	30 19       	sub	r19, r0
 ddc:	30 5d       	subi	r19, 0xD0	; 208
 dde:	31 93       	st	Z+, r19
 de0:	de f6       	brtc	.-74     	; 0xd98 <__ultoa_invert+0xe>
 de2:	cf 01       	movw	r24, r30
 de4:	08 95       	ret
 de6:	46 2f       	mov	r20, r22
 de8:	47 70       	andi	r20, 0x07	; 7
 dea:	40 5d       	subi	r20, 0xD0	; 208
 dec:	41 93       	st	Z+, r20
 dee:	b3 e0       	ldi	r27, 0x03	; 3
 df0:	0f d0       	rcall	.+30     	; 0xe10 <__ultoa_invert+0x86>
 df2:	c9 f7       	brne	.-14     	; 0xde6 <__ultoa_invert+0x5c>
 df4:	f6 cf       	rjmp	.-20     	; 0xde2 <__ultoa_invert+0x58>
 df6:	46 2f       	mov	r20, r22
 df8:	4f 70       	andi	r20, 0x0F	; 15
 dfa:	40 5d       	subi	r20, 0xD0	; 208
 dfc:	4a 33       	cpi	r20, 0x3A	; 58
 dfe:	18 f0       	brcs	.+6      	; 0xe06 <__ultoa_invert+0x7c>
 e00:	49 5d       	subi	r20, 0xD9	; 217
 e02:	31 fd       	sbrc	r19, 1
 e04:	40 52       	subi	r20, 0x20	; 32
 e06:	41 93       	st	Z+, r20
 e08:	02 d0       	rcall	.+4      	; 0xe0e <__ultoa_invert+0x84>
 e0a:	a9 f7       	brne	.-22     	; 0xdf6 <__ultoa_invert+0x6c>
 e0c:	ea cf       	rjmp	.-44     	; 0xde2 <__ultoa_invert+0x58>
 e0e:	b4 e0       	ldi	r27, 0x04	; 4
 e10:	a6 95       	lsr	r26
 e12:	97 95       	ror	r25
 e14:	87 95       	ror	r24
 e16:	77 95       	ror	r23
 e18:	67 95       	ror	r22
 e1a:	ba 95       	dec	r27
 e1c:	c9 f7       	brne	.-14     	; 0xe10 <__ultoa_invert+0x86>
 e1e:	00 97       	sbiw	r24, 0x00	; 0
 e20:	61 05       	cpc	r22, r1
 e22:	71 05       	cpc	r23, r1
 e24:	08 95       	ret
 e26:	9b 01       	movw	r18, r22
 e28:	ac 01       	movw	r20, r24
 e2a:	0a 2e       	mov	r0, r26
 e2c:	06 94       	lsr	r0
 e2e:	57 95       	ror	r21
 e30:	47 95       	ror	r20
 e32:	37 95       	ror	r19
 e34:	27 95       	ror	r18
 e36:	ba 95       	dec	r27
 e38:	c9 f7       	brne	.-14     	; 0xe2c <__ultoa_invert+0xa2>
 e3a:	62 0f       	add	r22, r18
 e3c:	73 1f       	adc	r23, r19
 e3e:	84 1f       	adc	r24, r20
 e40:	95 1f       	adc	r25, r21
 e42:	a0 1d       	adc	r26, r0
 e44:	08 95       	ret

00000e46 <_exit>:
 e46:	f8 94       	cli

00000e48 <__stop_program>:
 e48:	ff cf       	rjmp	.-2      	; 0xe48 <__stop_program>
