
uCBoardBeispiele.elf:     file format elf32-avr

Sections:
Idx Name          Size      VMA       LMA       File off  Algn
  0 .data         00000074  00800200  00000e06  00000e9a  2**0
                  CONTENTS, ALLOC, LOAD, DATA
  1 .text         00000e06  00000000  00000000  00000094  2**1
                  CONTENTS, ALLOC, LOAD, READONLY, CODE
  2 .bss          0000007e  00800274  00800274  00000f0e  2**0
                  ALLOC
  3 .comment      0000005c  00000000  00000000  00000f0e  2**0
                  CONTENTS, READONLY
  4 .note.gnu.avr.deviceinfo 00000040  00000000  00000000  00000f6c  2**2
                  CONTENTS, READONLY
  5 .debug_aranges 000001e0  00000000  00000000  00000fac  2**0
                  CONTENTS, READONLY, DEBUGGING
  6 .debug_info   000024a0  00000000  00000000  0000118c  2**0
                  CONTENTS, READONLY, DEBUGGING
  7 .debug_abbrev 00000f92  00000000  00000000  0000362c  2**0
                  CONTENTS, READONLY, DEBUGGING
  8 .debug_line   00001440  00000000  00000000  000045be  2**0
                  CONTENTS, READONLY, DEBUGGING
  9 .debug_frame  00000668  00000000  00000000  00005a00  2**2
                  CONTENTS, READONLY, DEBUGGING
 10 .debug_str    00000c8f  00000000  00000000  00006068  2**0
                  CONTENTS, READONLY, DEBUGGING
 11 .debug_loc    00001be3  00000000  00000000  00006cf7  2**0
                  CONTENTS, READONLY, DEBUGGING
 12 .debug_ranges 00000210  00000000  00000000  000088da  2**0
                  CONTENTS, READONLY, DEBUGGING

Disassembly of section .text:

00000000 <__vectors>:
   0:	71 c0       	rjmp	.+226    	; 0xe4 <__ctors_end>
   2:	00 00       	nop
   4:	8e c0       	rjmp	.+284    	; 0x122 <__bad_interrupt>
   6:	00 00       	nop
   8:	8c c0       	rjmp	.+280    	; 0x122 <__bad_interrupt>
   a:	00 00       	nop
   c:	8a c0       	rjmp	.+276    	; 0x122 <__bad_interrupt>
   e:	00 00       	nop
  10:	88 c0       	rjmp	.+272    	; 0x122 <__bad_interrupt>
  12:	00 00       	nop
  14:	86 c0       	rjmp	.+268    	; 0x122 <__bad_interrupt>
  16:	00 00       	nop
  18:	84 c0       	rjmp	.+264    	; 0x122 <__bad_interrupt>
  1a:	00 00       	nop
  1c:	82 c0       	rjmp	.+260    	; 0x122 <__bad_interrupt>
  1e:	00 00       	nop
  20:	80 c0       	rjmp	.+256    	; 0x122 <__bad_interrupt>
  22:	00 00       	nop
  24:	7e c0       	rjmp	.+252    	; 0x122 <__bad_interrupt>
  26:	00 00       	nop
  28:	7c c0       	rjmp	.+248    	; 0x122 <__bad_interrupt>
  2a:	00 00       	nop
  2c:	7a c0       	rjmp	.+244    	; 0x122 <__bad_interrupt>
  2e:	00 00       	nop
  30:	78 c0       	rjmp	.+240    	; 0x122 <__bad_interrupt>
  32:	00 00       	nop
  34:	76 c0       	rjmp	.+236    	; 0x122 <__bad_interrupt>
  36:	00 00       	nop
  38:	74 c0       	rjmp	.+232    	; 0x122 <__bad_interrupt>
  3a:	00 00       	nop
  3c:	72 c0       	rjmp	.+228    	; 0x122 <__bad_interrupt>
  3e:	00 00       	nop
  40:	70 c0       	rjmp	.+224    	; 0x122 <__bad_interrupt>
  42:	00 00       	nop
  44:	6e c0       	rjmp	.+220    	; 0x122 <__bad_interrupt>
  46:	00 00       	nop
  48:	6c c0       	rjmp	.+216    	; 0x122 <__bad_interrupt>
  4a:	00 00       	nop
  4c:	6a c0       	rjmp	.+212    	; 0x122 <__bad_interrupt>
  4e:	00 00       	nop
  50:	68 c0       	rjmp	.+208    	; 0x122 <__bad_interrupt>
  52:	00 00       	nop
  54:	66 c0       	rjmp	.+204    	; 0x122 <__bad_interrupt>
  56:	00 00       	nop
  58:	64 c0       	rjmp	.+200    	; 0x122 <__bad_interrupt>
  5a:	00 00       	nop
  5c:	95 c3       	rjmp	.+1834   	; 0x788 <__vector_23>
  5e:	00 00       	nop
  60:	60 c0       	rjmp	.+192    	; 0x122 <__bad_interrupt>
  62:	00 00       	nop
  64:	5e c0       	rjmp	.+188    	; 0x122 <__bad_interrupt>
  66:	00 00       	nop
  68:	5c c0       	rjmp	.+184    	; 0x122 <__bad_interrupt>
  6a:	00 00       	nop
  6c:	5a c0       	rjmp	.+180    	; 0x122 <__bad_interrupt>
  6e:	00 00       	nop
  70:	58 c0       	rjmp	.+176    	; 0x122 <__bad_interrupt>
  72:	00 00       	nop
  74:	56 c0       	rjmp	.+172    	; 0x122 <__bad_interrupt>
  76:	00 00       	nop
  78:	54 c0       	rjmp	.+168    	; 0x122 <__bad_interrupt>
  7a:	00 00       	nop
  7c:	52 c0       	rjmp	.+164    	; 0x122 <__bad_interrupt>
  7e:	00 00       	nop
  80:	50 c0       	rjmp	.+160    	; 0x122 <__bad_interrupt>
  82:	00 00       	nop
  84:	4e c0       	rjmp	.+156    	; 0x122 <__bad_interrupt>
  86:	00 00       	nop
  88:	4c c0       	rjmp	.+152    	; 0x122 <__bad_interrupt>
  8a:	00 00       	nop
  8c:	4a c0       	rjmp	.+148    	; 0x122 <__bad_interrupt>
  8e:	00 00       	nop
  90:	48 c0       	rjmp	.+144    	; 0x122 <__bad_interrupt>
  92:	00 00       	nop
  94:	46 c0       	rjmp	.+140    	; 0x122 <__bad_interrupt>
  96:	00 00       	nop
  98:	44 c0       	rjmp	.+136    	; 0x122 <__bad_interrupt>
  9a:	00 00       	nop
  9c:	42 c0       	rjmp	.+132    	; 0x122 <__bad_interrupt>
  9e:	00 00       	nop
  a0:	40 c0       	rjmp	.+128    	; 0x122 <__bad_interrupt>
  a2:	00 00       	nop
  a4:	3e c0       	rjmp	.+124    	; 0x122 <__bad_interrupt>
  a6:	00 00       	nop
  a8:	3c c0       	rjmp	.+120    	; 0x122 <__bad_interrupt>
  aa:	00 00       	nop
  ac:	3a c0       	rjmp	.+116    	; 0x122 <__bad_interrupt>
  ae:	00 00       	nop
  b0:	38 c0       	rjmp	.+112    	; 0x122 <__bad_interrupt>
  b2:	00 00       	nop
  b4:	36 c0       	rjmp	.+108    	; 0x122 <__bad_interrupt>
  b6:	00 00       	nop
  b8:	34 c0       	rjmp	.+104    	; 0x122 <__bad_interrupt>
  ba:	00 00       	nop
  bc:	32 c0       	rjmp	.+100    	; 0x122 <__bad_interrupt>
  be:	00 00       	nop
  c0:	30 c0       	rjmp	.+96     	; 0x122 <__bad_interrupt>
  c2:	00 00       	nop
  c4:	2e c0       	rjmp	.+92     	; 0x122 <__bad_interrupt>
  c6:	00 00       	nop
  c8:	2c c0       	rjmp	.+88     	; 0x122 <__bad_interrupt>
  ca:	00 00       	nop
  cc:	2a c0       	rjmp	.+84     	; 0x122 <__bad_interrupt>
  ce:	00 00       	nop
  d0:	28 c0       	rjmp	.+80     	; 0x122 <__bad_interrupt>
  d2:	00 00       	nop
  d4:	26 c0       	rjmp	.+76     	; 0x122 <__bad_interrupt>
  d6:	00 00       	nop
  d8:	24 c0       	rjmp	.+72     	; 0x122 <__bad_interrupt>
  da:	00 00       	nop
  dc:	22 c0       	rjmp	.+68     	; 0x122 <__bad_interrupt>
  de:	00 00       	nop
  e0:	20 c0       	rjmp	.+64     	; 0x122 <__bad_interrupt>
	...

000000e4 <__ctors_end>:
  e4:	11 24       	eor	r1, r1
  e6:	1f be       	out	0x3f, r1	; 63
  e8:	cf ef       	ldi	r28, 0xFF	; 255
  ea:	d1 e2       	ldi	r29, 0x21	; 33
  ec:	de bf       	out	0x3e, r29	; 62
  ee:	cd bf       	out	0x3d, r28	; 61
  f0:	00 e0       	ldi	r16, 0x00	; 0
  f2:	0c bf       	out	0x3c, r16	; 60

000000f4 <__do_copy_data>:
  f4:	12 e0       	ldi	r17, 0x02	; 2
  f6:	a0 e0       	ldi	r26, 0x00	; 0
  f8:	b2 e0       	ldi	r27, 0x02	; 2
  fa:	e6 e0       	ldi	r30, 0x06	; 6
  fc:	fe e0       	ldi	r31, 0x0E	; 14
  fe:	00 e0       	ldi	r16, 0x00	; 0
 100:	0b bf       	out	0x3b, r16	; 59
 102:	02 c0       	rjmp	.+4      	; 0x108 <__do_copy_data+0x14>
 104:	07 90       	elpm	r0, Z+
 106:	0d 92       	st	X+, r0
 108:	a4 37       	cpi	r26, 0x74	; 116
 10a:	b1 07       	cpc	r27, r17
 10c:	d9 f7       	brne	.-10     	; 0x104 <__do_copy_data+0x10>

0000010e <__do_clear_bss>:
 10e:	22 e0       	ldi	r18, 0x02	; 2
 110:	a4 e7       	ldi	r26, 0x74	; 116
 112:	b2 e0       	ldi	r27, 0x02	; 2
 114:	01 c0       	rjmp	.+2      	; 0x118 <.do_clear_bss_start>

00000116 <.do_clear_bss_loop>:
 116:	1d 92       	st	X+, r1

00000118 <.do_clear_bss_start>:
 118:	a2 3f       	cpi	r26, 0xF2	; 242
 11a:	b2 07       	cpc	r27, r18
 11c:	e1 f7       	brne	.-8      	; 0x116 <.do_clear_bss_loop>
 11e:	02 d0       	rcall	.+4      	; 0x124 <main>
 120:	70 c6       	rjmp	.+3296   	; 0xe02 <_exit>

00000122 <__bad_interrupt>:
 122:	6e cf       	rjmp	.-292    	; 0x0 <__vectors>

00000124 <main>:
    uint16_t H4 = 0;
    uint16_t H5 = 0;
    uint16_t H6 = 0;
    
    //Initialisieren
    initBoard(1);
 124:	81 e0       	ldi	r24, 0x01	; 1
 126:	ad d1       	rcall	.+858    	; 0x482 <initBoard>
        {
            H0 =  OFF;
        }
        if (S6)
        {
            H1 =  OUT_MASKE_BELEUCHTUNG_WILDBACHSTR;
 128:	68 94       	set
 12a:	ee 24       	eor	r14, r14
 12c:	e1 f8       	bld	r14, 1
 12e:	f1 2c       	mov	r15, r1
        } 
        else
        {
             H1 = OFF;
 130:	00 e0       	ldi	r16, 0x00	; 0
 132:	10 e0       	ldi	r17, 0x00	; 0
       if (S7)
       {
           H1 =  OUT_MASKE_BELEUCHTUNG_WILDBACHSTR;
           H2 =  OUT_MASKE_BELEUCHTUNG_QUATIER_C;
           H3 =  OUT_MASKE_BELEUCHTUNG_QUATIER_D;
           H4 =  OUT_MASKE_BELEUCHTUNG_QUATIER_F;
 134:	68 94       	set
 136:	dd 24       	eor	r13, r13
 138:	d4 f8       	bld	r13, 4
 13a:	81 2c       	mov	r8, r1
        }
       if (S7)
       {
           H1 =  OUT_MASKE_BELEUCHTUNG_WILDBACHSTR;
           H2 =  OUT_MASKE_BELEUCHTUNG_QUATIER_C;
           H3 =  OUT_MASKE_BELEUCHTUNG_QUATIER_D;
 13c:	68 94       	set
 13e:	cc 24       	eor	r12, r12
 140:	c3 f8       	bld	r12, 3
 142:	71 2c       	mov	r7, r1
             H1 = OFF;
        }
       if (S7)
       {
           H1 =  OUT_MASKE_BELEUCHTUNG_WILDBACHSTR;
           H2 =  OUT_MASKE_BELEUCHTUNG_QUATIER_C;
 144:	68 94       	set
 146:	99 24       	eor	r9, r9
 148:	92 f8       	bld	r9, 2
    
    //Unendlichschlaufe
    while(1)
    {
        //Eingabe------------------------------------------------------------------
        schalter = switchReadAll();
 14a:	61 2c       	mov	r6, r1
 14c:	3f d0       	rcall	.+126    	; 0x1cc <switchReadAll>
        S5 = schalter & IN_MASKE_SENSOR_ZEUGHAUSSTR;
        S6 = schalter & IN_MASKE_SENSOR_WILDBACHSTR_NORD;
        S7 = schalter & IN_MASKE_SENSOR_WILDBACHSTR_SUED;
 14e:	98 2f       	mov	r25, r24
 150:	94 70       	andi	r25, 0x04	; 4
        
        //Verarbeitung-------------------------------------------------------------
        
        if (S5)
        {
            H0 = OUT_MASKE_BELEUCHTUNG_ZEUGHAUSSTR;
 152:	28 2f       	mov	r18, r24
 154:	21 70       	andi	r18, 0x01	; 1
 156:	c2 2f       	mov	r28, r18
 158:	20 e0       	ldi	r18, 0x00	; 0
 15a:	d2 2f       	mov	r29, r18
        } 
        else
        {
            H0 =  OFF;
        }
        if (S6)
 15c:	81 fd       	sbrc	r24, 1
 15e:	03 c0       	rjmp	.+6      	; 0x166 <main+0x42>
        {
            H1 =  OUT_MASKE_BELEUCHTUNG_WILDBACHSTR;
        } 
        else
        {
             H1 = OFF;
 160:	e0 2f       	mov	r30, r16
 162:	f1 2f       	mov	r31, r17
 164:	02 c0       	rjmp	.+4      	; 0x16a <main+0x46>
        {
            H0 =  OFF;
        }
        if (S6)
        {
            H1 =  OUT_MASKE_BELEUCHTUNG_WILDBACHSTR;
 166:	ee 2d       	mov	r30, r14
 168:	ff 2d       	mov	r31, r15
        } 
        else
        {
             H1 = OFF;
        }
       if (S7)
 16a:	91 11       	cpse	r25, r1
 16c:	07 c0       	rjmp	.+14     	; 0x17c <main+0x58>
       else
       {
           
           H2 = OFF;
           H3 = OFF;
           H4 = OFF;
 16e:	40 2f       	mov	r20, r16
 170:	51 2f       	mov	r21, r17
       } 
       else
       {
           
           H2 = OFF;
           H3 = OFF;
 172:	60 2f       	mov	r22, r16
 174:	71 2f       	mov	r23, r17
           
       } 
       else
       {
           
           H2 = OFF;
 176:	20 2f       	mov	r18, r16
 178:	31 2f       	mov	r19, r17
 17a:	08 c0       	rjmp	.+16     	; 0x18c <main+0x68>
       if (S7)
       {
           H1 =  OUT_MASKE_BELEUCHTUNG_WILDBACHSTR;
           H2 =  OUT_MASKE_BELEUCHTUNG_QUATIER_C;
           H3 =  OUT_MASKE_BELEUCHTUNG_QUATIER_D;
           H4 =  OUT_MASKE_BELEUCHTUNG_QUATIER_F;
 17c:	4d 2d       	mov	r20, r13
 17e:	58 2d       	mov	r21, r8
        }
       if (S7)
       {
           H1 =  OUT_MASKE_BELEUCHTUNG_WILDBACHSTR;
           H2 =  OUT_MASKE_BELEUCHTUNG_QUATIER_C;
           H3 =  OUT_MASKE_BELEUCHTUNG_QUATIER_D;
 180:	6c 2d       	mov	r22, r12
 182:	77 2d       	mov	r23, r7
             H1 = OFF;
        }
       if (S7)
       {
           H1 =  OUT_MASKE_BELEUCHTUNG_WILDBACHSTR;
           H2 =  OUT_MASKE_BELEUCHTUNG_QUATIER_C;
 184:	29 2d       	mov	r18, r9
 186:	36 2d       	mov	r19, r6
        {
             H1 = OFF;
        }
       if (S7)
       {
           H1 =  OUT_MASKE_BELEUCHTUNG_WILDBACHSTR;
 188:	ee 2d       	mov	r30, r14
 18a:	ff 2d       	mov	r31, r15
           
           H2 = OFF;
           H3 = OFF;
           H4 = OFF;
       }
       if (S8 || S9)
 18c:	98 2f       	mov	r25, r24
 18e:	98 71       	andi	r25, 0x18	; 24
 190:	19 f4       	brne	.+6      	; 0x198 <main+0x74>
       {
           H5 =  OUT_MASKE_BELEUCHTUNG_OBERMUEHLSTR; 
       } 
       else
       {
           H5 =  OFF;
 192:	a0 2f       	mov	r26, r16
 194:	b1 2f       	mov	r27, r17
 196:	02 c0       	rjmp	.+4      	; 0x19c <main+0x78>
           H3 = OFF;
           H4 = OFF;
       }
       if (S8 || S9)
       {
           H5 =  OUT_MASKE_BELEUCHTUNG_OBERMUEHLSTR; 
 198:	a0 e2       	ldi	r26, 0x20	; 32
 19a:	b0 e0       	ldi	r27, 0x00	; 0
       } 
       else
       {
           H5 =  OFF;
       }
       if (S10 || S11)
 19c:	80 76       	andi	r24, 0x60	; 96
 19e:	19 f4       	brne	.+6      	; 0x1a6 <main+0x82>
       {
           H6 = OUT_MASKE_BELEUCHTUNG_MATTENBACHSTR;
       } 
       else
       {
           H6 = OFF;
 1a0:	80 2f       	mov	r24, r16
 1a2:	91 2f       	mov	r25, r17
 1a4:	02 c0       	rjmp	.+4      	; 0x1aa <main+0x86>
       {
           H5 =  OFF;
       }
       if (S10 || S11)
       {
           H6 = OUT_MASKE_BELEUCHTUNG_MATTENBACHSTR;
 1a6:	80 e4       	ldi	r24, 0x40	; 64
 1a8:	90 e0       	ldi	r25, 0x00	; 0
      
        
        
        //Ausgabe------------------------------------------------------------------
        
        ledWriteAll(H0 | H1 | H2 | H3 | H4 | H5 | H6);
 1aa:	2e 2b       	or	r18, r30
 1ac:	3f 2b       	or	r19, r31
 1ae:	2c 2b       	or	r18, r28
 1b0:	3d 2b       	or	r19, r29
 1b2:	26 2b       	or	r18, r22
 1b4:	37 2b       	or	r19, r23
 1b6:	42 2b       	or	r20, r18
 1b8:	53 2b       	or	r21, r19
 1ba:	4a 2b       	or	r20, r26
 1bc:	5b 2b       	or	r21, r27
 1be:	84 2b       	or	r24, r20
 1c0:	95 2b       	or	r25, r21
 1c2:	01 d0       	rcall	.+2      	; 0x1c6 <ledWriteAll>
        
    }
 1c4:	c3 cf       	rjmp	.-122    	; 0x14c <main+0x28>

000001c6 <ledWriteAll>:
            }
        }
        matrix_buffer_pos += breite + Zeichenabstand;           // Position für das nächste Zeichen berechnen
        str_p++;                                                // Zeichen-Zeiger auf das nächste Zeichen richten
    }
}
 1c6:	82 b9       	out	0x02, r24	; 2
 1c8:	95 b9       	out	0x05, r25	; 5
 1ca:	08 95       	ret

000001cc <switchReadAll>:
 1cc:	86 b1       	in	r24, 0x06	; 6
 1ce:	08 95       	ret

000001d0 <startSystemTimeMs>:
 1d0:	83 e0       	ldi	r24, 0x03	; 3
 1d2:	84 bd       	out	0x24, r24	; 36
 1d4:	8b e0       	ldi	r24, 0x0B	; 11
 1d6:	85 bd       	out	0x25, r24	; 37
 1d8:	81 e0       	ldi	r24, 0x01	; 1
 1da:	80 93 6e 00 	sts	0x006E, r24	; 0x80006e <__TEXT_REGION_LENGTH__+0x70006e>
 1de:	89 ef       	ldi	r24, 0xF9	; 249
 1e0:	87 bd       	out	0x27, r24	; 39
 1e2:	08 95       	ret

000001e4 <initAdc>:
 1e4:	11 ba       	out	0x11, r1	; 17
 1e6:	10 ba       	out	0x10, r1	; 16
 1e8:	10 92 08 01 	sts	0x0108, r1	; 0x800108 <__TEXT_REGION_LENGTH__+0x700108>
 1ec:	10 92 07 01 	sts	0x0107, r1	; 0x800107 <__TEXT_REGION_LENGTH__+0x700107>
 1f0:	80 e4       	ldi	r24, 0x40	; 64
 1f2:	80 93 7c 00 	sts	0x007C, r24	; 0x80007c <__TEXT_REGION_LENGTH__+0x70007c>
 1f6:	8f e0       	ldi	r24, 0x0F	; 15
 1f8:	80 93 7e 00 	sts	0x007E, r24	; 0x80007e <__TEXT_REGION_LENGTH__+0x70007e>
 1fc:	8f ef       	ldi	r24, 0xFF	; 255
 1fe:	80 93 7d 00 	sts	0x007D, r24	; 0x80007d <__TEXT_REGION_LENGTH__+0x70007d>
 202:	ea e7       	ldi	r30, 0x7A	; 122
 204:	f0 e0       	ldi	r31, 0x00	; 0
 206:	87 ea       	ldi	r24, 0xA7	; 167
 208:	80 83       	st	Z, r24
 20a:	10 92 7b 00 	sts	0x007B, r1	; 0x80007b <__TEXT_REGION_LENGTH__+0x70007b>
 20e:	80 81       	ld	r24, Z
 210:	80 64       	ori	r24, 0x40	; 64
 212:	80 83       	st	Z, r24
 214:	80 81       	ld	r24, Z
 216:	84 ff       	sbrs	r24, 4
 218:	fd cf       	rjmp	.-6      	; 0x214 <initAdc+0x30>
 21a:	ea e7       	ldi	r30, 0x7A	; 122
 21c:	f0 e0       	ldi	r31, 0x00	; 0
 21e:	80 81       	ld	r24, Z
 220:	8f 7e       	andi	r24, 0xEF	; 239
 222:	80 83       	st	Z, r24
 224:	08 95       	ret

00000226 <rgbWrite>:
 226:	2f ef       	ldi	r18, 0xFF	; 255
 228:	33 e0       	ldi	r19, 0x03	; 3
 22a:	f9 01       	movw	r30, r18
 22c:	e8 1b       	sub	r30, r24
 22e:	f9 0b       	sbc	r31, r25
 230:	c9 01       	movw	r24, r18
 232:	86 1b       	sub	r24, r22
 234:	97 0b       	sbc	r25, r23
 236:	24 1b       	sub	r18, r20
 238:	35 0b       	sbc	r19, r21
 23a:	f0 93 a9 00 	sts	0x00A9, r31	; 0x8000a9 <__TEXT_REGION_LENGTH__+0x7000a9>
 23e:	e0 93 a8 00 	sts	0x00A8, r30	; 0x8000a8 <__TEXT_REGION_LENGTH__+0x7000a8>
 242:	90 93 ab 00 	sts	0x00AB, r25	; 0x8000ab <__TEXT_REGION_LENGTH__+0x7000ab>
 246:	80 93 aa 00 	sts	0x00AA, r24	; 0x8000aa <__TEXT_REGION_LENGTH__+0x7000aa>
 24a:	30 93 ad 00 	sts	0x00AD, r19	; 0x8000ad <__TEXT_REGION_LENGTH__+0x7000ad>
 24e:	20 93 ac 00 	sts	0x00AC, r18	; 0x8000ac <__TEXT_REGION_LENGTH__+0x7000ac>
 252:	08 95       	ret

00000254 <initRgb>:
 254:	8e ef       	ldi	r24, 0xFE	; 254
 256:	80 93 a0 00 	sts	0x00A0, r24	; 0x8000a0 <__TEXT_REGION_LENGTH__+0x7000a0>
 25a:	8b e1       	ldi	r24, 0x1B	; 27
 25c:	80 93 a1 00 	sts	0x00A1, r24	; 0x8000a1 <__TEXT_REGION_LENGTH__+0x7000a1>
 260:	83 e0       	ldi	r24, 0x03	; 3
 262:	80 93 a7 00 	sts	0x00A7, r24	; 0x8000a7 <__TEXT_REGION_LENGTH__+0x7000a7>
 266:	8f ef       	ldi	r24, 0xFF	; 255
 268:	80 93 a6 00 	sts	0x00A6, r24	; 0x8000a6 <__TEXT_REGION_LENGTH__+0x7000a6>
 26c:	40 e0       	ldi	r20, 0x00	; 0
 26e:	50 e0       	ldi	r21, 0x00	; 0
 270:	60 e0       	ldi	r22, 0x00	; 0
 272:	70 e0       	ldi	r23, 0x00	; 0
 274:	80 e0       	ldi	r24, 0x00	; 0
 276:	90 e0       	ldi	r25, 0x00	; 0
 278:	d6 cf       	rjmp	.-84     	; 0x226 <rgbWrite>
 27a:	08 95       	ret

0000027c <lcdSid>:
 27c:	88 23       	and	r24, r24
 27e:	11 f0       	breq	.+4      	; 0x284 <lcdSid+0x8>
 280:	a0 9a       	sbi	0x14, 0	; 20
 282:	08 95       	ret
 284:	a0 98       	cbi	0x14, 0	; 20
 286:	08 95       	ret

00000288 <lcdSclk>:
 288:	88 23       	and	r24, r24
 28a:	11 f0       	breq	.+4      	; 0x290 <lcdSclk+0x8>
 28c:	a1 9a       	sbi	0x14, 1	; 20
 28e:	08 95       	ret
 290:	a1 98       	cbi	0x14, 1	; 20
 292:	08 95       	ret

00000294 <lcdLight>:
 294:	81 11       	cpse	r24, r1
 296:	04 c0       	rjmp	.+8      	; 0x2a0 <lcdLight+0xc>
 298:	84 b5       	in	r24, 0x24	; 36
 29a:	8f 7d       	andi	r24, 0xDF	; 223
 29c:	84 bd       	out	0x24, r24	; 36
 29e:	08 95       	ret
 2a0:	94 b5       	in	r25, 0x24	; 36
 2a2:	90 62       	ori	r25, 0x20	; 32
 2a4:	94 bd       	out	0x24, r25	; 36
 2a6:	88 bd       	out	0x28, r24	; 40
 2a8:	08 95       	ret

000002aa <writeLcdF>:
 2aa:	ef 92       	push	r14
 2ac:	ff 92       	push	r15
 2ae:	0f 93       	push	r16
 2b0:	1f 93       	push	r17
 2b2:	cf 93       	push	r28
 2b4:	df 93       	push	r29
 2b6:	7c 01       	movw	r14, r24
 2b8:	eb 01       	movw	r28, r22
 2ba:	81 e0       	ldi	r24, 0x01	; 1
 2bc:	df df       	rcall	.-66     	; 0x27c <lcdSid>
 2be:	05 e0       	ldi	r16, 0x05	; 5
 2c0:	10 e0       	ldi	r17, 0x00	; 0
 2c2:	80 e0       	ldi	r24, 0x00	; 0
 2c4:	e1 df       	rcall	.-62     	; 0x288 <lcdSclk>
 2c6:	81 e0       	ldi	r24, 0x01	; 1
 2c8:	df df       	rcall	.-66     	; 0x288 <lcdSclk>
 2ca:	01 50       	subi	r16, 0x01	; 1
 2cc:	11 09       	sbc	r17, r1
 2ce:	c9 f7       	brne	.-14     	; 0x2c2 <writeLcdF+0x18>
 2d0:	80 e0       	ldi	r24, 0x00	; 0
 2d2:	d4 df       	rcall	.-88     	; 0x27c <lcdSid>
 2d4:	80 e0       	ldi	r24, 0x00	; 0
 2d6:	d8 df       	rcall	.-80     	; 0x288 <lcdSclk>
 2d8:	81 e0       	ldi	r24, 0x01	; 1
 2da:	d6 df       	rcall	.-84     	; 0x288 <lcdSclk>
 2dc:	83 e4       	ldi	r24, 0x43	; 67
 2de:	e8 16       	cp	r14, r24
 2e0:	f1 04       	cpc	r15, r1
 2e2:	19 f4       	brne	.+6      	; 0x2ea <writeLcdF+0x40>
 2e4:	80 e0       	ldi	r24, 0x00	; 0
 2e6:	ca df       	rcall	.-108    	; 0x27c <lcdSid>
 2e8:	02 c0       	rjmp	.+4      	; 0x2ee <writeLcdF+0x44>
 2ea:	81 e0       	ldi	r24, 0x01	; 1
 2ec:	c7 df       	rcall	.-114    	; 0x27c <lcdSid>
 2ee:	80 e0       	ldi	r24, 0x00	; 0
 2f0:	cb df       	rcall	.-106    	; 0x288 <lcdSclk>
 2f2:	81 e0       	ldi	r24, 0x01	; 1
 2f4:	c9 df       	rcall	.-110    	; 0x288 <lcdSclk>
 2f6:	80 e0       	ldi	r24, 0x00	; 0
 2f8:	c1 df       	rcall	.-126    	; 0x27c <lcdSid>
 2fa:	80 e0       	ldi	r24, 0x00	; 0
 2fc:	c5 df       	rcall	.-118    	; 0x288 <lcdSclk>
 2fe:	81 e0       	ldi	r24, 0x01	; 1
 300:	c3 df       	rcall	.-122    	; 0x288 <lcdSclk>
 302:	04 e0       	ldi	r16, 0x04	; 4
 304:	10 e0       	ldi	r17, 0x00	; 0
 306:	80 e0       	ldi	r24, 0x00	; 0
 308:	bf df       	rcall	.-130    	; 0x288 <lcdSclk>
 30a:	c0 ff       	sbrs	r28, 0
 30c:	03 c0       	rjmp	.+6      	; 0x314 <writeLcdF+0x6a>
 30e:	81 e0       	ldi	r24, 0x01	; 1
 310:	b5 df       	rcall	.-150    	; 0x27c <lcdSid>
 312:	02 c0       	rjmp	.+4      	; 0x318 <writeLcdF+0x6e>
 314:	80 e0       	ldi	r24, 0x00	; 0
 316:	b2 df       	rcall	.-156    	; 0x27c <lcdSid>
 318:	d6 95       	lsr	r29
 31a:	c7 95       	ror	r28
 31c:	80 e0       	ldi	r24, 0x00	; 0
 31e:	b4 df       	rcall	.-152    	; 0x288 <lcdSclk>
 320:	81 e0       	ldi	r24, 0x01	; 1
 322:	b2 df       	rcall	.-156    	; 0x288 <lcdSclk>
 324:	01 50       	subi	r16, 0x01	; 1
 326:	11 09       	sbc	r17, r1
 328:	71 f7       	brne	.-36     	; 0x306 <writeLcdF+0x5c>
 32a:	80 e0       	ldi	r24, 0x00	; 0
 32c:	a7 df       	rcall	.-178    	; 0x27c <lcdSid>
 32e:	04 e0       	ldi	r16, 0x04	; 4
 330:	10 e0       	ldi	r17, 0x00	; 0
 332:	80 e0       	ldi	r24, 0x00	; 0
 334:	a9 df       	rcall	.-174    	; 0x288 <lcdSclk>
 336:	81 e0       	ldi	r24, 0x01	; 1
 338:	a7 df       	rcall	.-178    	; 0x288 <lcdSclk>
 33a:	01 50       	subi	r16, 0x01	; 1
 33c:	11 09       	sbc	r17, r1
 33e:	c9 f7       	brne	.-14     	; 0x332 <writeLcdF+0x88>
 340:	04 e0       	ldi	r16, 0x04	; 4
 342:	10 e0       	ldi	r17, 0x00	; 0
 344:	80 e0       	ldi	r24, 0x00	; 0
 346:	a0 df       	rcall	.-192    	; 0x288 <lcdSclk>
 348:	c0 ff       	sbrs	r28, 0
 34a:	03 c0       	rjmp	.+6      	; 0x352 <writeLcdF+0xa8>
 34c:	81 e0       	ldi	r24, 0x01	; 1
 34e:	96 df       	rcall	.-212    	; 0x27c <lcdSid>
 350:	02 c0       	rjmp	.+4      	; 0x356 <writeLcdF+0xac>
 352:	80 e0       	ldi	r24, 0x00	; 0
 354:	93 df       	rcall	.-218    	; 0x27c <lcdSid>
 356:	d6 95       	lsr	r29
 358:	c7 95       	ror	r28
 35a:	80 e0       	ldi	r24, 0x00	; 0
 35c:	95 df       	rcall	.-214    	; 0x288 <lcdSclk>
 35e:	81 e0       	ldi	r24, 0x01	; 1
 360:	93 df       	rcall	.-218    	; 0x288 <lcdSclk>
 362:	01 50       	subi	r16, 0x01	; 1
 364:	11 09       	sbc	r17, r1
 366:	71 f7       	brne	.-36     	; 0x344 <writeLcdF+0x9a>
 368:	80 e0       	ldi	r24, 0x00	; 0
 36a:	88 df       	rcall	.-240    	; 0x27c <lcdSid>
 36c:	c4 e0       	ldi	r28, 0x04	; 4
 36e:	d0 e0       	ldi	r29, 0x00	; 0
 370:	80 e0       	ldi	r24, 0x00	; 0
 372:	8a df       	rcall	.-236    	; 0x288 <lcdSclk>
 374:	81 e0       	ldi	r24, 0x01	; 1
 376:	88 df       	rcall	.-240    	; 0x288 <lcdSclk>
 378:	21 97       	sbiw	r28, 0x01	; 1
 37a:	d1 f7       	brne	.-12     	; 0x370 <writeLcdF+0xc6>
 37c:	81 e0       	ldi	r24, 0x01	; 1
 37e:	7e df       	rcall	.-260    	; 0x27c <lcdSid>
 380:	87 ec       	ldi	r24, 0xC7	; 199
 382:	90 e0       	ldi	r25, 0x00	; 0
 384:	01 97       	sbiw	r24, 0x01	; 1
 386:	f1 f7       	brne	.-4      	; 0x384 <writeLcdF+0xda>
 388:	00 c0       	rjmp	.+0      	; 0x38a <writeLcdF+0xe0>
 38a:	00 00       	nop
 38c:	df 91       	pop	r29
 38e:	cf 91       	pop	r28
 390:	1f 91       	pop	r17
 392:	0f 91       	pop	r16
 394:	ff 90       	pop	r15
 396:	ef 90       	pop	r14
 398:	08 95       	ret

0000039a <lcdWriteText>:
 39a:	1f 93       	push	r17
 39c:	cf 93       	push	r28
 39e:	df 93       	push	r29
 3a0:	cd b7       	in	r28, 0x3d	; 61
 3a2:	de b7       	in	r29, 0x3e	; 62
 3a4:	65 97       	sbiw	r28, 0x15	; 21
 3a6:	0f b6       	in	r0, 0x3f	; 63
 3a8:	f8 94       	cli
 3aa:	de bf       	out	0x3e, r29	; 62
 3ac:	0f be       	out	0x3f, r0	; 63
 3ae:	cd bf       	out	0x3d, r28	; 61
 3b0:	9e 01       	movw	r18, r28
 3b2:	20 5e       	subi	r18, 0xE0	; 224
 3b4:	3f 4f       	sbci	r19, 0xFF	; 255
 3b6:	4e 8d       	ldd	r20, Y+30	; 0x1e
 3b8:	5f 8d       	ldd	r21, Y+31	; 0x1f
 3ba:	65 e1       	ldi	r22, 0x15	; 21
 3bc:	70 e0       	ldi	r23, 0x00	; 0
 3be:	ce 01       	movw	r24, r28
 3c0:	01 96       	adiw	r24, 0x01	; 1
 3c2:	3a d2       	rcall	.+1140   	; 0x838 <vsnprintf>
 3c4:	6d 8d       	ldd	r22, Y+29	; 0x1d
 3c6:	8c 8d       	ldd	r24, Y+28	; 0x1c
 3c8:	90 e2       	ldi	r25, 0x20	; 32
 3ca:	89 9f       	mul	r24, r25
 3cc:	60 0d       	add	r22, r0
 3ce:	11 24       	eor	r1, r1
 3d0:	60 68       	ori	r22, 0x80	; 128
 3d2:	70 e0       	ldi	r23, 0x00	; 0
 3d4:	83 e4       	ldi	r24, 0x43	; 67
 3d6:	90 e0       	ldi	r25, 0x00	; 0
 3d8:	68 df       	rcall	.-304    	; 0x2aa <writeLcdF>
 3da:	69 81       	ldd	r22, Y+1	; 0x01
 3dc:	66 23       	and	r22, r22
 3de:	79 f0       	breq	.+30     	; 0x3fe <lcdWriteText+0x64>
 3e0:	10 e0       	ldi	r17, 0x00	; 0
 3e2:	1f 5f       	subi	r17, 0xFF	; 255
 3e4:	70 e0       	ldi	r23, 0x00	; 0
 3e6:	84 e4       	ldi	r24, 0x44	; 68
 3e8:	90 e0       	ldi	r25, 0x00	; 0
 3ea:	5f df       	rcall	.-322    	; 0x2aa <writeLcdF>
 3ec:	e1 e0       	ldi	r30, 0x01	; 1
 3ee:	f0 e0       	ldi	r31, 0x00	; 0
 3f0:	ec 0f       	add	r30, r28
 3f2:	fd 1f       	adc	r31, r29
 3f4:	e1 0f       	add	r30, r17
 3f6:	f1 1d       	adc	r31, r1
 3f8:	60 81       	ld	r22, Z
 3fa:	61 11       	cpse	r22, r1
 3fc:	f2 cf       	rjmp	.-28     	; 0x3e2 <lcdWriteText+0x48>
 3fe:	65 96       	adiw	r28, 0x15	; 21
 400:	0f b6       	in	r0, 0x3f	; 63
 402:	f8 94       	cli
 404:	de bf       	out	0x3e, r29	; 62
 406:	0f be       	out	0x3f, r0	; 63
 408:	cd bf       	out	0x3d, r28	; 61
 40a:	df 91       	pop	r29
 40c:	cf 91       	pop	r28
 40e:	1f 91       	pop	r17
 410:	08 95       	ret

00000412 <lcdClear>:
 412:	61 e0       	ldi	r22, 0x01	; 1
 414:	70 e0       	ldi	r23, 0x00	; 0
 416:	83 e4       	ldi	r24, 0x43	; 67
 418:	90 e0       	ldi	r25, 0x00	; 0
 41a:	47 df       	rcall	.-370    	; 0x2aa <writeLcdF>
 41c:	8f e3       	ldi	r24, 0x3F	; 63
 41e:	9f e1       	ldi	r25, 0x1F	; 31
 420:	01 97       	sbiw	r24, 0x01	; 1
 422:	f1 f7       	brne	.-4      	; 0x420 <lcdClear+0xe>
 424:	00 c0       	rjmp	.+0      	; 0x426 <lcdClear+0x14>
 426:	00 00       	nop
 428:	80 e3       	ldi	r24, 0x30	; 48
 42a:	92 e0       	ldi	r25, 0x02	; 2
 42c:	9f 93       	push	r25
 42e:	8f 93       	push	r24
 430:	1f 92       	push	r1
 432:	1f 92       	push	r1
 434:	b2 df       	rcall	.-156    	; 0x39a <lcdWriteText>
 436:	0f 90       	pop	r0
 438:	0f 90       	pop	r0
 43a:	0f 90       	pop	r0
 43c:	0f 90       	pop	r0
 43e:	08 95       	ret

00000440 <initLcd>:
 440:	81 e0       	ldi	r24, 0x01	; 1
 442:	22 df       	rcall	.-444    	; 0x288 <lcdSclk>
 444:	80 e0       	ldi	r24, 0x00	; 0
 446:	1a df       	rcall	.-460    	; 0x27c <lcdSid>
 448:	64 e3       	ldi	r22, 0x34	; 52
 44a:	70 e0       	ldi	r23, 0x00	; 0
 44c:	83 e4       	ldi	r24, 0x43	; 67
 44e:	90 e0       	ldi	r25, 0x00	; 0
 450:	2c df       	rcall	.-424    	; 0x2aa <writeLcdF>
 452:	69 e0       	ldi	r22, 0x09	; 9
 454:	70 e0       	ldi	r23, 0x00	; 0
 456:	83 e4       	ldi	r24, 0x43	; 67
 458:	90 e0       	ldi	r25, 0x00	; 0
 45a:	27 df       	rcall	.-434    	; 0x2aa <writeLcdF>
 45c:	60 e3       	ldi	r22, 0x30	; 48
 45e:	70 e0       	ldi	r23, 0x00	; 0
 460:	83 e4       	ldi	r24, 0x43	; 67
 462:	90 e0       	ldi	r25, 0x00	; 0
 464:	22 df       	rcall	.-444    	; 0x2aa <writeLcdF>
 466:	6c e0       	ldi	r22, 0x0C	; 12
 468:	70 e0       	ldi	r23, 0x00	; 0
 46a:	83 e4       	ldi	r24, 0x43	; 67
 46c:	90 e0       	ldi	r25, 0x00	; 0
 46e:	1d df       	rcall	.-454    	; 0x2aa <writeLcdF>
 470:	d0 df       	rcall	.-96     	; 0x412 <lcdClear>
 472:	67 e0       	ldi	r22, 0x07	; 7
 474:	70 e0       	ldi	r23, 0x00	; 0
 476:	83 e4       	ldi	r24, 0x43	; 67
 478:	90 e0       	ldi	r25, 0x00	; 0
 47a:	17 df       	rcall	.-466    	; 0x2aa <writeLcdF>
 47c:	80 e0       	ldi	r24, 0x00	; 0
 47e:	0a cf       	rjmp	.-492    	; 0x294 <lcdLight>
 480:	08 95       	ret

00000482 <initBoard>:
 482:	4f 92       	push	r4
 484:	5f 92       	push	r5
 486:	6f 92       	push	r6
 488:	7f 92       	push	r7
 48a:	8f 92       	push	r8
 48c:	9f 92       	push	r9
 48e:	af 92       	push	r10
 490:	bf 92       	push	r11
 492:	cf 92       	push	r12
 494:	df 92       	push	r13
 496:	ef 92       	push	r14
 498:	ff 92       	push	r15
 49a:	0f 93       	push	r16
 49c:	1f 93       	push	r17
 49e:	cf 93       	push	r28
 4a0:	df 93       	push	r29
 4a2:	c8 2f       	mov	r28, r24
 4a4:	85 b7       	in	r24, 0x35	; 53
 4a6:	85 bf       	out	0x35, r24	; 53
 4a8:	12 b8       	out	0x02, r1	; 2
 4aa:	8f ef       	ldi	r24, 0xFF	; 255
 4ac:	81 b9       	out	0x01, r24	; 1
 4ae:	15 b8       	out	0x05, r1	; 5
 4b0:	84 b9       	out	0x04, r24	; 4
 4b2:	88 b9       	out	0x08, r24	; 8
 4b4:	17 b8       	out	0x07, r1	; 7
 4b6:	8b b9       	out	0x0b, r24	; 11
 4b8:	1a b8       	out	0x0a, r1	; 10
 4ba:	8e b9       	out	0x0e, r24	; 14
 4bc:	1d b8       	out	0x0d, r1	; 13
 4be:	72 98       	cbi	0x0e, 2	; 14
 4c0:	11 ba       	out	0x11, r1	; 17
 4c2:	10 ba       	out	0x10, r1	; 16
 4c4:	94 e0       	ldi	r25, 0x04	; 4
 4c6:	94 bb       	out	0x14, r25	; 20
 4c8:	93 b3       	in	r25, 0x13	; 19
 4ca:	93 60       	ori	r25, 0x03	; 3
 4cc:	93 bb       	out	0x13, r25	; 19
 4ce:	9d 9a       	sbi	0x13, 5	; 19
 4d0:	97 ec       	ldi	r25, 0xC7	; 199
 4d2:	90 93 02 01 	sts	0x0102, r25	; 0x800102 <__TEXT_REGION_LENGTH__+0x700102>
 4d6:	98 e3       	ldi	r25, 0x38	; 56
 4d8:	90 93 01 01 	sts	0x0101, r25	; 0x800101 <__TEXT_REGION_LENGTH__+0x700101>
 4dc:	10 92 05 01 	sts	0x0105, r1	; 0x800105 <__TEXT_REGION_LENGTH__+0x700105>
 4e0:	80 93 04 01 	sts	0x0104, r24	; 0x800104 <__TEXT_REGION_LENGTH__+0x700104>
 4e4:	10 92 08 01 	sts	0x0108, r1	; 0x800108 <__TEXT_REGION_LENGTH__+0x700108>
 4e8:	10 92 07 01 	sts	0x0107, r1	; 0x800107 <__TEXT_REGION_LENGTH__+0x700107>
 4ec:	8c e3       	ldi	r24, 0x3C	; 60
 4ee:	80 93 0b 01 	sts	0x010B, r24	; 0x80010b <__TEXT_REGION_LENGTH__+0x70010b>
 4f2:	10 92 0a 01 	sts	0x010A, r1	; 0x80010a <__TEXT_REGION_LENGTH__+0x70010a>
 4f6:	78 94       	sei
 4f8:	6b de       	rcall	.-810    	; 0x1d0 <startSystemTimeMs>
 4fa:	a2 df       	rcall	.-188    	; 0x440 <initLcd>
 4fc:	73 de       	rcall	.-794    	; 0x1e4 <initAdc>
 4fe:	aa de       	rcall	.-684    	; 0x254 <initRgb>
 500:	cc 23       	and	r28, r28
 502:	09 f4       	brne	.+2      	; 0x506 <initBoard+0x84>
 504:	b8 c0       	rjmp	.+368    	; 0x676 <initBoard+0x1f4>
 506:	8f ef       	ldi	r24, 0xFF	; 255
 508:	c5 de       	rcall	.-630    	; 0x294 <lcdLight>
 50a:	40 e0       	ldi	r20, 0x00	; 0
 50c:	50 e0       	ldi	r21, 0x00	; 0
 50e:	6f ef       	ldi	r22, 0xFF	; 255
 510:	73 e0       	ldi	r23, 0x03	; 3
 512:	80 e0       	ldi	r24, 0x00	; 0
 514:	90 e0       	ldi	r25, 0x00	; 0
 516:	87 de       	rcall	.-754    	; 0x226 <rgbWrite>
 518:	8d e1       	ldi	r24, 0x1D	; 29
 51a:	92 e0       	ldi	r25, 0x02	; 2
 51c:	9f 93       	push	r25
 51e:	8f 93       	push	r24
 520:	1f 92       	push	r1
 522:	1f 92       	push	r1
 524:	3a df       	rcall	.-396    	; 0x39a <lcdWriteText>
 526:	82 e3       	ldi	r24, 0x32	; 50
 528:	92 e0       	ldi	r25, 0x02	; 2
 52a:	9f 93       	push	r25
 52c:	8f 93       	push	r24
 52e:	1f 92       	push	r1
 530:	81 e0       	ldi	r24, 0x01	; 1
 532:	8f 93       	push	r24
 534:	32 df       	rcall	.-412    	; 0x39a <lcdWriteText>
 536:	88 e0       	ldi	r24, 0x08	; 8
 538:	92 e0       	ldi	r25, 0x02	; 2
 53a:	9f 93       	push	r25
 53c:	8f 93       	push	r24
 53e:	1f 92       	push	r1
 540:	82 e0       	ldi	r24, 0x02	; 2
 542:	8f 93       	push	r24
 544:	2a df       	rcall	.-428    	; 0x39a <lcdWriteText>
 546:	87 e4       	ldi	r24, 0x47	; 71
 548:	92 e0       	ldi	r25, 0x02	; 2
 54a:	9f 93       	push	r25
 54c:	8f 93       	push	r24
 54e:	1f 92       	push	r1
 550:	83 e0       	ldi	r24, 0x03	; 3
 552:	8f 93       	push	r24
 554:	22 df       	rcall	.-444    	; 0x39a <lcdWriteText>
 556:	8d b7       	in	r24, 0x3d	; 61
 558:	9e b7       	in	r25, 0x3e	; 62
 55a:	40 96       	adiw	r24, 0x10	; 16
 55c:	0f b6       	in	r0, 0x3f	; 63
 55e:	f8 94       	cli
 560:	9e bf       	out	0x3e, r25	; 62
 562:	0f be       	out	0x3f, r0	; 63
 564:	8d bf       	out	0x3d, r24	; 61
 566:	88 24       	eor	r8, r8
 568:	83 94       	inc	r8
 56a:	c0 e0       	ldi	r28, 0x00	; 0
 56c:	71 2c       	mov	r7, r1
 56e:	99 24       	eor	r9, r9
 570:	93 94       	inc	r9
 572:	d0 e0       	ldi	r29, 0x00	; 0
 574:	cc 24       	eor	r12, r12
 576:	c3 94       	inc	r12
 578:	d1 2c       	mov	r13, r1
 57a:	e1 2c       	mov	r14, r1
 57c:	68 94       	set
 57e:	ff 24       	eor	r15, r15
 580:	f7 f8       	bld	r15, 7
 582:	66 24       	eor	r6, r6
 584:	63 94       	inc	r6
 586:	51 2c       	mov	r5, r1
 588:	09 e0       	ldi	r16, 0x09	; 9
 58a:	11 e0       	ldi	r17, 0x01	; 1
 58c:	0f 2e       	mov	r0, r31
 58e:	fc e5       	ldi	r31, 0x5C	; 92
 590:	af 2e       	mov	r10, r31
 592:	f2 e0       	ldi	r31, 0x02	; 2
 594:	bf 2e       	mov	r11, r31
 596:	f0 2d       	mov	r31, r0
 598:	0f 2e       	mov	r0, r31
 59a:	f3 e0       	ldi	r31, 0x03	; 3
 59c:	4f 2e       	mov	r4, r31
 59e:	f0 2d       	mov	r31, r0
 5a0:	99 20       	and	r9, r9
 5a2:	49 f0       	breq	.+18     	; 0x5b6 <initBoard+0x134>
 5a4:	c7 01       	movw	r24, r14
 5a6:	0d 2e       	mov	r0, r29
 5a8:	02 c0       	rjmp	.+4      	; 0x5ae <initBoard+0x12c>
 5aa:	96 95       	lsr	r25
 5ac:	87 95       	ror	r24
 5ae:	0a 94       	dec	r0
 5b0:	e2 f7       	brpl	.-8      	; 0x5aa <initBoard+0x128>
 5b2:	09 de       	rcall	.-1006   	; 0x1c6 <ledWriteAll>
 5b4:	08 c0       	rjmp	.+16     	; 0x5c6 <initBoard+0x144>
 5b6:	c6 01       	movw	r24, r12
 5b8:	0d 2e       	mov	r0, r29
 5ba:	02 c0       	rjmp	.+4      	; 0x5c0 <initBoard+0x13e>
 5bc:	88 0f       	add	r24, r24
 5be:	99 1f       	adc	r25, r25
 5c0:	0a 94       	dec	r0
 5c2:	e2 f7       	brpl	.-8      	; 0x5bc <initBoard+0x13a>
 5c4:	00 de       	rcall	.-1024   	; 0x1c6 <ledWriteAll>
 5c6:	df 5f       	subi	r29, 0xFF	; 255
 5c8:	d1 31       	cpi	r29, 0x11	; 17
 5ca:	28 f0       	brcs	.+10     	; 0x5d6 <initBoard+0x154>
 5cc:	86 2d       	mov	r24, r6
 5ce:	91 10       	cpse	r9, r1
 5d0:	85 2d       	mov	r24, r5
 5d2:	98 2e       	mov	r9, r24
 5d4:	d0 e0       	ldi	r29, 0x00	; 0
 5d6:	88 20       	and	r8, r8
 5d8:	11 f0       	breq	.+4      	; 0x5de <initBoard+0x15c>
 5da:	ce 5f       	subi	r28, 0xFE	; 254
 5dc:	01 c0       	rjmp	.+2      	; 0x5e0 <initBoard+0x15e>
 5de:	c2 50       	subi	r28, 0x02	; 2
 5e0:	8c 2f       	mov	r24, r28
 5e2:	58 de       	rcall	.-848    	; 0x294 <lcdLight>
 5e4:	ce 3f       	cpi	r28, 0xFE	; 254
 5e6:	21 f0       	breq	.+8      	; 0x5f0 <initBoard+0x16e>
 5e8:	c8 37       	cpi	r28, 0x78	; 120
 5ea:	19 f4       	brne	.+6      	; 0x5f2 <initBoard+0x170>
 5ec:	86 2c       	mov	r8, r6
 5ee:	01 c0       	rjmp	.+2      	; 0x5f2 <initBoard+0x170>
 5f0:	85 2c       	mov	r8, r5
 5f2:	71 10       	cpse	r7, r1
 5f4:	3b c0       	rjmp	.+118    	; 0x66c <initBoard+0x1ea>
 5f6:	f8 01       	movw	r30, r16
 5f8:	80 81       	ld	r24, Z
 5fa:	83 7c       	andi	r24, 0xC3	; 195
 5fc:	91 f0       	breq	.+36     	; 0x622 <initBoard+0x1a0>
 5fe:	40 e0       	ldi	r20, 0x00	; 0
 600:	50 e0       	ldi	r21, 0x00	; 0
 602:	66 e2       	ldi	r22, 0x26	; 38
 604:	72 e0       	ldi	r23, 0x02	; 2
 606:	8f ef       	ldi	r24, 0xFF	; 255
 608:	93 e0       	ldi	r25, 0x03	; 3
 60a:	0d de       	rcall	.-998    	; 0x226 <rgbWrite>
 60c:	bf 92       	push	r11
 60e:	af 92       	push	r10
 610:	1f 92       	push	r1
 612:	4f 92       	push	r4
 614:	c2 de       	rcall	.-636    	; 0x39a <lcdWriteText>
 616:	0f 90       	pop	r0
 618:	0f 90       	pop	r0
 61a:	0f 90       	pop	r0
 61c:	0f 90       	pop	r0
 61e:	76 2c       	mov	r7, r6
 620:	25 c0       	rjmp	.+74     	; 0x66c <initBoard+0x1ea>
 622:	8f ef       	ldi	r24, 0xFF	; 255
 624:	9c e7       	ldi	r25, 0x7C	; 124
 626:	01 97       	sbiw	r24, 0x01	; 1
 628:	f1 f7       	brne	.-4      	; 0x626 <initBoard+0x1a4>
 62a:	00 c0       	rjmp	.+0      	; 0x62c <initBoard+0x1aa>
 62c:	00 00       	nop
 62e:	b8 cf       	rjmp	.-144    	; 0x5a0 <initBoard+0x11e>
 630:	f0 de       	rcall	.-544    	; 0x412 <lcdClear>
 632:	80 e0       	ldi	r24, 0x00	; 0
 634:	2f de       	rcall	.-930    	; 0x294 <lcdLight>
 636:	80 e0       	ldi	r24, 0x00	; 0
 638:	90 e0       	ldi	r25, 0x00	; 0
 63a:	c5 dd       	rcall	.-1142   	; 0x1c6 <ledWriteAll>
 63c:	40 e0       	ldi	r20, 0x00	; 0
 63e:	50 e0       	ldi	r21, 0x00	; 0
 640:	60 e0       	ldi	r22, 0x00	; 0
 642:	70 e0       	ldi	r23, 0x00	; 0
 644:	80 e0       	ldi	r24, 0x00	; 0
 646:	90 e0       	ldi	r25, 0x00	; 0
 648:	ee dd       	rcall	.-1060   	; 0x226 <rgbWrite>
 64a:	10 92 79 02 	sts	0x0279, r1	; 0x800279 <systemTimeMs>
 64e:	10 92 7a 02 	sts	0x027A, r1	; 0x80027a <systemTimeMs+0x1>
 652:	10 92 7b 02 	sts	0x027B, r1	; 0x80027b <systemTimeMs+0x2>
 656:	10 92 7c 02 	sts	0x027C, r1	; 0x80027c <systemTimeMs+0x3>
 65a:	10 92 7d 02 	sts	0x027D, r1	; 0x80027d <systemTimeMs+0x4>
 65e:	10 92 7e 02 	sts	0x027E, r1	; 0x80027e <systemTimeMs+0x5>
 662:	10 92 7f 02 	sts	0x027F, r1	; 0x80027f <systemTimeMs+0x6>
 666:	10 92 80 02 	sts	0x0280, r1	; 0x800280 <systemTimeMs+0x7>
 66a:	05 c0       	rjmp	.+10     	; 0x676 <initBoard+0x1f4>
 66c:	f8 01       	movw	r30, r16
 66e:	80 81       	ld	r24, Z
 670:	83 7c       	andi	r24, 0xC3	; 195
 672:	b9 f6       	brne	.-82     	; 0x622 <initBoard+0x1a0>
 674:	dd cf       	rjmp	.-70     	; 0x630 <initBoard+0x1ae>
 676:	df 91       	pop	r29
 678:	cf 91       	pop	r28
 67a:	1f 91       	pop	r17
 67c:	0f 91       	pop	r16
 67e:	ff 90       	pop	r15
 680:	ef 90       	pop	r14
 682:	df 90       	pop	r13
 684:	cf 90       	pop	r12
 686:	bf 90       	pop	r11
 688:	af 90       	pop	r10
 68a:	9f 90       	pop	r9
 68c:	8f 90       	pop	r8
 68e:	7f 90       	pop	r7
 690:	6f 90       	pop	r6
 692:	5f 90       	pop	r5
 694:	4f 90       	pop	r4
 696:	08 95       	ret

00000698 <matrixWriteNextLine>:




void matrixWriteNextLine(void)
{
 698:	cf 93       	push	r28
 69a:	df 93       	push	r29
 69c:	cd b7       	in	r28, 0x3d	; 61
 69e:	de b7       	in	r29, 0x3e	; 62
 6a0:	28 97       	sbiw	r28, 0x08	; 8
 6a2:	0f b6       	in	r0, 0x3f	; 63
 6a4:	f8 94       	cli
 6a6:	de bf       	out	0x3e, r29	; 62
 6a8:	0f be       	out	0x3f, r0	; 63
 6aa:	cd bf       	out	0x3d, r28	; 61
    const  uint8_t Bit_Muster_Tab[8] = {1,2,4,8,16,32,64,128};
 6ac:	88 e0       	ldi	r24, 0x08	; 8
 6ae:	e0 e0       	ldi	r30, 0x00	; 0
 6b0:	f2 e0       	ldi	r31, 0x02	; 2
 6b2:	de 01       	movw	r26, r28
 6b4:	11 96       	adiw	r26, 0x01	; 1
 6b6:	01 90       	ld	r0, Z+
 6b8:	0d 92       	st	X+, r0
 6ba:	8a 95       	dec	r24
 6bc:	e1 f7       	brne	.-8      	; 0x6b6 <matrixWriteNextLine+0x1e>
    static uint16_t Zeilen_Nr, Bit_Muster;
    uint8_t i;
    
    STROBE_0;                             // Daten des Scheiberegisters nicht ins Latch schreiben
 6be:	e5 e0       	ldi	r30, 0x05	; 5
 6c0:	f1 e0       	ldi	r31, 0x01	; 1
 6c2:	80 81       	ld	r24, Z
 6c4:	8f 7b       	andi	r24, 0xBF	; 191
 6c6:	80 83       	st	Z, r24

    Bit_Muster = Bit_Muster_Tab[Zeilen_Nr]; // Bitmuster aus Tabelle holen, um mit Daten in matrix[] zu vergleichen.
 6c8:	e0 91 76 02 	lds	r30, 0x0276	; 0x800276 <Zeilen_Nr.2725>
 6cc:	f0 91 77 02 	lds	r31, 0x0277	; 0x800277 <Zeilen_Nr.2725+0x1>
 6d0:	81 e0       	ldi	r24, 0x01	; 1
 6d2:	90 e0       	ldi	r25, 0x00	; 0
 6d4:	8c 0f       	add	r24, r28
 6d6:	9d 1f       	adc	r25, r29
 6d8:	e8 0f       	add	r30, r24
 6da:	f9 1f       	adc	r31, r25
 6dc:	80 81       	ld	r24, Z
 6de:	90 e0       	ldi	r25, 0x00	; 0
 6e0:	90 93 75 02 	sts	0x0275, r25	; 0x800275 <__data_end+0x1>
 6e4:	80 93 74 02 	sts	0x0274, r24	; 0x800274 <__data_end>
 6e8:	a2 ef       	ldi	r26, 0xF2	; 242
 6ea:	b2 e0       	ldi	r27, 0x02	; 2
 6ec:	22 e8       	ldi	r18, 0x82	; 130
 6ee:	32 e0       	ldi	r19, 0x02	; 2
    {                                       // Vergleicht Bit-Muster der aktuellen Zeile mit Daten in matrix[]
        if((matrix[Anzahl_Spalten-1- i] & Bit_Muster) != 0)     // Ist in matrix[] das entsprechende Bit gesetzt?
        { DATA_Modul_1_ON;                    //   JA:   ==> Datenbit "1" ins Schieberegister schreiben
        }
        else
        { DATA_Modul_1_OFF;                   //   NEIN: ==> Datenbit "0" ins Schieberegister schreiben
 6f0:	e5 e0       	ldi	r30, 0x05	; 5
 6f2:	f1 e0       	ldi	r31, 0x01	; 1
    Bit_Muster = Bit_Muster_Tab[Zeilen_Nr]; // Bitmuster aus Tabelle holen, um mit Daten in matrix[] zu vergleichen.
    
    // Alle Bits seriell ins Schieberegister hineinschreiben
    for(i=0; i<Anzahl_Spalten; i++)         // Alle Spalten durchgehen und überpüfen, ob Bit gesetzt ist
    {                                       // Vergleicht Bit-Muster der aktuellen Zeile mit Daten in matrix[]
        if((matrix[Anzahl_Spalten-1- i] & Bit_Muster) != 0)     // Ist in matrix[] das entsprechende Bit gesetzt?
 6f4:	5e 91       	ld	r21, -X
 6f6:	4e 91       	ld	r20, -X
 6f8:	80 91 74 02 	lds	r24, 0x0274	; 0x800274 <__data_end>
 6fc:	90 91 75 02 	lds	r25, 0x0275	; 0x800275 <__data_end+0x1>
 700:	84 23       	and	r24, r20
 702:	95 23       	and	r25, r21
 704:	89 2b       	or	r24, r25
 706:	21 f0       	breq	.+8      	; 0x710 <matrixWriteNextLine+0x78>
        { DATA_Modul_1_ON;                    //   JA:   ==> Datenbit "1" ins Schieberegister schreiben
 708:	80 81       	ld	r24, Z
 70a:	80 62       	ori	r24, 0x20	; 32
 70c:	80 83       	st	Z, r24
 70e:	03 c0       	rjmp	.+6      	; 0x716 <matrixWriteNextLine+0x7e>
        }
        else
        { DATA_Modul_1_OFF;                   //   NEIN: ==> Datenbit "0" ins Schieberegister schreiben
 710:	80 81       	ld	r24, Z
 712:	8f 7d       	andi	r24, 0xDF	; 223
 714:	80 83       	st	Z, r24
        }
        CLOCK_1;
 716:	80 81       	ld	r24, Z
 718:	80 61       	ori	r24, 0x10	; 16
 71a:	80 83       	st	Z, r24
        CLOCK_0;                            // Datenbit wird bei der negativen Flanke des Clock-Signals übernommen
 71c:	80 81       	ld	r24, Z
 71e:	8f 7e       	andi	r24, 0xEF	; 239
 720:	80 83       	st	Z, r24
    STROBE_0;                             // Daten des Scheiberegisters nicht ins Latch schreiben

    Bit_Muster = Bit_Muster_Tab[Zeilen_Nr]; // Bitmuster aus Tabelle holen, um mit Daten in matrix[] zu vergleichen.
    
    // Alle Bits seriell ins Schieberegister hineinschreiben
    for(i=0; i<Anzahl_Spalten; i++)         // Alle Spalten durchgehen und überpüfen, ob Bit gesetzt ist
 722:	a2 17       	cp	r26, r18
 724:	b3 07       	cpc	r27, r19
 726:	31 f7       	brne	.-52     	; 0x6f4 <matrixWriteNextLine+0x5c>
        }
        CLOCK_1;
        CLOCK_0;                            // Datenbit wird bei der negativen Flanke des Clock-Signals übernommen
    }
    
    ENABLE_0;                                // +5V aller Zeilen abschalten
 728:	e5 e0       	ldi	r30, 0x05	; 5
 72a:	f1 e0       	ldi	r31, 0x01	; 1
 72c:	80 81       	ld	r24, Z
 72e:	87 7f       	andi	r24, 0xF7	; 247
 730:	80 83       	st	Z, r24
    PORTJ &= ~0x07;
 732:	80 81       	ld	r24, Z
 734:	88 7f       	andi	r24, 0xF8	; 248
 736:	80 83       	st	Z, r24
    PORTJ |= Zeilen_Nr;                     // gewünschte Zeile einstellen
 738:	90 81       	ld	r25, Z
 73a:	80 91 76 02 	lds	r24, 0x0276	; 0x800276 <Zeilen_Nr.2725>
 73e:	89 2b       	or	r24, r25
 740:	80 83       	st	Z, r24
    STROBE_1;                             // Daten ins Latch schreiben
 742:	80 81       	ld	r24, Z
 744:	80 64       	ori	r24, 0x40	; 64
 746:	80 83       	st	Z, r24
    ENABLE_1;                             // +5V Speisung der eingestellten Zeile einschalten
 748:	80 81       	ld	r24, Z
 74a:	88 60       	ori	r24, 0x08	; 8
 74c:	80 83       	st	Z, r24

    // Die Zeilen werden nacheinander eingeschaltet --> zyklisch 0,1,2,3,4,5,6,7, 0,1,2,3, ...
    if (Zeilen_Nr < 7)
 74e:	80 91 76 02 	lds	r24, 0x0276	; 0x800276 <Zeilen_Nr.2725>
 752:	90 91 77 02 	lds	r25, 0x0277	; 0x800277 <Zeilen_Nr.2725+0x1>
 756:	87 30       	cpi	r24, 0x07	; 7
 758:	91 05       	cpc	r25, r1
 75a:	30 f4       	brcc	.+12     	; 0x768 <matrixWriteNextLine+0xd0>
    {
        Zeilen_Nr++;
 75c:	01 96       	adiw	r24, 0x01	; 1
 75e:	90 93 77 02 	sts	0x0277, r25	; 0x800277 <Zeilen_Nr.2725+0x1>
 762:	80 93 76 02 	sts	0x0276, r24	; 0x800276 <Zeilen_Nr.2725>
 766:	07 c0       	rjmp	.+14     	; 0x776 <matrixWriteNextLine+0xde>
    }
    else
    {
        Zeilen_Nr = 0;
 768:	10 92 77 02 	sts	0x0277, r1	; 0x800277 <Zeilen_Nr.2725+0x1>
 76c:	10 92 76 02 	sts	0x0276, r1	; 0x800276 <Zeilen_Nr.2725>
        writeTextFinished = 1;
 770:	81 e0       	ldi	r24, 0x01	; 1
 772:	80 93 78 02 	sts	0x0278, r24	; 0x800278 <writeTextFinished>
    }
    
 776:	28 96       	adiw	r28, 0x08	; 8
 778:	0f b6       	in	r0, 0x3f	; 63
 77a:	f8 94       	cli
 77c:	de bf       	out	0x3e, r29	; 62
 77e:	0f be       	out	0x3f, r0	; 63
 780:	cd bf       	out	0x3d, r28	; 61
 782:	df 91       	pop	r29
 784:	cf 91       	pop	r28
 786:	08 95       	ret

00000788 <__vector_23>:
//--------------------------------------------------------------------------------------------
// Timer 0 Overflow Interrupt ->  Wird alle 1ms aufgerufen
//--------------------------------------------------------------------------------------------

ISR(TIMER0_OVF_vect)
{
 788:	1f 92       	push	r1
 78a:	0f 92       	push	r0
 78c:	0f b6       	in	r0, 0x3f	; 63
 78e:	0f 92       	push	r0
 790:	11 24       	eor	r1, r1
 792:	0b b6       	in	r0, 0x3b	; 59
 794:	0f 92       	push	r0
 796:	2f 93       	push	r18
 798:	3f 93       	push	r19
 79a:	4f 93       	push	r20
 79c:	5f 93       	push	r21
 79e:	6f 93       	push	r22
 7a0:	7f 93       	push	r23
 7a2:	8f 93       	push	r24
 7a4:	9f 93       	push	r25
 7a6:	af 93       	push	r26
 7a8:	bf 93       	push	r27
 7aa:	ef 93       	push	r30
 7ac:	ff 93       	push	r31
    systemTimeMs += 1;
 7ae:	20 91 79 02 	lds	r18, 0x0279	; 0x800279 <systemTimeMs>
 7b2:	30 91 7a 02 	lds	r19, 0x027A	; 0x80027a <systemTimeMs+0x1>
 7b6:	40 91 7b 02 	lds	r20, 0x027B	; 0x80027b <systemTimeMs+0x2>
 7ba:	50 91 7c 02 	lds	r21, 0x027C	; 0x80027c <systemTimeMs+0x3>
 7be:	60 91 7d 02 	lds	r22, 0x027D	; 0x80027d <systemTimeMs+0x4>
 7c2:	70 91 7e 02 	lds	r23, 0x027E	; 0x80027e <systemTimeMs+0x5>
 7c6:	80 91 7f 02 	lds	r24, 0x027F	; 0x80027f <systemTimeMs+0x6>
 7ca:	90 91 80 02 	lds	r25, 0x0280	; 0x800280 <systemTimeMs+0x7>
 7ce:	a1 e0       	ldi	r26, 0x01	; 1
 7d0:	27 d0       	rcall	.+78     	; 0x820 <__adddi3_s8>
 7d2:	20 93 79 02 	sts	0x0279, r18	; 0x800279 <systemTimeMs>
 7d6:	30 93 7a 02 	sts	0x027A, r19	; 0x80027a <systemTimeMs+0x1>
 7da:	40 93 7b 02 	sts	0x027B, r20	; 0x80027b <systemTimeMs+0x2>
 7de:	50 93 7c 02 	sts	0x027C, r21	; 0x80027c <systemTimeMs+0x3>
 7e2:	60 93 7d 02 	sts	0x027D, r22	; 0x80027d <systemTimeMs+0x4>
 7e6:	70 93 7e 02 	sts	0x027E, r23	; 0x80027e <systemTimeMs+0x5>
 7ea:	80 93 7f 02 	sts	0x027F, r24	; 0x80027f <systemTimeMs+0x6>
 7ee:	90 93 80 02 	sts	0x0280, r25	; 0x800280 <systemTimeMs+0x7>

    if(matrixRunning)matrixWriteNextLine();
 7f2:	80 91 81 02 	lds	r24, 0x0281	; 0x800281 <matrixRunning>
 7f6:	81 11       	cpse	r24, r1
 7f8:	4f df       	rcall	.-354    	; 0x698 <matrixWriteNextLine>
}
 7fa:	ff 91       	pop	r31
 7fc:	ef 91       	pop	r30
 7fe:	bf 91       	pop	r27
 800:	af 91       	pop	r26
 802:	9f 91       	pop	r25
 804:	8f 91       	pop	r24
 806:	7f 91       	pop	r23
 808:	6f 91       	pop	r22
 80a:	5f 91       	pop	r21
 80c:	4f 91       	pop	r20
 80e:	3f 91       	pop	r19
 810:	2f 91       	pop	r18
 812:	0f 90       	pop	r0
 814:	0b be       	out	0x3b, r0	; 59
 816:	0f 90       	pop	r0
 818:	0f be       	out	0x3f, r0	; 63
 81a:	0f 90       	pop	r0
 81c:	1f 90       	pop	r1
 81e:	18 95       	reti

00000820 <__adddi3_s8>:
 820:	00 24       	eor	r0, r0
 822:	a7 fd       	sbrc	r26, 7
 824:	00 94       	com	r0
 826:	2a 0f       	add	r18, r26
 828:	30 1d       	adc	r19, r0
 82a:	40 1d       	adc	r20, r0
 82c:	50 1d       	adc	r21, r0
 82e:	60 1d       	adc	r22, r0
 830:	70 1d       	adc	r23, r0
 832:	80 1d       	adc	r24, r0
 834:	90 1d       	adc	r25, r0
 836:	08 95       	ret

00000838 <vsnprintf>:
 838:	0f 93       	push	r16
 83a:	1f 93       	push	r17
 83c:	cf 93       	push	r28
 83e:	df 93       	push	r29
 840:	cd b7       	in	r28, 0x3d	; 61
 842:	de b7       	in	r29, 0x3e	; 62
 844:	2e 97       	sbiw	r28, 0x0e	; 14
 846:	0f b6       	in	r0, 0x3f	; 63
 848:	f8 94       	cli
 84a:	de bf       	out	0x3e, r29	; 62
 84c:	0f be       	out	0x3f, r0	; 63
 84e:	cd bf       	out	0x3d, r28	; 61
 850:	8c 01       	movw	r16, r24
 852:	fa 01       	movw	r30, r20
 854:	86 e0       	ldi	r24, 0x06	; 6
 856:	8c 83       	std	Y+4, r24	; 0x04
 858:	1a 83       	std	Y+2, r17	; 0x02
 85a:	09 83       	std	Y+1, r16	; 0x01
 85c:	77 ff       	sbrs	r23, 7
 85e:	02 c0       	rjmp	.+4      	; 0x864 <vsnprintf+0x2c>
 860:	60 e0       	ldi	r22, 0x00	; 0
 862:	70 e8       	ldi	r23, 0x80	; 128
 864:	cb 01       	movw	r24, r22
 866:	01 97       	sbiw	r24, 0x01	; 1
 868:	9e 83       	std	Y+6, r25	; 0x06
 86a:	8d 83       	std	Y+5, r24	; 0x05
 86c:	a9 01       	movw	r20, r18
 86e:	bf 01       	movw	r22, r30
 870:	ce 01       	movw	r24, r28
 872:	01 96       	adiw	r24, 0x01	; 1
 874:	19 d0       	rcall	.+50     	; 0x8a8 <vfprintf>
 876:	4d 81       	ldd	r20, Y+5	; 0x05
 878:	5e 81       	ldd	r21, Y+6	; 0x06
 87a:	57 fd       	sbrc	r21, 7
 87c:	0a c0       	rjmp	.+20     	; 0x892 <vsnprintf+0x5a>
 87e:	2f 81       	ldd	r18, Y+7	; 0x07
 880:	38 85       	ldd	r19, Y+8	; 0x08
 882:	42 17       	cp	r20, r18
 884:	53 07       	cpc	r21, r19
 886:	0c f4       	brge	.+2      	; 0x88a <vsnprintf+0x52>
 888:	9a 01       	movw	r18, r20
 88a:	f8 01       	movw	r30, r16
 88c:	e2 0f       	add	r30, r18
 88e:	f3 1f       	adc	r31, r19
 890:	10 82       	st	Z, r1
 892:	2e 96       	adiw	r28, 0x0e	; 14
 894:	0f b6       	in	r0, 0x3f	; 63
 896:	f8 94       	cli
 898:	de bf       	out	0x3e, r29	; 62
 89a:	0f be       	out	0x3f, r0	; 63
 89c:	cd bf       	out	0x3d, r28	; 61
 89e:	df 91       	pop	r29
 8a0:	cf 91       	pop	r28
 8a2:	1f 91       	pop	r17
 8a4:	0f 91       	pop	r16
 8a6:	08 95       	ret

000008a8 <vfprintf>:
 8a8:	2f 92       	push	r2
 8aa:	3f 92       	push	r3
 8ac:	4f 92       	push	r4
 8ae:	5f 92       	push	r5
 8b0:	6f 92       	push	r6
 8b2:	7f 92       	push	r7
 8b4:	8f 92       	push	r8
 8b6:	9f 92       	push	r9
 8b8:	af 92       	push	r10
 8ba:	bf 92       	push	r11
 8bc:	cf 92       	push	r12
 8be:	df 92       	push	r13
 8c0:	ef 92       	push	r14
 8c2:	ff 92       	push	r15
 8c4:	0f 93       	push	r16
 8c6:	1f 93       	push	r17
 8c8:	cf 93       	push	r28
 8ca:	df 93       	push	r29
 8cc:	cd b7       	in	r28, 0x3d	; 61
 8ce:	de b7       	in	r29, 0x3e	; 62
 8d0:	2b 97       	sbiw	r28, 0x0b	; 11
 8d2:	0f b6       	in	r0, 0x3f	; 63
 8d4:	f8 94       	cli
 8d6:	de bf       	out	0x3e, r29	; 62
 8d8:	0f be       	out	0x3f, r0	; 63
 8da:	cd bf       	out	0x3d, r28	; 61
 8dc:	6c 01       	movw	r12, r24
 8de:	7b 01       	movw	r14, r22
 8e0:	8a 01       	movw	r16, r20
 8e2:	fc 01       	movw	r30, r24
 8e4:	17 82       	std	Z+7, r1	; 0x07
 8e6:	16 82       	std	Z+6, r1	; 0x06
 8e8:	83 81       	ldd	r24, Z+3	; 0x03
 8ea:	81 ff       	sbrs	r24, 1
 8ec:	bf c1       	rjmp	.+894    	; 0xc6c <vfprintf+0x3c4>
 8ee:	ce 01       	movw	r24, r28
 8f0:	01 96       	adiw	r24, 0x01	; 1
 8f2:	3c 01       	movw	r6, r24
 8f4:	f6 01       	movw	r30, r12
 8f6:	93 81       	ldd	r25, Z+3	; 0x03
 8f8:	f7 01       	movw	r30, r14
 8fa:	93 fd       	sbrc	r25, 3
 8fc:	85 91       	lpm	r24, Z+
 8fe:	93 ff       	sbrs	r25, 3
 900:	81 91       	ld	r24, Z+
 902:	7f 01       	movw	r14, r30
 904:	88 23       	and	r24, r24
 906:	09 f4       	brne	.+2      	; 0x90a <vfprintf+0x62>
 908:	ad c1       	rjmp	.+858    	; 0xc64 <vfprintf+0x3bc>
 90a:	85 32       	cpi	r24, 0x25	; 37
 90c:	39 f4       	brne	.+14     	; 0x91c <vfprintf+0x74>
 90e:	93 fd       	sbrc	r25, 3
 910:	85 91       	lpm	r24, Z+
 912:	93 ff       	sbrs	r25, 3
 914:	81 91       	ld	r24, Z+
 916:	7f 01       	movw	r14, r30
 918:	85 32       	cpi	r24, 0x25	; 37
 91a:	21 f4       	brne	.+8      	; 0x924 <vfprintf+0x7c>
 91c:	b6 01       	movw	r22, r12
 91e:	90 e0       	ldi	r25, 0x00	; 0
 920:	d6 d1       	rcall	.+940    	; 0xcce <fputc>
 922:	e8 cf       	rjmp	.-48     	; 0x8f4 <vfprintf+0x4c>
 924:	91 2c       	mov	r9, r1
 926:	21 2c       	mov	r2, r1
 928:	31 2c       	mov	r3, r1
 92a:	ff e1       	ldi	r31, 0x1F	; 31
 92c:	f3 15       	cp	r31, r3
 92e:	d8 f0       	brcs	.+54     	; 0x966 <vfprintf+0xbe>
 930:	8b 32       	cpi	r24, 0x2B	; 43
 932:	79 f0       	breq	.+30     	; 0x952 <vfprintf+0xaa>
 934:	38 f4       	brcc	.+14     	; 0x944 <vfprintf+0x9c>
 936:	80 32       	cpi	r24, 0x20	; 32
 938:	79 f0       	breq	.+30     	; 0x958 <vfprintf+0xb0>
 93a:	83 32       	cpi	r24, 0x23	; 35
 93c:	a1 f4       	brne	.+40     	; 0x966 <vfprintf+0xbe>
 93e:	23 2d       	mov	r18, r3
 940:	20 61       	ori	r18, 0x10	; 16
 942:	1d c0       	rjmp	.+58     	; 0x97e <vfprintf+0xd6>
 944:	8d 32       	cpi	r24, 0x2D	; 45
 946:	61 f0       	breq	.+24     	; 0x960 <vfprintf+0xb8>
 948:	80 33       	cpi	r24, 0x30	; 48
 94a:	69 f4       	brne	.+26     	; 0x966 <vfprintf+0xbe>
 94c:	23 2d       	mov	r18, r3
 94e:	21 60       	ori	r18, 0x01	; 1
 950:	16 c0       	rjmp	.+44     	; 0x97e <vfprintf+0xd6>
 952:	83 2d       	mov	r24, r3
 954:	82 60       	ori	r24, 0x02	; 2
 956:	38 2e       	mov	r3, r24
 958:	e3 2d       	mov	r30, r3
 95a:	e4 60       	ori	r30, 0x04	; 4
 95c:	3e 2e       	mov	r3, r30
 95e:	2a c0       	rjmp	.+84     	; 0x9b4 <vfprintf+0x10c>
 960:	f3 2d       	mov	r31, r3
 962:	f8 60       	ori	r31, 0x08	; 8
 964:	1d c0       	rjmp	.+58     	; 0x9a0 <vfprintf+0xf8>
 966:	37 fc       	sbrc	r3, 7
 968:	2d c0       	rjmp	.+90     	; 0x9c4 <vfprintf+0x11c>
 96a:	20 ed       	ldi	r18, 0xD0	; 208
 96c:	28 0f       	add	r18, r24
 96e:	2a 30       	cpi	r18, 0x0A	; 10
 970:	40 f0       	brcs	.+16     	; 0x982 <vfprintf+0xda>
 972:	8e 32       	cpi	r24, 0x2E	; 46
 974:	b9 f4       	brne	.+46     	; 0x9a4 <vfprintf+0xfc>
 976:	36 fc       	sbrc	r3, 6
 978:	75 c1       	rjmp	.+746    	; 0xc64 <vfprintf+0x3bc>
 97a:	23 2d       	mov	r18, r3
 97c:	20 64       	ori	r18, 0x40	; 64
 97e:	32 2e       	mov	r3, r18
 980:	19 c0       	rjmp	.+50     	; 0x9b4 <vfprintf+0x10c>
 982:	36 fe       	sbrs	r3, 6
 984:	06 c0       	rjmp	.+12     	; 0x992 <vfprintf+0xea>
 986:	8a e0       	ldi	r24, 0x0A	; 10
 988:	98 9e       	mul	r9, r24
 98a:	20 0d       	add	r18, r0
 98c:	11 24       	eor	r1, r1
 98e:	92 2e       	mov	r9, r18
 990:	11 c0       	rjmp	.+34     	; 0x9b4 <vfprintf+0x10c>
 992:	ea e0       	ldi	r30, 0x0A	; 10
 994:	2e 9e       	mul	r2, r30
 996:	20 0d       	add	r18, r0
 998:	11 24       	eor	r1, r1
 99a:	22 2e       	mov	r2, r18
 99c:	f3 2d       	mov	r31, r3
 99e:	f0 62       	ori	r31, 0x20	; 32
 9a0:	3f 2e       	mov	r3, r31
 9a2:	08 c0       	rjmp	.+16     	; 0x9b4 <vfprintf+0x10c>
 9a4:	8c 36       	cpi	r24, 0x6C	; 108
 9a6:	21 f4       	brne	.+8      	; 0x9b0 <vfprintf+0x108>
 9a8:	83 2d       	mov	r24, r3
 9aa:	80 68       	ori	r24, 0x80	; 128
 9ac:	38 2e       	mov	r3, r24
 9ae:	02 c0       	rjmp	.+4      	; 0x9b4 <vfprintf+0x10c>
 9b0:	88 36       	cpi	r24, 0x68	; 104
 9b2:	41 f4       	brne	.+16     	; 0x9c4 <vfprintf+0x11c>
 9b4:	f7 01       	movw	r30, r14
 9b6:	93 fd       	sbrc	r25, 3
 9b8:	85 91       	lpm	r24, Z+
 9ba:	93 ff       	sbrs	r25, 3
 9bc:	81 91       	ld	r24, Z+
 9be:	7f 01       	movw	r14, r30
 9c0:	81 11       	cpse	r24, r1
 9c2:	b3 cf       	rjmp	.-154    	; 0x92a <vfprintf+0x82>
 9c4:	98 2f       	mov	r25, r24
 9c6:	9f 7d       	andi	r25, 0xDF	; 223
 9c8:	95 54       	subi	r25, 0x45	; 69
 9ca:	93 30       	cpi	r25, 0x03	; 3
 9cc:	28 f4       	brcc	.+10     	; 0x9d8 <vfprintf+0x130>
 9ce:	0c 5f       	subi	r16, 0xFC	; 252
 9d0:	1f 4f       	sbci	r17, 0xFF	; 255
 9d2:	9f e3       	ldi	r25, 0x3F	; 63
 9d4:	99 83       	std	Y+1, r25	; 0x01
 9d6:	0d c0       	rjmp	.+26     	; 0x9f2 <vfprintf+0x14a>
 9d8:	83 36       	cpi	r24, 0x63	; 99
 9da:	31 f0       	breq	.+12     	; 0x9e8 <vfprintf+0x140>
 9dc:	83 37       	cpi	r24, 0x73	; 115
 9de:	71 f0       	breq	.+28     	; 0x9fc <vfprintf+0x154>
 9e0:	83 35       	cpi	r24, 0x53	; 83
 9e2:	09 f0       	breq	.+2      	; 0x9e6 <vfprintf+0x13e>
 9e4:	55 c0       	rjmp	.+170    	; 0xa90 <vfprintf+0x1e8>
 9e6:	20 c0       	rjmp	.+64     	; 0xa28 <vfprintf+0x180>
 9e8:	f8 01       	movw	r30, r16
 9ea:	80 81       	ld	r24, Z
 9ec:	89 83       	std	Y+1, r24	; 0x01
 9ee:	0e 5f       	subi	r16, 0xFE	; 254
 9f0:	1f 4f       	sbci	r17, 0xFF	; 255
 9f2:	88 24       	eor	r8, r8
 9f4:	83 94       	inc	r8
 9f6:	91 2c       	mov	r9, r1
 9f8:	53 01       	movw	r10, r6
 9fa:	12 c0       	rjmp	.+36     	; 0xa20 <vfprintf+0x178>
 9fc:	28 01       	movw	r4, r16
 9fe:	f2 e0       	ldi	r31, 0x02	; 2
 a00:	4f 0e       	add	r4, r31
 a02:	51 1c       	adc	r5, r1
 a04:	f8 01       	movw	r30, r16
 a06:	a0 80       	ld	r10, Z
 a08:	b1 80       	ldd	r11, Z+1	; 0x01
 a0a:	36 fe       	sbrs	r3, 6
 a0c:	03 c0       	rjmp	.+6      	; 0xa14 <vfprintf+0x16c>
 a0e:	69 2d       	mov	r22, r9
 a10:	70 e0       	ldi	r23, 0x00	; 0
 a12:	02 c0       	rjmp	.+4      	; 0xa18 <vfprintf+0x170>
 a14:	6f ef       	ldi	r22, 0xFF	; 255
 a16:	7f ef       	ldi	r23, 0xFF	; 255
 a18:	c5 01       	movw	r24, r10
 a1a:	4e d1       	rcall	.+668    	; 0xcb8 <strnlen>
 a1c:	4c 01       	movw	r8, r24
 a1e:	82 01       	movw	r16, r4
 a20:	f3 2d       	mov	r31, r3
 a22:	ff 77       	andi	r31, 0x7F	; 127
 a24:	3f 2e       	mov	r3, r31
 a26:	15 c0       	rjmp	.+42     	; 0xa52 <vfprintf+0x1aa>
 a28:	28 01       	movw	r4, r16
 a2a:	22 e0       	ldi	r18, 0x02	; 2
 a2c:	42 0e       	add	r4, r18
 a2e:	51 1c       	adc	r5, r1
 a30:	f8 01       	movw	r30, r16
 a32:	a0 80       	ld	r10, Z
 a34:	b1 80       	ldd	r11, Z+1	; 0x01
 a36:	36 fe       	sbrs	r3, 6
 a38:	03 c0       	rjmp	.+6      	; 0xa40 <vfprintf+0x198>
 a3a:	69 2d       	mov	r22, r9
 a3c:	70 e0       	ldi	r23, 0x00	; 0
 a3e:	02 c0       	rjmp	.+4      	; 0xa44 <vfprintf+0x19c>
 a40:	6f ef       	ldi	r22, 0xFF	; 255
 a42:	7f ef       	ldi	r23, 0xFF	; 255
 a44:	c5 01       	movw	r24, r10
 a46:	2d d1       	rcall	.+602    	; 0xca2 <strnlen_P>
 a48:	4c 01       	movw	r8, r24
 a4a:	f3 2d       	mov	r31, r3
 a4c:	f0 68       	ori	r31, 0x80	; 128
 a4e:	3f 2e       	mov	r3, r31
 a50:	82 01       	movw	r16, r4
 a52:	33 fc       	sbrc	r3, 3
 a54:	19 c0       	rjmp	.+50     	; 0xa88 <vfprintf+0x1e0>
 a56:	82 2d       	mov	r24, r2
 a58:	90 e0       	ldi	r25, 0x00	; 0
 a5a:	88 16       	cp	r8, r24
 a5c:	99 06       	cpc	r9, r25
 a5e:	a0 f4       	brcc	.+40     	; 0xa88 <vfprintf+0x1e0>
 a60:	b6 01       	movw	r22, r12
 a62:	80 e2       	ldi	r24, 0x20	; 32
 a64:	90 e0       	ldi	r25, 0x00	; 0
 a66:	33 d1       	rcall	.+614    	; 0xcce <fputc>
 a68:	2a 94       	dec	r2
 a6a:	f5 cf       	rjmp	.-22     	; 0xa56 <vfprintf+0x1ae>
 a6c:	f5 01       	movw	r30, r10
 a6e:	37 fc       	sbrc	r3, 7
 a70:	85 91       	lpm	r24, Z+
 a72:	37 fe       	sbrs	r3, 7
 a74:	81 91       	ld	r24, Z+
 a76:	5f 01       	movw	r10, r30
 a78:	b6 01       	movw	r22, r12
 a7a:	90 e0       	ldi	r25, 0x00	; 0
 a7c:	28 d1       	rcall	.+592    	; 0xcce <fputc>
 a7e:	21 10       	cpse	r2, r1
 a80:	2a 94       	dec	r2
 a82:	21 e0       	ldi	r18, 0x01	; 1
 a84:	82 1a       	sub	r8, r18
 a86:	91 08       	sbc	r9, r1
 a88:	81 14       	cp	r8, r1
 a8a:	91 04       	cpc	r9, r1
 a8c:	79 f7       	brne	.-34     	; 0xa6c <vfprintf+0x1c4>
 a8e:	e1 c0       	rjmp	.+450    	; 0xc52 <vfprintf+0x3aa>
 a90:	84 36       	cpi	r24, 0x64	; 100
 a92:	11 f0       	breq	.+4      	; 0xa98 <vfprintf+0x1f0>
 a94:	89 36       	cpi	r24, 0x69	; 105
 a96:	39 f5       	brne	.+78     	; 0xae6 <vfprintf+0x23e>
 a98:	f8 01       	movw	r30, r16
 a9a:	37 fe       	sbrs	r3, 7
 a9c:	07 c0       	rjmp	.+14     	; 0xaac <vfprintf+0x204>
 a9e:	60 81       	ld	r22, Z
 aa0:	71 81       	ldd	r23, Z+1	; 0x01
 aa2:	82 81       	ldd	r24, Z+2	; 0x02
 aa4:	93 81       	ldd	r25, Z+3	; 0x03
 aa6:	0c 5f       	subi	r16, 0xFC	; 252
 aa8:	1f 4f       	sbci	r17, 0xFF	; 255
 aaa:	08 c0       	rjmp	.+16     	; 0xabc <vfprintf+0x214>
 aac:	60 81       	ld	r22, Z
 aae:	71 81       	ldd	r23, Z+1	; 0x01
 ab0:	07 2e       	mov	r0, r23
 ab2:	00 0c       	add	r0, r0
 ab4:	88 0b       	sbc	r24, r24
 ab6:	99 0b       	sbc	r25, r25
 ab8:	0e 5f       	subi	r16, 0xFE	; 254
 aba:	1f 4f       	sbci	r17, 0xFF	; 255
 abc:	f3 2d       	mov	r31, r3
 abe:	ff 76       	andi	r31, 0x6F	; 111
 ac0:	3f 2e       	mov	r3, r31
 ac2:	97 ff       	sbrs	r25, 7
 ac4:	09 c0       	rjmp	.+18     	; 0xad8 <vfprintf+0x230>
 ac6:	90 95       	com	r25
 ac8:	80 95       	com	r24
 aca:	70 95       	com	r23
 acc:	61 95       	neg	r22
 ace:	7f 4f       	sbci	r23, 0xFF	; 255
 ad0:	8f 4f       	sbci	r24, 0xFF	; 255
 ad2:	9f 4f       	sbci	r25, 0xFF	; 255
 ad4:	f0 68       	ori	r31, 0x80	; 128
 ad6:	3f 2e       	mov	r3, r31
 ad8:	2a e0       	ldi	r18, 0x0A	; 10
 ada:	30 e0       	ldi	r19, 0x00	; 0
 adc:	a3 01       	movw	r20, r6
 ade:	33 d1       	rcall	.+614    	; 0xd46 <__ultoa_invert>
 ae0:	88 2e       	mov	r8, r24
 ae2:	86 18       	sub	r8, r6
 ae4:	44 c0       	rjmp	.+136    	; 0xb6e <vfprintf+0x2c6>
 ae6:	85 37       	cpi	r24, 0x75	; 117
 ae8:	31 f4       	brne	.+12     	; 0xaf6 <vfprintf+0x24e>
 aea:	23 2d       	mov	r18, r3
 aec:	2f 7e       	andi	r18, 0xEF	; 239
 aee:	b2 2e       	mov	r11, r18
 af0:	2a e0       	ldi	r18, 0x0A	; 10
 af2:	30 e0       	ldi	r19, 0x00	; 0
 af4:	25 c0       	rjmp	.+74     	; 0xb40 <vfprintf+0x298>
 af6:	93 2d       	mov	r25, r3
 af8:	99 7f       	andi	r25, 0xF9	; 249
 afa:	b9 2e       	mov	r11, r25
 afc:	8f 36       	cpi	r24, 0x6F	; 111
 afe:	c1 f0       	breq	.+48     	; 0xb30 <vfprintf+0x288>
 b00:	18 f4       	brcc	.+6      	; 0xb08 <vfprintf+0x260>
 b02:	88 35       	cpi	r24, 0x58	; 88
 b04:	79 f0       	breq	.+30     	; 0xb24 <vfprintf+0x27c>
 b06:	ae c0       	rjmp	.+348    	; 0xc64 <vfprintf+0x3bc>
 b08:	80 37       	cpi	r24, 0x70	; 112
 b0a:	19 f0       	breq	.+6      	; 0xb12 <vfprintf+0x26a>
 b0c:	88 37       	cpi	r24, 0x78	; 120
 b0e:	21 f0       	breq	.+8      	; 0xb18 <vfprintf+0x270>
 b10:	a9 c0       	rjmp	.+338    	; 0xc64 <vfprintf+0x3bc>
 b12:	e9 2f       	mov	r30, r25
 b14:	e0 61       	ori	r30, 0x10	; 16
 b16:	be 2e       	mov	r11, r30
 b18:	b4 fe       	sbrs	r11, 4
 b1a:	0d c0       	rjmp	.+26     	; 0xb36 <vfprintf+0x28e>
 b1c:	fb 2d       	mov	r31, r11
 b1e:	f4 60       	ori	r31, 0x04	; 4
 b20:	bf 2e       	mov	r11, r31
 b22:	09 c0       	rjmp	.+18     	; 0xb36 <vfprintf+0x28e>
 b24:	34 fe       	sbrs	r3, 4
 b26:	0a c0       	rjmp	.+20     	; 0xb3c <vfprintf+0x294>
 b28:	29 2f       	mov	r18, r25
 b2a:	26 60       	ori	r18, 0x06	; 6
 b2c:	b2 2e       	mov	r11, r18
 b2e:	06 c0       	rjmp	.+12     	; 0xb3c <vfprintf+0x294>
 b30:	28 e0       	ldi	r18, 0x08	; 8
 b32:	30 e0       	ldi	r19, 0x00	; 0
 b34:	05 c0       	rjmp	.+10     	; 0xb40 <vfprintf+0x298>
 b36:	20 e1       	ldi	r18, 0x10	; 16
 b38:	30 e0       	ldi	r19, 0x00	; 0
 b3a:	02 c0       	rjmp	.+4      	; 0xb40 <vfprintf+0x298>
 b3c:	20 e1       	ldi	r18, 0x10	; 16
 b3e:	32 e0       	ldi	r19, 0x02	; 2
 b40:	f8 01       	movw	r30, r16
 b42:	b7 fe       	sbrs	r11, 7
 b44:	07 c0       	rjmp	.+14     	; 0xb54 <vfprintf+0x2ac>
 b46:	60 81       	ld	r22, Z
 b48:	71 81       	ldd	r23, Z+1	; 0x01
 b4a:	82 81       	ldd	r24, Z+2	; 0x02
 b4c:	93 81       	ldd	r25, Z+3	; 0x03
 b4e:	0c 5f       	subi	r16, 0xFC	; 252
 b50:	1f 4f       	sbci	r17, 0xFF	; 255
 b52:	06 c0       	rjmp	.+12     	; 0xb60 <vfprintf+0x2b8>
 b54:	60 81       	ld	r22, Z
 b56:	71 81       	ldd	r23, Z+1	; 0x01
 b58:	80 e0       	ldi	r24, 0x00	; 0
 b5a:	90 e0       	ldi	r25, 0x00	; 0
 b5c:	0e 5f       	subi	r16, 0xFE	; 254
 b5e:	1f 4f       	sbci	r17, 0xFF	; 255
 b60:	a3 01       	movw	r20, r6
 b62:	f1 d0       	rcall	.+482    	; 0xd46 <__ultoa_invert>
 b64:	88 2e       	mov	r8, r24
 b66:	86 18       	sub	r8, r6
 b68:	fb 2d       	mov	r31, r11
 b6a:	ff 77       	andi	r31, 0x7F	; 127
 b6c:	3f 2e       	mov	r3, r31
 b6e:	36 fe       	sbrs	r3, 6
 b70:	0d c0       	rjmp	.+26     	; 0xb8c <vfprintf+0x2e4>
 b72:	23 2d       	mov	r18, r3
 b74:	2e 7f       	andi	r18, 0xFE	; 254
 b76:	a2 2e       	mov	r10, r18
 b78:	89 14       	cp	r8, r9
 b7a:	58 f4       	brcc	.+22     	; 0xb92 <vfprintf+0x2ea>
 b7c:	34 fe       	sbrs	r3, 4
 b7e:	0b c0       	rjmp	.+22     	; 0xb96 <vfprintf+0x2ee>
 b80:	32 fc       	sbrc	r3, 2
 b82:	09 c0       	rjmp	.+18     	; 0xb96 <vfprintf+0x2ee>
 b84:	83 2d       	mov	r24, r3
 b86:	8e 7e       	andi	r24, 0xEE	; 238
 b88:	a8 2e       	mov	r10, r24
 b8a:	05 c0       	rjmp	.+10     	; 0xb96 <vfprintf+0x2ee>
 b8c:	b8 2c       	mov	r11, r8
 b8e:	a3 2c       	mov	r10, r3
 b90:	03 c0       	rjmp	.+6      	; 0xb98 <vfprintf+0x2f0>
 b92:	b8 2c       	mov	r11, r8
 b94:	01 c0       	rjmp	.+2      	; 0xb98 <vfprintf+0x2f0>
 b96:	b9 2c       	mov	r11, r9
 b98:	a4 fe       	sbrs	r10, 4
 b9a:	0f c0       	rjmp	.+30     	; 0xbba <vfprintf+0x312>
 b9c:	fe 01       	movw	r30, r28
 b9e:	e8 0d       	add	r30, r8
 ba0:	f1 1d       	adc	r31, r1
 ba2:	80 81       	ld	r24, Z
 ba4:	80 33       	cpi	r24, 0x30	; 48
 ba6:	21 f4       	brne	.+8      	; 0xbb0 <vfprintf+0x308>
 ba8:	9a 2d       	mov	r25, r10
 baa:	99 7e       	andi	r25, 0xE9	; 233
 bac:	a9 2e       	mov	r10, r25
 bae:	09 c0       	rjmp	.+18     	; 0xbc2 <vfprintf+0x31a>
 bb0:	a2 fe       	sbrs	r10, 2
 bb2:	06 c0       	rjmp	.+12     	; 0xbc0 <vfprintf+0x318>
 bb4:	b3 94       	inc	r11
 bb6:	b3 94       	inc	r11
 bb8:	04 c0       	rjmp	.+8      	; 0xbc2 <vfprintf+0x31a>
 bba:	8a 2d       	mov	r24, r10
 bbc:	86 78       	andi	r24, 0x86	; 134
 bbe:	09 f0       	breq	.+2      	; 0xbc2 <vfprintf+0x31a>
 bc0:	b3 94       	inc	r11
 bc2:	a3 fc       	sbrc	r10, 3
 bc4:	10 c0       	rjmp	.+32     	; 0xbe6 <vfprintf+0x33e>
 bc6:	a0 fe       	sbrs	r10, 0
 bc8:	06 c0       	rjmp	.+12     	; 0xbd6 <vfprintf+0x32e>
 bca:	b2 14       	cp	r11, r2
 bcc:	80 f4       	brcc	.+32     	; 0xbee <vfprintf+0x346>
 bce:	28 0c       	add	r2, r8
 bd0:	92 2c       	mov	r9, r2
 bd2:	9b 18       	sub	r9, r11
 bd4:	0d c0       	rjmp	.+26     	; 0xbf0 <vfprintf+0x348>
 bd6:	b2 14       	cp	r11, r2
 bd8:	58 f4       	brcc	.+22     	; 0xbf0 <vfprintf+0x348>
 bda:	b6 01       	movw	r22, r12
 bdc:	80 e2       	ldi	r24, 0x20	; 32
 bde:	90 e0       	ldi	r25, 0x00	; 0
 be0:	76 d0       	rcall	.+236    	; 0xcce <fputc>
 be2:	b3 94       	inc	r11
 be4:	f8 cf       	rjmp	.-16     	; 0xbd6 <vfprintf+0x32e>
 be6:	b2 14       	cp	r11, r2
 be8:	18 f4       	brcc	.+6      	; 0xbf0 <vfprintf+0x348>
 bea:	2b 18       	sub	r2, r11
 bec:	02 c0       	rjmp	.+4      	; 0xbf2 <vfprintf+0x34a>
 bee:	98 2c       	mov	r9, r8
 bf0:	21 2c       	mov	r2, r1
 bf2:	a4 fe       	sbrs	r10, 4
 bf4:	0f c0       	rjmp	.+30     	; 0xc14 <vfprintf+0x36c>
 bf6:	b6 01       	movw	r22, r12
 bf8:	80 e3       	ldi	r24, 0x30	; 48
 bfa:	90 e0       	ldi	r25, 0x00	; 0
 bfc:	68 d0       	rcall	.+208    	; 0xcce <fputc>
 bfe:	a2 fe       	sbrs	r10, 2
 c00:	16 c0       	rjmp	.+44     	; 0xc2e <vfprintf+0x386>
 c02:	a1 fc       	sbrc	r10, 1
 c04:	03 c0       	rjmp	.+6      	; 0xc0c <vfprintf+0x364>
 c06:	88 e7       	ldi	r24, 0x78	; 120
 c08:	90 e0       	ldi	r25, 0x00	; 0
 c0a:	02 c0       	rjmp	.+4      	; 0xc10 <vfprintf+0x368>
 c0c:	88 e5       	ldi	r24, 0x58	; 88
 c0e:	90 e0       	ldi	r25, 0x00	; 0
 c10:	b6 01       	movw	r22, r12
 c12:	0c c0       	rjmp	.+24     	; 0xc2c <vfprintf+0x384>
 c14:	8a 2d       	mov	r24, r10
 c16:	86 78       	andi	r24, 0x86	; 134
 c18:	51 f0       	breq	.+20     	; 0xc2e <vfprintf+0x386>
 c1a:	a1 fe       	sbrs	r10, 1
 c1c:	02 c0       	rjmp	.+4      	; 0xc22 <vfprintf+0x37a>
 c1e:	8b e2       	ldi	r24, 0x2B	; 43
 c20:	01 c0       	rjmp	.+2      	; 0xc24 <vfprintf+0x37c>
 c22:	80 e2       	ldi	r24, 0x20	; 32
 c24:	a7 fc       	sbrc	r10, 7
 c26:	8d e2       	ldi	r24, 0x2D	; 45
 c28:	b6 01       	movw	r22, r12
 c2a:	90 e0       	ldi	r25, 0x00	; 0
 c2c:	50 d0       	rcall	.+160    	; 0xcce <fputc>
 c2e:	89 14       	cp	r8, r9
 c30:	30 f4       	brcc	.+12     	; 0xc3e <vfprintf+0x396>
 c32:	b6 01       	movw	r22, r12
 c34:	80 e3       	ldi	r24, 0x30	; 48
 c36:	90 e0       	ldi	r25, 0x00	; 0
 c38:	4a d0       	rcall	.+148    	; 0xcce <fputc>
 c3a:	9a 94       	dec	r9
 c3c:	f8 cf       	rjmp	.-16     	; 0xc2e <vfprintf+0x386>
 c3e:	8a 94       	dec	r8
 c40:	f3 01       	movw	r30, r6
 c42:	e8 0d       	add	r30, r8
 c44:	f1 1d       	adc	r31, r1
 c46:	80 81       	ld	r24, Z
 c48:	b6 01       	movw	r22, r12
 c4a:	90 e0       	ldi	r25, 0x00	; 0
 c4c:	40 d0       	rcall	.+128    	; 0xcce <fputc>
 c4e:	81 10       	cpse	r8, r1
 c50:	f6 cf       	rjmp	.-20     	; 0xc3e <vfprintf+0x396>
 c52:	22 20       	and	r2, r2
 c54:	09 f4       	brne	.+2      	; 0xc58 <vfprintf+0x3b0>
 c56:	4e ce       	rjmp	.-868    	; 0x8f4 <vfprintf+0x4c>
 c58:	b6 01       	movw	r22, r12
 c5a:	80 e2       	ldi	r24, 0x20	; 32
 c5c:	90 e0       	ldi	r25, 0x00	; 0
 c5e:	37 d0       	rcall	.+110    	; 0xcce <fputc>
 c60:	2a 94       	dec	r2
 c62:	f7 cf       	rjmp	.-18     	; 0xc52 <vfprintf+0x3aa>
 c64:	f6 01       	movw	r30, r12
 c66:	86 81       	ldd	r24, Z+6	; 0x06
 c68:	97 81       	ldd	r25, Z+7	; 0x07
 c6a:	02 c0       	rjmp	.+4      	; 0xc70 <vfprintf+0x3c8>
 c6c:	8f ef       	ldi	r24, 0xFF	; 255
 c6e:	9f ef       	ldi	r25, 0xFF	; 255
 c70:	2b 96       	adiw	r28, 0x0b	; 11
 c72:	0f b6       	in	r0, 0x3f	; 63
 c74:	f8 94       	cli
 c76:	de bf       	out	0x3e, r29	; 62
 c78:	0f be       	out	0x3f, r0	; 63
 c7a:	cd bf       	out	0x3d, r28	; 61
 c7c:	df 91       	pop	r29
 c7e:	cf 91       	pop	r28
 c80:	1f 91       	pop	r17
 c82:	0f 91       	pop	r16
 c84:	ff 90       	pop	r15
 c86:	ef 90       	pop	r14
 c88:	df 90       	pop	r13
 c8a:	cf 90       	pop	r12
 c8c:	bf 90       	pop	r11
 c8e:	af 90       	pop	r10
 c90:	9f 90       	pop	r9
 c92:	8f 90       	pop	r8
 c94:	7f 90       	pop	r7
 c96:	6f 90       	pop	r6
 c98:	5f 90       	pop	r5
 c9a:	4f 90       	pop	r4
 c9c:	3f 90       	pop	r3
 c9e:	2f 90       	pop	r2
 ca0:	08 95       	ret

00000ca2 <strnlen_P>:
 ca2:	fc 01       	movw	r30, r24
 ca4:	05 90       	lpm	r0, Z+
 ca6:	61 50       	subi	r22, 0x01	; 1
 ca8:	70 40       	sbci	r23, 0x00	; 0
 caa:	01 10       	cpse	r0, r1
 cac:	d8 f7       	brcc	.-10     	; 0xca4 <strnlen_P+0x2>
 cae:	80 95       	com	r24
 cb0:	90 95       	com	r25
 cb2:	8e 0f       	add	r24, r30
 cb4:	9f 1f       	adc	r25, r31
 cb6:	08 95       	ret

00000cb8 <strnlen>:
 cb8:	fc 01       	movw	r30, r24
 cba:	61 50       	subi	r22, 0x01	; 1
 cbc:	70 40       	sbci	r23, 0x00	; 0
 cbe:	01 90       	ld	r0, Z+
 cc0:	01 10       	cpse	r0, r1
 cc2:	d8 f7       	brcc	.-10     	; 0xcba <strnlen+0x2>
 cc4:	80 95       	com	r24
 cc6:	90 95       	com	r25
 cc8:	8e 0f       	add	r24, r30
 cca:	9f 1f       	adc	r25, r31
 ccc:	08 95       	ret

00000cce <fputc>:
 cce:	0f 93       	push	r16
 cd0:	1f 93       	push	r17
 cd2:	cf 93       	push	r28
 cd4:	df 93       	push	r29
 cd6:	fb 01       	movw	r30, r22
 cd8:	23 81       	ldd	r18, Z+3	; 0x03
 cda:	21 fd       	sbrc	r18, 1
 cdc:	03 c0       	rjmp	.+6      	; 0xce4 <fputc+0x16>
 cde:	8f ef       	ldi	r24, 0xFF	; 255
 ce0:	9f ef       	ldi	r25, 0xFF	; 255
 ce2:	2c c0       	rjmp	.+88     	; 0xd3c <fputc+0x6e>
 ce4:	22 ff       	sbrs	r18, 2
 ce6:	16 c0       	rjmp	.+44     	; 0xd14 <fputc+0x46>
 ce8:	46 81       	ldd	r20, Z+6	; 0x06
 cea:	57 81       	ldd	r21, Z+7	; 0x07
 cec:	24 81       	ldd	r18, Z+4	; 0x04
 cee:	35 81       	ldd	r19, Z+5	; 0x05
 cf0:	42 17       	cp	r20, r18
 cf2:	53 07       	cpc	r21, r19
 cf4:	44 f4       	brge	.+16     	; 0xd06 <fputc+0x38>
 cf6:	a0 81       	ld	r26, Z
 cf8:	b1 81       	ldd	r27, Z+1	; 0x01
 cfa:	9d 01       	movw	r18, r26
 cfc:	2f 5f       	subi	r18, 0xFF	; 255
 cfe:	3f 4f       	sbci	r19, 0xFF	; 255
 d00:	31 83       	std	Z+1, r19	; 0x01
 d02:	20 83       	st	Z, r18
 d04:	8c 93       	st	X, r24
 d06:	26 81       	ldd	r18, Z+6	; 0x06
 d08:	37 81       	ldd	r19, Z+7	; 0x07
 d0a:	2f 5f       	subi	r18, 0xFF	; 255
 d0c:	3f 4f       	sbci	r19, 0xFF	; 255
 d0e:	37 83       	std	Z+7, r19	; 0x07
 d10:	26 83       	std	Z+6, r18	; 0x06
 d12:	14 c0       	rjmp	.+40     	; 0xd3c <fputc+0x6e>
 d14:	8b 01       	movw	r16, r22
 d16:	ec 01       	movw	r28, r24
 d18:	fb 01       	movw	r30, r22
 d1a:	00 84       	ldd	r0, Z+8	; 0x08
 d1c:	f1 85       	ldd	r31, Z+9	; 0x09
 d1e:	e0 2d       	mov	r30, r0
 d20:	19 95       	eicall
 d22:	89 2b       	or	r24, r25
 d24:	e1 f6       	brne	.-72     	; 0xcde <fputc+0x10>
 d26:	d8 01       	movw	r26, r16
 d28:	16 96       	adiw	r26, 0x06	; 6
 d2a:	8d 91       	ld	r24, X+
 d2c:	9c 91       	ld	r25, X
 d2e:	17 97       	sbiw	r26, 0x07	; 7
 d30:	01 96       	adiw	r24, 0x01	; 1
 d32:	17 96       	adiw	r26, 0x07	; 7
 d34:	9c 93       	st	X, r25
 d36:	8e 93       	st	-X, r24
 d38:	16 97       	sbiw	r26, 0x06	; 6
 d3a:	ce 01       	movw	r24, r28
 d3c:	df 91       	pop	r29
 d3e:	cf 91       	pop	r28
 d40:	1f 91       	pop	r17
 d42:	0f 91       	pop	r16
 d44:	08 95       	ret

00000d46 <__ultoa_invert>:
 d46:	fa 01       	movw	r30, r20
 d48:	aa 27       	eor	r26, r26
 d4a:	28 30       	cpi	r18, 0x08	; 8
 d4c:	51 f1       	breq	.+84     	; 0xda2 <__ultoa_invert+0x5c>
 d4e:	20 31       	cpi	r18, 0x10	; 16
 d50:	81 f1       	breq	.+96     	; 0xdb2 <__ultoa_invert+0x6c>
 d52:	e8 94       	clt
 d54:	6f 93       	push	r22
 d56:	6e 7f       	andi	r22, 0xFE	; 254
 d58:	6e 5f       	subi	r22, 0xFE	; 254
 d5a:	7f 4f       	sbci	r23, 0xFF	; 255
 d5c:	8f 4f       	sbci	r24, 0xFF	; 255
 d5e:	9f 4f       	sbci	r25, 0xFF	; 255
 d60:	af 4f       	sbci	r26, 0xFF	; 255
 d62:	b1 e0       	ldi	r27, 0x01	; 1
 d64:	3e d0       	rcall	.+124    	; 0xde2 <__ultoa_invert+0x9c>
 d66:	b4 e0       	ldi	r27, 0x04	; 4
 d68:	3c d0       	rcall	.+120    	; 0xde2 <__ultoa_invert+0x9c>
 d6a:	67 0f       	add	r22, r23
 d6c:	78 1f       	adc	r23, r24
 d6e:	89 1f       	adc	r24, r25
 d70:	9a 1f       	adc	r25, r26
 d72:	a1 1d       	adc	r26, r1
 d74:	68 0f       	add	r22, r24
 d76:	79 1f       	adc	r23, r25
 d78:	8a 1f       	adc	r24, r26
 d7a:	91 1d       	adc	r25, r1
 d7c:	a1 1d       	adc	r26, r1
 d7e:	6a 0f       	add	r22, r26
 d80:	71 1d       	adc	r23, r1
 d82:	81 1d       	adc	r24, r1
 d84:	91 1d       	adc	r25, r1
 d86:	a1 1d       	adc	r26, r1
 d88:	20 d0       	rcall	.+64     	; 0xdca <__ultoa_invert+0x84>
 d8a:	09 f4       	brne	.+2      	; 0xd8e <__ultoa_invert+0x48>
 d8c:	68 94       	set
 d8e:	3f 91       	pop	r19
 d90:	2a e0       	ldi	r18, 0x0A	; 10
 d92:	26 9f       	mul	r18, r22
 d94:	11 24       	eor	r1, r1
 d96:	30 19       	sub	r19, r0
 d98:	30 5d       	subi	r19, 0xD0	; 208
 d9a:	31 93       	st	Z+, r19
 d9c:	de f6       	brtc	.-74     	; 0xd54 <__ultoa_invert+0xe>
 d9e:	cf 01       	movw	r24, r30
 da0:	08 95       	ret
 da2:	46 2f       	mov	r20, r22
 da4:	47 70       	andi	r20, 0x07	; 7
 da6:	40 5d       	subi	r20, 0xD0	; 208
 da8:	41 93       	st	Z+, r20
 daa:	b3 e0       	ldi	r27, 0x03	; 3
 dac:	0f d0       	rcall	.+30     	; 0xdcc <__ultoa_invert+0x86>
 dae:	c9 f7       	brne	.-14     	; 0xda2 <__ultoa_invert+0x5c>
 db0:	f6 cf       	rjmp	.-20     	; 0xd9e <__ultoa_invert+0x58>
 db2:	46 2f       	mov	r20, r22
 db4:	4f 70       	andi	r20, 0x0F	; 15
 db6:	40 5d       	subi	r20, 0xD0	; 208
 db8:	4a 33       	cpi	r20, 0x3A	; 58
 dba:	18 f0       	brcs	.+6      	; 0xdc2 <__ultoa_invert+0x7c>
 dbc:	49 5d       	subi	r20, 0xD9	; 217
 dbe:	31 fd       	sbrc	r19, 1
 dc0:	40 52       	subi	r20, 0x20	; 32
 dc2:	41 93       	st	Z+, r20
 dc4:	02 d0       	rcall	.+4      	; 0xdca <__ultoa_invert+0x84>
 dc6:	a9 f7       	brne	.-22     	; 0xdb2 <__ultoa_invert+0x6c>
 dc8:	ea cf       	rjmp	.-44     	; 0xd9e <__ultoa_invert+0x58>
 dca:	b4 e0       	ldi	r27, 0x04	; 4
 dcc:	a6 95       	lsr	r26
 dce:	97 95       	ror	r25
 dd0:	87 95       	ror	r24
 dd2:	77 95       	ror	r23
 dd4:	67 95       	ror	r22
 dd6:	ba 95       	dec	r27
 dd8:	c9 f7       	brne	.-14     	; 0xdcc <__ultoa_invert+0x86>
 dda:	00 97       	sbiw	r24, 0x00	; 0
 ddc:	61 05       	cpc	r22, r1
 dde:	71 05       	cpc	r23, r1
 de0:	08 95       	ret
 de2:	9b 01       	movw	r18, r22
 de4:	ac 01       	movw	r20, r24
 de6:	0a 2e       	mov	r0, r26
 de8:	06 94       	lsr	r0
 dea:	57 95       	ror	r21
 dec:	47 95       	ror	r20
 dee:	37 95       	ror	r19
 df0:	27 95       	ror	r18
 df2:	ba 95       	dec	r27
 df4:	c9 f7       	brne	.-14     	; 0xde8 <__ultoa_invert+0xa2>
 df6:	62 0f       	add	r22, r18
 df8:	73 1f       	adc	r23, r19
 dfa:	84 1f       	adc	r24, r20
 dfc:	95 1f       	adc	r25, r21
 dfe:	a0 1d       	adc	r26, r0
 e00:	08 95       	ret

00000e02 <_exit>:
 e02:	f8 94       	cli

00000e04 <__stop_program>:
 e04:	ff cf       	rjmp	.-2      	; 0xe04 <__stop_program>
