
uCBoardBeispiele.elf:     file format elf32-avr

Sections:
Idx Name          Size      VMA       LMA       File off  Algn
  0 .data         00000074  00800200  00000dd4  00000e68  2**0
                  CONTENTS, ALLOC, LOAD, DATA
  1 .text         00000dd4  00000000  00000000  00000094  2**1
                  CONTENTS, ALLOC, LOAD, READONLY, CODE
  2 .bss          0000007e  00800274  00800274  00000edc  2**0
                  ALLOC
  3 .comment      0000005c  00000000  00000000  00000edc  2**0
                  CONTENTS, READONLY
  4 .note.gnu.avr.deviceinfo 00000040  00000000  00000000  00000f38  2**2
                  CONTENTS, READONLY
  5 .debug_aranges 000001e0  00000000  00000000  00000f78  2**0
                  CONTENTS, READONLY, DEBUGGING
  6 .debug_info   0000249a  00000000  00000000  00001158  2**0
                  CONTENTS, READONLY, DEBUGGING
  7 .debug_abbrev 00000fa1  00000000  00000000  000035f2  2**0
                  CONTENTS, READONLY, DEBUGGING
  8 .debug_line   0000140a  00000000  00000000  00004593  2**0
                  CONTENTS, READONLY, DEBUGGING
  9 .debug_frame  00000668  00000000  00000000  000059a0  2**2
                  CONTENTS, READONLY, DEBUGGING
 10 .debug_str    00000c8f  00000000  00000000  00006008  2**0
                  CONTENTS, READONLY, DEBUGGING
 11 .debug_loc    00001bf6  00000000  00000000  00006c97  2**0
                  CONTENTS, READONLY, DEBUGGING
 12 .debug_ranges 00000210  00000000  00000000  0000888d  2**0
                  CONTENTS, READONLY, DEBUGGING

Disassembly of section .text:

00000000 <__vectors>:
   0:	71 c0       	rjmp	.+226    	; 0xe4 <__ctors_end>
   2:	00 00       	nop
   4:	8e c0       	rjmp	.+284    	; 0x122 <__bad_interrupt>
   6:	00 00       	nop
   8:	8c c0       	rjmp	.+280    	; 0x122 <__bad_interrupt>
   a:	00 00       	nop
   c:	8a c0       	rjmp	.+276    	; 0x122 <__bad_interrupt>
   e:	00 00       	nop
  10:	88 c0       	rjmp	.+272    	; 0x122 <__bad_interrupt>
  12:	00 00       	nop
  14:	86 c0       	rjmp	.+268    	; 0x122 <__bad_interrupt>
  16:	00 00       	nop
  18:	84 c0       	rjmp	.+264    	; 0x122 <__bad_interrupt>
  1a:	00 00       	nop
  1c:	82 c0       	rjmp	.+260    	; 0x122 <__bad_interrupt>
  1e:	00 00       	nop
  20:	80 c0       	rjmp	.+256    	; 0x122 <__bad_interrupt>
  22:	00 00       	nop
  24:	7e c0       	rjmp	.+252    	; 0x122 <__bad_interrupt>
  26:	00 00       	nop
  28:	7c c0       	rjmp	.+248    	; 0x122 <__bad_interrupt>
  2a:	00 00       	nop
  2c:	7a c0       	rjmp	.+244    	; 0x122 <__bad_interrupt>
  2e:	00 00       	nop
  30:	78 c0       	rjmp	.+240    	; 0x122 <__bad_interrupt>
  32:	00 00       	nop
  34:	76 c0       	rjmp	.+236    	; 0x122 <__bad_interrupt>
  36:	00 00       	nop
  38:	74 c0       	rjmp	.+232    	; 0x122 <__bad_interrupt>
  3a:	00 00       	nop
  3c:	72 c0       	rjmp	.+228    	; 0x122 <__bad_interrupt>
  3e:	00 00       	nop
  40:	70 c0       	rjmp	.+224    	; 0x122 <__bad_interrupt>
  42:	00 00       	nop
  44:	6e c0       	rjmp	.+220    	; 0x122 <__bad_interrupt>
  46:	00 00       	nop
  48:	6c c0       	rjmp	.+216    	; 0x122 <__bad_interrupt>
  4a:	00 00       	nop
  4c:	6a c0       	rjmp	.+212    	; 0x122 <__bad_interrupt>
  4e:	00 00       	nop
  50:	68 c0       	rjmp	.+208    	; 0x122 <__bad_interrupt>
  52:	00 00       	nop
  54:	66 c0       	rjmp	.+204    	; 0x122 <__bad_interrupt>
  56:	00 00       	nop
  58:	64 c0       	rjmp	.+200    	; 0x122 <__bad_interrupt>
  5a:	00 00       	nop
  5c:	7c c3       	rjmp	.+1784   	; 0x756 <__vector_23>
  5e:	00 00       	nop
  60:	60 c0       	rjmp	.+192    	; 0x122 <__bad_interrupt>
  62:	00 00       	nop
  64:	5e c0       	rjmp	.+188    	; 0x122 <__bad_interrupt>
  66:	00 00       	nop
  68:	5c c0       	rjmp	.+184    	; 0x122 <__bad_interrupt>
  6a:	00 00       	nop
  6c:	5a c0       	rjmp	.+180    	; 0x122 <__bad_interrupt>
  6e:	00 00       	nop
  70:	58 c0       	rjmp	.+176    	; 0x122 <__bad_interrupt>
  72:	00 00       	nop
  74:	56 c0       	rjmp	.+172    	; 0x122 <__bad_interrupt>
  76:	00 00       	nop
  78:	54 c0       	rjmp	.+168    	; 0x122 <__bad_interrupt>
  7a:	00 00       	nop
  7c:	52 c0       	rjmp	.+164    	; 0x122 <__bad_interrupt>
  7e:	00 00       	nop
  80:	50 c0       	rjmp	.+160    	; 0x122 <__bad_interrupt>
  82:	00 00       	nop
  84:	4e c0       	rjmp	.+156    	; 0x122 <__bad_interrupt>
  86:	00 00       	nop
  88:	4c c0       	rjmp	.+152    	; 0x122 <__bad_interrupt>
  8a:	00 00       	nop
  8c:	4a c0       	rjmp	.+148    	; 0x122 <__bad_interrupt>
  8e:	00 00       	nop
  90:	48 c0       	rjmp	.+144    	; 0x122 <__bad_interrupt>
  92:	00 00       	nop
  94:	46 c0       	rjmp	.+140    	; 0x122 <__bad_interrupt>
  96:	00 00       	nop
  98:	44 c0       	rjmp	.+136    	; 0x122 <__bad_interrupt>
  9a:	00 00       	nop
  9c:	42 c0       	rjmp	.+132    	; 0x122 <__bad_interrupt>
  9e:	00 00       	nop
  a0:	40 c0       	rjmp	.+128    	; 0x122 <__bad_interrupt>
  a2:	00 00       	nop
  a4:	3e c0       	rjmp	.+124    	; 0x122 <__bad_interrupt>
  a6:	00 00       	nop
  a8:	3c c0       	rjmp	.+120    	; 0x122 <__bad_interrupt>
  aa:	00 00       	nop
  ac:	3a c0       	rjmp	.+116    	; 0x122 <__bad_interrupt>
  ae:	00 00       	nop
  b0:	38 c0       	rjmp	.+112    	; 0x122 <__bad_interrupt>
  b2:	00 00       	nop
  b4:	36 c0       	rjmp	.+108    	; 0x122 <__bad_interrupt>
  b6:	00 00       	nop
  b8:	34 c0       	rjmp	.+104    	; 0x122 <__bad_interrupt>
  ba:	00 00       	nop
  bc:	32 c0       	rjmp	.+100    	; 0x122 <__bad_interrupt>
  be:	00 00       	nop
  c0:	30 c0       	rjmp	.+96     	; 0x122 <__bad_interrupt>
  c2:	00 00       	nop
  c4:	2e c0       	rjmp	.+92     	; 0x122 <__bad_interrupt>
  c6:	00 00       	nop
  c8:	2c c0       	rjmp	.+88     	; 0x122 <__bad_interrupt>
  ca:	00 00       	nop
  cc:	2a c0       	rjmp	.+84     	; 0x122 <__bad_interrupt>
  ce:	00 00       	nop
  d0:	28 c0       	rjmp	.+80     	; 0x122 <__bad_interrupt>
  d2:	00 00       	nop
  d4:	26 c0       	rjmp	.+76     	; 0x122 <__bad_interrupt>
  d6:	00 00       	nop
  d8:	24 c0       	rjmp	.+72     	; 0x122 <__bad_interrupt>
  da:	00 00       	nop
  dc:	22 c0       	rjmp	.+68     	; 0x122 <__bad_interrupt>
  de:	00 00       	nop
  e0:	20 c0       	rjmp	.+64     	; 0x122 <__bad_interrupt>
	...

000000e4 <__ctors_end>:
  e4:	11 24       	eor	r1, r1
  e6:	1f be       	out	0x3f, r1	; 63
  e8:	cf ef       	ldi	r28, 0xFF	; 255
  ea:	d1 e2       	ldi	r29, 0x21	; 33
  ec:	de bf       	out	0x3e, r29	; 62
  ee:	cd bf       	out	0x3d, r28	; 61
  f0:	00 e0       	ldi	r16, 0x00	; 0
  f2:	0c bf       	out	0x3c, r16	; 60

000000f4 <__do_copy_data>:
  f4:	12 e0       	ldi	r17, 0x02	; 2
  f6:	a0 e0       	ldi	r26, 0x00	; 0
  f8:	b2 e0       	ldi	r27, 0x02	; 2
  fa:	e4 ed       	ldi	r30, 0xD4	; 212
  fc:	fd e0       	ldi	r31, 0x0D	; 13
  fe:	00 e0       	ldi	r16, 0x00	; 0
 100:	0b bf       	out	0x3b, r16	; 59
 102:	02 c0       	rjmp	.+4      	; 0x108 <__do_copy_data+0x14>
 104:	07 90       	elpm	r0, Z+
 106:	0d 92       	st	X+, r0
 108:	a4 37       	cpi	r26, 0x74	; 116
 10a:	b1 07       	cpc	r27, r17
 10c:	d9 f7       	brne	.-10     	; 0x104 <__do_copy_data+0x10>

0000010e <__do_clear_bss>:
 10e:	22 e0       	ldi	r18, 0x02	; 2
 110:	a4 e7       	ldi	r26, 0x74	; 116
 112:	b2 e0       	ldi	r27, 0x02	; 2
 114:	01 c0       	rjmp	.+2      	; 0x118 <.do_clear_bss_start>

00000116 <.do_clear_bss_loop>:
 116:	1d 92       	st	X+, r1

00000118 <.do_clear_bss_start>:
 118:	a2 3f       	cpi	r26, 0xF2	; 242
 11a:	b2 07       	cpc	r27, r18
 11c:	e1 f7       	brne	.-8      	; 0x116 <.do_clear_bss_loop>
 11e:	02 d0       	rcall	.+4      	; 0x124 <main>
 120:	57 c6       	rjmp	.+3246   	; 0xdd0 <_exit>

00000122 <__bad_interrupt>:
 122:	6e cf       	rjmp	.-292    	; 0x0 <__vectors>

00000124 <main>:
    uint16_t H4 = 0;
    uint16_t H5 = 0;
    uint16_t H6 = 0;
    
    //Initialisieren
    initBoard(1);
 124:	81 e0       	ldi	r24, 0x01	; 1
 126:	94 d1       	rcall	.+808    	; 0x450 <initBoard>
       if (S7)
       {
           H1 = H1 | (0x02);
           H2 = H2 | (0x04);
           H3 = H3 | (0x08);
           H4 = H4 | (0x10);
 128:	68 94       	set
 12a:	88 24       	eor	r8, r8
 12c:	84 f8       	bld	r8, 4
 12e:	91 2c       	mov	r9, r1
        }
       if (S7)
       {
           H1 = H1 | (0x02);
           H2 = H2 | (0x04);
           H3 = H3 | (0x08);
 130:	68 94       	set
 132:	aa 24       	eor	r10, r10
 134:	a3 f8       	bld	r10, 3
 136:	b1 2c       	mov	r11, r1
             H1 = H1 & ~(0x02);
        }
       if (S7)
       {
           H1 = H1 | (0x02);
           H2 = H2 | (0x04);
 138:	68 94       	set
 13a:	cc 24       	eor	r12, r12
 13c:	c2 f8       	bld	r12, 2
 13e:	d1 2c       	mov	r13, r1
        {
             H1 = H1 & ~(0x02);
        }
       if (S7)
       {
           H1 = H1 | (0x02);
 140:	68 94       	set
 142:	ee 24       	eor	r14, r14
 144:	e1 f8       	bld	r14, 1
 146:	f1 2c       	mov	r15, r1
       else
       {
           H1 = H1 & ~(0x02);
           H2 = H2 & ~(0x04);
           H3 = H3 & ~(0x08);
           H4 = H4 & ~(0x10);
 148:	00 e0       	ldi	r16, 0x00	; 0
    
    //Unendlichschlaufe
    while(1)
    {
        //Eingabe------------------------------------------------------------------
        schalter = switchReadAll();
 14a:	10 e0       	ldi	r17, 0x00	; 0
 14c:	26 d0       	rcall	.+76     	; 0x19a <switchReadAll>
        
        //Verarbeitung-------------------------------------------------------------
        
        if (S5)
        {
            H0 = H0 | (0x01);
 14e:	98 2f       	mov	r25, r24
 150:	91 70       	andi	r25, 0x01	; 1
 152:	c9 2f       	mov	r28, r25
 154:	90 e0       	ldi	r25, 0x00	; 0
 156:	d9 2f       	mov	r29, r25
        } 
        else
        {
             H1 = H1 & ~(0x02);
        }
       if (S7)
 158:	82 fd       	sbrc	r24, 2
 15a:	09 c0       	rjmp	.+18     	; 0x16e <main+0x4a>
       else
       {
           H1 = H1 & ~(0x02);
           H2 = H2 & ~(0x04);
           H3 = H3 & ~(0x08);
           H4 = H4 & ~(0x10);
 15c:	60 2f       	mov	r22, r16
 15e:	71 2f       	mov	r23, r17
       } 
       else
       {
           H1 = H1 & ~(0x02);
           H2 = H2 & ~(0x04);
           H3 = H3 & ~(0x08);
 160:	40 2f       	mov	r20, r16
 162:	51 2f       	mov	r21, r17
           
       } 
       else
       {
           H1 = H1 & ~(0x02);
           H2 = H2 & ~(0x04);
 164:	20 2f       	mov	r18, r16
 166:	31 2f       	mov	r19, r17
           H4 = H4 | (0x10);
           
       } 
       else
       {
           H1 = H1 & ~(0x02);
 168:	80 2f       	mov	r24, r16
 16a:	91 2f       	mov	r25, r17
 16c:	08 c0       	rjmp	.+16     	; 0x17e <main+0x5a>
       if (S7)
       {
           H1 = H1 | (0x02);
           H2 = H2 | (0x04);
           H3 = H3 | (0x08);
           H4 = H4 | (0x10);
 16e:	68 2d       	mov	r22, r8
 170:	79 2d       	mov	r23, r9
        }
       if (S7)
       {
           H1 = H1 | (0x02);
           H2 = H2 | (0x04);
           H3 = H3 | (0x08);
 172:	4a 2d       	mov	r20, r10
 174:	5b 2d       	mov	r21, r11
             H1 = H1 & ~(0x02);
        }
       if (S7)
       {
           H1 = H1 | (0x02);
           H2 = H2 | (0x04);
 176:	2c 2d       	mov	r18, r12
 178:	3d 2d       	mov	r19, r13
        {
             H1 = H1 & ~(0x02);
        }
       if (S7)
       {
           H1 = H1 | (0x02);
 17a:	8e 2d       	mov	r24, r14
 17c:	9f 2d       	mov	r25, r15
       }
        
        
        //Ausgabe------------------------------------------------------------------
        
        ledWriteAll(H0 | H1 | H2 | H3 | H4);
 17e:	28 2b       	or	r18, r24
 180:	39 2b       	or	r19, r25
 182:	2c 2b       	or	r18, r28
 184:	3d 2b       	or	r19, r29
 186:	c9 01       	movw	r24, r18
 188:	84 2b       	or	r24, r20
 18a:	95 2b       	or	r25, r21
 18c:	86 2b       	or	r24, r22
 18e:	97 2b       	or	r25, r23
 190:	01 d0       	rcall	.+2      	; 0x194 <ledWriteAll>
        
    }
 192:	dc cf       	rjmp	.-72     	; 0x14c <main+0x28>

00000194 <ledWriteAll>:
            }
        }
        matrix_buffer_pos += breite + Zeichenabstand;           // Position für das nächste Zeichen berechnen
        str_p++;                                                // Zeichen-Zeiger auf das nächste Zeichen richten
    }
}
 194:	82 b9       	out	0x02, r24	; 2
 196:	95 b9       	out	0x05, r25	; 5
 198:	08 95       	ret

0000019a <switchReadAll>:
 19a:	86 b1       	in	r24, 0x06	; 6
 19c:	08 95       	ret

0000019e <startSystemTimeMs>:
 19e:	83 e0       	ldi	r24, 0x03	; 3
 1a0:	84 bd       	out	0x24, r24	; 36
 1a2:	8b e0       	ldi	r24, 0x0B	; 11
 1a4:	85 bd       	out	0x25, r24	; 37
 1a6:	81 e0       	ldi	r24, 0x01	; 1
 1a8:	80 93 6e 00 	sts	0x006E, r24	; 0x80006e <__TEXT_REGION_LENGTH__+0x70006e>
 1ac:	89 ef       	ldi	r24, 0xF9	; 249
 1ae:	87 bd       	out	0x27, r24	; 39
 1b0:	08 95       	ret

000001b2 <initAdc>:
 1b2:	11 ba       	out	0x11, r1	; 17
 1b4:	10 ba       	out	0x10, r1	; 16
 1b6:	10 92 08 01 	sts	0x0108, r1	; 0x800108 <__TEXT_REGION_LENGTH__+0x700108>
 1ba:	10 92 07 01 	sts	0x0107, r1	; 0x800107 <__TEXT_REGION_LENGTH__+0x700107>
 1be:	80 e4       	ldi	r24, 0x40	; 64
 1c0:	80 93 7c 00 	sts	0x007C, r24	; 0x80007c <__TEXT_REGION_LENGTH__+0x70007c>
 1c4:	8f e0       	ldi	r24, 0x0F	; 15
 1c6:	80 93 7e 00 	sts	0x007E, r24	; 0x80007e <__TEXT_REGION_LENGTH__+0x70007e>
 1ca:	8f ef       	ldi	r24, 0xFF	; 255
 1cc:	80 93 7d 00 	sts	0x007D, r24	; 0x80007d <__TEXT_REGION_LENGTH__+0x70007d>
 1d0:	ea e7       	ldi	r30, 0x7A	; 122
 1d2:	f0 e0       	ldi	r31, 0x00	; 0
 1d4:	87 ea       	ldi	r24, 0xA7	; 167
 1d6:	80 83       	st	Z, r24
 1d8:	10 92 7b 00 	sts	0x007B, r1	; 0x80007b <__TEXT_REGION_LENGTH__+0x70007b>
 1dc:	80 81       	ld	r24, Z
 1de:	80 64       	ori	r24, 0x40	; 64
 1e0:	80 83       	st	Z, r24
 1e2:	80 81       	ld	r24, Z
 1e4:	84 ff       	sbrs	r24, 4
 1e6:	fd cf       	rjmp	.-6      	; 0x1e2 <initAdc+0x30>
 1e8:	ea e7       	ldi	r30, 0x7A	; 122
 1ea:	f0 e0       	ldi	r31, 0x00	; 0
 1ec:	80 81       	ld	r24, Z
 1ee:	8f 7e       	andi	r24, 0xEF	; 239
 1f0:	80 83       	st	Z, r24
 1f2:	08 95       	ret

000001f4 <rgbWrite>:
 1f4:	2f ef       	ldi	r18, 0xFF	; 255
 1f6:	33 e0       	ldi	r19, 0x03	; 3
 1f8:	f9 01       	movw	r30, r18
 1fa:	e8 1b       	sub	r30, r24
 1fc:	f9 0b       	sbc	r31, r25
 1fe:	c9 01       	movw	r24, r18
 200:	86 1b       	sub	r24, r22
 202:	97 0b       	sbc	r25, r23
 204:	24 1b       	sub	r18, r20
 206:	35 0b       	sbc	r19, r21
 208:	f0 93 a9 00 	sts	0x00A9, r31	; 0x8000a9 <__TEXT_REGION_LENGTH__+0x7000a9>
 20c:	e0 93 a8 00 	sts	0x00A8, r30	; 0x8000a8 <__TEXT_REGION_LENGTH__+0x7000a8>
 210:	90 93 ab 00 	sts	0x00AB, r25	; 0x8000ab <__TEXT_REGION_LENGTH__+0x7000ab>
 214:	80 93 aa 00 	sts	0x00AA, r24	; 0x8000aa <__TEXT_REGION_LENGTH__+0x7000aa>
 218:	30 93 ad 00 	sts	0x00AD, r19	; 0x8000ad <__TEXT_REGION_LENGTH__+0x7000ad>
 21c:	20 93 ac 00 	sts	0x00AC, r18	; 0x8000ac <__TEXT_REGION_LENGTH__+0x7000ac>
 220:	08 95       	ret

00000222 <initRgb>:
 222:	8e ef       	ldi	r24, 0xFE	; 254
 224:	80 93 a0 00 	sts	0x00A0, r24	; 0x8000a0 <__TEXT_REGION_LENGTH__+0x7000a0>
 228:	8b e1       	ldi	r24, 0x1B	; 27
 22a:	80 93 a1 00 	sts	0x00A1, r24	; 0x8000a1 <__TEXT_REGION_LENGTH__+0x7000a1>
 22e:	83 e0       	ldi	r24, 0x03	; 3
 230:	80 93 a7 00 	sts	0x00A7, r24	; 0x8000a7 <__TEXT_REGION_LENGTH__+0x7000a7>
 234:	8f ef       	ldi	r24, 0xFF	; 255
 236:	80 93 a6 00 	sts	0x00A6, r24	; 0x8000a6 <__TEXT_REGION_LENGTH__+0x7000a6>
 23a:	40 e0       	ldi	r20, 0x00	; 0
 23c:	50 e0       	ldi	r21, 0x00	; 0
 23e:	60 e0       	ldi	r22, 0x00	; 0
 240:	70 e0       	ldi	r23, 0x00	; 0
 242:	80 e0       	ldi	r24, 0x00	; 0
 244:	90 e0       	ldi	r25, 0x00	; 0
 246:	d6 cf       	rjmp	.-84     	; 0x1f4 <rgbWrite>
 248:	08 95       	ret

0000024a <lcdSid>:
 24a:	88 23       	and	r24, r24
 24c:	11 f0       	breq	.+4      	; 0x252 <lcdSid+0x8>
 24e:	a0 9a       	sbi	0x14, 0	; 20
 250:	08 95       	ret
 252:	a0 98       	cbi	0x14, 0	; 20
 254:	08 95       	ret

00000256 <lcdSclk>:
 256:	88 23       	and	r24, r24
 258:	11 f0       	breq	.+4      	; 0x25e <lcdSclk+0x8>
 25a:	a1 9a       	sbi	0x14, 1	; 20
 25c:	08 95       	ret
 25e:	a1 98       	cbi	0x14, 1	; 20
 260:	08 95       	ret

00000262 <lcdLight>:
 262:	81 11       	cpse	r24, r1
 264:	04 c0       	rjmp	.+8      	; 0x26e <lcdLight+0xc>
 266:	84 b5       	in	r24, 0x24	; 36
 268:	8f 7d       	andi	r24, 0xDF	; 223
 26a:	84 bd       	out	0x24, r24	; 36
 26c:	08 95       	ret
 26e:	94 b5       	in	r25, 0x24	; 36
 270:	90 62       	ori	r25, 0x20	; 32
 272:	94 bd       	out	0x24, r25	; 36
 274:	88 bd       	out	0x28, r24	; 40
 276:	08 95       	ret

00000278 <writeLcdF>:
 278:	ef 92       	push	r14
 27a:	ff 92       	push	r15
 27c:	0f 93       	push	r16
 27e:	1f 93       	push	r17
 280:	cf 93       	push	r28
 282:	df 93       	push	r29
 284:	7c 01       	movw	r14, r24
 286:	eb 01       	movw	r28, r22
 288:	81 e0       	ldi	r24, 0x01	; 1
 28a:	df df       	rcall	.-66     	; 0x24a <lcdSid>
 28c:	05 e0       	ldi	r16, 0x05	; 5
 28e:	10 e0       	ldi	r17, 0x00	; 0
 290:	80 e0       	ldi	r24, 0x00	; 0
 292:	e1 df       	rcall	.-62     	; 0x256 <lcdSclk>
 294:	81 e0       	ldi	r24, 0x01	; 1
 296:	df df       	rcall	.-66     	; 0x256 <lcdSclk>
 298:	01 50       	subi	r16, 0x01	; 1
 29a:	11 09       	sbc	r17, r1
 29c:	c9 f7       	brne	.-14     	; 0x290 <writeLcdF+0x18>
 29e:	80 e0       	ldi	r24, 0x00	; 0
 2a0:	d4 df       	rcall	.-88     	; 0x24a <lcdSid>
 2a2:	80 e0       	ldi	r24, 0x00	; 0
 2a4:	d8 df       	rcall	.-80     	; 0x256 <lcdSclk>
 2a6:	81 e0       	ldi	r24, 0x01	; 1
 2a8:	d6 df       	rcall	.-84     	; 0x256 <lcdSclk>
 2aa:	83 e4       	ldi	r24, 0x43	; 67
 2ac:	e8 16       	cp	r14, r24
 2ae:	f1 04       	cpc	r15, r1
 2b0:	19 f4       	brne	.+6      	; 0x2b8 <writeLcdF+0x40>
 2b2:	80 e0       	ldi	r24, 0x00	; 0
 2b4:	ca df       	rcall	.-108    	; 0x24a <lcdSid>
 2b6:	02 c0       	rjmp	.+4      	; 0x2bc <writeLcdF+0x44>
 2b8:	81 e0       	ldi	r24, 0x01	; 1
 2ba:	c7 df       	rcall	.-114    	; 0x24a <lcdSid>
 2bc:	80 e0       	ldi	r24, 0x00	; 0
 2be:	cb df       	rcall	.-106    	; 0x256 <lcdSclk>
 2c0:	81 e0       	ldi	r24, 0x01	; 1
 2c2:	c9 df       	rcall	.-110    	; 0x256 <lcdSclk>
 2c4:	80 e0       	ldi	r24, 0x00	; 0
 2c6:	c1 df       	rcall	.-126    	; 0x24a <lcdSid>
 2c8:	80 e0       	ldi	r24, 0x00	; 0
 2ca:	c5 df       	rcall	.-118    	; 0x256 <lcdSclk>
 2cc:	81 e0       	ldi	r24, 0x01	; 1
 2ce:	c3 df       	rcall	.-122    	; 0x256 <lcdSclk>
 2d0:	04 e0       	ldi	r16, 0x04	; 4
 2d2:	10 e0       	ldi	r17, 0x00	; 0
 2d4:	80 e0       	ldi	r24, 0x00	; 0
 2d6:	bf df       	rcall	.-130    	; 0x256 <lcdSclk>
 2d8:	c0 ff       	sbrs	r28, 0
 2da:	03 c0       	rjmp	.+6      	; 0x2e2 <writeLcdF+0x6a>
 2dc:	81 e0       	ldi	r24, 0x01	; 1
 2de:	b5 df       	rcall	.-150    	; 0x24a <lcdSid>
 2e0:	02 c0       	rjmp	.+4      	; 0x2e6 <writeLcdF+0x6e>
 2e2:	80 e0       	ldi	r24, 0x00	; 0
 2e4:	b2 df       	rcall	.-156    	; 0x24a <lcdSid>
 2e6:	d6 95       	lsr	r29
 2e8:	c7 95       	ror	r28
 2ea:	80 e0       	ldi	r24, 0x00	; 0
 2ec:	b4 df       	rcall	.-152    	; 0x256 <lcdSclk>
 2ee:	81 e0       	ldi	r24, 0x01	; 1
 2f0:	b2 df       	rcall	.-156    	; 0x256 <lcdSclk>
 2f2:	01 50       	subi	r16, 0x01	; 1
 2f4:	11 09       	sbc	r17, r1
 2f6:	71 f7       	brne	.-36     	; 0x2d4 <writeLcdF+0x5c>
 2f8:	80 e0       	ldi	r24, 0x00	; 0
 2fa:	a7 df       	rcall	.-178    	; 0x24a <lcdSid>
 2fc:	04 e0       	ldi	r16, 0x04	; 4
 2fe:	10 e0       	ldi	r17, 0x00	; 0
 300:	80 e0       	ldi	r24, 0x00	; 0
 302:	a9 df       	rcall	.-174    	; 0x256 <lcdSclk>
 304:	81 e0       	ldi	r24, 0x01	; 1
 306:	a7 df       	rcall	.-178    	; 0x256 <lcdSclk>
 308:	01 50       	subi	r16, 0x01	; 1
 30a:	11 09       	sbc	r17, r1
 30c:	c9 f7       	brne	.-14     	; 0x300 <writeLcdF+0x88>
 30e:	04 e0       	ldi	r16, 0x04	; 4
 310:	10 e0       	ldi	r17, 0x00	; 0
 312:	80 e0       	ldi	r24, 0x00	; 0
 314:	a0 df       	rcall	.-192    	; 0x256 <lcdSclk>
 316:	c0 ff       	sbrs	r28, 0
 318:	03 c0       	rjmp	.+6      	; 0x320 <writeLcdF+0xa8>
 31a:	81 e0       	ldi	r24, 0x01	; 1
 31c:	96 df       	rcall	.-212    	; 0x24a <lcdSid>
 31e:	02 c0       	rjmp	.+4      	; 0x324 <writeLcdF+0xac>
 320:	80 e0       	ldi	r24, 0x00	; 0
 322:	93 df       	rcall	.-218    	; 0x24a <lcdSid>
 324:	d6 95       	lsr	r29
 326:	c7 95       	ror	r28
 328:	80 e0       	ldi	r24, 0x00	; 0
 32a:	95 df       	rcall	.-214    	; 0x256 <lcdSclk>
 32c:	81 e0       	ldi	r24, 0x01	; 1
 32e:	93 df       	rcall	.-218    	; 0x256 <lcdSclk>
 330:	01 50       	subi	r16, 0x01	; 1
 332:	11 09       	sbc	r17, r1
 334:	71 f7       	brne	.-36     	; 0x312 <writeLcdF+0x9a>
 336:	80 e0       	ldi	r24, 0x00	; 0
 338:	88 df       	rcall	.-240    	; 0x24a <lcdSid>
 33a:	c4 e0       	ldi	r28, 0x04	; 4
 33c:	d0 e0       	ldi	r29, 0x00	; 0
 33e:	80 e0       	ldi	r24, 0x00	; 0
 340:	8a df       	rcall	.-236    	; 0x256 <lcdSclk>
 342:	81 e0       	ldi	r24, 0x01	; 1
 344:	88 df       	rcall	.-240    	; 0x256 <lcdSclk>
 346:	21 97       	sbiw	r28, 0x01	; 1
 348:	d1 f7       	brne	.-12     	; 0x33e <writeLcdF+0xc6>
 34a:	81 e0       	ldi	r24, 0x01	; 1
 34c:	7e df       	rcall	.-260    	; 0x24a <lcdSid>
 34e:	87 ec       	ldi	r24, 0xC7	; 199
 350:	90 e0       	ldi	r25, 0x00	; 0
 352:	01 97       	sbiw	r24, 0x01	; 1
 354:	f1 f7       	brne	.-4      	; 0x352 <writeLcdF+0xda>
 356:	00 c0       	rjmp	.+0      	; 0x358 <writeLcdF+0xe0>
 358:	00 00       	nop
 35a:	df 91       	pop	r29
 35c:	cf 91       	pop	r28
 35e:	1f 91       	pop	r17
 360:	0f 91       	pop	r16
 362:	ff 90       	pop	r15
 364:	ef 90       	pop	r14
 366:	08 95       	ret

00000368 <lcdWriteText>:
 368:	1f 93       	push	r17
 36a:	cf 93       	push	r28
 36c:	df 93       	push	r29
 36e:	cd b7       	in	r28, 0x3d	; 61
 370:	de b7       	in	r29, 0x3e	; 62
 372:	65 97       	sbiw	r28, 0x15	; 21
 374:	0f b6       	in	r0, 0x3f	; 63
 376:	f8 94       	cli
 378:	de bf       	out	0x3e, r29	; 62
 37a:	0f be       	out	0x3f, r0	; 63
 37c:	cd bf       	out	0x3d, r28	; 61
 37e:	9e 01       	movw	r18, r28
 380:	20 5e       	subi	r18, 0xE0	; 224
 382:	3f 4f       	sbci	r19, 0xFF	; 255
 384:	4e 8d       	ldd	r20, Y+30	; 0x1e
 386:	5f 8d       	ldd	r21, Y+31	; 0x1f
 388:	65 e1       	ldi	r22, 0x15	; 21
 38a:	70 e0       	ldi	r23, 0x00	; 0
 38c:	ce 01       	movw	r24, r28
 38e:	01 96       	adiw	r24, 0x01	; 1
 390:	3a d2       	rcall	.+1140   	; 0x806 <vsnprintf>
 392:	6d 8d       	ldd	r22, Y+29	; 0x1d
 394:	8c 8d       	ldd	r24, Y+28	; 0x1c
 396:	90 e2       	ldi	r25, 0x20	; 32
 398:	89 9f       	mul	r24, r25
 39a:	60 0d       	add	r22, r0
 39c:	11 24       	eor	r1, r1
 39e:	60 68       	ori	r22, 0x80	; 128
 3a0:	70 e0       	ldi	r23, 0x00	; 0
 3a2:	83 e4       	ldi	r24, 0x43	; 67
 3a4:	90 e0       	ldi	r25, 0x00	; 0
 3a6:	68 df       	rcall	.-304    	; 0x278 <writeLcdF>
 3a8:	69 81       	ldd	r22, Y+1	; 0x01
 3aa:	66 23       	and	r22, r22
 3ac:	79 f0       	breq	.+30     	; 0x3cc <lcdWriteText+0x64>
 3ae:	10 e0       	ldi	r17, 0x00	; 0
 3b0:	1f 5f       	subi	r17, 0xFF	; 255
 3b2:	70 e0       	ldi	r23, 0x00	; 0
 3b4:	84 e4       	ldi	r24, 0x44	; 68
 3b6:	90 e0       	ldi	r25, 0x00	; 0
 3b8:	5f df       	rcall	.-322    	; 0x278 <writeLcdF>
 3ba:	e1 e0       	ldi	r30, 0x01	; 1
 3bc:	f0 e0       	ldi	r31, 0x00	; 0
 3be:	ec 0f       	add	r30, r28
 3c0:	fd 1f       	adc	r31, r29
 3c2:	e1 0f       	add	r30, r17
 3c4:	f1 1d       	adc	r31, r1
 3c6:	60 81       	ld	r22, Z
 3c8:	61 11       	cpse	r22, r1
 3ca:	f2 cf       	rjmp	.-28     	; 0x3b0 <lcdWriteText+0x48>
 3cc:	65 96       	adiw	r28, 0x15	; 21
 3ce:	0f b6       	in	r0, 0x3f	; 63
 3d0:	f8 94       	cli
 3d2:	de bf       	out	0x3e, r29	; 62
 3d4:	0f be       	out	0x3f, r0	; 63
 3d6:	cd bf       	out	0x3d, r28	; 61
 3d8:	df 91       	pop	r29
 3da:	cf 91       	pop	r28
 3dc:	1f 91       	pop	r17
 3de:	08 95       	ret

000003e0 <lcdClear>:
 3e0:	61 e0       	ldi	r22, 0x01	; 1
 3e2:	70 e0       	ldi	r23, 0x00	; 0
 3e4:	83 e4       	ldi	r24, 0x43	; 67
 3e6:	90 e0       	ldi	r25, 0x00	; 0
 3e8:	47 df       	rcall	.-370    	; 0x278 <writeLcdF>
 3ea:	8f e3       	ldi	r24, 0x3F	; 63
 3ec:	9f e1       	ldi	r25, 0x1F	; 31
 3ee:	01 97       	sbiw	r24, 0x01	; 1
 3f0:	f1 f7       	brne	.-4      	; 0x3ee <lcdClear+0xe>
 3f2:	00 c0       	rjmp	.+0      	; 0x3f4 <lcdClear+0x14>
 3f4:	00 00       	nop
 3f6:	80 e3       	ldi	r24, 0x30	; 48
 3f8:	92 e0       	ldi	r25, 0x02	; 2
 3fa:	9f 93       	push	r25
 3fc:	8f 93       	push	r24
 3fe:	1f 92       	push	r1
 400:	1f 92       	push	r1
 402:	b2 df       	rcall	.-156    	; 0x368 <lcdWriteText>
 404:	0f 90       	pop	r0
 406:	0f 90       	pop	r0
 408:	0f 90       	pop	r0
 40a:	0f 90       	pop	r0
 40c:	08 95       	ret

0000040e <initLcd>:
 40e:	81 e0       	ldi	r24, 0x01	; 1
 410:	22 df       	rcall	.-444    	; 0x256 <lcdSclk>
 412:	80 e0       	ldi	r24, 0x00	; 0
 414:	1a df       	rcall	.-460    	; 0x24a <lcdSid>
 416:	64 e3       	ldi	r22, 0x34	; 52
 418:	70 e0       	ldi	r23, 0x00	; 0
 41a:	83 e4       	ldi	r24, 0x43	; 67
 41c:	90 e0       	ldi	r25, 0x00	; 0
 41e:	2c df       	rcall	.-424    	; 0x278 <writeLcdF>
 420:	69 e0       	ldi	r22, 0x09	; 9
 422:	70 e0       	ldi	r23, 0x00	; 0
 424:	83 e4       	ldi	r24, 0x43	; 67
 426:	90 e0       	ldi	r25, 0x00	; 0
 428:	27 df       	rcall	.-434    	; 0x278 <writeLcdF>
 42a:	60 e3       	ldi	r22, 0x30	; 48
 42c:	70 e0       	ldi	r23, 0x00	; 0
 42e:	83 e4       	ldi	r24, 0x43	; 67
 430:	90 e0       	ldi	r25, 0x00	; 0
 432:	22 df       	rcall	.-444    	; 0x278 <writeLcdF>
 434:	6c e0       	ldi	r22, 0x0C	; 12
 436:	70 e0       	ldi	r23, 0x00	; 0
 438:	83 e4       	ldi	r24, 0x43	; 67
 43a:	90 e0       	ldi	r25, 0x00	; 0
 43c:	1d df       	rcall	.-454    	; 0x278 <writeLcdF>
 43e:	d0 df       	rcall	.-96     	; 0x3e0 <lcdClear>
 440:	67 e0       	ldi	r22, 0x07	; 7
 442:	70 e0       	ldi	r23, 0x00	; 0
 444:	83 e4       	ldi	r24, 0x43	; 67
 446:	90 e0       	ldi	r25, 0x00	; 0
 448:	17 df       	rcall	.-466    	; 0x278 <writeLcdF>
 44a:	80 e0       	ldi	r24, 0x00	; 0
 44c:	0a cf       	rjmp	.-492    	; 0x262 <lcdLight>
 44e:	08 95       	ret

00000450 <initBoard>:
 450:	4f 92       	push	r4
 452:	5f 92       	push	r5
 454:	6f 92       	push	r6
 456:	7f 92       	push	r7
 458:	8f 92       	push	r8
 45a:	9f 92       	push	r9
 45c:	af 92       	push	r10
 45e:	bf 92       	push	r11
 460:	cf 92       	push	r12
 462:	df 92       	push	r13
 464:	ef 92       	push	r14
 466:	ff 92       	push	r15
 468:	0f 93       	push	r16
 46a:	1f 93       	push	r17
 46c:	cf 93       	push	r28
 46e:	df 93       	push	r29
 470:	c8 2f       	mov	r28, r24
 472:	85 b7       	in	r24, 0x35	; 53
 474:	85 bf       	out	0x35, r24	; 53
 476:	12 b8       	out	0x02, r1	; 2
 478:	8f ef       	ldi	r24, 0xFF	; 255
 47a:	81 b9       	out	0x01, r24	; 1
 47c:	15 b8       	out	0x05, r1	; 5
 47e:	84 b9       	out	0x04, r24	; 4
 480:	88 b9       	out	0x08, r24	; 8
 482:	17 b8       	out	0x07, r1	; 7
 484:	8b b9       	out	0x0b, r24	; 11
 486:	1a b8       	out	0x0a, r1	; 10
 488:	8e b9       	out	0x0e, r24	; 14
 48a:	1d b8       	out	0x0d, r1	; 13
 48c:	72 98       	cbi	0x0e, 2	; 14
 48e:	11 ba       	out	0x11, r1	; 17
 490:	10 ba       	out	0x10, r1	; 16
 492:	94 e0       	ldi	r25, 0x04	; 4
 494:	94 bb       	out	0x14, r25	; 20
 496:	93 b3       	in	r25, 0x13	; 19
 498:	93 60       	ori	r25, 0x03	; 3
 49a:	93 bb       	out	0x13, r25	; 19
 49c:	9d 9a       	sbi	0x13, 5	; 19
 49e:	97 ec       	ldi	r25, 0xC7	; 199
 4a0:	90 93 02 01 	sts	0x0102, r25	; 0x800102 <__TEXT_REGION_LENGTH__+0x700102>
 4a4:	98 e3       	ldi	r25, 0x38	; 56
 4a6:	90 93 01 01 	sts	0x0101, r25	; 0x800101 <__TEXT_REGION_LENGTH__+0x700101>
 4aa:	10 92 05 01 	sts	0x0105, r1	; 0x800105 <__TEXT_REGION_LENGTH__+0x700105>
 4ae:	80 93 04 01 	sts	0x0104, r24	; 0x800104 <__TEXT_REGION_LENGTH__+0x700104>
 4b2:	10 92 08 01 	sts	0x0108, r1	; 0x800108 <__TEXT_REGION_LENGTH__+0x700108>
 4b6:	10 92 07 01 	sts	0x0107, r1	; 0x800107 <__TEXT_REGION_LENGTH__+0x700107>
 4ba:	8c e3       	ldi	r24, 0x3C	; 60
 4bc:	80 93 0b 01 	sts	0x010B, r24	; 0x80010b <__TEXT_REGION_LENGTH__+0x70010b>
 4c0:	10 92 0a 01 	sts	0x010A, r1	; 0x80010a <__TEXT_REGION_LENGTH__+0x70010a>
 4c4:	78 94       	sei
 4c6:	6b de       	rcall	.-810    	; 0x19e <startSystemTimeMs>
 4c8:	a2 df       	rcall	.-188    	; 0x40e <initLcd>
 4ca:	73 de       	rcall	.-794    	; 0x1b2 <initAdc>
 4cc:	aa de       	rcall	.-684    	; 0x222 <initRgb>
 4ce:	cc 23       	and	r28, r28
 4d0:	09 f4       	brne	.+2      	; 0x4d4 <initBoard+0x84>
 4d2:	b8 c0       	rjmp	.+368    	; 0x644 <initBoard+0x1f4>
 4d4:	8f ef       	ldi	r24, 0xFF	; 255
 4d6:	c5 de       	rcall	.-630    	; 0x262 <lcdLight>
 4d8:	40 e0       	ldi	r20, 0x00	; 0
 4da:	50 e0       	ldi	r21, 0x00	; 0
 4dc:	6f ef       	ldi	r22, 0xFF	; 255
 4de:	73 e0       	ldi	r23, 0x03	; 3
 4e0:	80 e0       	ldi	r24, 0x00	; 0
 4e2:	90 e0       	ldi	r25, 0x00	; 0
 4e4:	87 de       	rcall	.-754    	; 0x1f4 <rgbWrite>
 4e6:	8d e1       	ldi	r24, 0x1D	; 29
 4e8:	92 e0       	ldi	r25, 0x02	; 2
 4ea:	9f 93       	push	r25
 4ec:	8f 93       	push	r24
 4ee:	1f 92       	push	r1
 4f0:	1f 92       	push	r1
 4f2:	3a df       	rcall	.-396    	; 0x368 <lcdWriteText>
 4f4:	82 e3       	ldi	r24, 0x32	; 50
 4f6:	92 e0       	ldi	r25, 0x02	; 2
 4f8:	9f 93       	push	r25
 4fa:	8f 93       	push	r24
 4fc:	1f 92       	push	r1
 4fe:	81 e0       	ldi	r24, 0x01	; 1
 500:	8f 93       	push	r24
 502:	32 df       	rcall	.-412    	; 0x368 <lcdWriteText>
 504:	88 e0       	ldi	r24, 0x08	; 8
 506:	92 e0       	ldi	r25, 0x02	; 2
 508:	9f 93       	push	r25
 50a:	8f 93       	push	r24
 50c:	1f 92       	push	r1
 50e:	82 e0       	ldi	r24, 0x02	; 2
 510:	8f 93       	push	r24
 512:	2a df       	rcall	.-428    	; 0x368 <lcdWriteText>
 514:	87 e4       	ldi	r24, 0x47	; 71
 516:	92 e0       	ldi	r25, 0x02	; 2
 518:	9f 93       	push	r25
 51a:	8f 93       	push	r24
 51c:	1f 92       	push	r1
 51e:	83 e0       	ldi	r24, 0x03	; 3
 520:	8f 93       	push	r24
 522:	22 df       	rcall	.-444    	; 0x368 <lcdWriteText>
 524:	8d b7       	in	r24, 0x3d	; 61
 526:	9e b7       	in	r25, 0x3e	; 62
 528:	40 96       	adiw	r24, 0x10	; 16
 52a:	0f b6       	in	r0, 0x3f	; 63
 52c:	f8 94       	cli
 52e:	9e bf       	out	0x3e, r25	; 62
 530:	0f be       	out	0x3f, r0	; 63
 532:	8d bf       	out	0x3d, r24	; 61
 534:	88 24       	eor	r8, r8
 536:	83 94       	inc	r8
 538:	c0 e0       	ldi	r28, 0x00	; 0
 53a:	71 2c       	mov	r7, r1
 53c:	99 24       	eor	r9, r9
 53e:	93 94       	inc	r9
 540:	d0 e0       	ldi	r29, 0x00	; 0
 542:	cc 24       	eor	r12, r12
 544:	c3 94       	inc	r12
 546:	d1 2c       	mov	r13, r1
 548:	e1 2c       	mov	r14, r1
 54a:	68 94       	set
 54c:	ff 24       	eor	r15, r15
 54e:	f7 f8       	bld	r15, 7
 550:	66 24       	eor	r6, r6
 552:	63 94       	inc	r6
 554:	51 2c       	mov	r5, r1
 556:	09 e0       	ldi	r16, 0x09	; 9
 558:	11 e0       	ldi	r17, 0x01	; 1
 55a:	0f 2e       	mov	r0, r31
 55c:	fc e5       	ldi	r31, 0x5C	; 92
 55e:	af 2e       	mov	r10, r31
 560:	f2 e0       	ldi	r31, 0x02	; 2
 562:	bf 2e       	mov	r11, r31
 564:	f0 2d       	mov	r31, r0
 566:	0f 2e       	mov	r0, r31
 568:	f3 e0       	ldi	r31, 0x03	; 3
 56a:	4f 2e       	mov	r4, r31
 56c:	f0 2d       	mov	r31, r0
 56e:	99 20       	and	r9, r9
 570:	49 f0       	breq	.+18     	; 0x584 <initBoard+0x134>
 572:	c7 01       	movw	r24, r14
 574:	0d 2e       	mov	r0, r29
 576:	02 c0       	rjmp	.+4      	; 0x57c <initBoard+0x12c>
 578:	96 95       	lsr	r25
 57a:	87 95       	ror	r24
 57c:	0a 94       	dec	r0
 57e:	e2 f7       	brpl	.-8      	; 0x578 <initBoard+0x128>
 580:	09 de       	rcall	.-1006   	; 0x194 <ledWriteAll>
 582:	08 c0       	rjmp	.+16     	; 0x594 <initBoard+0x144>
 584:	c6 01       	movw	r24, r12
 586:	0d 2e       	mov	r0, r29
 588:	02 c0       	rjmp	.+4      	; 0x58e <initBoard+0x13e>
 58a:	88 0f       	add	r24, r24
 58c:	99 1f       	adc	r25, r25
 58e:	0a 94       	dec	r0
 590:	e2 f7       	brpl	.-8      	; 0x58a <initBoard+0x13a>
 592:	00 de       	rcall	.-1024   	; 0x194 <ledWriteAll>
 594:	df 5f       	subi	r29, 0xFF	; 255
 596:	d1 31       	cpi	r29, 0x11	; 17
 598:	28 f0       	brcs	.+10     	; 0x5a4 <initBoard+0x154>
 59a:	86 2d       	mov	r24, r6
 59c:	91 10       	cpse	r9, r1
 59e:	85 2d       	mov	r24, r5
 5a0:	98 2e       	mov	r9, r24
 5a2:	d0 e0       	ldi	r29, 0x00	; 0
 5a4:	88 20       	and	r8, r8
 5a6:	11 f0       	breq	.+4      	; 0x5ac <initBoard+0x15c>
 5a8:	ce 5f       	subi	r28, 0xFE	; 254
 5aa:	01 c0       	rjmp	.+2      	; 0x5ae <initBoard+0x15e>
 5ac:	c2 50       	subi	r28, 0x02	; 2
 5ae:	8c 2f       	mov	r24, r28
 5b0:	58 de       	rcall	.-848    	; 0x262 <lcdLight>
 5b2:	ce 3f       	cpi	r28, 0xFE	; 254
 5b4:	21 f0       	breq	.+8      	; 0x5be <initBoard+0x16e>
 5b6:	c8 37       	cpi	r28, 0x78	; 120
 5b8:	19 f4       	brne	.+6      	; 0x5c0 <initBoard+0x170>
 5ba:	86 2c       	mov	r8, r6
 5bc:	01 c0       	rjmp	.+2      	; 0x5c0 <initBoard+0x170>
 5be:	85 2c       	mov	r8, r5
 5c0:	71 10       	cpse	r7, r1
 5c2:	3b c0       	rjmp	.+118    	; 0x63a <initBoard+0x1ea>
 5c4:	f8 01       	movw	r30, r16
 5c6:	80 81       	ld	r24, Z
 5c8:	83 7c       	andi	r24, 0xC3	; 195
 5ca:	91 f0       	breq	.+36     	; 0x5f0 <initBoard+0x1a0>
 5cc:	40 e0       	ldi	r20, 0x00	; 0
 5ce:	50 e0       	ldi	r21, 0x00	; 0
 5d0:	66 e2       	ldi	r22, 0x26	; 38
 5d2:	72 e0       	ldi	r23, 0x02	; 2
 5d4:	8f ef       	ldi	r24, 0xFF	; 255
 5d6:	93 e0       	ldi	r25, 0x03	; 3
 5d8:	0d de       	rcall	.-998    	; 0x1f4 <rgbWrite>
 5da:	bf 92       	push	r11
 5dc:	af 92       	push	r10
 5de:	1f 92       	push	r1
 5e0:	4f 92       	push	r4
 5e2:	c2 de       	rcall	.-636    	; 0x368 <lcdWriteText>
 5e4:	0f 90       	pop	r0
 5e6:	0f 90       	pop	r0
 5e8:	0f 90       	pop	r0
 5ea:	0f 90       	pop	r0
 5ec:	76 2c       	mov	r7, r6
 5ee:	25 c0       	rjmp	.+74     	; 0x63a <initBoard+0x1ea>
 5f0:	8f ef       	ldi	r24, 0xFF	; 255
 5f2:	9c e7       	ldi	r25, 0x7C	; 124
 5f4:	01 97       	sbiw	r24, 0x01	; 1
 5f6:	f1 f7       	brne	.-4      	; 0x5f4 <initBoard+0x1a4>
 5f8:	00 c0       	rjmp	.+0      	; 0x5fa <initBoard+0x1aa>
 5fa:	00 00       	nop
 5fc:	b8 cf       	rjmp	.-144    	; 0x56e <initBoard+0x11e>
 5fe:	f0 de       	rcall	.-544    	; 0x3e0 <lcdClear>
 600:	80 e0       	ldi	r24, 0x00	; 0
 602:	2f de       	rcall	.-930    	; 0x262 <lcdLight>
 604:	80 e0       	ldi	r24, 0x00	; 0
 606:	90 e0       	ldi	r25, 0x00	; 0
 608:	c5 dd       	rcall	.-1142   	; 0x194 <ledWriteAll>
 60a:	40 e0       	ldi	r20, 0x00	; 0
 60c:	50 e0       	ldi	r21, 0x00	; 0
 60e:	60 e0       	ldi	r22, 0x00	; 0
 610:	70 e0       	ldi	r23, 0x00	; 0
 612:	80 e0       	ldi	r24, 0x00	; 0
 614:	90 e0       	ldi	r25, 0x00	; 0
 616:	ee dd       	rcall	.-1060   	; 0x1f4 <rgbWrite>
 618:	10 92 79 02 	sts	0x0279, r1	; 0x800279 <systemTimeMs>
 61c:	10 92 7a 02 	sts	0x027A, r1	; 0x80027a <systemTimeMs+0x1>
 620:	10 92 7b 02 	sts	0x027B, r1	; 0x80027b <systemTimeMs+0x2>
 624:	10 92 7c 02 	sts	0x027C, r1	; 0x80027c <systemTimeMs+0x3>
 628:	10 92 7d 02 	sts	0x027D, r1	; 0x80027d <systemTimeMs+0x4>
 62c:	10 92 7e 02 	sts	0x027E, r1	; 0x80027e <systemTimeMs+0x5>
 630:	10 92 7f 02 	sts	0x027F, r1	; 0x80027f <systemTimeMs+0x6>
 634:	10 92 80 02 	sts	0x0280, r1	; 0x800280 <systemTimeMs+0x7>
 638:	05 c0       	rjmp	.+10     	; 0x644 <initBoard+0x1f4>
 63a:	f8 01       	movw	r30, r16
 63c:	80 81       	ld	r24, Z
 63e:	83 7c       	andi	r24, 0xC3	; 195
 640:	b9 f6       	brne	.-82     	; 0x5f0 <initBoard+0x1a0>
 642:	dd cf       	rjmp	.-70     	; 0x5fe <initBoard+0x1ae>
 644:	df 91       	pop	r29
 646:	cf 91       	pop	r28
 648:	1f 91       	pop	r17
 64a:	0f 91       	pop	r16
 64c:	ff 90       	pop	r15
 64e:	ef 90       	pop	r14
 650:	df 90       	pop	r13
 652:	cf 90       	pop	r12
 654:	bf 90       	pop	r11
 656:	af 90       	pop	r10
 658:	9f 90       	pop	r9
 65a:	8f 90       	pop	r8
 65c:	7f 90       	pop	r7
 65e:	6f 90       	pop	r6
 660:	5f 90       	pop	r5
 662:	4f 90       	pop	r4
 664:	08 95       	ret

00000666 <matrixWriteNextLine>:




void matrixWriteNextLine(void)
{
 666:	cf 93       	push	r28
 668:	df 93       	push	r29
 66a:	cd b7       	in	r28, 0x3d	; 61
 66c:	de b7       	in	r29, 0x3e	; 62
 66e:	28 97       	sbiw	r28, 0x08	; 8
 670:	0f b6       	in	r0, 0x3f	; 63
 672:	f8 94       	cli
 674:	de bf       	out	0x3e, r29	; 62
 676:	0f be       	out	0x3f, r0	; 63
 678:	cd bf       	out	0x3d, r28	; 61
    const  uint8_t Bit_Muster_Tab[8] = {1,2,4,8,16,32,64,128};
 67a:	88 e0       	ldi	r24, 0x08	; 8
 67c:	e0 e0       	ldi	r30, 0x00	; 0
 67e:	f2 e0       	ldi	r31, 0x02	; 2
 680:	de 01       	movw	r26, r28
 682:	11 96       	adiw	r26, 0x01	; 1
 684:	01 90       	ld	r0, Z+
 686:	0d 92       	st	X+, r0
 688:	8a 95       	dec	r24
 68a:	e1 f7       	brne	.-8      	; 0x684 <matrixWriteNextLine+0x1e>
    static uint16_t Zeilen_Nr, Bit_Muster;
    uint8_t i;
    
    STROBE_0;                             // Daten des Scheiberegisters nicht ins Latch schreiben
 68c:	e5 e0       	ldi	r30, 0x05	; 5
 68e:	f1 e0       	ldi	r31, 0x01	; 1
 690:	80 81       	ld	r24, Z
 692:	8f 7b       	andi	r24, 0xBF	; 191
 694:	80 83       	st	Z, r24

    Bit_Muster = Bit_Muster_Tab[Zeilen_Nr]; // Bitmuster aus Tabelle holen, um mit Daten in matrix[] zu vergleichen.
 696:	e0 91 76 02 	lds	r30, 0x0276	; 0x800276 <Zeilen_Nr.2725>
 69a:	f0 91 77 02 	lds	r31, 0x0277	; 0x800277 <Zeilen_Nr.2725+0x1>
 69e:	81 e0       	ldi	r24, 0x01	; 1
 6a0:	90 e0       	ldi	r25, 0x00	; 0
 6a2:	8c 0f       	add	r24, r28
 6a4:	9d 1f       	adc	r25, r29
 6a6:	e8 0f       	add	r30, r24
 6a8:	f9 1f       	adc	r31, r25
 6aa:	80 81       	ld	r24, Z
 6ac:	90 e0       	ldi	r25, 0x00	; 0
 6ae:	90 93 75 02 	sts	0x0275, r25	; 0x800275 <__data_end+0x1>
 6b2:	80 93 74 02 	sts	0x0274, r24	; 0x800274 <__data_end>
 6b6:	a2 ef       	ldi	r26, 0xF2	; 242
 6b8:	b2 e0       	ldi	r27, 0x02	; 2
 6ba:	22 e8       	ldi	r18, 0x82	; 130
 6bc:	32 e0       	ldi	r19, 0x02	; 2
    {                                       // Vergleicht Bit-Muster der aktuellen Zeile mit Daten in matrix[]
        if((matrix[Anzahl_Spalten-1- i] & Bit_Muster) != 0)     // Ist in matrix[] das entsprechende Bit gesetzt?
        { DATA_Modul_1_ON;                    //   JA:   ==> Datenbit "1" ins Schieberegister schreiben
        }
        else
        { DATA_Modul_1_OFF;                   //   NEIN: ==> Datenbit "0" ins Schieberegister schreiben
 6be:	e5 e0       	ldi	r30, 0x05	; 5
 6c0:	f1 e0       	ldi	r31, 0x01	; 1
    Bit_Muster = Bit_Muster_Tab[Zeilen_Nr]; // Bitmuster aus Tabelle holen, um mit Daten in matrix[] zu vergleichen.
    
    // Alle Bits seriell ins Schieberegister hineinschreiben
    for(i=0; i<Anzahl_Spalten; i++)         // Alle Spalten durchgehen und überpüfen, ob Bit gesetzt ist
    {                                       // Vergleicht Bit-Muster der aktuellen Zeile mit Daten in matrix[]
        if((matrix[Anzahl_Spalten-1- i] & Bit_Muster) != 0)     // Ist in matrix[] das entsprechende Bit gesetzt?
 6c2:	5e 91       	ld	r21, -X
 6c4:	4e 91       	ld	r20, -X
 6c6:	80 91 74 02 	lds	r24, 0x0274	; 0x800274 <__data_end>
 6ca:	90 91 75 02 	lds	r25, 0x0275	; 0x800275 <__data_end+0x1>
 6ce:	84 23       	and	r24, r20
 6d0:	95 23       	and	r25, r21
 6d2:	89 2b       	or	r24, r25
 6d4:	21 f0       	breq	.+8      	; 0x6de <matrixWriteNextLine+0x78>
        { DATA_Modul_1_ON;                    //   JA:   ==> Datenbit "1" ins Schieberegister schreiben
 6d6:	80 81       	ld	r24, Z
 6d8:	80 62       	ori	r24, 0x20	; 32
 6da:	80 83       	st	Z, r24
 6dc:	03 c0       	rjmp	.+6      	; 0x6e4 <matrixWriteNextLine+0x7e>
        }
        else
        { DATA_Modul_1_OFF;                   //   NEIN: ==> Datenbit "0" ins Schieberegister schreiben
 6de:	80 81       	ld	r24, Z
 6e0:	8f 7d       	andi	r24, 0xDF	; 223
 6e2:	80 83       	st	Z, r24
        }
        CLOCK_1;
 6e4:	80 81       	ld	r24, Z
 6e6:	80 61       	ori	r24, 0x10	; 16
 6e8:	80 83       	st	Z, r24
        CLOCK_0;                            // Datenbit wird bei der negativen Flanke des Clock-Signals übernommen
 6ea:	80 81       	ld	r24, Z
 6ec:	8f 7e       	andi	r24, 0xEF	; 239
 6ee:	80 83       	st	Z, r24
    STROBE_0;                             // Daten des Scheiberegisters nicht ins Latch schreiben

    Bit_Muster = Bit_Muster_Tab[Zeilen_Nr]; // Bitmuster aus Tabelle holen, um mit Daten in matrix[] zu vergleichen.
    
    // Alle Bits seriell ins Schieberegister hineinschreiben
    for(i=0; i<Anzahl_Spalten; i++)         // Alle Spalten durchgehen und überpüfen, ob Bit gesetzt ist
 6f0:	a2 17       	cp	r26, r18
 6f2:	b3 07       	cpc	r27, r19
 6f4:	31 f7       	brne	.-52     	; 0x6c2 <matrixWriteNextLine+0x5c>
        }
        CLOCK_1;
        CLOCK_0;                            // Datenbit wird bei der negativen Flanke des Clock-Signals übernommen
    }
    
    ENABLE_0;                                // +5V aller Zeilen abschalten
 6f6:	e5 e0       	ldi	r30, 0x05	; 5
 6f8:	f1 e0       	ldi	r31, 0x01	; 1
 6fa:	80 81       	ld	r24, Z
 6fc:	87 7f       	andi	r24, 0xF7	; 247
 6fe:	80 83       	st	Z, r24
    PORTJ &= ~0x07;
 700:	80 81       	ld	r24, Z
 702:	88 7f       	andi	r24, 0xF8	; 248
 704:	80 83       	st	Z, r24
    PORTJ |= Zeilen_Nr;                     // gewünschte Zeile einstellen
 706:	90 81       	ld	r25, Z
 708:	80 91 76 02 	lds	r24, 0x0276	; 0x800276 <Zeilen_Nr.2725>
 70c:	89 2b       	or	r24, r25
 70e:	80 83       	st	Z, r24
    STROBE_1;                             // Daten ins Latch schreiben
 710:	80 81       	ld	r24, Z
 712:	80 64       	ori	r24, 0x40	; 64
 714:	80 83       	st	Z, r24
    ENABLE_1;                             // +5V Speisung der eingestellten Zeile einschalten
 716:	80 81       	ld	r24, Z
 718:	88 60       	ori	r24, 0x08	; 8
 71a:	80 83       	st	Z, r24

    // Die Zeilen werden nacheinander eingeschaltet --> zyklisch 0,1,2,3,4,5,6,7, 0,1,2,3, ...
    if (Zeilen_Nr < 7)
 71c:	80 91 76 02 	lds	r24, 0x0276	; 0x800276 <Zeilen_Nr.2725>
 720:	90 91 77 02 	lds	r25, 0x0277	; 0x800277 <Zeilen_Nr.2725+0x1>
 724:	87 30       	cpi	r24, 0x07	; 7
 726:	91 05       	cpc	r25, r1
 728:	30 f4       	brcc	.+12     	; 0x736 <matrixWriteNextLine+0xd0>
    {
        Zeilen_Nr++;
 72a:	01 96       	adiw	r24, 0x01	; 1
 72c:	90 93 77 02 	sts	0x0277, r25	; 0x800277 <Zeilen_Nr.2725+0x1>
 730:	80 93 76 02 	sts	0x0276, r24	; 0x800276 <Zeilen_Nr.2725>
 734:	07 c0       	rjmp	.+14     	; 0x744 <matrixWriteNextLine+0xde>
    }
    else
    {
        Zeilen_Nr = 0;
 736:	10 92 77 02 	sts	0x0277, r1	; 0x800277 <Zeilen_Nr.2725+0x1>
 73a:	10 92 76 02 	sts	0x0276, r1	; 0x800276 <Zeilen_Nr.2725>
        writeTextFinished = 1;
 73e:	81 e0       	ldi	r24, 0x01	; 1
 740:	80 93 78 02 	sts	0x0278, r24	; 0x800278 <writeTextFinished>
    }
    
 744:	28 96       	adiw	r28, 0x08	; 8
 746:	0f b6       	in	r0, 0x3f	; 63
 748:	f8 94       	cli
 74a:	de bf       	out	0x3e, r29	; 62
 74c:	0f be       	out	0x3f, r0	; 63
 74e:	cd bf       	out	0x3d, r28	; 61
 750:	df 91       	pop	r29
 752:	cf 91       	pop	r28
 754:	08 95       	ret

00000756 <__vector_23>:
//--------------------------------------------------------------------------------------------
// Timer 0 Overflow Interrupt ->  Wird alle 1ms aufgerufen
//--------------------------------------------------------------------------------------------

ISR(TIMER0_OVF_vect)
{
 756:	1f 92       	push	r1
 758:	0f 92       	push	r0
 75a:	0f b6       	in	r0, 0x3f	; 63
 75c:	0f 92       	push	r0
 75e:	11 24       	eor	r1, r1
 760:	0b b6       	in	r0, 0x3b	; 59
 762:	0f 92       	push	r0
 764:	2f 93       	push	r18
 766:	3f 93       	push	r19
 768:	4f 93       	push	r20
 76a:	5f 93       	push	r21
 76c:	6f 93       	push	r22
 76e:	7f 93       	push	r23
 770:	8f 93       	push	r24
 772:	9f 93       	push	r25
 774:	af 93       	push	r26
 776:	bf 93       	push	r27
 778:	ef 93       	push	r30
 77a:	ff 93       	push	r31
    systemTimeMs += 1;
 77c:	20 91 79 02 	lds	r18, 0x0279	; 0x800279 <systemTimeMs>
 780:	30 91 7a 02 	lds	r19, 0x027A	; 0x80027a <systemTimeMs+0x1>
 784:	40 91 7b 02 	lds	r20, 0x027B	; 0x80027b <systemTimeMs+0x2>
 788:	50 91 7c 02 	lds	r21, 0x027C	; 0x80027c <systemTimeMs+0x3>
 78c:	60 91 7d 02 	lds	r22, 0x027D	; 0x80027d <systemTimeMs+0x4>
 790:	70 91 7e 02 	lds	r23, 0x027E	; 0x80027e <systemTimeMs+0x5>
 794:	80 91 7f 02 	lds	r24, 0x027F	; 0x80027f <systemTimeMs+0x6>
 798:	90 91 80 02 	lds	r25, 0x0280	; 0x800280 <systemTimeMs+0x7>
 79c:	a1 e0       	ldi	r26, 0x01	; 1
 79e:	27 d0       	rcall	.+78     	; 0x7ee <__adddi3_s8>
 7a0:	20 93 79 02 	sts	0x0279, r18	; 0x800279 <systemTimeMs>
 7a4:	30 93 7a 02 	sts	0x027A, r19	; 0x80027a <systemTimeMs+0x1>
 7a8:	40 93 7b 02 	sts	0x027B, r20	; 0x80027b <systemTimeMs+0x2>
 7ac:	50 93 7c 02 	sts	0x027C, r21	; 0x80027c <systemTimeMs+0x3>
 7b0:	60 93 7d 02 	sts	0x027D, r22	; 0x80027d <systemTimeMs+0x4>
 7b4:	70 93 7e 02 	sts	0x027E, r23	; 0x80027e <systemTimeMs+0x5>
 7b8:	80 93 7f 02 	sts	0x027F, r24	; 0x80027f <systemTimeMs+0x6>
 7bc:	90 93 80 02 	sts	0x0280, r25	; 0x800280 <systemTimeMs+0x7>

    if(matrixRunning)matrixWriteNextLine();
 7c0:	80 91 81 02 	lds	r24, 0x0281	; 0x800281 <matrixRunning>
 7c4:	81 11       	cpse	r24, r1
 7c6:	4f df       	rcall	.-354    	; 0x666 <matrixWriteNextLine>
}
 7c8:	ff 91       	pop	r31
 7ca:	ef 91       	pop	r30
 7cc:	bf 91       	pop	r27
 7ce:	af 91       	pop	r26
 7d0:	9f 91       	pop	r25
 7d2:	8f 91       	pop	r24
 7d4:	7f 91       	pop	r23
 7d6:	6f 91       	pop	r22
 7d8:	5f 91       	pop	r21
 7da:	4f 91       	pop	r20
 7dc:	3f 91       	pop	r19
 7de:	2f 91       	pop	r18
 7e0:	0f 90       	pop	r0
 7e2:	0b be       	out	0x3b, r0	; 59
 7e4:	0f 90       	pop	r0
 7e6:	0f be       	out	0x3f, r0	; 63
 7e8:	0f 90       	pop	r0
 7ea:	1f 90       	pop	r1
 7ec:	18 95       	reti

000007ee <__adddi3_s8>:
 7ee:	00 24       	eor	r0, r0
 7f0:	a7 fd       	sbrc	r26, 7
 7f2:	00 94       	com	r0
 7f4:	2a 0f       	add	r18, r26
 7f6:	30 1d       	adc	r19, r0
 7f8:	40 1d       	adc	r20, r0
 7fa:	50 1d       	adc	r21, r0
 7fc:	60 1d       	adc	r22, r0
 7fe:	70 1d       	adc	r23, r0
 800:	80 1d       	adc	r24, r0
 802:	90 1d       	adc	r25, r0
 804:	08 95       	ret

00000806 <vsnprintf>:
 806:	0f 93       	push	r16
 808:	1f 93       	push	r17
 80a:	cf 93       	push	r28
 80c:	df 93       	push	r29
 80e:	cd b7       	in	r28, 0x3d	; 61
 810:	de b7       	in	r29, 0x3e	; 62
 812:	2e 97       	sbiw	r28, 0x0e	; 14
 814:	0f b6       	in	r0, 0x3f	; 63
 816:	f8 94       	cli
 818:	de bf       	out	0x3e, r29	; 62
 81a:	0f be       	out	0x3f, r0	; 63
 81c:	cd bf       	out	0x3d, r28	; 61
 81e:	8c 01       	movw	r16, r24
 820:	fa 01       	movw	r30, r20
 822:	86 e0       	ldi	r24, 0x06	; 6
 824:	8c 83       	std	Y+4, r24	; 0x04
 826:	1a 83       	std	Y+2, r17	; 0x02
 828:	09 83       	std	Y+1, r16	; 0x01
 82a:	77 ff       	sbrs	r23, 7
 82c:	02 c0       	rjmp	.+4      	; 0x832 <vsnprintf+0x2c>
 82e:	60 e0       	ldi	r22, 0x00	; 0
 830:	70 e8       	ldi	r23, 0x80	; 128
 832:	cb 01       	movw	r24, r22
 834:	01 97       	sbiw	r24, 0x01	; 1
 836:	9e 83       	std	Y+6, r25	; 0x06
 838:	8d 83       	std	Y+5, r24	; 0x05
 83a:	a9 01       	movw	r20, r18
 83c:	bf 01       	movw	r22, r30
 83e:	ce 01       	movw	r24, r28
 840:	01 96       	adiw	r24, 0x01	; 1
 842:	19 d0       	rcall	.+50     	; 0x876 <vfprintf>
 844:	4d 81       	ldd	r20, Y+5	; 0x05
 846:	5e 81       	ldd	r21, Y+6	; 0x06
 848:	57 fd       	sbrc	r21, 7
 84a:	0a c0       	rjmp	.+20     	; 0x860 <vsnprintf+0x5a>
 84c:	2f 81       	ldd	r18, Y+7	; 0x07
 84e:	38 85       	ldd	r19, Y+8	; 0x08
 850:	42 17       	cp	r20, r18
 852:	53 07       	cpc	r21, r19
 854:	0c f4       	brge	.+2      	; 0x858 <vsnprintf+0x52>
 856:	9a 01       	movw	r18, r20
 858:	f8 01       	movw	r30, r16
 85a:	e2 0f       	add	r30, r18
 85c:	f3 1f       	adc	r31, r19
 85e:	10 82       	st	Z, r1
 860:	2e 96       	adiw	r28, 0x0e	; 14
 862:	0f b6       	in	r0, 0x3f	; 63
 864:	f8 94       	cli
 866:	de bf       	out	0x3e, r29	; 62
 868:	0f be       	out	0x3f, r0	; 63
 86a:	cd bf       	out	0x3d, r28	; 61
 86c:	df 91       	pop	r29
 86e:	cf 91       	pop	r28
 870:	1f 91       	pop	r17
 872:	0f 91       	pop	r16
 874:	08 95       	ret

00000876 <vfprintf>:
 876:	2f 92       	push	r2
 878:	3f 92       	push	r3
 87a:	4f 92       	push	r4
 87c:	5f 92       	push	r5
 87e:	6f 92       	push	r6
 880:	7f 92       	push	r7
 882:	8f 92       	push	r8
 884:	9f 92       	push	r9
 886:	af 92       	push	r10
 888:	bf 92       	push	r11
 88a:	cf 92       	push	r12
 88c:	df 92       	push	r13
 88e:	ef 92       	push	r14
 890:	ff 92       	push	r15
 892:	0f 93       	push	r16
 894:	1f 93       	push	r17
 896:	cf 93       	push	r28
 898:	df 93       	push	r29
 89a:	cd b7       	in	r28, 0x3d	; 61
 89c:	de b7       	in	r29, 0x3e	; 62
 89e:	2b 97       	sbiw	r28, 0x0b	; 11
 8a0:	0f b6       	in	r0, 0x3f	; 63
 8a2:	f8 94       	cli
 8a4:	de bf       	out	0x3e, r29	; 62
 8a6:	0f be       	out	0x3f, r0	; 63
 8a8:	cd bf       	out	0x3d, r28	; 61
 8aa:	6c 01       	movw	r12, r24
 8ac:	7b 01       	movw	r14, r22
 8ae:	8a 01       	movw	r16, r20
 8b0:	fc 01       	movw	r30, r24
 8b2:	17 82       	std	Z+7, r1	; 0x07
 8b4:	16 82       	std	Z+6, r1	; 0x06
 8b6:	83 81       	ldd	r24, Z+3	; 0x03
 8b8:	81 ff       	sbrs	r24, 1
 8ba:	bf c1       	rjmp	.+894    	; 0xc3a <vfprintf+0x3c4>
 8bc:	ce 01       	movw	r24, r28
 8be:	01 96       	adiw	r24, 0x01	; 1
 8c0:	3c 01       	movw	r6, r24
 8c2:	f6 01       	movw	r30, r12
 8c4:	93 81       	ldd	r25, Z+3	; 0x03
 8c6:	f7 01       	movw	r30, r14
 8c8:	93 fd       	sbrc	r25, 3
 8ca:	85 91       	lpm	r24, Z+
 8cc:	93 ff       	sbrs	r25, 3
 8ce:	81 91       	ld	r24, Z+
 8d0:	7f 01       	movw	r14, r30
 8d2:	88 23       	and	r24, r24
 8d4:	09 f4       	brne	.+2      	; 0x8d8 <vfprintf+0x62>
 8d6:	ad c1       	rjmp	.+858    	; 0xc32 <vfprintf+0x3bc>
 8d8:	85 32       	cpi	r24, 0x25	; 37
 8da:	39 f4       	brne	.+14     	; 0x8ea <vfprintf+0x74>
 8dc:	93 fd       	sbrc	r25, 3
 8de:	85 91       	lpm	r24, Z+
 8e0:	93 ff       	sbrs	r25, 3
 8e2:	81 91       	ld	r24, Z+
 8e4:	7f 01       	movw	r14, r30
 8e6:	85 32       	cpi	r24, 0x25	; 37
 8e8:	21 f4       	brne	.+8      	; 0x8f2 <vfprintf+0x7c>
 8ea:	b6 01       	movw	r22, r12
 8ec:	90 e0       	ldi	r25, 0x00	; 0
 8ee:	d6 d1       	rcall	.+940    	; 0xc9c <fputc>
 8f0:	e8 cf       	rjmp	.-48     	; 0x8c2 <vfprintf+0x4c>
 8f2:	91 2c       	mov	r9, r1
 8f4:	21 2c       	mov	r2, r1
 8f6:	31 2c       	mov	r3, r1
 8f8:	ff e1       	ldi	r31, 0x1F	; 31
 8fa:	f3 15       	cp	r31, r3
 8fc:	d8 f0       	brcs	.+54     	; 0x934 <vfprintf+0xbe>
 8fe:	8b 32       	cpi	r24, 0x2B	; 43
 900:	79 f0       	breq	.+30     	; 0x920 <vfprintf+0xaa>
 902:	38 f4       	brcc	.+14     	; 0x912 <vfprintf+0x9c>
 904:	80 32       	cpi	r24, 0x20	; 32
 906:	79 f0       	breq	.+30     	; 0x926 <vfprintf+0xb0>
 908:	83 32       	cpi	r24, 0x23	; 35
 90a:	a1 f4       	brne	.+40     	; 0x934 <vfprintf+0xbe>
 90c:	23 2d       	mov	r18, r3
 90e:	20 61       	ori	r18, 0x10	; 16
 910:	1d c0       	rjmp	.+58     	; 0x94c <vfprintf+0xd6>
 912:	8d 32       	cpi	r24, 0x2D	; 45
 914:	61 f0       	breq	.+24     	; 0x92e <vfprintf+0xb8>
 916:	80 33       	cpi	r24, 0x30	; 48
 918:	69 f4       	brne	.+26     	; 0x934 <vfprintf+0xbe>
 91a:	23 2d       	mov	r18, r3
 91c:	21 60       	ori	r18, 0x01	; 1
 91e:	16 c0       	rjmp	.+44     	; 0x94c <vfprintf+0xd6>
 920:	83 2d       	mov	r24, r3
 922:	82 60       	ori	r24, 0x02	; 2
 924:	38 2e       	mov	r3, r24
 926:	e3 2d       	mov	r30, r3
 928:	e4 60       	ori	r30, 0x04	; 4
 92a:	3e 2e       	mov	r3, r30
 92c:	2a c0       	rjmp	.+84     	; 0x982 <vfprintf+0x10c>
 92e:	f3 2d       	mov	r31, r3
 930:	f8 60       	ori	r31, 0x08	; 8
 932:	1d c0       	rjmp	.+58     	; 0x96e <vfprintf+0xf8>
 934:	37 fc       	sbrc	r3, 7
 936:	2d c0       	rjmp	.+90     	; 0x992 <vfprintf+0x11c>
 938:	20 ed       	ldi	r18, 0xD0	; 208
 93a:	28 0f       	add	r18, r24
 93c:	2a 30       	cpi	r18, 0x0A	; 10
 93e:	40 f0       	brcs	.+16     	; 0x950 <vfprintf+0xda>
 940:	8e 32       	cpi	r24, 0x2E	; 46
 942:	b9 f4       	brne	.+46     	; 0x972 <vfprintf+0xfc>
 944:	36 fc       	sbrc	r3, 6
 946:	75 c1       	rjmp	.+746    	; 0xc32 <vfprintf+0x3bc>
 948:	23 2d       	mov	r18, r3
 94a:	20 64       	ori	r18, 0x40	; 64
 94c:	32 2e       	mov	r3, r18
 94e:	19 c0       	rjmp	.+50     	; 0x982 <vfprintf+0x10c>
 950:	36 fe       	sbrs	r3, 6
 952:	06 c0       	rjmp	.+12     	; 0x960 <vfprintf+0xea>
 954:	8a e0       	ldi	r24, 0x0A	; 10
 956:	98 9e       	mul	r9, r24
 958:	20 0d       	add	r18, r0
 95a:	11 24       	eor	r1, r1
 95c:	92 2e       	mov	r9, r18
 95e:	11 c0       	rjmp	.+34     	; 0x982 <vfprintf+0x10c>
 960:	ea e0       	ldi	r30, 0x0A	; 10
 962:	2e 9e       	mul	r2, r30
 964:	20 0d       	add	r18, r0
 966:	11 24       	eor	r1, r1
 968:	22 2e       	mov	r2, r18
 96a:	f3 2d       	mov	r31, r3
 96c:	f0 62       	ori	r31, 0x20	; 32
 96e:	3f 2e       	mov	r3, r31
 970:	08 c0       	rjmp	.+16     	; 0x982 <vfprintf+0x10c>
 972:	8c 36       	cpi	r24, 0x6C	; 108
 974:	21 f4       	brne	.+8      	; 0x97e <vfprintf+0x108>
 976:	83 2d       	mov	r24, r3
 978:	80 68       	ori	r24, 0x80	; 128
 97a:	38 2e       	mov	r3, r24
 97c:	02 c0       	rjmp	.+4      	; 0x982 <vfprintf+0x10c>
 97e:	88 36       	cpi	r24, 0x68	; 104
 980:	41 f4       	brne	.+16     	; 0x992 <vfprintf+0x11c>
 982:	f7 01       	movw	r30, r14
 984:	93 fd       	sbrc	r25, 3
 986:	85 91       	lpm	r24, Z+
 988:	93 ff       	sbrs	r25, 3
 98a:	81 91       	ld	r24, Z+
 98c:	7f 01       	movw	r14, r30
 98e:	81 11       	cpse	r24, r1
 990:	b3 cf       	rjmp	.-154    	; 0x8f8 <vfprintf+0x82>
 992:	98 2f       	mov	r25, r24
 994:	9f 7d       	andi	r25, 0xDF	; 223
 996:	95 54       	subi	r25, 0x45	; 69
 998:	93 30       	cpi	r25, 0x03	; 3
 99a:	28 f4       	brcc	.+10     	; 0x9a6 <vfprintf+0x130>
 99c:	0c 5f       	subi	r16, 0xFC	; 252
 99e:	1f 4f       	sbci	r17, 0xFF	; 255
 9a0:	9f e3       	ldi	r25, 0x3F	; 63
 9a2:	99 83       	std	Y+1, r25	; 0x01
 9a4:	0d c0       	rjmp	.+26     	; 0x9c0 <vfprintf+0x14a>
 9a6:	83 36       	cpi	r24, 0x63	; 99
 9a8:	31 f0       	breq	.+12     	; 0x9b6 <vfprintf+0x140>
 9aa:	83 37       	cpi	r24, 0x73	; 115
 9ac:	71 f0       	breq	.+28     	; 0x9ca <vfprintf+0x154>
 9ae:	83 35       	cpi	r24, 0x53	; 83
 9b0:	09 f0       	breq	.+2      	; 0x9b4 <vfprintf+0x13e>
 9b2:	55 c0       	rjmp	.+170    	; 0xa5e <vfprintf+0x1e8>
 9b4:	20 c0       	rjmp	.+64     	; 0x9f6 <vfprintf+0x180>
 9b6:	f8 01       	movw	r30, r16
 9b8:	80 81       	ld	r24, Z
 9ba:	89 83       	std	Y+1, r24	; 0x01
 9bc:	0e 5f       	subi	r16, 0xFE	; 254
 9be:	1f 4f       	sbci	r17, 0xFF	; 255
 9c0:	88 24       	eor	r8, r8
 9c2:	83 94       	inc	r8
 9c4:	91 2c       	mov	r9, r1
 9c6:	53 01       	movw	r10, r6
 9c8:	12 c0       	rjmp	.+36     	; 0x9ee <vfprintf+0x178>
 9ca:	28 01       	movw	r4, r16
 9cc:	f2 e0       	ldi	r31, 0x02	; 2
 9ce:	4f 0e       	add	r4, r31
 9d0:	51 1c       	adc	r5, r1
 9d2:	f8 01       	movw	r30, r16
 9d4:	a0 80       	ld	r10, Z
 9d6:	b1 80       	ldd	r11, Z+1	; 0x01
 9d8:	36 fe       	sbrs	r3, 6
 9da:	03 c0       	rjmp	.+6      	; 0x9e2 <vfprintf+0x16c>
 9dc:	69 2d       	mov	r22, r9
 9de:	70 e0       	ldi	r23, 0x00	; 0
 9e0:	02 c0       	rjmp	.+4      	; 0x9e6 <vfprintf+0x170>
 9e2:	6f ef       	ldi	r22, 0xFF	; 255
 9e4:	7f ef       	ldi	r23, 0xFF	; 255
 9e6:	c5 01       	movw	r24, r10
 9e8:	4e d1       	rcall	.+668    	; 0xc86 <strnlen>
 9ea:	4c 01       	movw	r8, r24
 9ec:	82 01       	movw	r16, r4
 9ee:	f3 2d       	mov	r31, r3
 9f0:	ff 77       	andi	r31, 0x7F	; 127
 9f2:	3f 2e       	mov	r3, r31
 9f4:	15 c0       	rjmp	.+42     	; 0xa20 <vfprintf+0x1aa>
 9f6:	28 01       	movw	r4, r16
 9f8:	22 e0       	ldi	r18, 0x02	; 2
 9fa:	42 0e       	add	r4, r18
 9fc:	51 1c       	adc	r5, r1
 9fe:	f8 01       	movw	r30, r16
 a00:	a0 80       	ld	r10, Z
 a02:	b1 80       	ldd	r11, Z+1	; 0x01
 a04:	36 fe       	sbrs	r3, 6
 a06:	03 c0       	rjmp	.+6      	; 0xa0e <vfprintf+0x198>
 a08:	69 2d       	mov	r22, r9
 a0a:	70 e0       	ldi	r23, 0x00	; 0
 a0c:	02 c0       	rjmp	.+4      	; 0xa12 <vfprintf+0x19c>
 a0e:	6f ef       	ldi	r22, 0xFF	; 255
 a10:	7f ef       	ldi	r23, 0xFF	; 255
 a12:	c5 01       	movw	r24, r10
 a14:	2d d1       	rcall	.+602    	; 0xc70 <strnlen_P>
 a16:	4c 01       	movw	r8, r24
 a18:	f3 2d       	mov	r31, r3
 a1a:	f0 68       	ori	r31, 0x80	; 128
 a1c:	3f 2e       	mov	r3, r31
 a1e:	82 01       	movw	r16, r4
 a20:	33 fc       	sbrc	r3, 3
 a22:	19 c0       	rjmp	.+50     	; 0xa56 <vfprintf+0x1e0>
 a24:	82 2d       	mov	r24, r2
 a26:	90 e0       	ldi	r25, 0x00	; 0
 a28:	88 16       	cp	r8, r24
 a2a:	99 06       	cpc	r9, r25
 a2c:	a0 f4       	brcc	.+40     	; 0xa56 <vfprintf+0x1e0>
 a2e:	b6 01       	movw	r22, r12
 a30:	80 e2       	ldi	r24, 0x20	; 32
 a32:	90 e0       	ldi	r25, 0x00	; 0
 a34:	33 d1       	rcall	.+614    	; 0xc9c <fputc>
 a36:	2a 94       	dec	r2
 a38:	f5 cf       	rjmp	.-22     	; 0xa24 <vfprintf+0x1ae>
 a3a:	f5 01       	movw	r30, r10
 a3c:	37 fc       	sbrc	r3, 7
 a3e:	85 91       	lpm	r24, Z+
 a40:	37 fe       	sbrs	r3, 7
 a42:	81 91       	ld	r24, Z+
 a44:	5f 01       	movw	r10, r30
 a46:	b6 01       	movw	r22, r12
 a48:	90 e0       	ldi	r25, 0x00	; 0
 a4a:	28 d1       	rcall	.+592    	; 0xc9c <fputc>
 a4c:	21 10       	cpse	r2, r1
 a4e:	2a 94       	dec	r2
 a50:	21 e0       	ldi	r18, 0x01	; 1
 a52:	82 1a       	sub	r8, r18
 a54:	91 08       	sbc	r9, r1
 a56:	81 14       	cp	r8, r1
 a58:	91 04       	cpc	r9, r1
 a5a:	79 f7       	brne	.-34     	; 0xa3a <vfprintf+0x1c4>
 a5c:	e1 c0       	rjmp	.+450    	; 0xc20 <vfprintf+0x3aa>
 a5e:	84 36       	cpi	r24, 0x64	; 100
 a60:	11 f0       	breq	.+4      	; 0xa66 <vfprintf+0x1f0>
 a62:	89 36       	cpi	r24, 0x69	; 105
 a64:	39 f5       	brne	.+78     	; 0xab4 <vfprintf+0x23e>
 a66:	f8 01       	movw	r30, r16
 a68:	37 fe       	sbrs	r3, 7
 a6a:	07 c0       	rjmp	.+14     	; 0xa7a <vfprintf+0x204>
 a6c:	60 81       	ld	r22, Z
 a6e:	71 81       	ldd	r23, Z+1	; 0x01
 a70:	82 81       	ldd	r24, Z+2	; 0x02
 a72:	93 81       	ldd	r25, Z+3	; 0x03
 a74:	0c 5f       	subi	r16, 0xFC	; 252
 a76:	1f 4f       	sbci	r17, 0xFF	; 255
 a78:	08 c0       	rjmp	.+16     	; 0xa8a <vfprintf+0x214>
 a7a:	60 81       	ld	r22, Z
 a7c:	71 81       	ldd	r23, Z+1	; 0x01
 a7e:	07 2e       	mov	r0, r23
 a80:	00 0c       	add	r0, r0
 a82:	88 0b       	sbc	r24, r24
 a84:	99 0b       	sbc	r25, r25
 a86:	0e 5f       	subi	r16, 0xFE	; 254
 a88:	1f 4f       	sbci	r17, 0xFF	; 255
 a8a:	f3 2d       	mov	r31, r3
 a8c:	ff 76       	andi	r31, 0x6F	; 111
 a8e:	3f 2e       	mov	r3, r31
 a90:	97 ff       	sbrs	r25, 7
 a92:	09 c0       	rjmp	.+18     	; 0xaa6 <vfprintf+0x230>
 a94:	90 95       	com	r25
 a96:	80 95       	com	r24
 a98:	70 95       	com	r23
 a9a:	61 95       	neg	r22
 a9c:	7f 4f       	sbci	r23, 0xFF	; 255
 a9e:	8f 4f       	sbci	r24, 0xFF	; 255
 aa0:	9f 4f       	sbci	r25, 0xFF	; 255
 aa2:	f0 68       	ori	r31, 0x80	; 128
 aa4:	3f 2e       	mov	r3, r31
 aa6:	2a e0       	ldi	r18, 0x0A	; 10
 aa8:	30 e0       	ldi	r19, 0x00	; 0
 aaa:	a3 01       	movw	r20, r6
 aac:	33 d1       	rcall	.+614    	; 0xd14 <__ultoa_invert>
 aae:	88 2e       	mov	r8, r24
 ab0:	86 18       	sub	r8, r6
 ab2:	44 c0       	rjmp	.+136    	; 0xb3c <vfprintf+0x2c6>
 ab4:	85 37       	cpi	r24, 0x75	; 117
 ab6:	31 f4       	brne	.+12     	; 0xac4 <vfprintf+0x24e>
 ab8:	23 2d       	mov	r18, r3
 aba:	2f 7e       	andi	r18, 0xEF	; 239
 abc:	b2 2e       	mov	r11, r18
 abe:	2a e0       	ldi	r18, 0x0A	; 10
 ac0:	30 e0       	ldi	r19, 0x00	; 0
 ac2:	25 c0       	rjmp	.+74     	; 0xb0e <vfprintf+0x298>
 ac4:	93 2d       	mov	r25, r3
 ac6:	99 7f       	andi	r25, 0xF9	; 249
 ac8:	b9 2e       	mov	r11, r25
 aca:	8f 36       	cpi	r24, 0x6F	; 111
 acc:	c1 f0       	breq	.+48     	; 0xafe <vfprintf+0x288>
 ace:	18 f4       	brcc	.+6      	; 0xad6 <vfprintf+0x260>
 ad0:	88 35       	cpi	r24, 0x58	; 88
 ad2:	79 f0       	breq	.+30     	; 0xaf2 <vfprintf+0x27c>
 ad4:	ae c0       	rjmp	.+348    	; 0xc32 <vfprintf+0x3bc>
 ad6:	80 37       	cpi	r24, 0x70	; 112
 ad8:	19 f0       	breq	.+6      	; 0xae0 <vfprintf+0x26a>
 ada:	88 37       	cpi	r24, 0x78	; 120
 adc:	21 f0       	breq	.+8      	; 0xae6 <vfprintf+0x270>
 ade:	a9 c0       	rjmp	.+338    	; 0xc32 <vfprintf+0x3bc>
 ae0:	e9 2f       	mov	r30, r25
 ae2:	e0 61       	ori	r30, 0x10	; 16
 ae4:	be 2e       	mov	r11, r30
 ae6:	b4 fe       	sbrs	r11, 4
 ae8:	0d c0       	rjmp	.+26     	; 0xb04 <vfprintf+0x28e>
 aea:	fb 2d       	mov	r31, r11
 aec:	f4 60       	ori	r31, 0x04	; 4
 aee:	bf 2e       	mov	r11, r31
 af0:	09 c0       	rjmp	.+18     	; 0xb04 <vfprintf+0x28e>
 af2:	34 fe       	sbrs	r3, 4
 af4:	0a c0       	rjmp	.+20     	; 0xb0a <vfprintf+0x294>
 af6:	29 2f       	mov	r18, r25
 af8:	26 60       	ori	r18, 0x06	; 6
 afa:	b2 2e       	mov	r11, r18
 afc:	06 c0       	rjmp	.+12     	; 0xb0a <vfprintf+0x294>
 afe:	28 e0       	ldi	r18, 0x08	; 8
 b00:	30 e0       	ldi	r19, 0x00	; 0
 b02:	05 c0       	rjmp	.+10     	; 0xb0e <vfprintf+0x298>
 b04:	20 e1       	ldi	r18, 0x10	; 16
 b06:	30 e0       	ldi	r19, 0x00	; 0
 b08:	02 c0       	rjmp	.+4      	; 0xb0e <vfprintf+0x298>
 b0a:	20 e1       	ldi	r18, 0x10	; 16
 b0c:	32 e0       	ldi	r19, 0x02	; 2
 b0e:	f8 01       	movw	r30, r16
 b10:	b7 fe       	sbrs	r11, 7
 b12:	07 c0       	rjmp	.+14     	; 0xb22 <vfprintf+0x2ac>
 b14:	60 81       	ld	r22, Z
 b16:	71 81       	ldd	r23, Z+1	; 0x01
 b18:	82 81       	ldd	r24, Z+2	; 0x02
 b1a:	93 81       	ldd	r25, Z+3	; 0x03
 b1c:	0c 5f       	subi	r16, 0xFC	; 252
 b1e:	1f 4f       	sbci	r17, 0xFF	; 255
 b20:	06 c0       	rjmp	.+12     	; 0xb2e <vfprintf+0x2b8>
 b22:	60 81       	ld	r22, Z
 b24:	71 81       	ldd	r23, Z+1	; 0x01
 b26:	80 e0       	ldi	r24, 0x00	; 0
 b28:	90 e0       	ldi	r25, 0x00	; 0
 b2a:	0e 5f       	subi	r16, 0xFE	; 254
 b2c:	1f 4f       	sbci	r17, 0xFF	; 255
 b2e:	a3 01       	movw	r20, r6
 b30:	f1 d0       	rcall	.+482    	; 0xd14 <__ultoa_invert>
 b32:	88 2e       	mov	r8, r24
 b34:	86 18       	sub	r8, r6
 b36:	fb 2d       	mov	r31, r11
 b38:	ff 77       	andi	r31, 0x7F	; 127
 b3a:	3f 2e       	mov	r3, r31
 b3c:	36 fe       	sbrs	r3, 6
 b3e:	0d c0       	rjmp	.+26     	; 0xb5a <vfprintf+0x2e4>
 b40:	23 2d       	mov	r18, r3
 b42:	2e 7f       	andi	r18, 0xFE	; 254
 b44:	a2 2e       	mov	r10, r18
 b46:	89 14       	cp	r8, r9
 b48:	58 f4       	brcc	.+22     	; 0xb60 <vfprintf+0x2ea>
 b4a:	34 fe       	sbrs	r3, 4
 b4c:	0b c0       	rjmp	.+22     	; 0xb64 <vfprintf+0x2ee>
 b4e:	32 fc       	sbrc	r3, 2
 b50:	09 c0       	rjmp	.+18     	; 0xb64 <vfprintf+0x2ee>
 b52:	83 2d       	mov	r24, r3
 b54:	8e 7e       	andi	r24, 0xEE	; 238
 b56:	a8 2e       	mov	r10, r24
 b58:	05 c0       	rjmp	.+10     	; 0xb64 <vfprintf+0x2ee>
 b5a:	b8 2c       	mov	r11, r8
 b5c:	a3 2c       	mov	r10, r3
 b5e:	03 c0       	rjmp	.+6      	; 0xb66 <vfprintf+0x2f0>
 b60:	b8 2c       	mov	r11, r8
 b62:	01 c0       	rjmp	.+2      	; 0xb66 <vfprintf+0x2f0>
 b64:	b9 2c       	mov	r11, r9
 b66:	a4 fe       	sbrs	r10, 4
 b68:	0f c0       	rjmp	.+30     	; 0xb88 <vfprintf+0x312>
 b6a:	fe 01       	movw	r30, r28
 b6c:	e8 0d       	add	r30, r8
 b6e:	f1 1d       	adc	r31, r1
 b70:	80 81       	ld	r24, Z
 b72:	80 33       	cpi	r24, 0x30	; 48
 b74:	21 f4       	brne	.+8      	; 0xb7e <vfprintf+0x308>
 b76:	9a 2d       	mov	r25, r10
 b78:	99 7e       	andi	r25, 0xE9	; 233
 b7a:	a9 2e       	mov	r10, r25
 b7c:	09 c0       	rjmp	.+18     	; 0xb90 <vfprintf+0x31a>
 b7e:	a2 fe       	sbrs	r10, 2
 b80:	06 c0       	rjmp	.+12     	; 0xb8e <vfprintf+0x318>
 b82:	b3 94       	inc	r11
 b84:	b3 94       	inc	r11
 b86:	04 c0       	rjmp	.+8      	; 0xb90 <vfprintf+0x31a>
 b88:	8a 2d       	mov	r24, r10
 b8a:	86 78       	andi	r24, 0x86	; 134
 b8c:	09 f0       	breq	.+2      	; 0xb90 <vfprintf+0x31a>
 b8e:	b3 94       	inc	r11
 b90:	a3 fc       	sbrc	r10, 3
 b92:	10 c0       	rjmp	.+32     	; 0xbb4 <vfprintf+0x33e>
 b94:	a0 fe       	sbrs	r10, 0
 b96:	06 c0       	rjmp	.+12     	; 0xba4 <vfprintf+0x32e>
 b98:	b2 14       	cp	r11, r2
 b9a:	80 f4       	brcc	.+32     	; 0xbbc <vfprintf+0x346>
 b9c:	28 0c       	add	r2, r8
 b9e:	92 2c       	mov	r9, r2
 ba0:	9b 18       	sub	r9, r11
 ba2:	0d c0       	rjmp	.+26     	; 0xbbe <vfprintf+0x348>
 ba4:	b2 14       	cp	r11, r2
 ba6:	58 f4       	brcc	.+22     	; 0xbbe <vfprintf+0x348>
 ba8:	b6 01       	movw	r22, r12
 baa:	80 e2       	ldi	r24, 0x20	; 32
 bac:	90 e0       	ldi	r25, 0x00	; 0
 bae:	76 d0       	rcall	.+236    	; 0xc9c <fputc>
 bb0:	b3 94       	inc	r11
 bb2:	f8 cf       	rjmp	.-16     	; 0xba4 <vfprintf+0x32e>
 bb4:	b2 14       	cp	r11, r2
 bb6:	18 f4       	brcc	.+6      	; 0xbbe <vfprintf+0x348>
 bb8:	2b 18       	sub	r2, r11
 bba:	02 c0       	rjmp	.+4      	; 0xbc0 <vfprintf+0x34a>
 bbc:	98 2c       	mov	r9, r8
 bbe:	21 2c       	mov	r2, r1
 bc0:	a4 fe       	sbrs	r10, 4
 bc2:	0f c0       	rjmp	.+30     	; 0xbe2 <vfprintf+0x36c>
 bc4:	b6 01       	movw	r22, r12
 bc6:	80 e3       	ldi	r24, 0x30	; 48
 bc8:	90 e0       	ldi	r25, 0x00	; 0
 bca:	68 d0       	rcall	.+208    	; 0xc9c <fputc>
 bcc:	a2 fe       	sbrs	r10, 2
 bce:	16 c0       	rjmp	.+44     	; 0xbfc <vfprintf+0x386>
 bd0:	a1 fc       	sbrc	r10, 1
 bd2:	03 c0       	rjmp	.+6      	; 0xbda <vfprintf+0x364>
 bd4:	88 e7       	ldi	r24, 0x78	; 120
 bd6:	90 e0       	ldi	r25, 0x00	; 0
 bd8:	02 c0       	rjmp	.+4      	; 0xbde <vfprintf+0x368>
 bda:	88 e5       	ldi	r24, 0x58	; 88
 bdc:	90 e0       	ldi	r25, 0x00	; 0
 bde:	b6 01       	movw	r22, r12
 be0:	0c c0       	rjmp	.+24     	; 0xbfa <vfprintf+0x384>
 be2:	8a 2d       	mov	r24, r10
 be4:	86 78       	andi	r24, 0x86	; 134
 be6:	51 f0       	breq	.+20     	; 0xbfc <vfprintf+0x386>
 be8:	a1 fe       	sbrs	r10, 1
 bea:	02 c0       	rjmp	.+4      	; 0xbf0 <vfprintf+0x37a>
 bec:	8b e2       	ldi	r24, 0x2B	; 43
 bee:	01 c0       	rjmp	.+2      	; 0xbf2 <vfprintf+0x37c>
 bf0:	80 e2       	ldi	r24, 0x20	; 32
 bf2:	a7 fc       	sbrc	r10, 7
 bf4:	8d e2       	ldi	r24, 0x2D	; 45
 bf6:	b6 01       	movw	r22, r12
 bf8:	90 e0       	ldi	r25, 0x00	; 0
 bfa:	50 d0       	rcall	.+160    	; 0xc9c <fputc>
 bfc:	89 14       	cp	r8, r9
 bfe:	30 f4       	brcc	.+12     	; 0xc0c <vfprintf+0x396>
 c00:	b6 01       	movw	r22, r12
 c02:	80 e3       	ldi	r24, 0x30	; 48
 c04:	90 e0       	ldi	r25, 0x00	; 0
 c06:	4a d0       	rcall	.+148    	; 0xc9c <fputc>
 c08:	9a 94       	dec	r9
 c0a:	f8 cf       	rjmp	.-16     	; 0xbfc <vfprintf+0x386>
 c0c:	8a 94       	dec	r8
 c0e:	f3 01       	movw	r30, r6
 c10:	e8 0d       	add	r30, r8
 c12:	f1 1d       	adc	r31, r1
 c14:	80 81       	ld	r24, Z
 c16:	b6 01       	movw	r22, r12
 c18:	90 e0       	ldi	r25, 0x00	; 0
 c1a:	40 d0       	rcall	.+128    	; 0xc9c <fputc>
 c1c:	81 10       	cpse	r8, r1
 c1e:	f6 cf       	rjmp	.-20     	; 0xc0c <vfprintf+0x396>
 c20:	22 20       	and	r2, r2
 c22:	09 f4       	brne	.+2      	; 0xc26 <vfprintf+0x3b0>
 c24:	4e ce       	rjmp	.-868    	; 0x8c2 <vfprintf+0x4c>
 c26:	b6 01       	movw	r22, r12
 c28:	80 e2       	ldi	r24, 0x20	; 32
 c2a:	90 e0       	ldi	r25, 0x00	; 0
 c2c:	37 d0       	rcall	.+110    	; 0xc9c <fputc>
 c2e:	2a 94       	dec	r2
 c30:	f7 cf       	rjmp	.-18     	; 0xc20 <vfprintf+0x3aa>
 c32:	f6 01       	movw	r30, r12
 c34:	86 81       	ldd	r24, Z+6	; 0x06
 c36:	97 81       	ldd	r25, Z+7	; 0x07
 c38:	02 c0       	rjmp	.+4      	; 0xc3e <vfprintf+0x3c8>
 c3a:	8f ef       	ldi	r24, 0xFF	; 255
 c3c:	9f ef       	ldi	r25, 0xFF	; 255
 c3e:	2b 96       	adiw	r28, 0x0b	; 11
 c40:	0f b6       	in	r0, 0x3f	; 63
 c42:	f8 94       	cli
 c44:	de bf       	out	0x3e, r29	; 62
 c46:	0f be       	out	0x3f, r0	; 63
 c48:	cd bf       	out	0x3d, r28	; 61
 c4a:	df 91       	pop	r29
 c4c:	cf 91       	pop	r28
 c4e:	1f 91       	pop	r17
 c50:	0f 91       	pop	r16
 c52:	ff 90       	pop	r15
 c54:	ef 90       	pop	r14
 c56:	df 90       	pop	r13
 c58:	cf 90       	pop	r12
 c5a:	bf 90       	pop	r11
 c5c:	af 90       	pop	r10
 c5e:	9f 90       	pop	r9
 c60:	8f 90       	pop	r8
 c62:	7f 90       	pop	r7
 c64:	6f 90       	pop	r6
 c66:	5f 90       	pop	r5
 c68:	4f 90       	pop	r4
 c6a:	3f 90       	pop	r3
 c6c:	2f 90       	pop	r2
 c6e:	08 95       	ret

00000c70 <strnlen_P>:
 c70:	fc 01       	movw	r30, r24
 c72:	05 90       	lpm	r0, Z+
 c74:	61 50       	subi	r22, 0x01	; 1
 c76:	70 40       	sbci	r23, 0x00	; 0
 c78:	01 10       	cpse	r0, r1
 c7a:	d8 f7       	brcc	.-10     	; 0xc72 <strnlen_P+0x2>
 c7c:	80 95       	com	r24
 c7e:	90 95       	com	r25
 c80:	8e 0f       	add	r24, r30
 c82:	9f 1f       	adc	r25, r31
 c84:	08 95       	ret

00000c86 <strnlen>:
 c86:	fc 01       	movw	r30, r24
 c88:	61 50       	subi	r22, 0x01	; 1
 c8a:	70 40       	sbci	r23, 0x00	; 0
 c8c:	01 90       	ld	r0, Z+
 c8e:	01 10       	cpse	r0, r1
 c90:	d8 f7       	brcc	.-10     	; 0xc88 <strnlen+0x2>
 c92:	80 95       	com	r24
 c94:	90 95       	com	r25
 c96:	8e 0f       	add	r24, r30
 c98:	9f 1f       	adc	r25, r31
 c9a:	08 95       	ret

00000c9c <fputc>:
 c9c:	0f 93       	push	r16
 c9e:	1f 93       	push	r17
 ca0:	cf 93       	push	r28
 ca2:	df 93       	push	r29
 ca4:	fb 01       	movw	r30, r22
 ca6:	23 81       	ldd	r18, Z+3	; 0x03
 ca8:	21 fd       	sbrc	r18, 1
 caa:	03 c0       	rjmp	.+6      	; 0xcb2 <fputc+0x16>
 cac:	8f ef       	ldi	r24, 0xFF	; 255
 cae:	9f ef       	ldi	r25, 0xFF	; 255
 cb0:	2c c0       	rjmp	.+88     	; 0xd0a <fputc+0x6e>
 cb2:	22 ff       	sbrs	r18, 2
 cb4:	16 c0       	rjmp	.+44     	; 0xce2 <fputc+0x46>
 cb6:	46 81       	ldd	r20, Z+6	; 0x06
 cb8:	57 81       	ldd	r21, Z+7	; 0x07
 cba:	24 81       	ldd	r18, Z+4	; 0x04
 cbc:	35 81       	ldd	r19, Z+5	; 0x05
 cbe:	42 17       	cp	r20, r18
 cc0:	53 07       	cpc	r21, r19
 cc2:	44 f4       	brge	.+16     	; 0xcd4 <fputc+0x38>
 cc4:	a0 81       	ld	r26, Z
 cc6:	b1 81       	ldd	r27, Z+1	; 0x01
 cc8:	9d 01       	movw	r18, r26
 cca:	2f 5f       	subi	r18, 0xFF	; 255
 ccc:	3f 4f       	sbci	r19, 0xFF	; 255
 cce:	31 83       	std	Z+1, r19	; 0x01
 cd0:	20 83       	st	Z, r18
 cd2:	8c 93       	st	X, r24
 cd4:	26 81       	ldd	r18, Z+6	; 0x06
 cd6:	37 81       	ldd	r19, Z+7	; 0x07
 cd8:	2f 5f       	subi	r18, 0xFF	; 255
 cda:	3f 4f       	sbci	r19, 0xFF	; 255
 cdc:	37 83       	std	Z+7, r19	; 0x07
 cde:	26 83       	std	Z+6, r18	; 0x06
 ce0:	14 c0       	rjmp	.+40     	; 0xd0a <fputc+0x6e>
 ce2:	8b 01       	movw	r16, r22
 ce4:	ec 01       	movw	r28, r24
 ce6:	fb 01       	movw	r30, r22
 ce8:	00 84       	ldd	r0, Z+8	; 0x08
 cea:	f1 85       	ldd	r31, Z+9	; 0x09
 cec:	e0 2d       	mov	r30, r0
 cee:	19 95       	eicall
 cf0:	89 2b       	or	r24, r25
 cf2:	e1 f6       	brne	.-72     	; 0xcac <fputc+0x10>
 cf4:	d8 01       	movw	r26, r16
 cf6:	16 96       	adiw	r26, 0x06	; 6
 cf8:	8d 91       	ld	r24, X+
 cfa:	9c 91       	ld	r25, X
 cfc:	17 97       	sbiw	r26, 0x07	; 7
 cfe:	01 96       	adiw	r24, 0x01	; 1
 d00:	17 96       	adiw	r26, 0x07	; 7
 d02:	9c 93       	st	X, r25
 d04:	8e 93       	st	-X, r24
 d06:	16 97       	sbiw	r26, 0x06	; 6
 d08:	ce 01       	movw	r24, r28
 d0a:	df 91       	pop	r29
 d0c:	cf 91       	pop	r28
 d0e:	1f 91       	pop	r17
 d10:	0f 91       	pop	r16
 d12:	08 95       	ret

00000d14 <__ultoa_invert>:
 d14:	fa 01       	movw	r30, r20
 d16:	aa 27       	eor	r26, r26
 d18:	28 30       	cpi	r18, 0x08	; 8
 d1a:	51 f1       	breq	.+84     	; 0xd70 <__ultoa_invert+0x5c>
 d1c:	20 31       	cpi	r18, 0x10	; 16
 d1e:	81 f1       	breq	.+96     	; 0xd80 <__ultoa_invert+0x6c>
 d20:	e8 94       	clt
 d22:	6f 93       	push	r22
 d24:	6e 7f       	andi	r22, 0xFE	; 254
 d26:	6e 5f       	subi	r22, 0xFE	; 254
 d28:	7f 4f       	sbci	r23, 0xFF	; 255
 d2a:	8f 4f       	sbci	r24, 0xFF	; 255
 d2c:	9f 4f       	sbci	r25, 0xFF	; 255
 d2e:	af 4f       	sbci	r26, 0xFF	; 255
 d30:	b1 e0       	ldi	r27, 0x01	; 1
 d32:	3e d0       	rcall	.+124    	; 0xdb0 <__ultoa_invert+0x9c>
 d34:	b4 e0       	ldi	r27, 0x04	; 4
 d36:	3c d0       	rcall	.+120    	; 0xdb0 <__ultoa_invert+0x9c>
 d38:	67 0f       	add	r22, r23
 d3a:	78 1f       	adc	r23, r24
 d3c:	89 1f       	adc	r24, r25
 d3e:	9a 1f       	adc	r25, r26
 d40:	a1 1d       	adc	r26, r1
 d42:	68 0f       	add	r22, r24
 d44:	79 1f       	adc	r23, r25
 d46:	8a 1f       	adc	r24, r26
 d48:	91 1d       	adc	r25, r1
 d4a:	a1 1d       	adc	r26, r1
 d4c:	6a 0f       	add	r22, r26
 d4e:	71 1d       	adc	r23, r1
 d50:	81 1d       	adc	r24, r1
 d52:	91 1d       	adc	r25, r1
 d54:	a1 1d       	adc	r26, r1
 d56:	20 d0       	rcall	.+64     	; 0xd98 <__ultoa_invert+0x84>
 d58:	09 f4       	brne	.+2      	; 0xd5c <__ultoa_invert+0x48>
 d5a:	68 94       	set
 d5c:	3f 91       	pop	r19
 d5e:	2a e0       	ldi	r18, 0x0A	; 10
 d60:	26 9f       	mul	r18, r22
 d62:	11 24       	eor	r1, r1
 d64:	30 19       	sub	r19, r0
 d66:	30 5d       	subi	r19, 0xD0	; 208
 d68:	31 93       	st	Z+, r19
 d6a:	de f6       	brtc	.-74     	; 0xd22 <__ultoa_invert+0xe>
 d6c:	cf 01       	movw	r24, r30
 d6e:	08 95       	ret
 d70:	46 2f       	mov	r20, r22
 d72:	47 70       	andi	r20, 0x07	; 7
 d74:	40 5d       	subi	r20, 0xD0	; 208
 d76:	41 93       	st	Z+, r20
 d78:	b3 e0       	ldi	r27, 0x03	; 3
 d7a:	0f d0       	rcall	.+30     	; 0xd9a <__ultoa_invert+0x86>
 d7c:	c9 f7       	brne	.-14     	; 0xd70 <__ultoa_invert+0x5c>
 d7e:	f6 cf       	rjmp	.-20     	; 0xd6c <__ultoa_invert+0x58>
 d80:	46 2f       	mov	r20, r22
 d82:	4f 70       	andi	r20, 0x0F	; 15
 d84:	40 5d       	subi	r20, 0xD0	; 208
 d86:	4a 33       	cpi	r20, 0x3A	; 58
 d88:	18 f0       	brcs	.+6      	; 0xd90 <__ultoa_invert+0x7c>
 d8a:	49 5d       	subi	r20, 0xD9	; 217
 d8c:	31 fd       	sbrc	r19, 1
 d8e:	40 52       	subi	r20, 0x20	; 32
 d90:	41 93       	st	Z+, r20
 d92:	02 d0       	rcall	.+4      	; 0xd98 <__ultoa_invert+0x84>
 d94:	a9 f7       	brne	.-22     	; 0xd80 <__ultoa_invert+0x6c>
 d96:	ea cf       	rjmp	.-44     	; 0xd6c <__ultoa_invert+0x58>
 d98:	b4 e0       	ldi	r27, 0x04	; 4
 d9a:	a6 95       	lsr	r26
 d9c:	97 95       	ror	r25
 d9e:	87 95       	ror	r24
 da0:	77 95       	ror	r23
 da2:	67 95       	ror	r22
 da4:	ba 95       	dec	r27
 da6:	c9 f7       	brne	.-14     	; 0xd9a <__ultoa_invert+0x86>
 da8:	00 97       	sbiw	r24, 0x00	; 0
 daa:	61 05       	cpc	r22, r1
 dac:	71 05       	cpc	r23, r1
 dae:	08 95       	ret
 db0:	9b 01       	movw	r18, r22
 db2:	ac 01       	movw	r20, r24
 db4:	0a 2e       	mov	r0, r26
 db6:	06 94       	lsr	r0
 db8:	57 95       	ror	r21
 dba:	47 95       	ror	r20
 dbc:	37 95       	ror	r19
 dbe:	27 95       	ror	r18
 dc0:	ba 95       	dec	r27
 dc2:	c9 f7       	brne	.-14     	; 0xdb6 <__ultoa_invert+0xa2>
 dc4:	62 0f       	add	r22, r18
 dc6:	73 1f       	adc	r23, r19
 dc8:	84 1f       	adc	r24, r20
 dca:	95 1f       	adc	r25, r21
 dcc:	a0 1d       	adc	r26, r0
 dce:	08 95       	ret

00000dd0 <_exit>:
 dd0:	f8 94       	cli

00000dd2 <__stop_program>:
 dd2:	ff cf       	rjmp	.-2      	; 0xdd2 <__stop_program>
