
uCBoardBeispiele.elf:     file format elf32-avr

Sections:
Idx Name          Size      VMA       LMA       File off  Algn
  0 .data         00000074  00800200  00000ef6  00000f8a  2**0
                  CONTENTS, ALLOC, LOAD, DATA
  1 .text         00000ef6  00000000  00000000  00000094  2**1
                  CONTENTS, ALLOC, LOAD, READONLY, CODE
  2 .bss          0000007e  00800274  00800274  00000ffe  2**0
                  ALLOC
  3 .comment      0000005c  00000000  00000000  00000ffe  2**0
                  CONTENTS, READONLY
  4 .note.gnu.avr.deviceinfo 00000040  00000000  00000000  0000105c  2**2
                  CONTENTS, READONLY
  5 .debug_aranges 000001e8  00000000  00000000  0000109c  2**0
                  CONTENTS, READONLY, DEBUGGING
  6 .debug_info   000025ac  00000000  00000000  00001284  2**0
                  CONTENTS, READONLY, DEBUGGING
  7 .debug_abbrev 00000feb  00000000  00000000  00003830  2**0
                  CONTENTS, READONLY, DEBUGGING
  8 .debug_line   00001593  00000000  00000000  0000481b  2**0
                  CONTENTS, READONLY, DEBUGGING
  9 .debug_frame  00000688  00000000  00000000  00005db0  2**2
                  CONTENTS, READONLY, DEBUGGING
 10 .debug_str    00000d99  00000000  00000000  00006438  2**0
                  CONTENTS, READONLY, DEBUGGING
 11 .debug_loc    00002037  00000000  00000000  000071d1  2**0
                  CONTENTS, READONLY, DEBUGGING
 12 .debug_ranges 00000218  00000000  00000000  00009208  2**0
                  CONTENTS, READONLY, DEBUGGING

Disassembly of section .text:

00000000 <__vectors>:
   0:	71 c0       	rjmp	.+226    	; 0xe4 <__ctors_end>
   2:	00 00       	nop
   4:	8e c0       	rjmp	.+284    	; 0x122 <__bad_interrupt>
   6:	00 00       	nop
   8:	8c c0       	rjmp	.+280    	; 0x122 <__bad_interrupt>
   a:	00 00       	nop
   c:	8a c0       	rjmp	.+276    	; 0x122 <__bad_interrupt>
   e:	00 00       	nop
  10:	88 c0       	rjmp	.+272    	; 0x122 <__bad_interrupt>
  12:	00 00       	nop
  14:	86 c0       	rjmp	.+268    	; 0x122 <__bad_interrupt>
  16:	00 00       	nop
  18:	84 c0       	rjmp	.+264    	; 0x122 <__bad_interrupt>
  1a:	00 00       	nop
  1c:	82 c0       	rjmp	.+260    	; 0x122 <__bad_interrupt>
  1e:	00 00       	nop
  20:	80 c0       	rjmp	.+256    	; 0x122 <__bad_interrupt>
  22:	00 00       	nop
  24:	7e c0       	rjmp	.+252    	; 0x122 <__bad_interrupt>
  26:	00 00       	nop
  28:	7c c0       	rjmp	.+248    	; 0x122 <__bad_interrupt>
  2a:	00 00       	nop
  2c:	7a c0       	rjmp	.+244    	; 0x122 <__bad_interrupt>
  2e:	00 00       	nop
  30:	78 c0       	rjmp	.+240    	; 0x122 <__bad_interrupt>
  32:	00 00       	nop
  34:	76 c0       	rjmp	.+236    	; 0x122 <__bad_interrupt>
  36:	00 00       	nop
  38:	74 c0       	rjmp	.+232    	; 0x122 <__bad_interrupt>
  3a:	00 00       	nop
  3c:	72 c0       	rjmp	.+228    	; 0x122 <__bad_interrupt>
  3e:	00 00       	nop
  40:	70 c0       	rjmp	.+224    	; 0x122 <__bad_interrupt>
  42:	00 00       	nop
  44:	6e c0       	rjmp	.+220    	; 0x122 <__bad_interrupt>
  46:	00 00       	nop
  48:	6c c0       	rjmp	.+216    	; 0x122 <__bad_interrupt>
  4a:	00 00       	nop
  4c:	6a c0       	rjmp	.+212    	; 0x122 <__bad_interrupt>
  4e:	00 00       	nop
  50:	68 c0       	rjmp	.+208    	; 0x122 <__bad_interrupt>
  52:	00 00       	nop
  54:	66 c0       	rjmp	.+204    	; 0x122 <__bad_interrupt>
  56:	00 00       	nop
  58:	64 c0       	rjmp	.+200    	; 0x122 <__bad_interrupt>
  5a:	00 00       	nop
  5c:	0d c4       	rjmp	.+2074   	; 0x878 <__vector_23>
  5e:	00 00       	nop
  60:	60 c0       	rjmp	.+192    	; 0x122 <__bad_interrupt>
  62:	00 00       	nop
  64:	5e c0       	rjmp	.+188    	; 0x122 <__bad_interrupt>
  66:	00 00       	nop
  68:	5c c0       	rjmp	.+184    	; 0x122 <__bad_interrupt>
  6a:	00 00       	nop
  6c:	5a c0       	rjmp	.+180    	; 0x122 <__bad_interrupt>
  6e:	00 00       	nop
  70:	58 c0       	rjmp	.+176    	; 0x122 <__bad_interrupt>
  72:	00 00       	nop
  74:	56 c0       	rjmp	.+172    	; 0x122 <__bad_interrupt>
  76:	00 00       	nop
  78:	54 c0       	rjmp	.+168    	; 0x122 <__bad_interrupt>
  7a:	00 00       	nop
  7c:	52 c0       	rjmp	.+164    	; 0x122 <__bad_interrupt>
  7e:	00 00       	nop
  80:	50 c0       	rjmp	.+160    	; 0x122 <__bad_interrupt>
  82:	00 00       	nop
  84:	4e c0       	rjmp	.+156    	; 0x122 <__bad_interrupt>
  86:	00 00       	nop
  88:	4c c0       	rjmp	.+152    	; 0x122 <__bad_interrupt>
  8a:	00 00       	nop
  8c:	4a c0       	rjmp	.+148    	; 0x122 <__bad_interrupt>
  8e:	00 00       	nop
  90:	48 c0       	rjmp	.+144    	; 0x122 <__bad_interrupt>
  92:	00 00       	nop
  94:	46 c0       	rjmp	.+140    	; 0x122 <__bad_interrupt>
  96:	00 00       	nop
  98:	44 c0       	rjmp	.+136    	; 0x122 <__bad_interrupt>
  9a:	00 00       	nop
  9c:	42 c0       	rjmp	.+132    	; 0x122 <__bad_interrupt>
  9e:	00 00       	nop
  a0:	40 c0       	rjmp	.+128    	; 0x122 <__bad_interrupt>
  a2:	00 00       	nop
  a4:	3e c0       	rjmp	.+124    	; 0x122 <__bad_interrupt>
  a6:	00 00       	nop
  a8:	3c c0       	rjmp	.+120    	; 0x122 <__bad_interrupt>
  aa:	00 00       	nop
  ac:	3a c0       	rjmp	.+116    	; 0x122 <__bad_interrupt>
  ae:	00 00       	nop
  b0:	38 c0       	rjmp	.+112    	; 0x122 <__bad_interrupt>
  b2:	00 00       	nop
  b4:	36 c0       	rjmp	.+108    	; 0x122 <__bad_interrupt>
  b6:	00 00       	nop
  b8:	34 c0       	rjmp	.+104    	; 0x122 <__bad_interrupt>
  ba:	00 00       	nop
  bc:	32 c0       	rjmp	.+100    	; 0x122 <__bad_interrupt>
  be:	00 00       	nop
  c0:	30 c0       	rjmp	.+96     	; 0x122 <__bad_interrupt>
  c2:	00 00       	nop
  c4:	2e c0       	rjmp	.+92     	; 0x122 <__bad_interrupt>
  c6:	00 00       	nop
  c8:	2c c0       	rjmp	.+88     	; 0x122 <__bad_interrupt>
  ca:	00 00       	nop
  cc:	2a c0       	rjmp	.+84     	; 0x122 <__bad_interrupt>
  ce:	00 00       	nop
  d0:	28 c0       	rjmp	.+80     	; 0x122 <__bad_interrupt>
  d2:	00 00       	nop
  d4:	26 c0       	rjmp	.+76     	; 0x122 <__bad_interrupt>
  d6:	00 00       	nop
  d8:	24 c0       	rjmp	.+72     	; 0x122 <__bad_interrupt>
  da:	00 00       	nop
  dc:	22 c0       	rjmp	.+68     	; 0x122 <__bad_interrupt>
  de:	00 00       	nop
  e0:	20 c0       	rjmp	.+64     	; 0x122 <__bad_interrupt>
	...

000000e4 <__ctors_end>:
  e4:	11 24       	eor	r1, r1
  e6:	1f be       	out	0x3f, r1	; 63
  e8:	cf ef       	ldi	r28, 0xFF	; 255
  ea:	d1 e2       	ldi	r29, 0x21	; 33
  ec:	de bf       	out	0x3e, r29	; 62
  ee:	cd bf       	out	0x3d, r28	; 61
  f0:	00 e0       	ldi	r16, 0x00	; 0
  f2:	0c bf       	out	0x3c, r16	; 60

000000f4 <__do_copy_data>:
  f4:	12 e0       	ldi	r17, 0x02	; 2
  f6:	a0 e0       	ldi	r26, 0x00	; 0
  f8:	b2 e0       	ldi	r27, 0x02	; 2
  fa:	e6 ef       	ldi	r30, 0xF6	; 246
  fc:	fe e0       	ldi	r31, 0x0E	; 14
  fe:	00 e0       	ldi	r16, 0x00	; 0
 100:	0b bf       	out	0x3b, r16	; 59
 102:	02 c0       	rjmp	.+4      	; 0x108 <__do_copy_data+0x14>
 104:	07 90       	elpm	r0, Z+
 106:	0d 92       	st	X+, r0
 108:	a4 37       	cpi	r26, 0x74	; 116
 10a:	b1 07       	cpc	r27, r17
 10c:	d9 f7       	brne	.-10     	; 0x104 <__do_copy_data+0x10>

0000010e <__do_clear_bss>:
 10e:	22 e0       	ldi	r18, 0x02	; 2
 110:	a4 e7       	ldi	r26, 0x74	; 116
 112:	b2 e0       	ldi	r27, 0x02	; 2
 114:	01 c0       	rjmp	.+2      	; 0x118 <.do_clear_bss_start>

00000116 <.do_clear_bss_loop>:
 116:	1d 92       	st	X+, r1

00000118 <.do_clear_bss_start>:
 118:	a2 3f       	cpi	r26, 0xF2	; 242
 11a:	b2 07       	cpc	r27, r18
 11c:	e1 f7       	brne	.-8      	; 0x116 <.do_clear_bss_loop>
 11e:	02 d0       	rcall	.+4      	; 0x124 <main>
 120:	e8 c6       	rjmp	.+3536   	; 0xef2 <_exit>

00000122 <__bad_interrupt>:
 122:	6e cf       	rjmp	.-292    	; 0x0 <__vectors>

00000124 <main>:


#define PROGRAMTAKT_MS                      10
//Hauptprogramm
int main(void)
{
 124:	cf 93       	push	r28
 126:	df 93       	push	r29
 128:	00 d0       	rcall	.+0      	; 0x12a <main+0x6>
 12a:	1f 92       	push	r1
 12c:	1f 92       	push	r1
 12e:	cd b7       	in	r28, 0x3d	; 61
 130:	de b7       	in	r29, 0x3e	; 62
    uint16_t timerFehlfunktionOn=0;
    uint16_t timerFehlfunktionOff=0;
    uint16_t timerAlarmFehler=0;

    //Initialisieren
    initBoard(1);                                                                           //Initialisieren
 132:	81 e0       	ldi	r24, 0x01	; 1
 134:	1e d2       	rcall	.+1084   	; 0x572 <initBoard>
    uint16_t blinken=0;
    uint16_t timerBlinken=0;
    
    uint16_t timerFehlfunktionOn=0;
    uint16_t timerFehlfunktionOff=0;
    uint16_t timerAlarmFehler=0;
 136:	a1 2c       	mov	r10, r1
 138:	b1 2c       	mov	r11, r1
    
    uint16_t blinken=0;
    uint16_t timerBlinken=0;
    
    uint16_t timerFehlfunktionOn=0;
    uint16_t timerFehlfunktionOff=0;
 13a:	c1 2c       	mov	r12, r1
 13c:	d1 2c       	mov	r13, r1
    uint16_t valveLed=0;
    
    uint16_t blinken=0;
    uint16_t timerBlinken=0;
    
    uint16_t timerFehlfunktionOn=0;
 13e:	e1 2c       	mov	r14, r1
 140:	f1 2c       	mov	r15, r1
    uint16_t disorderLed=0;
    uint16_t remoteAlarmLed=0;
    uint16_t valveLed=0;
    
    uint16_t blinken=0;
    uint16_t timerBlinken=0;
 142:	00 e0       	ldi	r16, 0x00	; 0
 144:	10 e0       	ldi	r17, 0x00	; 0
    uint16_t alarmLed=0;
    uint16_t disorderLed=0;
    uint16_t remoteAlarmLed=0;
    uint16_t valveLed=0;
    
    uint16_t blinken=0;
 146:	1a 82       	std	Y+2, r1	; 0x02
 148:	19 82       	std	Y+1, r1	; 0x01
    
    
    uint16_t powerLed=0;
    uint16_t alarmLed=0;
    uint16_t disorderLed=0;
    uint16_t remoteAlarmLed=0;
 14a:	21 2c       	mov	r2, r1
 14c:	31 2c       	mov	r3, r1
    uint8_t posflanke=0;
    
    
    uint16_t powerLed=0;
    uint16_t alarmLed=0;
    uint16_t disorderLed=0;
 14e:	81 2c       	mov	r8, r1
 150:	91 2c       	mov	r9, r1
    uint8_t neuTaster=0;
    uint8_t posflanke=0;
    
    
    uint16_t powerLed=0;
    uint16_t alarmLed=0;
 152:	1d 82       	std	Y+5, r1	; 0x05
 154:	1c 82       	std	Y+4, r1	; 0x04
    uint8_t alarmQuitSchalter=0;
    uint8_t disorderQuitSchalter=0;                                                         //Variabeln auf 0 setzen
    uint8_t ozonSensor=0;
    
    uint8_t altTaster=0;
    uint8_t neuTaster=0;
 156:	1b 82       	std	Y+3, r1	; 0x03
 158:	61 2c       	mov	r6, r1
    //Unendlichschlaufe                                                                     //Unendlichschlaufe
    while(1)
    {
        //Eingabe------------------------------------------------------------------
        altTaster =neuTaster;
        neuTaster = buttonReadAllPL();
 15a:	71 2c       	mov	r7, r1
 15c:	ae d0       	rcall	.+348    	; 0x2ba <buttonReadAllPL>
        posflanke = (altTaster ^ neuTaster) & neuTaster;
        powerSchalter = switchReadAll() & IM_MASKE_POWER_SCHALTER;                          //Power schalter
 15e:	58 2e       	mov	r5, r24
 160:	aa d0       	rcall	.+340    	; 0x2b6 <switchReadAll>
        alarmQuitSchalter = posflanke & IM_MASKE_ALARM_QUIT_SCHALTER;                       //alarm quit schalter
        disorderQuitSchalter = posflanke & IM_MASKE_DISORDER_QUIT_SCHALTER;                 //disorder quit schalter
        ozonSensor = switchReadAll() & IM_MASKE_OZON_SENSOR;                                //Ozon Sensor
 162:	48 2e       	mov	r4, r24
 164:	a8 d0       	rcall	.+336    	; 0x2b6 <switchReadAll>
        //Verarbeitung-------------------------------------------------------------
        if (powerSchalter)                                                                  //Power schalter ?
 166:	44 20       	and	r4, r4
 168:	0c f0       	brlt	.+2      	; 0x16c <main+0x48>
 16a:	72 c0       	rjmp	.+228    	; 0x250 <main+0x12c>
    while(1)
    {
        //Eingabe------------------------------------------------------------------
        altTaster =neuTaster;
        neuTaster = buttonReadAllPL();
        posflanke = (altTaster ^ neuTaster) & neuTaster;
 16c:	9b 81       	ldd	r25, Y+3	; 0x03
 16e:	90 95       	com	r25
 170:	95 21       	and	r25, r5
        ozonSensor = switchReadAll() & IM_MASKE_OZON_SENSOR;                                //Ozon Sensor
        //Verarbeitung-------------------------------------------------------------
        if (powerSchalter)                                                                  //Power schalter ?
        {
            powerLed = OUT_POWER_LED;                                                       //Power Ledauf 1 setzen
            if (ozonSensor)                                                                 //Ozon sensor ?
 172:	83 ff       	sbrs	r24, 3
 174:	12 c0       	rjmp	.+36     	; 0x19a <main+0x76>
            {
                valveLed = OFF;                                                   //valve led auf 1 setzen
                if (alarmQuitSchalter)                                                      //alarm quit schalter ?
 176:	96 fd       	sbrc	r25, 6
 178:	85 c0       	rjmp	.+266    	; 0x284 <main+0x160>
                    alarmLed= OFF;                                                          //alarm led auf 0 setzen
                    timerFehlfunktionOn = 0;                                                //timerFehlerfunktionOn auf 0 setzen
                    timerAlarmFehler = 0;                                                   //timerAlarmFehler auf 0 setzen
                }
                
                if (timerFehlfunktionOn >= DAUER_BIS_FEHLFUNKTION)                            //timerFehlerfunktionOn grösser gleich FEHLER_FUNKTION_ON ?
 17a:	50 e4       	ldi	r21, 0x40	; 64
 17c:	e5 16       	cp	r14, r21
 17e:	5f e1       	ldi	r21, 0x1F	; 31
 180:	f5 06       	cpc	r15, r21
 182:	f8 f0       	brcs	.+62     	; 0x1c2 <main+0x9e>
                {
                    
                    blinken = 1;                                                            //blinken auf 1 setzen
                    disorderLed = OFF;                                                      //disorder led auf 0 setzen
                    timerFehlfunktionOff = 0;                                               //timerFehlerfunktionOff auf 0 setzen
                    if (timerAlarmFehler>= ALARM_FEHLER)                                    //timerAlarmFehler grösser gleich ALARM_FEHLER ?
 184:	80 e8       	ldi	r24, 0x80	; 128
 186:	a8 16       	cp	r10, r24
 188:	8e e3       	ldi	r24, 0x3E	; 62
 18a:	b8 06       	cpc	r11, r24
 18c:	08 f4       	brcc	.+2      	; 0x190 <main+0x6c>
 18e:	58 c0       	rjmp	.+176    	; 0x240 <main+0x11c>
                    {
                        remoteAlarmLed = OUT_REMOTE_ALARM_LED;                              //remoteAlarm Led auf 1 setzen
 190:	68 94       	set
 192:	22 24       	eor	r2, r2
 194:	23 f8       	bld	r2, 3
 196:	31 2c       	mov	r3, r1
 198:	53 c0       	rjmp	.+166    	; 0x240 <main+0x11c>
            else
            {
                alarmLed= OFF;                                                              //alarm led auf 0 setzen
                blinken = 0;                                                                //blinken auf 0 setzen
                valveLed = OUT_VALVE_LED;                                                             //valve Led auf 0 setzen
                if (disorderQuitSchalter)                                                   //disorder Quit Schalter ?
 19a:	99 23       	and	r25, r25
 19c:	0c f4       	brge	.+2      	; 0x1a0 <main+0x7c>
 19e:	79 c0       	rjmp	.+242    	; 0x292 <main+0x16e>
                    
                    disorderLed= OFF;                                                       //disorder Led auf 1 setzen
                    timerFehlfunktionOff = 0;                                               //timerFehlerfunktionOff auf 0 setzen
                }
                
                if (timerFehlfunktionOff >= DAUER_BIS_FEHLFUNKTION)                          //timerFehlerfunktionOff grösser gleichFEHLER_FUNKTION_OFF ?
 1a0:	90 e4       	ldi	r25, 0x40	; 64
 1a2:	c9 16       	cp	r12, r25
 1a4:	9f e1       	ldi	r25, 0x1F	; 31
 1a6:	d9 06       	cpc	r13, r25
 1a8:	08 f4       	brcc	.+2      	; 0x1ac <main+0x88>
 1aa:	61 c0       	rjmp	.+194    	; 0x26e <main+0x14a>
                {
                    alarmLed= OFF;                                                          //alarm Led auf 0 setzen
                    disorderLed = OUT_DISORDER_LED;                                         //disorder Led auf 1 setzen
                    timerFehlfunktionOn = 0;                                                //timerFehlerfunktionOn auf 0 setzen
 1ac:	e1 2c       	mov	r14, r1
 1ae:	f1 2c       	mov	r15, r1
            }
            else
            {
                alarmLed= OFF;                                                              //alarm led auf 0 setzen
                blinken = 0;                                                                //blinken auf 0 setzen
                valveLed = OUT_VALVE_LED;                                                             //valve Led auf 0 setzen
 1b0:	80 e1       	ldi	r24, 0x10	; 16
 1b2:	90 e0       	ldi	r25, 0x00	; 0
                }
                
                if (timerFehlfunktionOff >= DAUER_BIS_FEHLFUNKTION)                          //timerFehlerfunktionOff grösser gleichFEHLER_FUNKTION_OFF ?
                {
                    alarmLed= OFF;                                                          //alarm Led auf 0 setzen
                    disorderLed = OUT_DISORDER_LED;                                         //disorder Led auf 1 setzen
 1b4:	68 94       	set
 1b6:	88 24       	eor	r8, r8
 1b8:	82 f8       	bld	r8, 2
 1ba:	91 2c       	mov	r9, r1
        disorderQuitSchalter = posflanke & IM_MASKE_DISORDER_QUIT_SCHALTER;                 //disorder quit schalter
        ozonSensor = switchReadAll() & IM_MASKE_OZON_SENSOR;                                //Ozon Sensor
        //Verarbeitung-------------------------------------------------------------
        if (powerSchalter)                                                                  //Power schalter ?
        {
            powerLed = OUT_POWER_LED;                                                       //Power Ledauf 1 setzen
 1bc:	21 e0       	ldi	r18, 0x01	; 1
 1be:	30 e0       	ldi	r19, 0x00	; 0
 1c0:	5a c0       	rjmp	.+180    	; 0x276 <main+0x152>
            timerFehlfunktionOn=0;                                                          //timerFehlerfunktionOn auf 0 setzen
            timerFehlfunktionOff=0;                                                         //timerFehlerfunktionOff auf 0 setzen
            timerAlarmFehler=0;                                                             //timerAlarmFehler auf 0 setzen
        }
        //Ausgabe------------------------------------------------------------------
        if (blinken)                                                                        //blinken auf 1 setzen
 1c2:	49 81       	ldd	r20, Y+1	; 0x01
 1c4:	5a 81       	ldd	r21, Y+2	; 0x02
 1c6:	45 2b       	or	r20, r21
 1c8:	91 f0       	breq	.+36     	; 0x1ee <main+0xca>
        {
            if (timerBlinken>= ON_TIME)                                                     //timerBlinken grösser gleich ON_TIME ?
 1ca:	06 39       	cpi	r16, 0x96	; 150
 1cc:	11 05       	cpc	r17, r1
 1ce:	10 f0       	brcs	.+4      	; 0x1d4 <main+0xb0>
            {
                alarmLed = OFF;                                                             //alarm Led 0 setzen
 1d0:	6c 82       	std	Y+4, r6	; 0x04
 1d2:	7d 82       	std	Y+5, r7	; 0x05
            }
            if (timerBlinken>= PERIODE)                                                     //timerBlinken grösser gleich PERIODE ?
 1d4:	08 3c       	cpi	r16, 0xC8	; 200
 1d6:	11 05       	cpc	r17, r1
 1d8:	88 f0       	brcs	.+34     	; 0x1fc <main+0xd8>
 1da:	86 2d       	mov	r24, r6
 1dc:	97 2d       	mov	r25, r7
 1de:	21 e0       	ldi	r18, 0x01	; 1
 1e0:	30 e0       	ldi	r19, 0x00	; 0
            {
                alarmLed = OUT_ALARM_LED;                                                   //alarm Led 1 setzen
                timerBlinken = 0;                                                           //timerBlinken auf 0 setzen
 1e2:	00 e0       	ldi	r16, 0x00	; 0
 1e4:	10 e0       	ldi	r17, 0x00	; 0
            {
                alarmLed = OFF;                                                             //alarm Led 0 setzen
            }
            if (timerBlinken>= PERIODE)                                                     //timerBlinken grösser gleich PERIODE ?
            {
                alarmLed = OUT_ALARM_LED;                                                   //alarm Led 1 setzen
 1e6:	52 e0       	ldi	r21, 0x02	; 2
 1e8:	5c 83       	std	Y+4, r21	; 0x04
 1ea:	1d 82       	std	Y+5, r1	; 0x05
 1ec:	0b c0       	rjmp	.+22     	; 0x204 <main+0xe0>
        if (powerSchalter)                                                                  //Power schalter ?
        {
            powerLed = OUT_POWER_LED;                                                       //Power Ledauf 1 setzen
            if (ozonSensor)                                                                 //Ozon sensor ?
            {
                valveLed = OFF;                                                   //valve led auf 1 setzen
 1ee:	86 2d       	mov	r24, r6
 1f0:	97 2d       	mov	r25, r7
 1f2:	21 e0       	ldi	r18, 0x01	; 1
 1f4:	30 e0       	ldi	r19, 0x00	; 0
                timerBlinken = 0;                                                           //timerBlinken auf 0 setzen
            }
        }
        else
        {
            timerBlinken = PERIODE;                                                         //timerBlinken gleich PERIODE
 1f6:	08 ec       	ldi	r16, 0xC8	; 200
 1f8:	10 e0       	ldi	r17, 0x00	; 0
 1fa:	04 c0       	rjmp	.+8      	; 0x204 <main+0xe0>
 1fc:	86 2d       	mov	r24, r6
 1fe:	97 2d       	mov	r25, r7
 200:	21 e0       	ldi	r18, 0x01	; 1
 202:	30 e0       	ldi	r19, 0x00	; 0
        }
        ledWriteAll(powerLed | alarmLed | disorderLed | remoteAlarmLed | valveLed);         //alle led's ausgeben
 204:	4c 81       	ldd	r20, Y+4	; 0x04
 206:	5d 81       	ldd	r21, Y+5	; 0x05
 208:	24 2b       	or	r18, r20
 20a:	35 2b       	or	r19, r21
 20c:	28 29       	or	r18, r8
 20e:	39 29       	or	r19, r9
 210:	22 29       	or	r18, r2
 212:	33 29       	or	r19, r3
 214:	82 2b       	or	r24, r18
 216:	93 2b       	or	r25, r19
 218:	4b d0       	rcall	.+150    	; 0x2b0 <ledWriteAll>
	#else
		//round up by default
		__ticks_dc = (uint32_t)(ceil(fabs(__tmp)));
	#endif

	__builtin_avr_delay_cycles(__ticks_dc);
 21a:	8f e3       	ldi	r24, 0x3F	; 63
 21c:	9c e9       	ldi	r25, 0x9C	; 156
 21e:	01 97       	sbiw	r24, 0x01	; 1
 220:	f1 f7       	brne	.-4      	; 0x21e <main+0xfa>
 222:	00 c0       	rjmp	.+0      	; 0x224 <main+0x100>
 224:	00 00       	nop
        //Warten------------------------------------------------------------------
        _delay_ms(PROGRAMTAKT_MS);                                                          //PROGRAMTAKT (10ms) abwarten
        timerFehlfunktionOn = timerFehlfunktionOn +PROGRAMTAKT_MS;                          // timerFehlerfunktionOn hochzählen (10ms)
 226:	9a e0       	ldi	r25, 0x0A	; 10
 228:	e9 0e       	add	r14, r25
 22a:	f1 1c       	adc	r15, r1
        timerFehlfunktionOff = timerFehlfunktionOff +PROGRAMTAKT_MS;                        //timerFehlerfunktionOff hochzählen (10ms)
 22c:	4a e0       	ldi	r20, 0x0A	; 10
 22e:	c4 0e       	add	r12, r20
 230:	d1 1c       	adc	r13, r1
        timerAlarmFehler = timerAlarmFehler +PROGRAMTAKT_MS;                                //timerAlarmFehler hochzählen (10ms)
 232:	5a e0       	ldi	r21, 0x0A	; 10
 234:	a5 0e       	add	r10, r21
 236:	b1 1c       	adc	r11, r1
        timerBlinken = timerBlinken + PROGRAMTAKT_MS;                                       //timerBlinken hochzählen (10ms)
 238:	06 5f       	subi	r16, 0xF6	; 246
 23a:	1f 4f       	sbci	r17, 0xFF	; 255
    //Unendlichschlaufe                                                                     //Unendlichschlaufe
    while(1)
    {
        //Eingabe------------------------------------------------------------------
        altTaster =neuTaster;
        neuTaster = buttonReadAllPL();
 23c:	5b 82       	std	Y+3, r5	; 0x03
        _delay_ms(PROGRAMTAKT_MS);                                                          //PROGRAMTAKT (10ms) abwarten
        timerFehlfunktionOn = timerFehlfunktionOn +PROGRAMTAKT_MS;                          // timerFehlerfunktionOn hochzählen (10ms)
        timerFehlfunktionOff = timerFehlfunktionOff +PROGRAMTAKT_MS;                        //timerFehlerfunktionOff hochzählen (10ms)
        timerAlarmFehler = timerAlarmFehler +PROGRAMTAKT_MS;                                //timerAlarmFehler hochzählen (10ms)
        timerBlinken = timerBlinken + PROGRAMTAKT_MS;                                       //timerBlinken hochzählen (10ms)
    }
 23e:	8e cf       	rjmp	.-228    	; 0x15c <main+0x38>
    uint8_t alarmQuitSchalter=0;
    uint8_t disorderQuitSchalter=0;                                                         //Variabeln auf 0 setzen
    uint8_t ozonSensor=0;
    
    uint8_t altTaster=0;
    uint8_t neuTaster=0;
 240:	c1 2c       	mov	r12, r1
 242:	d1 2c       	mov	r13, r1
 244:	81 e0       	ldi	r24, 0x01	; 1
 246:	89 83       	std	Y+1, r24	; 0x01
 248:	1a 82       	std	Y+2, r1	; 0x02
 24a:	86 2c       	mov	r8, r6
 24c:	97 2c       	mov	r9, r7
 24e:	bd cf       	rjmp	.-134    	; 0x1ca <main+0xa6>
            remoteAlarmLed= OFF;                                                            //remoteAlarm Led auf 0 setzen
            valveLed= OFF;                                                                  //valve Led auf 0 setzen
            blinken = 0;                                                                    //blinken auf 0 setzen
            timerFehlfunktionOn=0;                                                          //timerFehlerfunktionOn auf 0 setzen
            timerFehlfunktionOff=0;                                                         //timerFehlerfunktionOff auf 0 setzen
            timerAlarmFehler=0;                                                             //timerAlarmFehler auf 0 setzen
 250:	a1 2c       	mov	r10, r1
 252:	b1 2c       	mov	r11, r1
            disorderLed= OFF;                                                               //disorder Led auf 0 setzen
            remoteAlarmLed= OFF;                                                            //remoteAlarm Led auf 0 setzen
            valveLed= OFF;                                                                  //valve Led auf 0 setzen
            blinken = 0;                                                                    //blinken auf 0 setzen
            timerFehlfunktionOn=0;                                                          //timerFehlerfunktionOn auf 0 setzen
            timerFehlfunktionOff=0;                                                         //timerFehlerfunktionOff auf 0 setzen
 254:	c1 2c       	mov	r12, r1
 256:	d1 2c       	mov	r13, r1
            alarmLed= OFF;                                                                  //alarm Led auf 0 setzen
            disorderLed= OFF;                                                               //disorder Led auf 0 setzen
            remoteAlarmLed= OFF;                                                            //remoteAlarm Led auf 0 setzen
            valveLed= OFF;                                                                  //valve Led auf 0 setzen
            blinken = 0;                                                                    //blinken auf 0 setzen
            timerFehlfunktionOn=0;                                                          //timerFehlerfunktionOn auf 0 setzen
 258:	e1 2c       	mov	r14, r1
 25a:	f1 2c       	mov	r15, r1
        {
            powerLed= OFF;                                                                  //power Led auf 0 setzen
            alarmLed= OFF;                                                                  //alarm Led auf 0 setzen
            disorderLed= OFF;                                                               //disorder Led auf 0 setzen
            remoteAlarmLed= OFF;                                                            //remoteAlarm Led auf 0 setzen
            valveLed= OFF;                                                                  //valve Led auf 0 setzen
 25c:	86 2d       	mov	r24, r6
 25e:	97 2d       	mov	r25, r7
        else
        {
            powerLed= OFF;                                                                  //power Led auf 0 setzen
            alarmLed= OFF;                                                                  //alarm Led auf 0 setzen
            disorderLed= OFF;                                                               //disorder Led auf 0 setzen
            remoteAlarmLed= OFF;                                                            //remoteAlarm Led auf 0 setzen
 260:	26 2c       	mov	r2, r6
 262:	37 2c       	mov	r3, r7
        }
        else
        {
            powerLed= OFF;                                                                  //power Led auf 0 setzen
            alarmLed= OFF;                                                                  //alarm Led auf 0 setzen
            disorderLed= OFF;                                                               //disorder Led auf 0 setzen
 264:	86 2c       	mov	r8, r6
 266:	97 2c       	mov	r9, r7
                }
            }
        }
        else
        {
            powerLed= OFF;                                                                  //power Led auf 0 setzen
 268:	26 2d       	mov	r18, r6
 26a:	37 2d       	mov	r19, r7
 26c:	04 c0       	rjmp	.+8      	; 0x276 <main+0x152>
            }
            else
            {
                alarmLed= OFF;                                                              //alarm led auf 0 setzen
                blinken = 0;                                                                //blinken auf 0 setzen
                valveLed = OUT_VALVE_LED;                                                             //valve Led auf 0 setzen
 26e:	80 e1       	ldi	r24, 0x10	; 16
 270:	90 e0       	ldi	r25, 0x00	; 0
        disorderQuitSchalter = posflanke & IM_MASKE_DISORDER_QUIT_SCHALTER;                 //disorder quit schalter
        ozonSensor = switchReadAll() & IM_MASKE_OZON_SENSOR;                                //Ozon Sensor
        //Verarbeitung-------------------------------------------------------------
        if (powerSchalter)                                                                  //Power schalter ?
        {
            powerLed = OUT_POWER_LED;                                                       //Power Ledauf 1 setzen
 272:	21 e0       	ldi	r18, 0x01	; 1
 274:	30 e0       	ldi	r19, 0x00	; 0
 276:	69 82       	std	Y+1, r6	; 0x01
 278:	7a 82       	std	Y+2, r7	; 0x02
                timerBlinken = 0;                                                           //timerBlinken auf 0 setzen
            }
        }
        else
        {
            timerBlinken = PERIODE;                                                         //timerBlinken gleich PERIODE
 27a:	08 ec       	ldi	r16, 0xC8	; 200
 27c:	10 e0       	ldi	r17, 0x00	; 0
 27e:	6c 82       	std	Y+4, r6	; 0x04
 280:	7d 82       	std	Y+5, r7	; 0x05
 282:	c0 cf       	rjmp	.-128    	; 0x204 <main+0xe0>
                if (alarmQuitSchalter)                                                      //alarm quit schalter ?
                {
                    blinken = 0;                                                            //blinken auf 0 setzen
                    alarmLed= OFF;                                                          //alarm led auf 0 setzen
                    timerFehlfunktionOn = 0;                                                //timerFehlerfunktionOn auf 0 setzen
                    timerAlarmFehler = 0;                                                   //timerAlarmFehler auf 0 setzen
 284:	a1 2c       	mov	r10, r1
 286:	b1 2c       	mov	r11, r1
                valveLed = OFF;                                                   //valve led auf 1 setzen
                if (alarmQuitSchalter)                                                      //alarm quit schalter ?
                {
                    blinken = 0;                                                            //blinken auf 0 setzen
                    alarmLed= OFF;                                                          //alarm led auf 0 setzen
                    timerFehlfunktionOn = 0;                                                //timerFehlerfunktionOn auf 0 setzen
 288:	e1 2c       	mov	r14, r1
 28a:	f1 2c       	mov	r15, r1
        if (powerSchalter)                                                                  //Power schalter ?
        {
            powerLed = OUT_POWER_LED;                                                       //Power Ledauf 1 setzen
            if (ozonSensor)                                                                 //Ozon sensor ?
            {
                valveLed = OFF;                                                   //valve led auf 1 setzen
 28c:	86 2d       	mov	r24, r6
 28e:	97 2d       	mov	r25, r7
 290:	06 c0       	rjmp	.+12     	; 0x29e <main+0x17a>
                valveLed = OUT_VALVE_LED;                                                             //valve Led auf 0 setzen
                if (disorderQuitSchalter)                                                   //disorder Quit Schalter ?
                {
                    
                    disorderLed= OFF;                                                       //disorder Led auf 1 setzen
                    timerFehlfunktionOff = 0;                                               //timerFehlerfunktionOff auf 0 setzen
 292:	c1 2c       	mov	r12, r1
 294:	d1 2c       	mov	r13, r1
            }
            else
            {
                alarmLed= OFF;                                                              //alarm led auf 0 setzen
                blinken = 0;                                                                //blinken auf 0 setzen
                valveLed = OUT_VALVE_LED;                                                             //valve Led auf 0 setzen
 296:	80 e1       	ldi	r24, 0x10	; 16
 298:	90 e0       	ldi	r25, 0x00	; 0
                if (disorderQuitSchalter)                                                   //disorder Quit Schalter ?
                {
                    
                    disorderLed= OFF;                                                       //disorder Led auf 1 setzen
 29a:	86 2c       	mov	r8, r6
 29c:	97 2c       	mov	r9, r7
                timerBlinken = 0;                                                           //timerBlinken auf 0 setzen
            }
        }
        else
        {
            timerBlinken = PERIODE;                                                         //timerBlinken gleich PERIODE
 29e:	69 82       	std	Y+1, r6	; 0x01
 2a0:	7a 82       	std	Y+2, r7	; 0x02
 2a2:	21 e0       	ldi	r18, 0x01	; 1
 2a4:	30 e0       	ldi	r19, 0x00	; 0
 2a6:	08 ec       	ldi	r16, 0xC8	; 200
 2a8:	10 e0       	ldi	r17, 0x00	; 0
 2aa:	6c 82       	std	Y+4, r6	; 0x04
 2ac:	7d 82       	std	Y+5, r7	; 0x05
 2ae:	aa cf       	rjmp	.-172    	; 0x204 <main+0xe0>

000002b0 <ledWriteAll>:
            }
        }
        matrix_buffer_pos += breite + Zeichenabstand;           // Position für das nächste Zeichen berechnen
        str_p++;                                                // Zeichen-Zeiger auf das nächste Zeichen richten
    }
}
 2b0:	82 b9       	out	0x02, r24	; 2
 2b2:	95 b9       	out	0x05, r25	; 5
 2b4:	08 95       	ret

000002b6 <switchReadAll>:
 2b6:	86 b1       	in	r24, 0x06	; 6
 2b8:	08 95       	ret

000002ba <buttonReadAllPL>:
 2ba:	80 91 09 01 	lds	r24, 0x0109	; 0x800109 <__TEXT_REGION_LENGTH__+0x700109>
 2be:	08 95       	ret

000002c0 <startSystemTimeMs>:
 2c0:	83 e0       	ldi	r24, 0x03	; 3
 2c2:	84 bd       	out	0x24, r24	; 36
 2c4:	8b e0       	ldi	r24, 0x0B	; 11
 2c6:	85 bd       	out	0x25, r24	; 37
 2c8:	81 e0       	ldi	r24, 0x01	; 1
 2ca:	80 93 6e 00 	sts	0x006E, r24	; 0x80006e <__TEXT_REGION_LENGTH__+0x70006e>
 2ce:	89 ef       	ldi	r24, 0xF9	; 249
 2d0:	87 bd       	out	0x27, r24	; 39
 2d2:	08 95       	ret

000002d4 <initAdc>:
 2d4:	11 ba       	out	0x11, r1	; 17
 2d6:	10 ba       	out	0x10, r1	; 16
 2d8:	10 92 08 01 	sts	0x0108, r1	; 0x800108 <__TEXT_REGION_LENGTH__+0x700108>
 2dc:	10 92 07 01 	sts	0x0107, r1	; 0x800107 <__TEXT_REGION_LENGTH__+0x700107>
 2e0:	80 e4       	ldi	r24, 0x40	; 64
 2e2:	80 93 7c 00 	sts	0x007C, r24	; 0x80007c <__TEXT_REGION_LENGTH__+0x70007c>
 2e6:	8f e0       	ldi	r24, 0x0F	; 15
 2e8:	80 93 7e 00 	sts	0x007E, r24	; 0x80007e <__TEXT_REGION_LENGTH__+0x70007e>
 2ec:	8f ef       	ldi	r24, 0xFF	; 255
 2ee:	80 93 7d 00 	sts	0x007D, r24	; 0x80007d <__TEXT_REGION_LENGTH__+0x70007d>
 2f2:	ea e7       	ldi	r30, 0x7A	; 122
 2f4:	f0 e0       	ldi	r31, 0x00	; 0
 2f6:	87 ea       	ldi	r24, 0xA7	; 167
 2f8:	80 83       	st	Z, r24
 2fa:	10 92 7b 00 	sts	0x007B, r1	; 0x80007b <__TEXT_REGION_LENGTH__+0x70007b>
 2fe:	80 81       	ld	r24, Z
 300:	80 64       	ori	r24, 0x40	; 64
 302:	80 83       	st	Z, r24
 304:	80 81       	ld	r24, Z
 306:	84 ff       	sbrs	r24, 4
 308:	fd cf       	rjmp	.-6      	; 0x304 <initAdc+0x30>
 30a:	ea e7       	ldi	r30, 0x7A	; 122
 30c:	f0 e0       	ldi	r31, 0x00	; 0
 30e:	80 81       	ld	r24, Z
 310:	8f 7e       	andi	r24, 0xEF	; 239
 312:	80 83       	st	Z, r24
 314:	08 95       	ret

00000316 <rgbWrite>:
 316:	2f ef       	ldi	r18, 0xFF	; 255
 318:	33 e0       	ldi	r19, 0x03	; 3
 31a:	f9 01       	movw	r30, r18
 31c:	e8 1b       	sub	r30, r24
 31e:	f9 0b       	sbc	r31, r25
 320:	c9 01       	movw	r24, r18
 322:	86 1b       	sub	r24, r22
 324:	97 0b       	sbc	r25, r23
 326:	24 1b       	sub	r18, r20
 328:	35 0b       	sbc	r19, r21
 32a:	f0 93 a9 00 	sts	0x00A9, r31	; 0x8000a9 <__TEXT_REGION_LENGTH__+0x7000a9>
 32e:	e0 93 a8 00 	sts	0x00A8, r30	; 0x8000a8 <__TEXT_REGION_LENGTH__+0x7000a8>
 332:	90 93 ab 00 	sts	0x00AB, r25	; 0x8000ab <__TEXT_REGION_LENGTH__+0x7000ab>
 336:	80 93 aa 00 	sts	0x00AA, r24	; 0x8000aa <__TEXT_REGION_LENGTH__+0x7000aa>
 33a:	30 93 ad 00 	sts	0x00AD, r19	; 0x8000ad <__TEXT_REGION_LENGTH__+0x7000ad>
 33e:	20 93 ac 00 	sts	0x00AC, r18	; 0x8000ac <__TEXT_REGION_LENGTH__+0x7000ac>
 342:	08 95       	ret

00000344 <initRgb>:
 344:	8e ef       	ldi	r24, 0xFE	; 254
 346:	80 93 a0 00 	sts	0x00A0, r24	; 0x8000a0 <__TEXT_REGION_LENGTH__+0x7000a0>
 34a:	8b e1       	ldi	r24, 0x1B	; 27
 34c:	80 93 a1 00 	sts	0x00A1, r24	; 0x8000a1 <__TEXT_REGION_LENGTH__+0x7000a1>
 350:	83 e0       	ldi	r24, 0x03	; 3
 352:	80 93 a7 00 	sts	0x00A7, r24	; 0x8000a7 <__TEXT_REGION_LENGTH__+0x7000a7>
 356:	8f ef       	ldi	r24, 0xFF	; 255
 358:	80 93 a6 00 	sts	0x00A6, r24	; 0x8000a6 <__TEXT_REGION_LENGTH__+0x7000a6>
 35c:	40 e0       	ldi	r20, 0x00	; 0
 35e:	50 e0       	ldi	r21, 0x00	; 0
 360:	60 e0       	ldi	r22, 0x00	; 0
 362:	70 e0       	ldi	r23, 0x00	; 0
 364:	80 e0       	ldi	r24, 0x00	; 0
 366:	90 e0       	ldi	r25, 0x00	; 0
 368:	d6 cf       	rjmp	.-84     	; 0x316 <rgbWrite>
 36a:	08 95       	ret

0000036c <lcdSid>:
 36c:	88 23       	and	r24, r24
 36e:	11 f0       	breq	.+4      	; 0x374 <lcdSid+0x8>
 370:	a0 9a       	sbi	0x14, 0	; 20
 372:	08 95       	ret
 374:	a0 98       	cbi	0x14, 0	; 20
 376:	08 95       	ret

00000378 <lcdSclk>:
 378:	88 23       	and	r24, r24
 37a:	11 f0       	breq	.+4      	; 0x380 <lcdSclk+0x8>
 37c:	a1 9a       	sbi	0x14, 1	; 20
 37e:	08 95       	ret
 380:	a1 98       	cbi	0x14, 1	; 20
 382:	08 95       	ret

00000384 <lcdLight>:
 384:	81 11       	cpse	r24, r1
 386:	04 c0       	rjmp	.+8      	; 0x390 <lcdLight+0xc>
 388:	84 b5       	in	r24, 0x24	; 36
 38a:	8f 7d       	andi	r24, 0xDF	; 223
 38c:	84 bd       	out	0x24, r24	; 36
 38e:	08 95       	ret
 390:	94 b5       	in	r25, 0x24	; 36
 392:	90 62       	ori	r25, 0x20	; 32
 394:	94 bd       	out	0x24, r25	; 36
 396:	88 bd       	out	0x28, r24	; 40
 398:	08 95       	ret

0000039a <writeLcdF>:
 39a:	ef 92       	push	r14
 39c:	ff 92       	push	r15
 39e:	0f 93       	push	r16
 3a0:	1f 93       	push	r17
 3a2:	cf 93       	push	r28
 3a4:	df 93       	push	r29
 3a6:	7c 01       	movw	r14, r24
 3a8:	eb 01       	movw	r28, r22
 3aa:	81 e0       	ldi	r24, 0x01	; 1
 3ac:	df df       	rcall	.-66     	; 0x36c <lcdSid>
 3ae:	05 e0       	ldi	r16, 0x05	; 5
 3b0:	10 e0       	ldi	r17, 0x00	; 0
 3b2:	80 e0       	ldi	r24, 0x00	; 0
 3b4:	e1 df       	rcall	.-62     	; 0x378 <lcdSclk>
 3b6:	81 e0       	ldi	r24, 0x01	; 1
 3b8:	df df       	rcall	.-66     	; 0x378 <lcdSclk>
 3ba:	01 50       	subi	r16, 0x01	; 1
 3bc:	11 09       	sbc	r17, r1
 3be:	c9 f7       	brne	.-14     	; 0x3b2 <writeLcdF+0x18>
 3c0:	80 e0       	ldi	r24, 0x00	; 0
 3c2:	d4 df       	rcall	.-88     	; 0x36c <lcdSid>
 3c4:	80 e0       	ldi	r24, 0x00	; 0
 3c6:	d8 df       	rcall	.-80     	; 0x378 <lcdSclk>
 3c8:	81 e0       	ldi	r24, 0x01	; 1
 3ca:	d6 df       	rcall	.-84     	; 0x378 <lcdSclk>
 3cc:	83 e4       	ldi	r24, 0x43	; 67
 3ce:	e8 16       	cp	r14, r24
 3d0:	f1 04       	cpc	r15, r1
 3d2:	19 f4       	brne	.+6      	; 0x3da <writeLcdF+0x40>
 3d4:	80 e0       	ldi	r24, 0x00	; 0
 3d6:	ca df       	rcall	.-108    	; 0x36c <lcdSid>
 3d8:	02 c0       	rjmp	.+4      	; 0x3de <writeLcdF+0x44>
 3da:	81 e0       	ldi	r24, 0x01	; 1
 3dc:	c7 df       	rcall	.-114    	; 0x36c <lcdSid>
 3de:	80 e0       	ldi	r24, 0x00	; 0
 3e0:	cb df       	rcall	.-106    	; 0x378 <lcdSclk>
 3e2:	81 e0       	ldi	r24, 0x01	; 1
 3e4:	c9 df       	rcall	.-110    	; 0x378 <lcdSclk>
 3e6:	80 e0       	ldi	r24, 0x00	; 0
 3e8:	c1 df       	rcall	.-126    	; 0x36c <lcdSid>
 3ea:	80 e0       	ldi	r24, 0x00	; 0
 3ec:	c5 df       	rcall	.-118    	; 0x378 <lcdSclk>
 3ee:	81 e0       	ldi	r24, 0x01	; 1
 3f0:	c3 df       	rcall	.-122    	; 0x378 <lcdSclk>
 3f2:	04 e0       	ldi	r16, 0x04	; 4
 3f4:	10 e0       	ldi	r17, 0x00	; 0
 3f6:	80 e0       	ldi	r24, 0x00	; 0
 3f8:	bf df       	rcall	.-130    	; 0x378 <lcdSclk>
 3fa:	c0 ff       	sbrs	r28, 0
 3fc:	03 c0       	rjmp	.+6      	; 0x404 <__LOCK_REGION_LENGTH__+0x4>
 3fe:	81 e0       	ldi	r24, 0x01	; 1
 400:	b5 df       	rcall	.-150    	; 0x36c <lcdSid>
 402:	02 c0       	rjmp	.+4      	; 0x408 <__LOCK_REGION_LENGTH__+0x8>
 404:	80 e0       	ldi	r24, 0x00	; 0
 406:	b2 df       	rcall	.-156    	; 0x36c <lcdSid>
 408:	d6 95       	lsr	r29
 40a:	c7 95       	ror	r28
 40c:	80 e0       	ldi	r24, 0x00	; 0
 40e:	b4 df       	rcall	.-152    	; 0x378 <lcdSclk>
 410:	81 e0       	ldi	r24, 0x01	; 1
 412:	b2 df       	rcall	.-156    	; 0x378 <lcdSclk>
 414:	01 50       	subi	r16, 0x01	; 1
 416:	11 09       	sbc	r17, r1
 418:	71 f7       	brne	.-36     	; 0x3f6 <writeLcdF+0x5c>
 41a:	80 e0       	ldi	r24, 0x00	; 0
 41c:	a7 df       	rcall	.-178    	; 0x36c <lcdSid>
 41e:	04 e0       	ldi	r16, 0x04	; 4
 420:	10 e0       	ldi	r17, 0x00	; 0
 422:	80 e0       	ldi	r24, 0x00	; 0
 424:	a9 df       	rcall	.-174    	; 0x378 <lcdSclk>
 426:	81 e0       	ldi	r24, 0x01	; 1
 428:	a7 df       	rcall	.-178    	; 0x378 <lcdSclk>
 42a:	01 50       	subi	r16, 0x01	; 1
 42c:	11 09       	sbc	r17, r1
 42e:	c9 f7       	brne	.-14     	; 0x422 <__LOCK_REGION_LENGTH__+0x22>
 430:	04 e0       	ldi	r16, 0x04	; 4
 432:	10 e0       	ldi	r17, 0x00	; 0
 434:	80 e0       	ldi	r24, 0x00	; 0
 436:	a0 df       	rcall	.-192    	; 0x378 <lcdSclk>
 438:	c0 ff       	sbrs	r28, 0
 43a:	03 c0       	rjmp	.+6      	; 0x442 <__LOCK_REGION_LENGTH__+0x42>
 43c:	81 e0       	ldi	r24, 0x01	; 1
 43e:	96 df       	rcall	.-212    	; 0x36c <lcdSid>
 440:	02 c0       	rjmp	.+4      	; 0x446 <__LOCK_REGION_LENGTH__+0x46>
 442:	80 e0       	ldi	r24, 0x00	; 0
 444:	93 df       	rcall	.-218    	; 0x36c <lcdSid>
 446:	d6 95       	lsr	r29
 448:	c7 95       	ror	r28
 44a:	80 e0       	ldi	r24, 0x00	; 0
 44c:	95 df       	rcall	.-214    	; 0x378 <lcdSclk>
 44e:	81 e0       	ldi	r24, 0x01	; 1
 450:	93 df       	rcall	.-218    	; 0x378 <lcdSclk>
 452:	01 50       	subi	r16, 0x01	; 1
 454:	11 09       	sbc	r17, r1
 456:	71 f7       	brne	.-36     	; 0x434 <__LOCK_REGION_LENGTH__+0x34>
 458:	80 e0       	ldi	r24, 0x00	; 0
 45a:	88 df       	rcall	.-240    	; 0x36c <lcdSid>
 45c:	c4 e0       	ldi	r28, 0x04	; 4
 45e:	d0 e0       	ldi	r29, 0x00	; 0
 460:	80 e0       	ldi	r24, 0x00	; 0
 462:	8a df       	rcall	.-236    	; 0x378 <lcdSclk>
 464:	81 e0       	ldi	r24, 0x01	; 1
 466:	88 df       	rcall	.-240    	; 0x378 <lcdSclk>
 468:	21 97       	sbiw	r28, 0x01	; 1
 46a:	d1 f7       	brne	.-12     	; 0x460 <__LOCK_REGION_LENGTH__+0x60>
 46c:	81 e0       	ldi	r24, 0x01	; 1
 46e:	7e df       	rcall	.-260    	; 0x36c <lcdSid>
 470:	87 ec       	ldi	r24, 0xC7	; 199
 472:	90 e0       	ldi	r25, 0x00	; 0
 474:	01 97       	sbiw	r24, 0x01	; 1
 476:	f1 f7       	brne	.-4      	; 0x474 <__LOCK_REGION_LENGTH__+0x74>
 478:	00 c0       	rjmp	.+0      	; 0x47a <__LOCK_REGION_LENGTH__+0x7a>
 47a:	00 00       	nop
 47c:	df 91       	pop	r29
 47e:	cf 91       	pop	r28
 480:	1f 91       	pop	r17
 482:	0f 91       	pop	r16
 484:	ff 90       	pop	r15
 486:	ef 90       	pop	r14
 488:	08 95       	ret

0000048a <lcdWriteText>:
 48a:	1f 93       	push	r17
 48c:	cf 93       	push	r28
 48e:	df 93       	push	r29
 490:	cd b7       	in	r28, 0x3d	; 61
 492:	de b7       	in	r29, 0x3e	; 62
 494:	65 97       	sbiw	r28, 0x15	; 21
 496:	0f b6       	in	r0, 0x3f	; 63
 498:	f8 94       	cli
 49a:	de bf       	out	0x3e, r29	; 62
 49c:	0f be       	out	0x3f, r0	; 63
 49e:	cd bf       	out	0x3d, r28	; 61
 4a0:	9e 01       	movw	r18, r28
 4a2:	20 5e       	subi	r18, 0xE0	; 224
 4a4:	3f 4f       	sbci	r19, 0xFF	; 255
 4a6:	4e 8d       	ldd	r20, Y+30	; 0x1e
 4a8:	5f 8d       	ldd	r21, Y+31	; 0x1f
 4aa:	65 e1       	ldi	r22, 0x15	; 21
 4ac:	70 e0       	ldi	r23, 0x00	; 0
 4ae:	ce 01       	movw	r24, r28
 4b0:	01 96       	adiw	r24, 0x01	; 1
 4b2:	3a d2       	rcall	.+1140   	; 0x928 <vsnprintf>
 4b4:	6d 8d       	ldd	r22, Y+29	; 0x1d
 4b6:	8c 8d       	ldd	r24, Y+28	; 0x1c
 4b8:	90 e2       	ldi	r25, 0x20	; 32
 4ba:	89 9f       	mul	r24, r25
 4bc:	60 0d       	add	r22, r0
 4be:	11 24       	eor	r1, r1
 4c0:	60 68       	ori	r22, 0x80	; 128
 4c2:	70 e0       	ldi	r23, 0x00	; 0
 4c4:	83 e4       	ldi	r24, 0x43	; 67
 4c6:	90 e0       	ldi	r25, 0x00	; 0
 4c8:	68 df       	rcall	.-304    	; 0x39a <writeLcdF>
 4ca:	69 81       	ldd	r22, Y+1	; 0x01
 4cc:	66 23       	and	r22, r22
 4ce:	79 f0       	breq	.+30     	; 0x4ee <lcdWriteText+0x64>
 4d0:	10 e0       	ldi	r17, 0x00	; 0
 4d2:	1f 5f       	subi	r17, 0xFF	; 255
 4d4:	70 e0       	ldi	r23, 0x00	; 0
 4d6:	84 e4       	ldi	r24, 0x44	; 68
 4d8:	90 e0       	ldi	r25, 0x00	; 0
 4da:	5f df       	rcall	.-322    	; 0x39a <writeLcdF>
 4dc:	e1 e0       	ldi	r30, 0x01	; 1
 4de:	f0 e0       	ldi	r31, 0x00	; 0
 4e0:	ec 0f       	add	r30, r28
 4e2:	fd 1f       	adc	r31, r29
 4e4:	e1 0f       	add	r30, r17
 4e6:	f1 1d       	adc	r31, r1
 4e8:	60 81       	ld	r22, Z
 4ea:	61 11       	cpse	r22, r1
 4ec:	f2 cf       	rjmp	.-28     	; 0x4d2 <lcdWriteText+0x48>
 4ee:	65 96       	adiw	r28, 0x15	; 21
 4f0:	0f b6       	in	r0, 0x3f	; 63
 4f2:	f8 94       	cli
 4f4:	de bf       	out	0x3e, r29	; 62
 4f6:	0f be       	out	0x3f, r0	; 63
 4f8:	cd bf       	out	0x3d, r28	; 61
 4fa:	df 91       	pop	r29
 4fc:	cf 91       	pop	r28
 4fe:	1f 91       	pop	r17
 500:	08 95       	ret

00000502 <lcdClear>:
 502:	61 e0       	ldi	r22, 0x01	; 1
 504:	70 e0       	ldi	r23, 0x00	; 0
 506:	83 e4       	ldi	r24, 0x43	; 67
 508:	90 e0       	ldi	r25, 0x00	; 0
 50a:	47 df       	rcall	.-370    	; 0x39a <writeLcdF>
 50c:	8f e3       	ldi	r24, 0x3F	; 63
 50e:	9f e1       	ldi	r25, 0x1F	; 31
 510:	01 97       	sbiw	r24, 0x01	; 1
 512:	f1 f7       	brne	.-4      	; 0x510 <lcdClear+0xe>
 514:	00 c0       	rjmp	.+0      	; 0x516 <lcdClear+0x14>
 516:	00 00       	nop
 518:	80 e3       	ldi	r24, 0x30	; 48
 51a:	92 e0       	ldi	r25, 0x02	; 2
 51c:	9f 93       	push	r25
 51e:	8f 93       	push	r24
 520:	1f 92       	push	r1
 522:	1f 92       	push	r1
 524:	b2 df       	rcall	.-156    	; 0x48a <lcdWriteText>
 526:	0f 90       	pop	r0
 528:	0f 90       	pop	r0
 52a:	0f 90       	pop	r0
 52c:	0f 90       	pop	r0
 52e:	08 95       	ret

00000530 <initLcd>:
 530:	81 e0       	ldi	r24, 0x01	; 1
 532:	22 df       	rcall	.-444    	; 0x378 <lcdSclk>
 534:	80 e0       	ldi	r24, 0x00	; 0
 536:	1a df       	rcall	.-460    	; 0x36c <lcdSid>
 538:	64 e3       	ldi	r22, 0x34	; 52
 53a:	70 e0       	ldi	r23, 0x00	; 0
 53c:	83 e4       	ldi	r24, 0x43	; 67
 53e:	90 e0       	ldi	r25, 0x00	; 0
 540:	2c df       	rcall	.-424    	; 0x39a <writeLcdF>
 542:	69 e0       	ldi	r22, 0x09	; 9
 544:	70 e0       	ldi	r23, 0x00	; 0
 546:	83 e4       	ldi	r24, 0x43	; 67
 548:	90 e0       	ldi	r25, 0x00	; 0
 54a:	27 df       	rcall	.-434    	; 0x39a <writeLcdF>
 54c:	60 e3       	ldi	r22, 0x30	; 48
 54e:	70 e0       	ldi	r23, 0x00	; 0
 550:	83 e4       	ldi	r24, 0x43	; 67
 552:	90 e0       	ldi	r25, 0x00	; 0
 554:	22 df       	rcall	.-444    	; 0x39a <writeLcdF>
 556:	6c e0       	ldi	r22, 0x0C	; 12
 558:	70 e0       	ldi	r23, 0x00	; 0
 55a:	83 e4       	ldi	r24, 0x43	; 67
 55c:	90 e0       	ldi	r25, 0x00	; 0
 55e:	1d df       	rcall	.-454    	; 0x39a <writeLcdF>
 560:	d0 df       	rcall	.-96     	; 0x502 <lcdClear>
 562:	67 e0       	ldi	r22, 0x07	; 7
 564:	70 e0       	ldi	r23, 0x00	; 0
 566:	83 e4       	ldi	r24, 0x43	; 67
 568:	90 e0       	ldi	r25, 0x00	; 0
 56a:	17 df       	rcall	.-466    	; 0x39a <writeLcdF>
 56c:	80 e0       	ldi	r24, 0x00	; 0
 56e:	0a cf       	rjmp	.-492    	; 0x384 <lcdLight>
 570:	08 95       	ret

00000572 <initBoard>:
 572:	4f 92       	push	r4
 574:	5f 92       	push	r5
 576:	6f 92       	push	r6
 578:	7f 92       	push	r7
 57a:	8f 92       	push	r8
 57c:	9f 92       	push	r9
 57e:	af 92       	push	r10
 580:	bf 92       	push	r11
 582:	cf 92       	push	r12
 584:	df 92       	push	r13
 586:	ef 92       	push	r14
 588:	ff 92       	push	r15
 58a:	0f 93       	push	r16
 58c:	1f 93       	push	r17
 58e:	cf 93       	push	r28
 590:	df 93       	push	r29
 592:	c8 2f       	mov	r28, r24
 594:	85 b7       	in	r24, 0x35	; 53
 596:	85 bf       	out	0x35, r24	; 53
 598:	12 b8       	out	0x02, r1	; 2
 59a:	8f ef       	ldi	r24, 0xFF	; 255
 59c:	81 b9       	out	0x01, r24	; 1
 59e:	15 b8       	out	0x05, r1	; 5
 5a0:	84 b9       	out	0x04, r24	; 4
 5a2:	88 b9       	out	0x08, r24	; 8
 5a4:	17 b8       	out	0x07, r1	; 7
 5a6:	8b b9       	out	0x0b, r24	; 11
 5a8:	1a b8       	out	0x0a, r1	; 10
 5aa:	8e b9       	out	0x0e, r24	; 14
 5ac:	1d b8       	out	0x0d, r1	; 13
 5ae:	72 98       	cbi	0x0e, 2	; 14
 5b0:	11 ba       	out	0x11, r1	; 17
 5b2:	10 ba       	out	0x10, r1	; 16
 5b4:	94 e0       	ldi	r25, 0x04	; 4
 5b6:	94 bb       	out	0x14, r25	; 20
 5b8:	93 b3       	in	r25, 0x13	; 19
 5ba:	93 60       	ori	r25, 0x03	; 3
 5bc:	93 bb       	out	0x13, r25	; 19
 5be:	9d 9a       	sbi	0x13, 5	; 19
 5c0:	97 ec       	ldi	r25, 0xC7	; 199
 5c2:	90 93 02 01 	sts	0x0102, r25	; 0x800102 <__TEXT_REGION_LENGTH__+0x700102>
 5c6:	98 e3       	ldi	r25, 0x38	; 56
 5c8:	90 93 01 01 	sts	0x0101, r25	; 0x800101 <__TEXT_REGION_LENGTH__+0x700101>
 5cc:	10 92 05 01 	sts	0x0105, r1	; 0x800105 <__TEXT_REGION_LENGTH__+0x700105>
 5d0:	80 93 04 01 	sts	0x0104, r24	; 0x800104 <__TEXT_REGION_LENGTH__+0x700104>
 5d4:	10 92 08 01 	sts	0x0108, r1	; 0x800108 <__TEXT_REGION_LENGTH__+0x700108>
 5d8:	10 92 07 01 	sts	0x0107, r1	; 0x800107 <__TEXT_REGION_LENGTH__+0x700107>
 5dc:	8c e3       	ldi	r24, 0x3C	; 60
 5de:	80 93 0b 01 	sts	0x010B, r24	; 0x80010b <__TEXT_REGION_LENGTH__+0x70010b>
 5e2:	10 92 0a 01 	sts	0x010A, r1	; 0x80010a <__TEXT_REGION_LENGTH__+0x70010a>
 5e6:	78 94       	sei
 5e8:	6b de       	rcall	.-810    	; 0x2c0 <startSystemTimeMs>
 5ea:	a2 df       	rcall	.-188    	; 0x530 <initLcd>
 5ec:	73 de       	rcall	.-794    	; 0x2d4 <initAdc>
 5ee:	aa de       	rcall	.-684    	; 0x344 <initRgb>
 5f0:	cc 23       	and	r28, r28
 5f2:	09 f4       	brne	.+2      	; 0x5f6 <initBoard+0x84>
 5f4:	b8 c0       	rjmp	.+368    	; 0x766 <initBoard+0x1f4>
 5f6:	8f ef       	ldi	r24, 0xFF	; 255
 5f8:	c5 de       	rcall	.-630    	; 0x384 <lcdLight>
 5fa:	40 e0       	ldi	r20, 0x00	; 0
 5fc:	50 e0       	ldi	r21, 0x00	; 0
 5fe:	6f ef       	ldi	r22, 0xFF	; 255
 600:	73 e0       	ldi	r23, 0x03	; 3
 602:	80 e0       	ldi	r24, 0x00	; 0
 604:	90 e0       	ldi	r25, 0x00	; 0
 606:	87 de       	rcall	.-754    	; 0x316 <rgbWrite>
 608:	8d e1       	ldi	r24, 0x1D	; 29
 60a:	92 e0       	ldi	r25, 0x02	; 2
 60c:	9f 93       	push	r25
 60e:	8f 93       	push	r24
 610:	1f 92       	push	r1
 612:	1f 92       	push	r1
 614:	3a df       	rcall	.-396    	; 0x48a <lcdWriteText>
 616:	82 e3       	ldi	r24, 0x32	; 50
 618:	92 e0       	ldi	r25, 0x02	; 2
 61a:	9f 93       	push	r25
 61c:	8f 93       	push	r24
 61e:	1f 92       	push	r1
 620:	81 e0       	ldi	r24, 0x01	; 1
 622:	8f 93       	push	r24
 624:	32 df       	rcall	.-412    	; 0x48a <lcdWriteText>
 626:	88 e0       	ldi	r24, 0x08	; 8
 628:	92 e0       	ldi	r25, 0x02	; 2
 62a:	9f 93       	push	r25
 62c:	8f 93       	push	r24
 62e:	1f 92       	push	r1
 630:	82 e0       	ldi	r24, 0x02	; 2
 632:	8f 93       	push	r24
 634:	2a df       	rcall	.-428    	; 0x48a <lcdWriteText>
 636:	87 e4       	ldi	r24, 0x47	; 71
 638:	92 e0       	ldi	r25, 0x02	; 2
 63a:	9f 93       	push	r25
 63c:	8f 93       	push	r24
 63e:	1f 92       	push	r1
 640:	83 e0       	ldi	r24, 0x03	; 3
 642:	8f 93       	push	r24
 644:	22 df       	rcall	.-444    	; 0x48a <lcdWriteText>
 646:	8d b7       	in	r24, 0x3d	; 61
 648:	9e b7       	in	r25, 0x3e	; 62
 64a:	40 96       	adiw	r24, 0x10	; 16
 64c:	0f b6       	in	r0, 0x3f	; 63
 64e:	f8 94       	cli
 650:	9e bf       	out	0x3e, r25	; 62
 652:	0f be       	out	0x3f, r0	; 63
 654:	8d bf       	out	0x3d, r24	; 61
 656:	88 24       	eor	r8, r8
 658:	83 94       	inc	r8
 65a:	c0 e0       	ldi	r28, 0x00	; 0
 65c:	71 2c       	mov	r7, r1
 65e:	99 24       	eor	r9, r9
 660:	93 94       	inc	r9
 662:	d0 e0       	ldi	r29, 0x00	; 0
 664:	cc 24       	eor	r12, r12
 666:	c3 94       	inc	r12
 668:	d1 2c       	mov	r13, r1
 66a:	e1 2c       	mov	r14, r1
 66c:	68 94       	set
 66e:	ff 24       	eor	r15, r15
 670:	f7 f8       	bld	r15, 7
 672:	66 24       	eor	r6, r6
 674:	63 94       	inc	r6
 676:	51 2c       	mov	r5, r1
 678:	09 e0       	ldi	r16, 0x09	; 9
 67a:	11 e0       	ldi	r17, 0x01	; 1
 67c:	0f 2e       	mov	r0, r31
 67e:	fc e5       	ldi	r31, 0x5C	; 92
 680:	af 2e       	mov	r10, r31
 682:	f2 e0       	ldi	r31, 0x02	; 2
 684:	bf 2e       	mov	r11, r31
 686:	f0 2d       	mov	r31, r0
 688:	0f 2e       	mov	r0, r31
 68a:	f3 e0       	ldi	r31, 0x03	; 3
 68c:	4f 2e       	mov	r4, r31
 68e:	f0 2d       	mov	r31, r0
 690:	99 20       	and	r9, r9
 692:	49 f0       	breq	.+18     	; 0x6a6 <initBoard+0x134>
 694:	c7 01       	movw	r24, r14
 696:	0d 2e       	mov	r0, r29
 698:	02 c0       	rjmp	.+4      	; 0x69e <initBoard+0x12c>
 69a:	96 95       	lsr	r25
 69c:	87 95       	ror	r24
 69e:	0a 94       	dec	r0
 6a0:	e2 f7       	brpl	.-8      	; 0x69a <initBoard+0x128>
 6a2:	06 de       	rcall	.-1012   	; 0x2b0 <ledWriteAll>
 6a4:	08 c0       	rjmp	.+16     	; 0x6b6 <initBoard+0x144>
 6a6:	c6 01       	movw	r24, r12
 6a8:	0d 2e       	mov	r0, r29
 6aa:	02 c0       	rjmp	.+4      	; 0x6b0 <initBoard+0x13e>
 6ac:	88 0f       	add	r24, r24
 6ae:	99 1f       	adc	r25, r25
 6b0:	0a 94       	dec	r0
 6b2:	e2 f7       	brpl	.-8      	; 0x6ac <initBoard+0x13a>
 6b4:	fd dd       	rcall	.-1030   	; 0x2b0 <ledWriteAll>
 6b6:	df 5f       	subi	r29, 0xFF	; 255
 6b8:	d1 31       	cpi	r29, 0x11	; 17
 6ba:	28 f0       	brcs	.+10     	; 0x6c6 <initBoard+0x154>
 6bc:	86 2d       	mov	r24, r6
 6be:	91 10       	cpse	r9, r1
 6c0:	85 2d       	mov	r24, r5
 6c2:	98 2e       	mov	r9, r24
 6c4:	d0 e0       	ldi	r29, 0x00	; 0
 6c6:	88 20       	and	r8, r8
 6c8:	11 f0       	breq	.+4      	; 0x6ce <initBoard+0x15c>
 6ca:	ce 5f       	subi	r28, 0xFE	; 254
 6cc:	01 c0       	rjmp	.+2      	; 0x6d0 <initBoard+0x15e>
 6ce:	c2 50       	subi	r28, 0x02	; 2
 6d0:	8c 2f       	mov	r24, r28
 6d2:	58 de       	rcall	.-848    	; 0x384 <lcdLight>
 6d4:	ce 3f       	cpi	r28, 0xFE	; 254
 6d6:	21 f0       	breq	.+8      	; 0x6e0 <initBoard+0x16e>
 6d8:	c8 37       	cpi	r28, 0x78	; 120
 6da:	19 f4       	brne	.+6      	; 0x6e2 <initBoard+0x170>
 6dc:	86 2c       	mov	r8, r6
 6de:	01 c0       	rjmp	.+2      	; 0x6e2 <initBoard+0x170>
 6e0:	85 2c       	mov	r8, r5
 6e2:	71 10       	cpse	r7, r1
 6e4:	3b c0       	rjmp	.+118    	; 0x75c <initBoard+0x1ea>
 6e6:	f8 01       	movw	r30, r16
 6e8:	80 81       	ld	r24, Z
 6ea:	83 7c       	andi	r24, 0xC3	; 195
 6ec:	91 f0       	breq	.+36     	; 0x712 <initBoard+0x1a0>
 6ee:	40 e0       	ldi	r20, 0x00	; 0
 6f0:	50 e0       	ldi	r21, 0x00	; 0
 6f2:	66 e2       	ldi	r22, 0x26	; 38
 6f4:	72 e0       	ldi	r23, 0x02	; 2
 6f6:	8f ef       	ldi	r24, 0xFF	; 255
 6f8:	93 e0       	ldi	r25, 0x03	; 3
 6fa:	0d de       	rcall	.-998    	; 0x316 <rgbWrite>
 6fc:	bf 92       	push	r11
 6fe:	af 92       	push	r10
 700:	1f 92       	push	r1
 702:	4f 92       	push	r4
 704:	c2 de       	rcall	.-636    	; 0x48a <lcdWriteText>
 706:	0f 90       	pop	r0
 708:	0f 90       	pop	r0
 70a:	0f 90       	pop	r0
 70c:	0f 90       	pop	r0
 70e:	76 2c       	mov	r7, r6
 710:	25 c0       	rjmp	.+74     	; 0x75c <initBoard+0x1ea>
 712:	8f ef       	ldi	r24, 0xFF	; 255
 714:	9c e7       	ldi	r25, 0x7C	; 124
 716:	01 97       	sbiw	r24, 0x01	; 1
 718:	f1 f7       	brne	.-4      	; 0x716 <initBoard+0x1a4>
 71a:	00 c0       	rjmp	.+0      	; 0x71c <initBoard+0x1aa>
 71c:	00 00       	nop
 71e:	b8 cf       	rjmp	.-144    	; 0x690 <initBoard+0x11e>
 720:	f0 de       	rcall	.-544    	; 0x502 <lcdClear>
 722:	80 e0       	ldi	r24, 0x00	; 0
 724:	2f de       	rcall	.-930    	; 0x384 <lcdLight>
 726:	80 e0       	ldi	r24, 0x00	; 0
 728:	90 e0       	ldi	r25, 0x00	; 0
 72a:	c2 dd       	rcall	.-1148   	; 0x2b0 <ledWriteAll>
 72c:	40 e0       	ldi	r20, 0x00	; 0
 72e:	50 e0       	ldi	r21, 0x00	; 0
 730:	60 e0       	ldi	r22, 0x00	; 0
 732:	70 e0       	ldi	r23, 0x00	; 0
 734:	80 e0       	ldi	r24, 0x00	; 0
 736:	90 e0       	ldi	r25, 0x00	; 0
 738:	ee dd       	rcall	.-1060   	; 0x316 <rgbWrite>
 73a:	10 92 79 02 	sts	0x0279, r1	; 0x800279 <systemTimeMs>
 73e:	10 92 7a 02 	sts	0x027A, r1	; 0x80027a <systemTimeMs+0x1>
 742:	10 92 7b 02 	sts	0x027B, r1	; 0x80027b <systemTimeMs+0x2>
 746:	10 92 7c 02 	sts	0x027C, r1	; 0x80027c <systemTimeMs+0x3>
 74a:	10 92 7d 02 	sts	0x027D, r1	; 0x80027d <systemTimeMs+0x4>
 74e:	10 92 7e 02 	sts	0x027E, r1	; 0x80027e <systemTimeMs+0x5>
 752:	10 92 7f 02 	sts	0x027F, r1	; 0x80027f <systemTimeMs+0x6>
 756:	10 92 80 02 	sts	0x0280, r1	; 0x800280 <systemTimeMs+0x7>
 75a:	05 c0       	rjmp	.+10     	; 0x766 <initBoard+0x1f4>
 75c:	f8 01       	movw	r30, r16
 75e:	80 81       	ld	r24, Z
 760:	83 7c       	andi	r24, 0xC3	; 195
 762:	b9 f6       	brne	.-82     	; 0x712 <initBoard+0x1a0>
 764:	dd cf       	rjmp	.-70     	; 0x720 <initBoard+0x1ae>
 766:	df 91       	pop	r29
 768:	cf 91       	pop	r28
 76a:	1f 91       	pop	r17
 76c:	0f 91       	pop	r16
 76e:	ff 90       	pop	r15
 770:	ef 90       	pop	r14
 772:	df 90       	pop	r13
 774:	cf 90       	pop	r12
 776:	bf 90       	pop	r11
 778:	af 90       	pop	r10
 77a:	9f 90       	pop	r9
 77c:	8f 90       	pop	r8
 77e:	7f 90       	pop	r7
 780:	6f 90       	pop	r6
 782:	5f 90       	pop	r5
 784:	4f 90       	pop	r4
 786:	08 95       	ret

00000788 <matrixWriteNextLine>:




void matrixWriteNextLine(void)
{
 788:	cf 93       	push	r28
 78a:	df 93       	push	r29
 78c:	cd b7       	in	r28, 0x3d	; 61
 78e:	de b7       	in	r29, 0x3e	; 62
 790:	28 97       	sbiw	r28, 0x08	; 8
 792:	0f b6       	in	r0, 0x3f	; 63
 794:	f8 94       	cli
 796:	de bf       	out	0x3e, r29	; 62
 798:	0f be       	out	0x3f, r0	; 63
 79a:	cd bf       	out	0x3d, r28	; 61
    const  uint8_t Bit_Muster_Tab[8] = {1,2,4,8,16,32,64,128};
 79c:	88 e0       	ldi	r24, 0x08	; 8
 79e:	e0 e0       	ldi	r30, 0x00	; 0
 7a0:	f2 e0       	ldi	r31, 0x02	; 2
 7a2:	de 01       	movw	r26, r28
 7a4:	11 96       	adiw	r26, 0x01	; 1
 7a6:	01 90       	ld	r0, Z+
 7a8:	0d 92       	st	X+, r0
 7aa:	8a 95       	dec	r24
 7ac:	e1 f7       	brne	.-8      	; 0x7a6 <matrixWriteNextLine+0x1e>
    static uint16_t Zeilen_Nr, Bit_Muster;
    uint8_t i;
    
    STROBE_0;                             // Daten des Scheiberegisters nicht ins Latch schreiben
 7ae:	e5 e0       	ldi	r30, 0x05	; 5
 7b0:	f1 e0       	ldi	r31, 0x01	; 1
 7b2:	80 81       	ld	r24, Z
 7b4:	8f 7b       	andi	r24, 0xBF	; 191
 7b6:	80 83       	st	Z, r24

    Bit_Muster = Bit_Muster_Tab[Zeilen_Nr]; // Bitmuster aus Tabelle holen, um mit Daten in matrix[] zu vergleichen.
 7b8:	e0 91 76 02 	lds	r30, 0x0276	; 0x800276 <Zeilen_Nr.2731>
 7bc:	f0 91 77 02 	lds	r31, 0x0277	; 0x800277 <Zeilen_Nr.2731+0x1>
 7c0:	81 e0       	ldi	r24, 0x01	; 1
 7c2:	90 e0       	ldi	r25, 0x00	; 0
 7c4:	8c 0f       	add	r24, r28
 7c6:	9d 1f       	adc	r25, r29
 7c8:	e8 0f       	add	r30, r24
 7ca:	f9 1f       	adc	r31, r25
 7cc:	80 81       	ld	r24, Z
 7ce:	90 e0       	ldi	r25, 0x00	; 0
 7d0:	90 93 75 02 	sts	0x0275, r25	; 0x800275 <__data_end+0x1>
 7d4:	80 93 74 02 	sts	0x0274, r24	; 0x800274 <__data_end>
 7d8:	a2 ef       	ldi	r26, 0xF2	; 242
 7da:	b2 e0       	ldi	r27, 0x02	; 2
 7dc:	22 e8       	ldi	r18, 0x82	; 130
 7de:	32 e0       	ldi	r19, 0x02	; 2
    {                                       // Vergleicht Bit-Muster der aktuellen Zeile mit Daten in matrix[]
        if((matrix[Anzahl_Spalten-1- i] & Bit_Muster) != 0)     // Ist in matrix[] das entsprechende Bit gesetzt?
        { DATA_Modul_1_ON;                    //   JA:   ==> Datenbit "1" ins Schieberegister schreiben
        }
        else
        { DATA_Modul_1_OFF;                   //   NEIN: ==> Datenbit "0" ins Schieberegister schreiben
 7e0:	e5 e0       	ldi	r30, 0x05	; 5
 7e2:	f1 e0       	ldi	r31, 0x01	; 1
    Bit_Muster = Bit_Muster_Tab[Zeilen_Nr]; // Bitmuster aus Tabelle holen, um mit Daten in matrix[] zu vergleichen.
    
    // Alle Bits seriell ins Schieberegister hineinschreiben
    for(i=0; i<Anzahl_Spalten; i++)         // Alle Spalten durchgehen und überpüfen, ob Bit gesetzt ist
    {                                       // Vergleicht Bit-Muster der aktuellen Zeile mit Daten in matrix[]
        if((matrix[Anzahl_Spalten-1- i] & Bit_Muster) != 0)     // Ist in matrix[] das entsprechende Bit gesetzt?
 7e4:	5e 91       	ld	r21, -X
 7e6:	4e 91       	ld	r20, -X
 7e8:	80 91 74 02 	lds	r24, 0x0274	; 0x800274 <__data_end>
 7ec:	90 91 75 02 	lds	r25, 0x0275	; 0x800275 <__data_end+0x1>
 7f0:	84 23       	and	r24, r20
 7f2:	95 23       	and	r25, r21
 7f4:	89 2b       	or	r24, r25
 7f6:	21 f0       	breq	.+8      	; 0x800 <matrixWriteNextLine+0x78>
        { DATA_Modul_1_ON;                    //   JA:   ==> Datenbit "1" ins Schieberegister schreiben
 7f8:	80 81       	ld	r24, Z
 7fa:	80 62       	ori	r24, 0x20	; 32
 7fc:	80 83       	st	Z, r24
 7fe:	03 c0       	rjmp	.+6      	; 0x806 <matrixWriteNextLine+0x7e>
        }
        else
        { DATA_Modul_1_OFF;                   //   NEIN: ==> Datenbit "0" ins Schieberegister schreiben
 800:	80 81       	ld	r24, Z
 802:	8f 7d       	andi	r24, 0xDF	; 223
 804:	80 83       	st	Z, r24
        }
        CLOCK_1;
 806:	80 81       	ld	r24, Z
 808:	80 61       	ori	r24, 0x10	; 16
 80a:	80 83       	st	Z, r24
        CLOCK_0;                            // Datenbit wird bei der negativen Flanke des Clock-Signals übernommen
 80c:	80 81       	ld	r24, Z
 80e:	8f 7e       	andi	r24, 0xEF	; 239
 810:	80 83       	st	Z, r24
    STROBE_0;                             // Daten des Scheiberegisters nicht ins Latch schreiben

    Bit_Muster = Bit_Muster_Tab[Zeilen_Nr]; // Bitmuster aus Tabelle holen, um mit Daten in matrix[] zu vergleichen.
    
    // Alle Bits seriell ins Schieberegister hineinschreiben
    for(i=0; i<Anzahl_Spalten; i++)         // Alle Spalten durchgehen und überpüfen, ob Bit gesetzt ist
 812:	a2 17       	cp	r26, r18
 814:	b3 07       	cpc	r27, r19
 816:	31 f7       	brne	.-52     	; 0x7e4 <matrixWriteNextLine+0x5c>
        }
        CLOCK_1;
        CLOCK_0;                            // Datenbit wird bei der negativen Flanke des Clock-Signals übernommen
    }
    
    ENABLE_0;                                // +5V aller Zeilen abschalten
 818:	e5 e0       	ldi	r30, 0x05	; 5
 81a:	f1 e0       	ldi	r31, 0x01	; 1
 81c:	80 81       	ld	r24, Z
 81e:	87 7f       	andi	r24, 0xF7	; 247
 820:	80 83       	st	Z, r24
    PORTJ &= ~0x07;
 822:	80 81       	ld	r24, Z
 824:	88 7f       	andi	r24, 0xF8	; 248
 826:	80 83       	st	Z, r24
    PORTJ |= Zeilen_Nr;                     // gewünschte Zeile einstellen
 828:	90 81       	ld	r25, Z
 82a:	80 91 76 02 	lds	r24, 0x0276	; 0x800276 <Zeilen_Nr.2731>
 82e:	89 2b       	or	r24, r25
 830:	80 83       	st	Z, r24
    STROBE_1;                             // Daten ins Latch schreiben
 832:	80 81       	ld	r24, Z
 834:	80 64       	ori	r24, 0x40	; 64
 836:	80 83       	st	Z, r24
    ENABLE_1;                             // +5V Speisung der eingestellten Zeile einschalten
 838:	80 81       	ld	r24, Z
 83a:	88 60       	ori	r24, 0x08	; 8
 83c:	80 83       	st	Z, r24

    // Die Zeilen werden nacheinander eingeschaltet --> zyklisch 0,1,2,3,4,5,6,7, 0,1,2,3, ...
    if (Zeilen_Nr < 7)
 83e:	80 91 76 02 	lds	r24, 0x0276	; 0x800276 <Zeilen_Nr.2731>
 842:	90 91 77 02 	lds	r25, 0x0277	; 0x800277 <Zeilen_Nr.2731+0x1>
 846:	87 30       	cpi	r24, 0x07	; 7
 848:	91 05       	cpc	r25, r1
 84a:	30 f4       	brcc	.+12     	; 0x858 <matrixWriteNextLine+0xd0>
    {
        Zeilen_Nr++;
 84c:	01 96       	adiw	r24, 0x01	; 1
 84e:	90 93 77 02 	sts	0x0277, r25	; 0x800277 <Zeilen_Nr.2731+0x1>
 852:	80 93 76 02 	sts	0x0276, r24	; 0x800276 <Zeilen_Nr.2731>
 856:	07 c0       	rjmp	.+14     	; 0x866 <matrixWriteNextLine+0xde>
    }
    else
    {
        Zeilen_Nr = 0;
 858:	10 92 77 02 	sts	0x0277, r1	; 0x800277 <Zeilen_Nr.2731+0x1>
 85c:	10 92 76 02 	sts	0x0276, r1	; 0x800276 <Zeilen_Nr.2731>
        writeTextFinished = 1;
 860:	81 e0       	ldi	r24, 0x01	; 1
 862:	80 93 78 02 	sts	0x0278, r24	; 0x800278 <writeTextFinished>
    }
    
 866:	28 96       	adiw	r28, 0x08	; 8
 868:	0f b6       	in	r0, 0x3f	; 63
 86a:	f8 94       	cli
 86c:	de bf       	out	0x3e, r29	; 62
 86e:	0f be       	out	0x3f, r0	; 63
 870:	cd bf       	out	0x3d, r28	; 61
 872:	df 91       	pop	r29
 874:	cf 91       	pop	r28
 876:	08 95       	ret

00000878 <__vector_23>:
//--------------------------------------------------------------------------------------------
// Timer 0 Overflow Interrupt ->  Wird alle 1ms aufgerufen
//--------------------------------------------------------------------------------------------

ISR(TIMER0_OVF_vect)
{
 878:	1f 92       	push	r1
 87a:	0f 92       	push	r0
 87c:	0f b6       	in	r0, 0x3f	; 63
 87e:	0f 92       	push	r0
 880:	11 24       	eor	r1, r1
 882:	0b b6       	in	r0, 0x3b	; 59
 884:	0f 92       	push	r0
 886:	2f 93       	push	r18
 888:	3f 93       	push	r19
 88a:	4f 93       	push	r20
 88c:	5f 93       	push	r21
 88e:	6f 93       	push	r22
 890:	7f 93       	push	r23
 892:	8f 93       	push	r24
 894:	9f 93       	push	r25
 896:	af 93       	push	r26
 898:	bf 93       	push	r27
 89a:	ef 93       	push	r30
 89c:	ff 93       	push	r31
    systemTimeMs += 1;
 89e:	20 91 79 02 	lds	r18, 0x0279	; 0x800279 <systemTimeMs>
 8a2:	30 91 7a 02 	lds	r19, 0x027A	; 0x80027a <systemTimeMs+0x1>
 8a6:	40 91 7b 02 	lds	r20, 0x027B	; 0x80027b <systemTimeMs+0x2>
 8aa:	50 91 7c 02 	lds	r21, 0x027C	; 0x80027c <systemTimeMs+0x3>
 8ae:	60 91 7d 02 	lds	r22, 0x027D	; 0x80027d <systemTimeMs+0x4>
 8b2:	70 91 7e 02 	lds	r23, 0x027E	; 0x80027e <systemTimeMs+0x5>
 8b6:	80 91 7f 02 	lds	r24, 0x027F	; 0x80027f <systemTimeMs+0x6>
 8ba:	90 91 80 02 	lds	r25, 0x0280	; 0x800280 <systemTimeMs+0x7>
 8be:	a1 e0       	ldi	r26, 0x01	; 1
 8c0:	27 d0       	rcall	.+78     	; 0x910 <__adddi3_s8>
 8c2:	20 93 79 02 	sts	0x0279, r18	; 0x800279 <systemTimeMs>
 8c6:	30 93 7a 02 	sts	0x027A, r19	; 0x80027a <systemTimeMs+0x1>
 8ca:	40 93 7b 02 	sts	0x027B, r20	; 0x80027b <systemTimeMs+0x2>
 8ce:	50 93 7c 02 	sts	0x027C, r21	; 0x80027c <systemTimeMs+0x3>
 8d2:	60 93 7d 02 	sts	0x027D, r22	; 0x80027d <systemTimeMs+0x4>
 8d6:	70 93 7e 02 	sts	0x027E, r23	; 0x80027e <systemTimeMs+0x5>
 8da:	80 93 7f 02 	sts	0x027F, r24	; 0x80027f <systemTimeMs+0x6>
 8de:	90 93 80 02 	sts	0x0280, r25	; 0x800280 <systemTimeMs+0x7>

    if(matrixRunning)matrixWriteNextLine();
 8e2:	80 91 81 02 	lds	r24, 0x0281	; 0x800281 <matrixRunning>
 8e6:	81 11       	cpse	r24, r1
 8e8:	4f df       	rcall	.-354    	; 0x788 <matrixWriteNextLine>
}
 8ea:	ff 91       	pop	r31
 8ec:	ef 91       	pop	r30
 8ee:	bf 91       	pop	r27
 8f0:	af 91       	pop	r26
 8f2:	9f 91       	pop	r25
 8f4:	8f 91       	pop	r24
 8f6:	7f 91       	pop	r23
 8f8:	6f 91       	pop	r22
 8fa:	5f 91       	pop	r21
 8fc:	4f 91       	pop	r20
 8fe:	3f 91       	pop	r19
 900:	2f 91       	pop	r18
 902:	0f 90       	pop	r0
 904:	0b be       	out	0x3b, r0	; 59
 906:	0f 90       	pop	r0
 908:	0f be       	out	0x3f, r0	; 63
 90a:	0f 90       	pop	r0
 90c:	1f 90       	pop	r1
 90e:	18 95       	reti

00000910 <__adddi3_s8>:
 910:	00 24       	eor	r0, r0
 912:	a7 fd       	sbrc	r26, 7
 914:	00 94       	com	r0
 916:	2a 0f       	add	r18, r26
 918:	30 1d       	adc	r19, r0
 91a:	40 1d       	adc	r20, r0
 91c:	50 1d       	adc	r21, r0
 91e:	60 1d       	adc	r22, r0
 920:	70 1d       	adc	r23, r0
 922:	80 1d       	adc	r24, r0
 924:	90 1d       	adc	r25, r0
 926:	08 95       	ret

00000928 <vsnprintf>:
 928:	0f 93       	push	r16
 92a:	1f 93       	push	r17
 92c:	cf 93       	push	r28
 92e:	df 93       	push	r29
 930:	cd b7       	in	r28, 0x3d	; 61
 932:	de b7       	in	r29, 0x3e	; 62
 934:	2e 97       	sbiw	r28, 0x0e	; 14
 936:	0f b6       	in	r0, 0x3f	; 63
 938:	f8 94       	cli
 93a:	de bf       	out	0x3e, r29	; 62
 93c:	0f be       	out	0x3f, r0	; 63
 93e:	cd bf       	out	0x3d, r28	; 61
 940:	8c 01       	movw	r16, r24
 942:	fa 01       	movw	r30, r20
 944:	86 e0       	ldi	r24, 0x06	; 6
 946:	8c 83       	std	Y+4, r24	; 0x04
 948:	1a 83       	std	Y+2, r17	; 0x02
 94a:	09 83       	std	Y+1, r16	; 0x01
 94c:	77 ff       	sbrs	r23, 7
 94e:	02 c0       	rjmp	.+4      	; 0x954 <vsnprintf+0x2c>
 950:	60 e0       	ldi	r22, 0x00	; 0
 952:	70 e8       	ldi	r23, 0x80	; 128
 954:	cb 01       	movw	r24, r22
 956:	01 97       	sbiw	r24, 0x01	; 1
 958:	9e 83       	std	Y+6, r25	; 0x06
 95a:	8d 83       	std	Y+5, r24	; 0x05
 95c:	a9 01       	movw	r20, r18
 95e:	bf 01       	movw	r22, r30
 960:	ce 01       	movw	r24, r28
 962:	01 96       	adiw	r24, 0x01	; 1
 964:	19 d0       	rcall	.+50     	; 0x998 <vfprintf>
 966:	4d 81       	ldd	r20, Y+5	; 0x05
 968:	5e 81       	ldd	r21, Y+6	; 0x06
 96a:	57 fd       	sbrc	r21, 7
 96c:	0a c0       	rjmp	.+20     	; 0x982 <vsnprintf+0x5a>
 96e:	2f 81       	ldd	r18, Y+7	; 0x07
 970:	38 85       	ldd	r19, Y+8	; 0x08
 972:	42 17       	cp	r20, r18
 974:	53 07       	cpc	r21, r19
 976:	0c f4       	brge	.+2      	; 0x97a <vsnprintf+0x52>
 978:	9a 01       	movw	r18, r20
 97a:	f8 01       	movw	r30, r16
 97c:	e2 0f       	add	r30, r18
 97e:	f3 1f       	adc	r31, r19
 980:	10 82       	st	Z, r1
 982:	2e 96       	adiw	r28, 0x0e	; 14
 984:	0f b6       	in	r0, 0x3f	; 63
 986:	f8 94       	cli
 988:	de bf       	out	0x3e, r29	; 62
 98a:	0f be       	out	0x3f, r0	; 63
 98c:	cd bf       	out	0x3d, r28	; 61
 98e:	df 91       	pop	r29
 990:	cf 91       	pop	r28
 992:	1f 91       	pop	r17
 994:	0f 91       	pop	r16
 996:	08 95       	ret

00000998 <vfprintf>:
 998:	2f 92       	push	r2
 99a:	3f 92       	push	r3
 99c:	4f 92       	push	r4
 99e:	5f 92       	push	r5
 9a0:	6f 92       	push	r6
 9a2:	7f 92       	push	r7
 9a4:	8f 92       	push	r8
 9a6:	9f 92       	push	r9
 9a8:	af 92       	push	r10
 9aa:	bf 92       	push	r11
 9ac:	cf 92       	push	r12
 9ae:	df 92       	push	r13
 9b0:	ef 92       	push	r14
 9b2:	ff 92       	push	r15
 9b4:	0f 93       	push	r16
 9b6:	1f 93       	push	r17
 9b8:	cf 93       	push	r28
 9ba:	df 93       	push	r29
 9bc:	cd b7       	in	r28, 0x3d	; 61
 9be:	de b7       	in	r29, 0x3e	; 62
 9c0:	2b 97       	sbiw	r28, 0x0b	; 11
 9c2:	0f b6       	in	r0, 0x3f	; 63
 9c4:	f8 94       	cli
 9c6:	de bf       	out	0x3e, r29	; 62
 9c8:	0f be       	out	0x3f, r0	; 63
 9ca:	cd bf       	out	0x3d, r28	; 61
 9cc:	6c 01       	movw	r12, r24
 9ce:	7b 01       	movw	r14, r22
 9d0:	8a 01       	movw	r16, r20
 9d2:	fc 01       	movw	r30, r24
 9d4:	17 82       	std	Z+7, r1	; 0x07
 9d6:	16 82       	std	Z+6, r1	; 0x06
 9d8:	83 81       	ldd	r24, Z+3	; 0x03
 9da:	81 ff       	sbrs	r24, 1
 9dc:	bf c1       	rjmp	.+894    	; 0xd5c <vfprintf+0x3c4>
 9de:	ce 01       	movw	r24, r28
 9e0:	01 96       	adiw	r24, 0x01	; 1
 9e2:	3c 01       	movw	r6, r24
 9e4:	f6 01       	movw	r30, r12
 9e6:	93 81       	ldd	r25, Z+3	; 0x03
 9e8:	f7 01       	movw	r30, r14
 9ea:	93 fd       	sbrc	r25, 3
 9ec:	85 91       	lpm	r24, Z+
 9ee:	93 ff       	sbrs	r25, 3
 9f0:	81 91       	ld	r24, Z+
 9f2:	7f 01       	movw	r14, r30
 9f4:	88 23       	and	r24, r24
 9f6:	09 f4       	brne	.+2      	; 0x9fa <vfprintf+0x62>
 9f8:	ad c1       	rjmp	.+858    	; 0xd54 <vfprintf+0x3bc>
 9fa:	85 32       	cpi	r24, 0x25	; 37
 9fc:	39 f4       	brne	.+14     	; 0xa0c <vfprintf+0x74>
 9fe:	93 fd       	sbrc	r25, 3
 a00:	85 91       	lpm	r24, Z+
 a02:	93 ff       	sbrs	r25, 3
 a04:	81 91       	ld	r24, Z+
 a06:	7f 01       	movw	r14, r30
 a08:	85 32       	cpi	r24, 0x25	; 37
 a0a:	21 f4       	brne	.+8      	; 0xa14 <vfprintf+0x7c>
 a0c:	b6 01       	movw	r22, r12
 a0e:	90 e0       	ldi	r25, 0x00	; 0
 a10:	d6 d1       	rcall	.+940    	; 0xdbe <fputc>
 a12:	e8 cf       	rjmp	.-48     	; 0x9e4 <vfprintf+0x4c>
 a14:	91 2c       	mov	r9, r1
 a16:	21 2c       	mov	r2, r1
 a18:	31 2c       	mov	r3, r1
 a1a:	ff e1       	ldi	r31, 0x1F	; 31
 a1c:	f3 15       	cp	r31, r3
 a1e:	d8 f0       	brcs	.+54     	; 0xa56 <vfprintf+0xbe>
 a20:	8b 32       	cpi	r24, 0x2B	; 43
 a22:	79 f0       	breq	.+30     	; 0xa42 <vfprintf+0xaa>
 a24:	38 f4       	brcc	.+14     	; 0xa34 <vfprintf+0x9c>
 a26:	80 32       	cpi	r24, 0x20	; 32
 a28:	79 f0       	breq	.+30     	; 0xa48 <vfprintf+0xb0>
 a2a:	83 32       	cpi	r24, 0x23	; 35
 a2c:	a1 f4       	brne	.+40     	; 0xa56 <vfprintf+0xbe>
 a2e:	23 2d       	mov	r18, r3
 a30:	20 61       	ori	r18, 0x10	; 16
 a32:	1d c0       	rjmp	.+58     	; 0xa6e <vfprintf+0xd6>
 a34:	8d 32       	cpi	r24, 0x2D	; 45
 a36:	61 f0       	breq	.+24     	; 0xa50 <vfprintf+0xb8>
 a38:	80 33       	cpi	r24, 0x30	; 48
 a3a:	69 f4       	brne	.+26     	; 0xa56 <vfprintf+0xbe>
 a3c:	23 2d       	mov	r18, r3
 a3e:	21 60       	ori	r18, 0x01	; 1
 a40:	16 c0       	rjmp	.+44     	; 0xa6e <vfprintf+0xd6>
 a42:	83 2d       	mov	r24, r3
 a44:	82 60       	ori	r24, 0x02	; 2
 a46:	38 2e       	mov	r3, r24
 a48:	e3 2d       	mov	r30, r3
 a4a:	e4 60       	ori	r30, 0x04	; 4
 a4c:	3e 2e       	mov	r3, r30
 a4e:	2a c0       	rjmp	.+84     	; 0xaa4 <vfprintf+0x10c>
 a50:	f3 2d       	mov	r31, r3
 a52:	f8 60       	ori	r31, 0x08	; 8
 a54:	1d c0       	rjmp	.+58     	; 0xa90 <vfprintf+0xf8>
 a56:	37 fc       	sbrc	r3, 7
 a58:	2d c0       	rjmp	.+90     	; 0xab4 <vfprintf+0x11c>
 a5a:	20 ed       	ldi	r18, 0xD0	; 208
 a5c:	28 0f       	add	r18, r24
 a5e:	2a 30       	cpi	r18, 0x0A	; 10
 a60:	40 f0       	brcs	.+16     	; 0xa72 <vfprintf+0xda>
 a62:	8e 32       	cpi	r24, 0x2E	; 46
 a64:	b9 f4       	brne	.+46     	; 0xa94 <vfprintf+0xfc>
 a66:	36 fc       	sbrc	r3, 6
 a68:	75 c1       	rjmp	.+746    	; 0xd54 <vfprintf+0x3bc>
 a6a:	23 2d       	mov	r18, r3
 a6c:	20 64       	ori	r18, 0x40	; 64
 a6e:	32 2e       	mov	r3, r18
 a70:	19 c0       	rjmp	.+50     	; 0xaa4 <vfprintf+0x10c>
 a72:	36 fe       	sbrs	r3, 6
 a74:	06 c0       	rjmp	.+12     	; 0xa82 <vfprintf+0xea>
 a76:	8a e0       	ldi	r24, 0x0A	; 10
 a78:	98 9e       	mul	r9, r24
 a7a:	20 0d       	add	r18, r0
 a7c:	11 24       	eor	r1, r1
 a7e:	92 2e       	mov	r9, r18
 a80:	11 c0       	rjmp	.+34     	; 0xaa4 <vfprintf+0x10c>
 a82:	ea e0       	ldi	r30, 0x0A	; 10
 a84:	2e 9e       	mul	r2, r30
 a86:	20 0d       	add	r18, r0
 a88:	11 24       	eor	r1, r1
 a8a:	22 2e       	mov	r2, r18
 a8c:	f3 2d       	mov	r31, r3
 a8e:	f0 62       	ori	r31, 0x20	; 32
 a90:	3f 2e       	mov	r3, r31
 a92:	08 c0       	rjmp	.+16     	; 0xaa4 <vfprintf+0x10c>
 a94:	8c 36       	cpi	r24, 0x6C	; 108
 a96:	21 f4       	brne	.+8      	; 0xaa0 <vfprintf+0x108>
 a98:	83 2d       	mov	r24, r3
 a9a:	80 68       	ori	r24, 0x80	; 128
 a9c:	38 2e       	mov	r3, r24
 a9e:	02 c0       	rjmp	.+4      	; 0xaa4 <vfprintf+0x10c>
 aa0:	88 36       	cpi	r24, 0x68	; 104
 aa2:	41 f4       	brne	.+16     	; 0xab4 <vfprintf+0x11c>
 aa4:	f7 01       	movw	r30, r14
 aa6:	93 fd       	sbrc	r25, 3
 aa8:	85 91       	lpm	r24, Z+
 aaa:	93 ff       	sbrs	r25, 3
 aac:	81 91       	ld	r24, Z+
 aae:	7f 01       	movw	r14, r30
 ab0:	81 11       	cpse	r24, r1
 ab2:	b3 cf       	rjmp	.-154    	; 0xa1a <vfprintf+0x82>
 ab4:	98 2f       	mov	r25, r24
 ab6:	9f 7d       	andi	r25, 0xDF	; 223
 ab8:	95 54       	subi	r25, 0x45	; 69
 aba:	93 30       	cpi	r25, 0x03	; 3
 abc:	28 f4       	brcc	.+10     	; 0xac8 <vfprintf+0x130>
 abe:	0c 5f       	subi	r16, 0xFC	; 252
 ac0:	1f 4f       	sbci	r17, 0xFF	; 255
 ac2:	9f e3       	ldi	r25, 0x3F	; 63
 ac4:	99 83       	std	Y+1, r25	; 0x01
 ac6:	0d c0       	rjmp	.+26     	; 0xae2 <vfprintf+0x14a>
 ac8:	83 36       	cpi	r24, 0x63	; 99
 aca:	31 f0       	breq	.+12     	; 0xad8 <vfprintf+0x140>
 acc:	83 37       	cpi	r24, 0x73	; 115
 ace:	71 f0       	breq	.+28     	; 0xaec <vfprintf+0x154>
 ad0:	83 35       	cpi	r24, 0x53	; 83
 ad2:	09 f0       	breq	.+2      	; 0xad6 <vfprintf+0x13e>
 ad4:	55 c0       	rjmp	.+170    	; 0xb80 <vfprintf+0x1e8>
 ad6:	20 c0       	rjmp	.+64     	; 0xb18 <vfprintf+0x180>
 ad8:	f8 01       	movw	r30, r16
 ada:	80 81       	ld	r24, Z
 adc:	89 83       	std	Y+1, r24	; 0x01
 ade:	0e 5f       	subi	r16, 0xFE	; 254
 ae0:	1f 4f       	sbci	r17, 0xFF	; 255
 ae2:	88 24       	eor	r8, r8
 ae4:	83 94       	inc	r8
 ae6:	91 2c       	mov	r9, r1
 ae8:	53 01       	movw	r10, r6
 aea:	12 c0       	rjmp	.+36     	; 0xb10 <vfprintf+0x178>
 aec:	28 01       	movw	r4, r16
 aee:	f2 e0       	ldi	r31, 0x02	; 2
 af0:	4f 0e       	add	r4, r31
 af2:	51 1c       	adc	r5, r1
 af4:	f8 01       	movw	r30, r16
 af6:	a0 80       	ld	r10, Z
 af8:	b1 80       	ldd	r11, Z+1	; 0x01
 afa:	36 fe       	sbrs	r3, 6
 afc:	03 c0       	rjmp	.+6      	; 0xb04 <vfprintf+0x16c>
 afe:	69 2d       	mov	r22, r9
 b00:	70 e0       	ldi	r23, 0x00	; 0
 b02:	02 c0       	rjmp	.+4      	; 0xb08 <vfprintf+0x170>
 b04:	6f ef       	ldi	r22, 0xFF	; 255
 b06:	7f ef       	ldi	r23, 0xFF	; 255
 b08:	c5 01       	movw	r24, r10
 b0a:	4e d1       	rcall	.+668    	; 0xda8 <strnlen>
 b0c:	4c 01       	movw	r8, r24
 b0e:	82 01       	movw	r16, r4
 b10:	f3 2d       	mov	r31, r3
 b12:	ff 77       	andi	r31, 0x7F	; 127
 b14:	3f 2e       	mov	r3, r31
 b16:	15 c0       	rjmp	.+42     	; 0xb42 <vfprintf+0x1aa>
 b18:	28 01       	movw	r4, r16
 b1a:	22 e0       	ldi	r18, 0x02	; 2
 b1c:	42 0e       	add	r4, r18
 b1e:	51 1c       	adc	r5, r1
 b20:	f8 01       	movw	r30, r16
 b22:	a0 80       	ld	r10, Z
 b24:	b1 80       	ldd	r11, Z+1	; 0x01
 b26:	36 fe       	sbrs	r3, 6
 b28:	03 c0       	rjmp	.+6      	; 0xb30 <vfprintf+0x198>
 b2a:	69 2d       	mov	r22, r9
 b2c:	70 e0       	ldi	r23, 0x00	; 0
 b2e:	02 c0       	rjmp	.+4      	; 0xb34 <vfprintf+0x19c>
 b30:	6f ef       	ldi	r22, 0xFF	; 255
 b32:	7f ef       	ldi	r23, 0xFF	; 255
 b34:	c5 01       	movw	r24, r10
 b36:	2d d1       	rcall	.+602    	; 0xd92 <strnlen_P>
 b38:	4c 01       	movw	r8, r24
 b3a:	f3 2d       	mov	r31, r3
 b3c:	f0 68       	ori	r31, 0x80	; 128
 b3e:	3f 2e       	mov	r3, r31
 b40:	82 01       	movw	r16, r4
 b42:	33 fc       	sbrc	r3, 3
 b44:	19 c0       	rjmp	.+50     	; 0xb78 <vfprintf+0x1e0>
 b46:	82 2d       	mov	r24, r2
 b48:	90 e0       	ldi	r25, 0x00	; 0
 b4a:	88 16       	cp	r8, r24
 b4c:	99 06       	cpc	r9, r25
 b4e:	a0 f4       	brcc	.+40     	; 0xb78 <vfprintf+0x1e0>
 b50:	b6 01       	movw	r22, r12
 b52:	80 e2       	ldi	r24, 0x20	; 32
 b54:	90 e0       	ldi	r25, 0x00	; 0
 b56:	33 d1       	rcall	.+614    	; 0xdbe <fputc>
 b58:	2a 94       	dec	r2
 b5a:	f5 cf       	rjmp	.-22     	; 0xb46 <vfprintf+0x1ae>
 b5c:	f5 01       	movw	r30, r10
 b5e:	37 fc       	sbrc	r3, 7
 b60:	85 91       	lpm	r24, Z+
 b62:	37 fe       	sbrs	r3, 7
 b64:	81 91       	ld	r24, Z+
 b66:	5f 01       	movw	r10, r30
 b68:	b6 01       	movw	r22, r12
 b6a:	90 e0       	ldi	r25, 0x00	; 0
 b6c:	28 d1       	rcall	.+592    	; 0xdbe <fputc>
 b6e:	21 10       	cpse	r2, r1
 b70:	2a 94       	dec	r2
 b72:	21 e0       	ldi	r18, 0x01	; 1
 b74:	82 1a       	sub	r8, r18
 b76:	91 08       	sbc	r9, r1
 b78:	81 14       	cp	r8, r1
 b7a:	91 04       	cpc	r9, r1
 b7c:	79 f7       	brne	.-34     	; 0xb5c <vfprintf+0x1c4>
 b7e:	e1 c0       	rjmp	.+450    	; 0xd42 <vfprintf+0x3aa>
 b80:	84 36       	cpi	r24, 0x64	; 100
 b82:	11 f0       	breq	.+4      	; 0xb88 <vfprintf+0x1f0>
 b84:	89 36       	cpi	r24, 0x69	; 105
 b86:	39 f5       	brne	.+78     	; 0xbd6 <vfprintf+0x23e>
 b88:	f8 01       	movw	r30, r16
 b8a:	37 fe       	sbrs	r3, 7
 b8c:	07 c0       	rjmp	.+14     	; 0xb9c <vfprintf+0x204>
 b8e:	60 81       	ld	r22, Z
 b90:	71 81       	ldd	r23, Z+1	; 0x01
 b92:	82 81       	ldd	r24, Z+2	; 0x02
 b94:	93 81       	ldd	r25, Z+3	; 0x03
 b96:	0c 5f       	subi	r16, 0xFC	; 252
 b98:	1f 4f       	sbci	r17, 0xFF	; 255
 b9a:	08 c0       	rjmp	.+16     	; 0xbac <vfprintf+0x214>
 b9c:	60 81       	ld	r22, Z
 b9e:	71 81       	ldd	r23, Z+1	; 0x01
 ba0:	07 2e       	mov	r0, r23
 ba2:	00 0c       	add	r0, r0
 ba4:	88 0b       	sbc	r24, r24
 ba6:	99 0b       	sbc	r25, r25
 ba8:	0e 5f       	subi	r16, 0xFE	; 254
 baa:	1f 4f       	sbci	r17, 0xFF	; 255
 bac:	f3 2d       	mov	r31, r3
 bae:	ff 76       	andi	r31, 0x6F	; 111
 bb0:	3f 2e       	mov	r3, r31
 bb2:	97 ff       	sbrs	r25, 7
 bb4:	09 c0       	rjmp	.+18     	; 0xbc8 <vfprintf+0x230>
 bb6:	90 95       	com	r25
 bb8:	80 95       	com	r24
 bba:	70 95       	com	r23
 bbc:	61 95       	neg	r22
 bbe:	7f 4f       	sbci	r23, 0xFF	; 255
 bc0:	8f 4f       	sbci	r24, 0xFF	; 255
 bc2:	9f 4f       	sbci	r25, 0xFF	; 255
 bc4:	f0 68       	ori	r31, 0x80	; 128
 bc6:	3f 2e       	mov	r3, r31
 bc8:	2a e0       	ldi	r18, 0x0A	; 10
 bca:	30 e0       	ldi	r19, 0x00	; 0
 bcc:	a3 01       	movw	r20, r6
 bce:	33 d1       	rcall	.+614    	; 0xe36 <__ultoa_invert>
 bd0:	88 2e       	mov	r8, r24
 bd2:	86 18       	sub	r8, r6
 bd4:	44 c0       	rjmp	.+136    	; 0xc5e <vfprintf+0x2c6>
 bd6:	85 37       	cpi	r24, 0x75	; 117
 bd8:	31 f4       	brne	.+12     	; 0xbe6 <vfprintf+0x24e>
 bda:	23 2d       	mov	r18, r3
 bdc:	2f 7e       	andi	r18, 0xEF	; 239
 bde:	b2 2e       	mov	r11, r18
 be0:	2a e0       	ldi	r18, 0x0A	; 10
 be2:	30 e0       	ldi	r19, 0x00	; 0
 be4:	25 c0       	rjmp	.+74     	; 0xc30 <vfprintf+0x298>
 be6:	93 2d       	mov	r25, r3
 be8:	99 7f       	andi	r25, 0xF9	; 249
 bea:	b9 2e       	mov	r11, r25
 bec:	8f 36       	cpi	r24, 0x6F	; 111
 bee:	c1 f0       	breq	.+48     	; 0xc20 <vfprintf+0x288>
 bf0:	18 f4       	brcc	.+6      	; 0xbf8 <vfprintf+0x260>
 bf2:	88 35       	cpi	r24, 0x58	; 88
 bf4:	79 f0       	breq	.+30     	; 0xc14 <vfprintf+0x27c>
 bf6:	ae c0       	rjmp	.+348    	; 0xd54 <vfprintf+0x3bc>
 bf8:	80 37       	cpi	r24, 0x70	; 112
 bfa:	19 f0       	breq	.+6      	; 0xc02 <vfprintf+0x26a>
 bfc:	88 37       	cpi	r24, 0x78	; 120
 bfe:	21 f0       	breq	.+8      	; 0xc08 <vfprintf+0x270>
 c00:	a9 c0       	rjmp	.+338    	; 0xd54 <vfprintf+0x3bc>
 c02:	e9 2f       	mov	r30, r25
 c04:	e0 61       	ori	r30, 0x10	; 16
 c06:	be 2e       	mov	r11, r30
 c08:	b4 fe       	sbrs	r11, 4
 c0a:	0d c0       	rjmp	.+26     	; 0xc26 <vfprintf+0x28e>
 c0c:	fb 2d       	mov	r31, r11
 c0e:	f4 60       	ori	r31, 0x04	; 4
 c10:	bf 2e       	mov	r11, r31
 c12:	09 c0       	rjmp	.+18     	; 0xc26 <vfprintf+0x28e>
 c14:	34 fe       	sbrs	r3, 4
 c16:	0a c0       	rjmp	.+20     	; 0xc2c <vfprintf+0x294>
 c18:	29 2f       	mov	r18, r25
 c1a:	26 60       	ori	r18, 0x06	; 6
 c1c:	b2 2e       	mov	r11, r18
 c1e:	06 c0       	rjmp	.+12     	; 0xc2c <vfprintf+0x294>
 c20:	28 e0       	ldi	r18, 0x08	; 8
 c22:	30 e0       	ldi	r19, 0x00	; 0
 c24:	05 c0       	rjmp	.+10     	; 0xc30 <vfprintf+0x298>
 c26:	20 e1       	ldi	r18, 0x10	; 16
 c28:	30 e0       	ldi	r19, 0x00	; 0
 c2a:	02 c0       	rjmp	.+4      	; 0xc30 <vfprintf+0x298>
 c2c:	20 e1       	ldi	r18, 0x10	; 16
 c2e:	32 e0       	ldi	r19, 0x02	; 2
 c30:	f8 01       	movw	r30, r16
 c32:	b7 fe       	sbrs	r11, 7
 c34:	07 c0       	rjmp	.+14     	; 0xc44 <vfprintf+0x2ac>
 c36:	60 81       	ld	r22, Z
 c38:	71 81       	ldd	r23, Z+1	; 0x01
 c3a:	82 81       	ldd	r24, Z+2	; 0x02
 c3c:	93 81       	ldd	r25, Z+3	; 0x03
 c3e:	0c 5f       	subi	r16, 0xFC	; 252
 c40:	1f 4f       	sbci	r17, 0xFF	; 255
 c42:	06 c0       	rjmp	.+12     	; 0xc50 <vfprintf+0x2b8>
 c44:	60 81       	ld	r22, Z
 c46:	71 81       	ldd	r23, Z+1	; 0x01
 c48:	80 e0       	ldi	r24, 0x00	; 0
 c4a:	90 e0       	ldi	r25, 0x00	; 0
 c4c:	0e 5f       	subi	r16, 0xFE	; 254
 c4e:	1f 4f       	sbci	r17, 0xFF	; 255
 c50:	a3 01       	movw	r20, r6
 c52:	f1 d0       	rcall	.+482    	; 0xe36 <__ultoa_invert>
 c54:	88 2e       	mov	r8, r24
 c56:	86 18       	sub	r8, r6
 c58:	fb 2d       	mov	r31, r11
 c5a:	ff 77       	andi	r31, 0x7F	; 127
 c5c:	3f 2e       	mov	r3, r31
 c5e:	36 fe       	sbrs	r3, 6
 c60:	0d c0       	rjmp	.+26     	; 0xc7c <vfprintf+0x2e4>
 c62:	23 2d       	mov	r18, r3
 c64:	2e 7f       	andi	r18, 0xFE	; 254
 c66:	a2 2e       	mov	r10, r18
 c68:	89 14       	cp	r8, r9
 c6a:	58 f4       	brcc	.+22     	; 0xc82 <vfprintf+0x2ea>
 c6c:	34 fe       	sbrs	r3, 4
 c6e:	0b c0       	rjmp	.+22     	; 0xc86 <vfprintf+0x2ee>
 c70:	32 fc       	sbrc	r3, 2
 c72:	09 c0       	rjmp	.+18     	; 0xc86 <vfprintf+0x2ee>
 c74:	83 2d       	mov	r24, r3
 c76:	8e 7e       	andi	r24, 0xEE	; 238
 c78:	a8 2e       	mov	r10, r24
 c7a:	05 c0       	rjmp	.+10     	; 0xc86 <vfprintf+0x2ee>
 c7c:	b8 2c       	mov	r11, r8
 c7e:	a3 2c       	mov	r10, r3
 c80:	03 c0       	rjmp	.+6      	; 0xc88 <vfprintf+0x2f0>
 c82:	b8 2c       	mov	r11, r8
 c84:	01 c0       	rjmp	.+2      	; 0xc88 <vfprintf+0x2f0>
 c86:	b9 2c       	mov	r11, r9
 c88:	a4 fe       	sbrs	r10, 4
 c8a:	0f c0       	rjmp	.+30     	; 0xcaa <vfprintf+0x312>
 c8c:	fe 01       	movw	r30, r28
 c8e:	e8 0d       	add	r30, r8
 c90:	f1 1d       	adc	r31, r1
 c92:	80 81       	ld	r24, Z
 c94:	80 33       	cpi	r24, 0x30	; 48
 c96:	21 f4       	brne	.+8      	; 0xca0 <vfprintf+0x308>
 c98:	9a 2d       	mov	r25, r10
 c9a:	99 7e       	andi	r25, 0xE9	; 233
 c9c:	a9 2e       	mov	r10, r25
 c9e:	09 c0       	rjmp	.+18     	; 0xcb2 <vfprintf+0x31a>
 ca0:	a2 fe       	sbrs	r10, 2
 ca2:	06 c0       	rjmp	.+12     	; 0xcb0 <vfprintf+0x318>
 ca4:	b3 94       	inc	r11
 ca6:	b3 94       	inc	r11
 ca8:	04 c0       	rjmp	.+8      	; 0xcb2 <vfprintf+0x31a>
 caa:	8a 2d       	mov	r24, r10
 cac:	86 78       	andi	r24, 0x86	; 134
 cae:	09 f0       	breq	.+2      	; 0xcb2 <vfprintf+0x31a>
 cb0:	b3 94       	inc	r11
 cb2:	a3 fc       	sbrc	r10, 3
 cb4:	10 c0       	rjmp	.+32     	; 0xcd6 <vfprintf+0x33e>
 cb6:	a0 fe       	sbrs	r10, 0
 cb8:	06 c0       	rjmp	.+12     	; 0xcc6 <vfprintf+0x32e>
 cba:	b2 14       	cp	r11, r2
 cbc:	80 f4       	brcc	.+32     	; 0xcde <vfprintf+0x346>
 cbe:	28 0c       	add	r2, r8
 cc0:	92 2c       	mov	r9, r2
 cc2:	9b 18       	sub	r9, r11
 cc4:	0d c0       	rjmp	.+26     	; 0xce0 <vfprintf+0x348>
 cc6:	b2 14       	cp	r11, r2
 cc8:	58 f4       	brcc	.+22     	; 0xce0 <vfprintf+0x348>
 cca:	b6 01       	movw	r22, r12
 ccc:	80 e2       	ldi	r24, 0x20	; 32
 cce:	90 e0       	ldi	r25, 0x00	; 0
 cd0:	76 d0       	rcall	.+236    	; 0xdbe <fputc>
 cd2:	b3 94       	inc	r11
 cd4:	f8 cf       	rjmp	.-16     	; 0xcc6 <vfprintf+0x32e>
 cd6:	b2 14       	cp	r11, r2
 cd8:	18 f4       	brcc	.+6      	; 0xce0 <vfprintf+0x348>
 cda:	2b 18       	sub	r2, r11
 cdc:	02 c0       	rjmp	.+4      	; 0xce2 <vfprintf+0x34a>
 cde:	98 2c       	mov	r9, r8
 ce0:	21 2c       	mov	r2, r1
 ce2:	a4 fe       	sbrs	r10, 4
 ce4:	0f c0       	rjmp	.+30     	; 0xd04 <vfprintf+0x36c>
 ce6:	b6 01       	movw	r22, r12
 ce8:	80 e3       	ldi	r24, 0x30	; 48
 cea:	90 e0       	ldi	r25, 0x00	; 0
 cec:	68 d0       	rcall	.+208    	; 0xdbe <fputc>
 cee:	a2 fe       	sbrs	r10, 2
 cf0:	16 c0       	rjmp	.+44     	; 0xd1e <vfprintf+0x386>
 cf2:	a1 fc       	sbrc	r10, 1
 cf4:	03 c0       	rjmp	.+6      	; 0xcfc <vfprintf+0x364>
 cf6:	88 e7       	ldi	r24, 0x78	; 120
 cf8:	90 e0       	ldi	r25, 0x00	; 0
 cfa:	02 c0       	rjmp	.+4      	; 0xd00 <vfprintf+0x368>
 cfc:	88 e5       	ldi	r24, 0x58	; 88
 cfe:	90 e0       	ldi	r25, 0x00	; 0
 d00:	b6 01       	movw	r22, r12
 d02:	0c c0       	rjmp	.+24     	; 0xd1c <vfprintf+0x384>
 d04:	8a 2d       	mov	r24, r10
 d06:	86 78       	andi	r24, 0x86	; 134
 d08:	51 f0       	breq	.+20     	; 0xd1e <vfprintf+0x386>
 d0a:	a1 fe       	sbrs	r10, 1
 d0c:	02 c0       	rjmp	.+4      	; 0xd12 <vfprintf+0x37a>
 d0e:	8b e2       	ldi	r24, 0x2B	; 43
 d10:	01 c0       	rjmp	.+2      	; 0xd14 <vfprintf+0x37c>
 d12:	80 e2       	ldi	r24, 0x20	; 32
 d14:	a7 fc       	sbrc	r10, 7
 d16:	8d e2       	ldi	r24, 0x2D	; 45
 d18:	b6 01       	movw	r22, r12
 d1a:	90 e0       	ldi	r25, 0x00	; 0
 d1c:	50 d0       	rcall	.+160    	; 0xdbe <fputc>
 d1e:	89 14       	cp	r8, r9
 d20:	30 f4       	brcc	.+12     	; 0xd2e <vfprintf+0x396>
 d22:	b6 01       	movw	r22, r12
 d24:	80 e3       	ldi	r24, 0x30	; 48
 d26:	90 e0       	ldi	r25, 0x00	; 0
 d28:	4a d0       	rcall	.+148    	; 0xdbe <fputc>
 d2a:	9a 94       	dec	r9
 d2c:	f8 cf       	rjmp	.-16     	; 0xd1e <vfprintf+0x386>
 d2e:	8a 94       	dec	r8
 d30:	f3 01       	movw	r30, r6
 d32:	e8 0d       	add	r30, r8
 d34:	f1 1d       	adc	r31, r1
 d36:	80 81       	ld	r24, Z
 d38:	b6 01       	movw	r22, r12
 d3a:	90 e0       	ldi	r25, 0x00	; 0
 d3c:	40 d0       	rcall	.+128    	; 0xdbe <fputc>
 d3e:	81 10       	cpse	r8, r1
 d40:	f6 cf       	rjmp	.-20     	; 0xd2e <vfprintf+0x396>
 d42:	22 20       	and	r2, r2
 d44:	09 f4       	brne	.+2      	; 0xd48 <vfprintf+0x3b0>
 d46:	4e ce       	rjmp	.-868    	; 0x9e4 <vfprintf+0x4c>
 d48:	b6 01       	movw	r22, r12
 d4a:	80 e2       	ldi	r24, 0x20	; 32
 d4c:	90 e0       	ldi	r25, 0x00	; 0
 d4e:	37 d0       	rcall	.+110    	; 0xdbe <fputc>
 d50:	2a 94       	dec	r2
 d52:	f7 cf       	rjmp	.-18     	; 0xd42 <vfprintf+0x3aa>
 d54:	f6 01       	movw	r30, r12
 d56:	86 81       	ldd	r24, Z+6	; 0x06
 d58:	97 81       	ldd	r25, Z+7	; 0x07
 d5a:	02 c0       	rjmp	.+4      	; 0xd60 <vfprintf+0x3c8>
 d5c:	8f ef       	ldi	r24, 0xFF	; 255
 d5e:	9f ef       	ldi	r25, 0xFF	; 255
 d60:	2b 96       	adiw	r28, 0x0b	; 11
 d62:	0f b6       	in	r0, 0x3f	; 63
 d64:	f8 94       	cli
 d66:	de bf       	out	0x3e, r29	; 62
 d68:	0f be       	out	0x3f, r0	; 63
 d6a:	cd bf       	out	0x3d, r28	; 61
 d6c:	df 91       	pop	r29
 d6e:	cf 91       	pop	r28
 d70:	1f 91       	pop	r17
 d72:	0f 91       	pop	r16
 d74:	ff 90       	pop	r15
 d76:	ef 90       	pop	r14
 d78:	df 90       	pop	r13
 d7a:	cf 90       	pop	r12
 d7c:	bf 90       	pop	r11
 d7e:	af 90       	pop	r10
 d80:	9f 90       	pop	r9
 d82:	8f 90       	pop	r8
 d84:	7f 90       	pop	r7
 d86:	6f 90       	pop	r6
 d88:	5f 90       	pop	r5
 d8a:	4f 90       	pop	r4
 d8c:	3f 90       	pop	r3
 d8e:	2f 90       	pop	r2
 d90:	08 95       	ret

00000d92 <strnlen_P>:
 d92:	fc 01       	movw	r30, r24
 d94:	05 90       	lpm	r0, Z+
 d96:	61 50       	subi	r22, 0x01	; 1
 d98:	70 40       	sbci	r23, 0x00	; 0
 d9a:	01 10       	cpse	r0, r1
 d9c:	d8 f7       	brcc	.-10     	; 0xd94 <strnlen_P+0x2>
 d9e:	80 95       	com	r24
 da0:	90 95       	com	r25
 da2:	8e 0f       	add	r24, r30
 da4:	9f 1f       	adc	r25, r31
 da6:	08 95       	ret

00000da8 <strnlen>:
 da8:	fc 01       	movw	r30, r24
 daa:	61 50       	subi	r22, 0x01	; 1
 dac:	70 40       	sbci	r23, 0x00	; 0
 dae:	01 90       	ld	r0, Z+
 db0:	01 10       	cpse	r0, r1
 db2:	d8 f7       	brcc	.-10     	; 0xdaa <strnlen+0x2>
 db4:	80 95       	com	r24
 db6:	90 95       	com	r25
 db8:	8e 0f       	add	r24, r30
 dba:	9f 1f       	adc	r25, r31
 dbc:	08 95       	ret

00000dbe <fputc>:
 dbe:	0f 93       	push	r16
 dc0:	1f 93       	push	r17
 dc2:	cf 93       	push	r28
 dc4:	df 93       	push	r29
 dc6:	fb 01       	movw	r30, r22
 dc8:	23 81       	ldd	r18, Z+3	; 0x03
 dca:	21 fd       	sbrc	r18, 1
 dcc:	03 c0       	rjmp	.+6      	; 0xdd4 <fputc+0x16>
 dce:	8f ef       	ldi	r24, 0xFF	; 255
 dd0:	9f ef       	ldi	r25, 0xFF	; 255
 dd2:	2c c0       	rjmp	.+88     	; 0xe2c <fputc+0x6e>
 dd4:	22 ff       	sbrs	r18, 2
 dd6:	16 c0       	rjmp	.+44     	; 0xe04 <fputc+0x46>
 dd8:	46 81       	ldd	r20, Z+6	; 0x06
 dda:	57 81       	ldd	r21, Z+7	; 0x07
 ddc:	24 81       	ldd	r18, Z+4	; 0x04
 dde:	35 81       	ldd	r19, Z+5	; 0x05
 de0:	42 17       	cp	r20, r18
 de2:	53 07       	cpc	r21, r19
 de4:	44 f4       	brge	.+16     	; 0xdf6 <fputc+0x38>
 de6:	a0 81       	ld	r26, Z
 de8:	b1 81       	ldd	r27, Z+1	; 0x01
 dea:	9d 01       	movw	r18, r26
 dec:	2f 5f       	subi	r18, 0xFF	; 255
 dee:	3f 4f       	sbci	r19, 0xFF	; 255
 df0:	31 83       	std	Z+1, r19	; 0x01
 df2:	20 83       	st	Z, r18
 df4:	8c 93       	st	X, r24
 df6:	26 81       	ldd	r18, Z+6	; 0x06
 df8:	37 81       	ldd	r19, Z+7	; 0x07
 dfa:	2f 5f       	subi	r18, 0xFF	; 255
 dfc:	3f 4f       	sbci	r19, 0xFF	; 255
 dfe:	37 83       	std	Z+7, r19	; 0x07
 e00:	26 83       	std	Z+6, r18	; 0x06
 e02:	14 c0       	rjmp	.+40     	; 0xe2c <fputc+0x6e>
 e04:	8b 01       	movw	r16, r22
 e06:	ec 01       	movw	r28, r24
 e08:	fb 01       	movw	r30, r22
 e0a:	00 84       	ldd	r0, Z+8	; 0x08
 e0c:	f1 85       	ldd	r31, Z+9	; 0x09
 e0e:	e0 2d       	mov	r30, r0
 e10:	19 95       	eicall
 e12:	89 2b       	or	r24, r25
 e14:	e1 f6       	brne	.-72     	; 0xdce <fputc+0x10>
 e16:	d8 01       	movw	r26, r16
 e18:	16 96       	adiw	r26, 0x06	; 6
 e1a:	8d 91       	ld	r24, X+
 e1c:	9c 91       	ld	r25, X
 e1e:	17 97       	sbiw	r26, 0x07	; 7
 e20:	01 96       	adiw	r24, 0x01	; 1
 e22:	17 96       	adiw	r26, 0x07	; 7
 e24:	9c 93       	st	X, r25
 e26:	8e 93       	st	-X, r24
 e28:	16 97       	sbiw	r26, 0x06	; 6
 e2a:	ce 01       	movw	r24, r28
 e2c:	df 91       	pop	r29
 e2e:	cf 91       	pop	r28
 e30:	1f 91       	pop	r17
 e32:	0f 91       	pop	r16
 e34:	08 95       	ret

00000e36 <__ultoa_invert>:
 e36:	fa 01       	movw	r30, r20
 e38:	aa 27       	eor	r26, r26
 e3a:	28 30       	cpi	r18, 0x08	; 8
 e3c:	51 f1       	breq	.+84     	; 0xe92 <__ultoa_invert+0x5c>
 e3e:	20 31       	cpi	r18, 0x10	; 16
 e40:	81 f1       	breq	.+96     	; 0xea2 <__ultoa_invert+0x6c>
 e42:	e8 94       	clt
 e44:	6f 93       	push	r22
 e46:	6e 7f       	andi	r22, 0xFE	; 254
 e48:	6e 5f       	subi	r22, 0xFE	; 254
 e4a:	7f 4f       	sbci	r23, 0xFF	; 255
 e4c:	8f 4f       	sbci	r24, 0xFF	; 255
 e4e:	9f 4f       	sbci	r25, 0xFF	; 255
 e50:	af 4f       	sbci	r26, 0xFF	; 255
 e52:	b1 e0       	ldi	r27, 0x01	; 1
 e54:	3e d0       	rcall	.+124    	; 0xed2 <__ultoa_invert+0x9c>
 e56:	b4 e0       	ldi	r27, 0x04	; 4
 e58:	3c d0       	rcall	.+120    	; 0xed2 <__ultoa_invert+0x9c>
 e5a:	67 0f       	add	r22, r23
 e5c:	78 1f       	adc	r23, r24
 e5e:	89 1f       	adc	r24, r25
 e60:	9a 1f       	adc	r25, r26
 e62:	a1 1d       	adc	r26, r1
 e64:	68 0f       	add	r22, r24
 e66:	79 1f       	adc	r23, r25
 e68:	8a 1f       	adc	r24, r26
 e6a:	91 1d       	adc	r25, r1
 e6c:	a1 1d       	adc	r26, r1
 e6e:	6a 0f       	add	r22, r26
 e70:	71 1d       	adc	r23, r1
 e72:	81 1d       	adc	r24, r1
 e74:	91 1d       	adc	r25, r1
 e76:	a1 1d       	adc	r26, r1
 e78:	20 d0       	rcall	.+64     	; 0xeba <__ultoa_invert+0x84>
 e7a:	09 f4       	brne	.+2      	; 0xe7e <__ultoa_invert+0x48>
 e7c:	68 94       	set
 e7e:	3f 91       	pop	r19
 e80:	2a e0       	ldi	r18, 0x0A	; 10
 e82:	26 9f       	mul	r18, r22
 e84:	11 24       	eor	r1, r1
 e86:	30 19       	sub	r19, r0
 e88:	30 5d       	subi	r19, 0xD0	; 208
 e8a:	31 93       	st	Z+, r19
 e8c:	de f6       	brtc	.-74     	; 0xe44 <__ultoa_invert+0xe>
 e8e:	cf 01       	movw	r24, r30
 e90:	08 95       	ret
 e92:	46 2f       	mov	r20, r22
 e94:	47 70       	andi	r20, 0x07	; 7
 e96:	40 5d       	subi	r20, 0xD0	; 208
 e98:	41 93       	st	Z+, r20
 e9a:	b3 e0       	ldi	r27, 0x03	; 3
 e9c:	0f d0       	rcall	.+30     	; 0xebc <__ultoa_invert+0x86>
 e9e:	c9 f7       	brne	.-14     	; 0xe92 <__ultoa_invert+0x5c>
 ea0:	f6 cf       	rjmp	.-20     	; 0xe8e <__ultoa_invert+0x58>
 ea2:	46 2f       	mov	r20, r22
 ea4:	4f 70       	andi	r20, 0x0F	; 15
 ea6:	40 5d       	subi	r20, 0xD0	; 208
 ea8:	4a 33       	cpi	r20, 0x3A	; 58
 eaa:	18 f0       	brcs	.+6      	; 0xeb2 <__ultoa_invert+0x7c>
 eac:	49 5d       	subi	r20, 0xD9	; 217
 eae:	31 fd       	sbrc	r19, 1
 eb0:	40 52       	subi	r20, 0x20	; 32
 eb2:	41 93       	st	Z+, r20
 eb4:	02 d0       	rcall	.+4      	; 0xeba <__ultoa_invert+0x84>
 eb6:	a9 f7       	brne	.-22     	; 0xea2 <__ultoa_invert+0x6c>
 eb8:	ea cf       	rjmp	.-44     	; 0xe8e <__ultoa_invert+0x58>
 eba:	b4 e0       	ldi	r27, 0x04	; 4
 ebc:	a6 95       	lsr	r26
 ebe:	97 95       	ror	r25
 ec0:	87 95       	ror	r24
 ec2:	77 95       	ror	r23
 ec4:	67 95       	ror	r22
 ec6:	ba 95       	dec	r27
 ec8:	c9 f7       	brne	.-14     	; 0xebc <__ultoa_invert+0x86>
 eca:	00 97       	sbiw	r24, 0x00	; 0
 ecc:	61 05       	cpc	r22, r1
 ece:	71 05       	cpc	r23, r1
 ed0:	08 95       	ret
 ed2:	9b 01       	movw	r18, r22
 ed4:	ac 01       	movw	r20, r24
 ed6:	0a 2e       	mov	r0, r26
 ed8:	06 94       	lsr	r0
 eda:	57 95       	ror	r21
 edc:	47 95       	ror	r20
 ede:	37 95       	ror	r19
 ee0:	27 95       	ror	r18
 ee2:	ba 95       	dec	r27
 ee4:	c9 f7       	brne	.-14     	; 0xed8 <__ultoa_invert+0xa2>
 ee6:	62 0f       	add	r22, r18
 ee8:	73 1f       	adc	r23, r19
 eea:	84 1f       	adc	r24, r20
 eec:	95 1f       	adc	r25, r21
 eee:	a0 1d       	adc	r26, r0
 ef0:	08 95       	ret

00000ef2 <_exit>:
 ef2:	f8 94       	cli

00000ef4 <__stop_program>:
 ef4:	ff cf       	rjmp	.-2      	; 0xef4 <__stop_program>
