
uCBoardBeispiele.elf:     file format elf32-avr

Sections:
Idx Name          Size      VMA       LMA       File off  Algn
  0 .data         00000074  00800200  00000dbe  00000e52  2**0
                  CONTENTS, ALLOC, LOAD, DATA
  1 .text         00000dbe  00000000  00000000  00000094  2**1
                  CONTENTS, ALLOC, LOAD, READONLY, CODE
  2 .bss          0000007e  00800274  00800274  00000ec6  2**0
                  ALLOC
  3 .comment      0000005c  00000000  00000000  00000ec6  2**0
                  CONTENTS, READONLY
  4 .note.gnu.avr.deviceinfo 00000040  00000000  00000000  00000f24  2**2
                  CONTENTS, READONLY
  5 .debug_aranges 000001e0  00000000  00000000  00000f64  2**0
                  CONTENTS, READONLY, DEBUGGING
  6 .debug_info   0000245a  00000000  00000000  00001144  2**0
                  CONTENTS, READONLY, DEBUGGING
  7 .debug_abbrev 00000f9d  00000000  00000000  0000359e  2**0
                  CONTENTS, READONLY, DEBUGGING
  8 .debug_line   0000141e  00000000  00000000  0000453b  2**0
                  CONTENTS, READONLY, DEBUGGING
  9 .debug_frame  00000668  00000000  00000000  0000595c  2**2
                  CONTENTS, READONLY, DEBUGGING
 10 .debug_str    00000d1e  00000000  00000000  00005fc4  2**0
                  CONTENTS, READONLY, DEBUGGING
 11 .debug_loc    00001c78  00000000  00000000  00006ce2  2**0
                  CONTENTS, READONLY, DEBUGGING
 12 .debug_ranges 00000210  00000000  00000000  0000895a  2**0
                  CONTENTS, READONLY, DEBUGGING

Disassembly of section .text:

00000000 <__vectors>:
   0:	71 c0       	rjmp	.+226    	; 0xe4 <__ctors_end>
   2:	00 00       	nop
   4:	8e c0       	rjmp	.+284    	; 0x122 <__bad_interrupt>
   6:	00 00       	nop
   8:	8c c0       	rjmp	.+280    	; 0x122 <__bad_interrupt>
   a:	00 00       	nop
   c:	8a c0       	rjmp	.+276    	; 0x122 <__bad_interrupt>
   e:	00 00       	nop
  10:	88 c0       	rjmp	.+272    	; 0x122 <__bad_interrupt>
  12:	00 00       	nop
  14:	86 c0       	rjmp	.+268    	; 0x122 <__bad_interrupt>
  16:	00 00       	nop
  18:	84 c0       	rjmp	.+264    	; 0x122 <__bad_interrupt>
  1a:	00 00       	nop
  1c:	82 c0       	rjmp	.+260    	; 0x122 <__bad_interrupt>
  1e:	00 00       	nop
  20:	80 c0       	rjmp	.+256    	; 0x122 <__bad_interrupt>
  22:	00 00       	nop
  24:	7e c0       	rjmp	.+252    	; 0x122 <__bad_interrupt>
  26:	00 00       	nop
  28:	7c c0       	rjmp	.+248    	; 0x122 <__bad_interrupt>
  2a:	00 00       	nop
  2c:	7a c0       	rjmp	.+244    	; 0x122 <__bad_interrupt>
  2e:	00 00       	nop
  30:	78 c0       	rjmp	.+240    	; 0x122 <__bad_interrupt>
  32:	00 00       	nop
  34:	76 c0       	rjmp	.+236    	; 0x122 <__bad_interrupt>
  36:	00 00       	nop
  38:	74 c0       	rjmp	.+232    	; 0x122 <__bad_interrupt>
  3a:	00 00       	nop
  3c:	72 c0       	rjmp	.+228    	; 0x122 <__bad_interrupt>
  3e:	00 00       	nop
  40:	70 c0       	rjmp	.+224    	; 0x122 <__bad_interrupt>
  42:	00 00       	nop
  44:	6e c0       	rjmp	.+220    	; 0x122 <__bad_interrupt>
  46:	00 00       	nop
  48:	6c c0       	rjmp	.+216    	; 0x122 <__bad_interrupt>
  4a:	00 00       	nop
  4c:	6a c0       	rjmp	.+212    	; 0x122 <__bad_interrupt>
  4e:	00 00       	nop
  50:	68 c0       	rjmp	.+208    	; 0x122 <__bad_interrupt>
  52:	00 00       	nop
  54:	66 c0       	rjmp	.+204    	; 0x122 <__bad_interrupt>
  56:	00 00       	nop
  58:	64 c0       	rjmp	.+200    	; 0x122 <__bad_interrupt>
  5a:	00 00       	nop
  5c:	71 c3       	rjmp	.+1762   	; 0x740 <__vector_23>
  5e:	00 00       	nop
  60:	60 c0       	rjmp	.+192    	; 0x122 <__bad_interrupt>
  62:	00 00       	nop
  64:	5e c0       	rjmp	.+188    	; 0x122 <__bad_interrupt>
  66:	00 00       	nop
  68:	5c c0       	rjmp	.+184    	; 0x122 <__bad_interrupt>
  6a:	00 00       	nop
  6c:	5a c0       	rjmp	.+180    	; 0x122 <__bad_interrupt>
  6e:	00 00       	nop
  70:	58 c0       	rjmp	.+176    	; 0x122 <__bad_interrupt>
  72:	00 00       	nop
  74:	56 c0       	rjmp	.+172    	; 0x122 <__bad_interrupt>
  76:	00 00       	nop
  78:	54 c0       	rjmp	.+168    	; 0x122 <__bad_interrupt>
  7a:	00 00       	nop
  7c:	52 c0       	rjmp	.+164    	; 0x122 <__bad_interrupt>
  7e:	00 00       	nop
  80:	50 c0       	rjmp	.+160    	; 0x122 <__bad_interrupt>
  82:	00 00       	nop
  84:	4e c0       	rjmp	.+156    	; 0x122 <__bad_interrupt>
  86:	00 00       	nop
  88:	4c c0       	rjmp	.+152    	; 0x122 <__bad_interrupt>
  8a:	00 00       	nop
  8c:	4a c0       	rjmp	.+148    	; 0x122 <__bad_interrupt>
  8e:	00 00       	nop
  90:	48 c0       	rjmp	.+144    	; 0x122 <__bad_interrupt>
  92:	00 00       	nop
  94:	46 c0       	rjmp	.+140    	; 0x122 <__bad_interrupt>
  96:	00 00       	nop
  98:	44 c0       	rjmp	.+136    	; 0x122 <__bad_interrupt>
  9a:	00 00       	nop
  9c:	42 c0       	rjmp	.+132    	; 0x122 <__bad_interrupt>
  9e:	00 00       	nop
  a0:	40 c0       	rjmp	.+128    	; 0x122 <__bad_interrupt>
  a2:	00 00       	nop
  a4:	3e c0       	rjmp	.+124    	; 0x122 <__bad_interrupt>
  a6:	00 00       	nop
  a8:	3c c0       	rjmp	.+120    	; 0x122 <__bad_interrupt>
  aa:	00 00       	nop
  ac:	3a c0       	rjmp	.+116    	; 0x122 <__bad_interrupt>
  ae:	00 00       	nop
  b0:	38 c0       	rjmp	.+112    	; 0x122 <__bad_interrupt>
  b2:	00 00       	nop
  b4:	36 c0       	rjmp	.+108    	; 0x122 <__bad_interrupt>
  b6:	00 00       	nop
  b8:	34 c0       	rjmp	.+104    	; 0x122 <__bad_interrupt>
  ba:	00 00       	nop
  bc:	32 c0       	rjmp	.+100    	; 0x122 <__bad_interrupt>
  be:	00 00       	nop
  c0:	30 c0       	rjmp	.+96     	; 0x122 <__bad_interrupt>
  c2:	00 00       	nop
  c4:	2e c0       	rjmp	.+92     	; 0x122 <__bad_interrupt>
  c6:	00 00       	nop
  c8:	2c c0       	rjmp	.+88     	; 0x122 <__bad_interrupt>
  ca:	00 00       	nop
  cc:	2a c0       	rjmp	.+84     	; 0x122 <__bad_interrupt>
  ce:	00 00       	nop
  d0:	28 c0       	rjmp	.+80     	; 0x122 <__bad_interrupt>
  d2:	00 00       	nop
  d4:	26 c0       	rjmp	.+76     	; 0x122 <__bad_interrupt>
  d6:	00 00       	nop
  d8:	24 c0       	rjmp	.+72     	; 0x122 <__bad_interrupt>
  da:	00 00       	nop
  dc:	22 c0       	rjmp	.+68     	; 0x122 <__bad_interrupt>
  de:	00 00       	nop
  e0:	20 c0       	rjmp	.+64     	; 0x122 <__bad_interrupt>
	...

000000e4 <__ctors_end>:
  e4:	11 24       	eor	r1, r1
  e6:	1f be       	out	0x3f, r1	; 63
  e8:	cf ef       	ldi	r28, 0xFF	; 255
  ea:	d1 e2       	ldi	r29, 0x21	; 33
  ec:	de bf       	out	0x3e, r29	; 62
  ee:	cd bf       	out	0x3d, r28	; 61
  f0:	00 e0       	ldi	r16, 0x00	; 0
  f2:	0c bf       	out	0x3c, r16	; 60

000000f4 <__do_copy_data>:
  f4:	12 e0       	ldi	r17, 0x02	; 2
  f6:	a0 e0       	ldi	r26, 0x00	; 0
  f8:	b2 e0       	ldi	r27, 0x02	; 2
  fa:	ee eb       	ldi	r30, 0xBE	; 190
  fc:	fd e0       	ldi	r31, 0x0D	; 13
  fe:	00 e0       	ldi	r16, 0x00	; 0
 100:	0b bf       	out	0x3b, r16	; 59
 102:	02 c0       	rjmp	.+4      	; 0x108 <__do_copy_data+0x14>
 104:	07 90       	elpm	r0, Z+
 106:	0d 92       	st	X+, r0
 108:	a4 37       	cpi	r26, 0x74	; 116
 10a:	b1 07       	cpc	r27, r17
 10c:	d9 f7       	brne	.-10     	; 0x104 <__do_copy_data+0x10>

0000010e <__do_clear_bss>:
 10e:	22 e0       	ldi	r18, 0x02	; 2
 110:	a4 e7       	ldi	r26, 0x74	; 116
 112:	b2 e0       	ldi	r27, 0x02	; 2
 114:	01 c0       	rjmp	.+2      	; 0x118 <.do_clear_bss_start>

00000116 <.do_clear_bss_loop>:
 116:	1d 92       	st	X+, r1

00000118 <.do_clear_bss_start>:
 118:	a2 3f       	cpi	r26, 0xF2	; 242
 11a:	b2 07       	cpc	r27, r18
 11c:	e1 f7       	brne	.-8      	; 0x116 <.do_clear_bss_loop>
 11e:	02 d0       	rcall	.+4      	; 0x124 <main>
 120:	4c c6       	rjmp	.+3224   	; 0xdba <_exit>

00000122 <__bad_interrupt>:
 122:	6e cf       	rjmp	.-292    	; 0x0 <__vectors>

00000124 <main>:
    uint16_t S2 = 0;
    uint16_t S1 = 0;  
    uint16_t S0 = 0; 
    
    //Initialisieren
    initBoard(1);
 124:	81 e0       	ldi	r24, 0x01	; 1
 126:	89 d1       	rcall	.+786    	; 0x43a <initBoard>
//Hauptprogramm
int main(void)
{
    //Variablen
    uint16_t schalter = 0;
    uint16_t leds = 0;
 128:	c0 e0       	ldi	r28, 0x00	; 0
    
    //Unendlichschlaufe
    while(1)
    {
        //Eingabe------------------------------------------------------------------
        schalter = switchReadAll();
 12a:	d0 e0       	ldi	r29, 0x00	; 0
 12c:	2b d0       	rcall	.+86     	; 0x184 <switchReadAll>
        S7 = schalter & 0b10000000;
        S6 = schalter & 0b01000000;
 12e:	28 2f       	mov	r18, r24
 130:	20 74       	andi	r18, 0x40	; 64
 132:	30 e0       	ldi	r19, 0x00	; 0
        S5 = schalter & 0b00100000;
 134:	48 2f       	mov	r20, r24
 136:	40 72       	andi	r20, 0x20	; 32
 138:	50 e0       	ldi	r21, 0x00	; 0
        S0 = schalter & 0b00000001;
        
       
        
        //Verarbeitung-------------------------------------------------------------
        if (S7)
 13a:	88 23       	and	r24, r24
 13c:	2c f4       	brge	.+10     	; 0x148 <main+0x24>
        {   leds = leds | 0x01;         //Aufgabe 1.1
 13e:	be 01       	movw	r22, r28
 140:	61 60       	ori	r22, 0x01	; 1
        } 
        else
        {   leds = leds & 0xfffe;
        }
       if (S7 && S6 && !S5)
 142:	23 2b       	or	r18, r19
 144:	39 f4       	brne	.+14     	; 0x154 <main+0x30>
 146:	18 c0       	rjmp	.+48     	; 0x178 <main+0x54>
        //Verarbeitung-------------------------------------------------------------
        if (S7)
        {   leds = leds | 0x01;         //Aufgabe 1.1
        } 
        else
        {   leds = leds & 0xfffe;
 148:	be 01       	movw	r22, r28
 14a:	6e 7f       	andi	r22, 0xFE	; 254
        }
       if (S7 && S6 && !S5)
       {    leds = leds | (1<<1);       //Aufgabe 1.2
       } 
       else
       {    leds = leds & ~(1<<1);
 14c:	cc 7f       	andi	r28, 0xFC	; 252
       }
       if (S6 && S5 && S4)
 14e:	23 2b       	or	r18, r19
 150:	29 f4       	brne	.+10     	; 0x15c <main+0x38>
 152:	0b c0       	rjmp	.+22     	; 0x16a <main+0x46>
        {   leds = leds | 0x01;         //Aufgabe 1.1
        } 
        else
        {   leds = leds & 0xfffe;
        }
       if (S7 && S6 && !S5)
 154:	45 2b       	or	r20, r21
 156:	69 f4       	brne	.+26     	; 0x172 <main+0x4e>
       {    leds = leds | (1<<1);       //Aufgabe 1.2
 158:	c3 60       	ori	r28, 0x03	; 3
 15a:	07 c0       	rjmp	.+14     	; 0x16a <main+0x46>
       } 
       else
       {    leds = leds & ~(1<<1);
       }
       if (S6 && S5 && S4)
 15c:	45 2b       	or	r20, r21
 15e:	29 f0       	breq	.+10     	; 0x16a <main+0x46>
 160:	84 ff       	sbrs	r24, 4
 162:	03 c0       	rjmp	.+6      	; 0x16a <main+0x46>
       {    leds = leds & ~(1<<2);      //Aufgabe 1.3
 164:	eb 01       	movw	r28, r22
 166:	c9 7f       	andi	r28, 0xF9	; 249
 168:	01 c0       	rjmp	.+2      	; 0x16c <main+0x48>
       else
       {    leds = leds | (1<<2);
       }
      
        //Ausgabe------------------------------------------------------------------
        ledWriteAll(leds);
 16a:	c4 60       	ori	r28, 0x04	; 4
 16c:	ce 01       	movw	r24, r28
 16e:	07 d0       	rcall	.+14     	; 0x17e <ledWriteAll>
        
    }
 170:	dd cf       	rjmp	.-70     	; 0x12c <main+0x8>
 172:	cd 7f       	andi	r28, 0xFD	; 253
        }
       if (S7 && S6 && !S5)
       {    leds = leds | (1<<1);       //Aufgabe 1.2
       } 
       else
       {    leds = leds & ~(1<<1);
 174:	c1 60       	ori	r28, 0x01	; 1
 176:	f4 cf       	rjmp	.-24     	; 0x160 <main+0x3c>
 178:	cd 7f       	andi	r28, 0xFD	; 253
 17a:	c1 60       	ori	r28, 0x01	; 1
 17c:	f6 cf       	rjmp	.-20     	; 0x16a <main+0x46>

0000017e <ledWriteAll>:
            }
        }
        matrix_buffer_pos += breite + Zeichenabstand;           // Position für das nächste Zeichen berechnen
        str_p++;                                                // Zeichen-Zeiger auf das nächste Zeichen richten
    }
}
 17e:	82 b9       	out	0x02, r24	; 2
 180:	95 b9       	out	0x05, r25	; 5
 182:	08 95       	ret

00000184 <switchReadAll>:
 184:	86 b1       	in	r24, 0x06	; 6
 186:	08 95       	ret

00000188 <startSystemTimeMs>:
 188:	83 e0       	ldi	r24, 0x03	; 3
 18a:	84 bd       	out	0x24, r24	; 36
 18c:	8b e0       	ldi	r24, 0x0B	; 11
 18e:	85 bd       	out	0x25, r24	; 37
 190:	81 e0       	ldi	r24, 0x01	; 1
 192:	80 93 6e 00 	sts	0x006E, r24	; 0x80006e <__TEXT_REGION_LENGTH__+0x70006e>
 196:	89 ef       	ldi	r24, 0xF9	; 249
 198:	87 bd       	out	0x27, r24	; 39
 19a:	08 95       	ret

0000019c <initAdc>:
 19c:	11 ba       	out	0x11, r1	; 17
 19e:	10 ba       	out	0x10, r1	; 16
 1a0:	10 92 08 01 	sts	0x0108, r1	; 0x800108 <__TEXT_REGION_LENGTH__+0x700108>
 1a4:	10 92 07 01 	sts	0x0107, r1	; 0x800107 <__TEXT_REGION_LENGTH__+0x700107>
 1a8:	80 e4       	ldi	r24, 0x40	; 64
 1aa:	80 93 7c 00 	sts	0x007C, r24	; 0x80007c <__TEXT_REGION_LENGTH__+0x70007c>
 1ae:	8f e0       	ldi	r24, 0x0F	; 15
 1b0:	80 93 7e 00 	sts	0x007E, r24	; 0x80007e <__TEXT_REGION_LENGTH__+0x70007e>
 1b4:	8f ef       	ldi	r24, 0xFF	; 255
 1b6:	80 93 7d 00 	sts	0x007D, r24	; 0x80007d <__TEXT_REGION_LENGTH__+0x70007d>
 1ba:	ea e7       	ldi	r30, 0x7A	; 122
 1bc:	f0 e0       	ldi	r31, 0x00	; 0
 1be:	87 ea       	ldi	r24, 0xA7	; 167
 1c0:	80 83       	st	Z, r24
 1c2:	10 92 7b 00 	sts	0x007B, r1	; 0x80007b <__TEXT_REGION_LENGTH__+0x70007b>
 1c6:	80 81       	ld	r24, Z
 1c8:	80 64       	ori	r24, 0x40	; 64
 1ca:	80 83       	st	Z, r24
 1cc:	80 81       	ld	r24, Z
 1ce:	84 ff       	sbrs	r24, 4
 1d0:	fd cf       	rjmp	.-6      	; 0x1cc <initAdc+0x30>
 1d2:	ea e7       	ldi	r30, 0x7A	; 122
 1d4:	f0 e0       	ldi	r31, 0x00	; 0
 1d6:	80 81       	ld	r24, Z
 1d8:	8f 7e       	andi	r24, 0xEF	; 239
 1da:	80 83       	st	Z, r24
 1dc:	08 95       	ret

000001de <rgbWrite>:
 1de:	2f ef       	ldi	r18, 0xFF	; 255
 1e0:	33 e0       	ldi	r19, 0x03	; 3
 1e2:	f9 01       	movw	r30, r18
 1e4:	e8 1b       	sub	r30, r24
 1e6:	f9 0b       	sbc	r31, r25
 1e8:	c9 01       	movw	r24, r18
 1ea:	86 1b       	sub	r24, r22
 1ec:	97 0b       	sbc	r25, r23
 1ee:	24 1b       	sub	r18, r20
 1f0:	35 0b       	sbc	r19, r21
 1f2:	f0 93 a9 00 	sts	0x00A9, r31	; 0x8000a9 <__TEXT_REGION_LENGTH__+0x7000a9>
 1f6:	e0 93 a8 00 	sts	0x00A8, r30	; 0x8000a8 <__TEXT_REGION_LENGTH__+0x7000a8>
 1fa:	90 93 ab 00 	sts	0x00AB, r25	; 0x8000ab <__TEXT_REGION_LENGTH__+0x7000ab>
 1fe:	80 93 aa 00 	sts	0x00AA, r24	; 0x8000aa <__TEXT_REGION_LENGTH__+0x7000aa>
 202:	30 93 ad 00 	sts	0x00AD, r19	; 0x8000ad <__TEXT_REGION_LENGTH__+0x7000ad>
 206:	20 93 ac 00 	sts	0x00AC, r18	; 0x8000ac <__TEXT_REGION_LENGTH__+0x7000ac>
 20a:	08 95       	ret

0000020c <initRgb>:
 20c:	8e ef       	ldi	r24, 0xFE	; 254
 20e:	80 93 a0 00 	sts	0x00A0, r24	; 0x8000a0 <__TEXT_REGION_LENGTH__+0x7000a0>
 212:	8b e1       	ldi	r24, 0x1B	; 27
 214:	80 93 a1 00 	sts	0x00A1, r24	; 0x8000a1 <__TEXT_REGION_LENGTH__+0x7000a1>
 218:	83 e0       	ldi	r24, 0x03	; 3
 21a:	80 93 a7 00 	sts	0x00A7, r24	; 0x8000a7 <__TEXT_REGION_LENGTH__+0x7000a7>
 21e:	8f ef       	ldi	r24, 0xFF	; 255
 220:	80 93 a6 00 	sts	0x00A6, r24	; 0x8000a6 <__TEXT_REGION_LENGTH__+0x7000a6>
 224:	40 e0       	ldi	r20, 0x00	; 0
 226:	50 e0       	ldi	r21, 0x00	; 0
 228:	60 e0       	ldi	r22, 0x00	; 0
 22a:	70 e0       	ldi	r23, 0x00	; 0
 22c:	80 e0       	ldi	r24, 0x00	; 0
 22e:	90 e0       	ldi	r25, 0x00	; 0
 230:	d6 cf       	rjmp	.-84     	; 0x1de <rgbWrite>
 232:	08 95       	ret

00000234 <lcdSid>:
 234:	88 23       	and	r24, r24
 236:	11 f0       	breq	.+4      	; 0x23c <lcdSid+0x8>
 238:	a0 9a       	sbi	0x14, 0	; 20
 23a:	08 95       	ret
 23c:	a0 98       	cbi	0x14, 0	; 20
 23e:	08 95       	ret

00000240 <lcdSclk>:
 240:	88 23       	and	r24, r24
 242:	11 f0       	breq	.+4      	; 0x248 <lcdSclk+0x8>
 244:	a1 9a       	sbi	0x14, 1	; 20
 246:	08 95       	ret
 248:	a1 98       	cbi	0x14, 1	; 20
 24a:	08 95       	ret

0000024c <lcdLight>:
 24c:	81 11       	cpse	r24, r1
 24e:	04 c0       	rjmp	.+8      	; 0x258 <lcdLight+0xc>
 250:	84 b5       	in	r24, 0x24	; 36
 252:	8f 7d       	andi	r24, 0xDF	; 223
 254:	84 bd       	out	0x24, r24	; 36
 256:	08 95       	ret
 258:	94 b5       	in	r25, 0x24	; 36
 25a:	90 62       	ori	r25, 0x20	; 32
 25c:	94 bd       	out	0x24, r25	; 36
 25e:	88 bd       	out	0x28, r24	; 40
 260:	08 95       	ret

00000262 <writeLcdF>:
 262:	ef 92       	push	r14
 264:	ff 92       	push	r15
 266:	0f 93       	push	r16
 268:	1f 93       	push	r17
 26a:	cf 93       	push	r28
 26c:	df 93       	push	r29
 26e:	7c 01       	movw	r14, r24
 270:	eb 01       	movw	r28, r22
 272:	81 e0       	ldi	r24, 0x01	; 1
 274:	df df       	rcall	.-66     	; 0x234 <lcdSid>
 276:	05 e0       	ldi	r16, 0x05	; 5
 278:	10 e0       	ldi	r17, 0x00	; 0
 27a:	80 e0       	ldi	r24, 0x00	; 0
 27c:	e1 df       	rcall	.-62     	; 0x240 <lcdSclk>
 27e:	81 e0       	ldi	r24, 0x01	; 1
 280:	df df       	rcall	.-66     	; 0x240 <lcdSclk>
 282:	01 50       	subi	r16, 0x01	; 1
 284:	11 09       	sbc	r17, r1
 286:	c9 f7       	brne	.-14     	; 0x27a <writeLcdF+0x18>
 288:	80 e0       	ldi	r24, 0x00	; 0
 28a:	d4 df       	rcall	.-88     	; 0x234 <lcdSid>
 28c:	80 e0       	ldi	r24, 0x00	; 0
 28e:	d8 df       	rcall	.-80     	; 0x240 <lcdSclk>
 290:	81 e0       	ldi	r24, 0x01	; 1
 292:	d6 df       	rcall	.-84     	; 0x240 <lcdSclk>
 294:	83 e4       	ldi	r24, 0x43	; 67
 296:	e8 16       	cp	r14, r24
 298:	f1 04       	cpc	r15, r1
 29a:	19 f4       	brne	.+6      	; 0x2a2 <writeLcdF+0x40>
 29c:	80 e0       	ldi	r24, 0x00	; 0
 29e:	ca df       	rcall	.-108    	; 0x234 <lcdSid>
 2a0:	02 c0       	rjmp	.+4      	; 0x2a6 <writeLcdF+0x44>
 2a2:	81 e0       	ldi	r24, 0x01	; 1
 2a4:	c7 df       	rcall	.-114    	; 0x234 <lcdSid>
 2a6:	80 e0       	ldi	r24, 0x00	; 0
 2a8:	cb df       	rcall	.-106    	; 0x240 <lcdSclk>
 2aa:	81 e0       	ldi	r24, 0x01	; 1
 2ac:	c9 df       	rcall	.-110    	; 0x240 <lcdSclk>
 2ae:	80 e0       	ldi	r24, 0x00	; 0
 2b0:	c1 df       	rcall	.-126    	; 0x234 <lcdSid>
 2b2:	80 e0       	ldi	r24, 0x00	; 0
 2b4:	c5 df       	rcall	.-118    	; 0x240 <lcdSclk>
 2b6:	81 e0       	ldi	r24, 0x01	; 1
 2b8:	c3 df       	rcall	.-122    	; 0x240 <lcdSclk>
 2ba:	04 e0       	ldi	r16, 0x04	; 4
 2bc:	10 e0       	ldi	r17, 0x00	; 0
 2be:	80 e0       	ldi	r24, 0x00	; 0
 2c0:	bf df       	rcall	.-130    	; 0x240 <lcdSclk>
 2c2:	c0 ff       	sbrs	r28, 0
 2c4:	03 c0       	rjmp	.+6      	; 0x2cc <writeLcdF+0x6a>
 2c6:	81 e0       	ldi	r24, 0x01	; 1
 2c8:	b5 df       	rcall	.-150    	; 0x234 <lcdSid>
 2ca:	02 c0       	rjmp	.+4      	; 0x2d0 <writeLcdF+0x6e>
 2cc:	80 e0       	ldi	r24, 0x00	; 0
 2ce:	b2 df       	rcall	.-156    	; 0x234 <lcdSid>
 2d0:	d6 95       	lsr	r29
 2d2:	c7 95       	ror	r28
 2d4:	80 e0       	ldi	r24, 0x00	; 0
 2d6:	b4 df       	rcall	.-152    	; 0x240 <lcdSclk>
 2d8:	81 e0       	ldi	r24, 0x01	; 1
 2da:	b2 df       	rcall	.-156    	; 0x240 <lcdSclk>
 2dc:	01 50       	subi	r16, 0x01	; 1
 2de:	11 09       	sbc	r17, r1
 2e0:	71 f7       	brne	.-36     	; 0x2be <writeLcdF+0x5c>
 2e2:	80 e0       	ldi	r24, 0x00	; 0
 2e4:	a7 df       	rcall	.-178    	; 0x234 <lcdSid>
 2e6:	04 e0       	ldi	r16, 0x04	; 4
 2e8:	10 e0       	ldi	r17, 0x00	; 0
 2ea:	80 e0       	ldi	r24, 0x00	; 0
 2ec:	a9 df       	rcall	.-174    	; 0x240 <lcdSclk>
 2ee:	81 e0       	ldi	r24, 0x01	; 1
 2f0:	a7 df       	rcall	.-178    	; 0x240 <lcdSclk>
 2f2:	01 50       	subi	r16, 0x01	; 1
 2f4:	11 09       	sbc	r17, r1
 2f6:	c9 f7       	brne	.-14     	; 0x2ea <writeLcdF+0x88>
 2f8:	04 e0       	ldi	r16, 0x04	; 4
 2fa:	10 e0       	ldi	r17, 0x00	; 0
 2fc:	80 e0       	ldi	r24, 0x00	; 0
 2fe:	a0 df       	rcall	.-192    	; 0x240 <lcdSclk>
 300:	c0 ff       	sbrs	r28, 0
 302:	03 c0       	rjmp	.+6      	; 0x30a <writeLcdF+0xa8>
 304:	81 e0       	ldi	r24, 0x01	; 1
 306:	96 df       	rcall	.-212    	; 0x234 <lcdSid>
 308:	02 c0       	rjmp	.+4      	; 0x30e <writeLcdF+0xac>
 30a:	80 e0       	ldi	r24, 0x00	; 0
 30c:	93 df       	rcall	.-218    	; 0x234 <lcdSid>
 30e:	d6 95       	lsr	r29
 310:	c7 95       	ror	r28
 312:	80 e0       	ldi	r24, 0x00	; 0
 314:	95 df       	rcall	.-214    	; 0x240 <lcdSclk>
 316:	81 e0       	ldi	r24, 0x01	; 1
 318:	93 df       	rcall	.-218    	; 0x240 <lcdSclk>
 31a:	01 50       	subi	r16, 0x01	; 1
 31c:	11 09       	sbc	r17, r1
 31e:	71 f7       	brne	.-36     	; 0x2fc <writeLcdF+0x9a>
 320:	80 e0       	ldi	r24, 0x00	; 0
 322:	88 df       	rcall	.-240    	; 0x234 <lcdSid>
 324:	c4 e0       	ldi	r28, 0x04	; 4
 326:	d0 e0       	ldi	r29, 0x00	; 0
 328:	80 e0       	ldi	r24, 0x00	; 0
 32a:	8a df       	rcall	.-236    	; 0x240 <lcdSclk>
 32c:	81 e0       	ldi	r24, 0x01	; 1
 32e:	88 df       	rcall	.-240    	; 0x240 <lcdSclk>
 330:	21 97       	sbiw	r28, 0x01	; 1
 332:	d1 f7       	brne	.-12     	; 0x328 <writeLcdF+0xc6>
 334:	81 e0       	ldi	r24, 0x01	; 1
 336:	7e df       	rcall	.-260    	; 0x234 <lcdSid>
 338:	87 ec       	ldi	r24, 0xC7	; 199
 33a:	90 e0       	ldi	r25, 0x00	; 0
 33c:	01 97       	sbiw	r24, 0x01	; 1
 33e:	f1 f7       	brne	.-4      	; 0x33c <writeLcdF+0xda>
 340:	00 c0       	rjmp	.+0      	; 0x342 <writeLcdF+0xe0>
 342:	00 00       	nop
 344:	df 91       	pop	r29
 346:	cf 91       	pop	r28
 348:	1f 91       	pop	r17
 34a:	0f 91       	pop	r16
 34c:	ff 90       	pop	r15
 34e:	ef 90       	pop	r14
 350:	08 95       	ret

00000352 <lcdWriteText>:
 352:	1f 93       	push	r17
 354:	cf 93       	push	r28
 356:	df 93       	push	r29
 358:	cd b7       	in	r28, 0x3d	; 61
 35a:	de b7       	in	r29, 0x3e	; 62
 35c:	65 97       	sbiw	r28, 0x15	; 21
 35e:	0f b6       	in	r0, 0x3f	; 63
 360:	f8 94       	cli
 362:	de bf       	out	0x3e, r29	; 62
 364:	0f be       	out	0x3f, r0	; 63
 366:	cd bf       	out	0x3d, r28	; 61
 368:	9e 01       	movw	r18, r28
 36a:	20 5e       	subi	r18, 0xE0	; 224
 36c:	3f 4f       	sbci	r19, 0xFF	; 255
 36e:	4e 8d       	ldd	r20, Y+30	; 0x1e
 370:	5f 8d       	ldd	r21, Y+31	; 0x1f
 372:	65 e1       	ldi	r22, 0x15	; 21
 374:	70 e0       	ldi	r23, 0x00	; 0
 376:	ce 01       	movw	r24, r28
 378:	01 96       	adiw	r24, 0x01	; 1
 37a:	3a d2       	rcall	.+1140   	; 0x7f0 <vsnprintf>
 37c:	6d 8d       	ldd	r22, Y+29	; 0x1d
 37e:	8c 8d       	ldd	r24, Y+28	; 0x1c
 380:	90 e2       	ldi	r25, 0x20	; 32
 382:	89 9f       	mul	r24, r25
 384:	60 0d       	add	r22, r0
 386:	11 24       	eor	r1, r1
 388:	60 68       	ori	r22, 0x80	; 128
 38a:	70 e0       	ldi	r23, 0x00	; 0
 38c:	83 e4       	ldi	r24, 0x43	; 67
 38e:	90 e0       	ldi	r25, 0x00	; 0
 390:	68 df       	rcall	.-304    	; 0x262 <writeLcdF>
 392:	69 81       	ldd	r22, Y+1	; 0x01
 394:	66 23       	and	r22, r22
 396:	79 f0       	breq	.+30     	; 0x3b6 <lcdWriteText+0x64>
 398:	10 e0       	ldi	r17, 0x00	; 0
 39a:	1f 5f       	subi	r17, 0xFF	; 255
 39c:	70 e0       	ldi	r23, 0x00	; 0
 39e:	84 e4       	ldi	r24, 0x44	; 68
 3a0:	90 e0       	ldi	r25, 0x00	; 0
 3a2:	5f df       	rcall	.-322    	; 0x262 <writeLcdF>
 3a4:	e1 e0       	ldi	r30, 0x01	; 1
 3a6:	f0 e0       	ldi	r31, 0x00	; 0
 3a8:	ec 0f       	add	r30, r28
 3aa:	fd 1f       	adc	r31, r29
 3ac:	e1 0f       	add	r30, r17
 3ae:	f1 1d       	adc	r31, r1
 3b0:	60 81       	ld	r22, Z
 3b2:	61 11       	cpse	r22, r1
 3b4:	f2 cf       	rjmp	.-28     	; 0x39a <lcdWriteText+0x48>
 3b6:	65 96       	adiw	r28, 0x15	; 21
 3b8:	0f b6       	in	r0, 0x3f	; 63
 3ba:	f8 94       	cli
 3bc:	de bf       	out	0x3e, r29	; 62
 3be:	0f be       	out	0x3f, r0	; 63
 3c0:	cd bf       	out	0x3d, r28	; 61
 3c2:	df 91       	pop	r29
 3c4:	cf 91       	pop	r28
 3c6:	1f 91       	pop	r17
 3c8:	08 95       	ret

000003ca <lcdClear>:
 3ca:	61 e0       	ldi	r22, 0x01	; 1
 3cc:	70 e0       	ldi	r23, 0x00	; 0
 3ce:	83 e4       	ldi	r24, 0x43	; 67
 3d0:	90 e0       	ldi	r25, 0x00	; 0
 3d2:	47 df       	rcall	.-370    	; 0x262 <writeLcdF>
 3d4:	8f e3       	ldi	r24, 0x3F	; 63
 3d6:	9f e1       	ldi	r25, 0x1F	; 31
 3d8:	01 97       	sbiw	r24, 0x01	; 1
 3da:	f1 f7       	brne	.-4      	; 0x3d8 <lcdClear+0xe>
 3dc:	00 c0       	rjmp	.+0      	; 0x3de <lcdClear+0x14>
 3de:	00 00       	nop
 3e0:	80 e3       	ldi	r24, 0x30	; 48
 3e2:	92 e0       	ldi	r25, 0x02	; 2
 3e4:	9f 93       	push	r25
 3e6:	8f 93       	push	r24
 3e8:	1f 92       	push	r1
 3ea:	1f 92       	push	r1
 3ec:	b2 df       	rcall	.-156    	; 0x352 <lcdWriteText>
 3ee:	0f 90       	pop	r0
 3f0:	0f 90       	pop	r0
 3f2:	0f 90       	pop	r0
 3f4:	0f 90       	pop	r0
 3f6:	08 95       	ret

000003f8 <initLcd>:
 3f8:	81 e0       	ldi	r24, 0x01	; 1
 3fa:	22 df       	rcall	.-444    	; 0x240 <lcdSclk>
 3fc:	80 e0       	ldi	r24, 0x00	; 0
 3fe:	1a df       	rcall	.-460    	; 0x234 <lcdSid>
 400:	64 e3       	ldi	r22, 0x34	; 52
 402:	70 e0       	ldi	r23, 0x00	; 0
 404:	83 e4       	ldi	r24, 0x43	; 67
 406:	90 e0       	ldi	r25, 0x00	; 0
 408:	2c df       	rcall	.-424    	; 0x262 <writeLcdF>
 40a:	69 e0       	ldi	r22, 0x09	; 9
 40c:	70 e0       	ldi	r23, 0x00	; 0
 40e:	83 e4       	ldi	r24, 0x43	; 67
 410:	90 e0       	ldi	r25, 0x00	; 0
 412:	27 df       	rcall	.-434    	; 0x262 <writeLcdF>
 414:	60 e3       	ldi	r22, 0x30	; 48
 416:	70 e0       	ldi	r23, 0x00	; 0
 418:	83 e4       	ldi	r24, 0x43	; 67
 41a:	90 e0       	ldi	r25, 0x00	; 0
 41c:	22 df       	rcall	.-444    	; 0x262 <writeLcdF>
 41e:	6c e0       	ldi	r22, 0x0C	; 12
 420:	70 e0       	ldi	r23, 0x00	; 0
 422:	83 e4       	ldi	r24, 0x43	; 67
 424:	90 e0       	ldi	r25, 0x00	; 0
 426:	1d df       	rcall	.-454    	; 0x262 <writeLcdF>
 428:	d0 df       	rcall	.-96     	; 0x3ca <lcdClear>
 42a:	67 e0       	ldi	r22, 0x07	; 7
 42c:	70 e0       	ldi	r23, 0x00	; 0
 42e:	83 e4       	ldi	r24, 0x43	; 67
 430:	90 e0       	ldi	r25, 0x00	; 0
 432:	17 df       	rcall	.-466    	; 0x262 <writeLcdF>
 434:	80 e0       	ldi	r24, 0x00	; 0
 436:	0a cf       	rjmp	.-492    	; 0x24c <lcdLight>
 438:	08 95       	ret

0000043a <initBoard>:
 43a:	4f 92       	push	r4
 43c:	5f 92       	push	r5
 43e:	6f 92       	push	r6
 440:	7f 92       	push	r7
 442:	8f 92       	push	r8
 444:	9f 92       	push	r9
 446:	af 92       	push	r10
 448:	bf 92       	push	r11
 44a:	cf 92       	push	r12
 44c:	df 92       	push	r13
 44e:	ef 92       	push	r14
 450:	ff 92       	push	r15
 452:	0f 93       	push	r16
 454:	1f 93       	push	r17
 456:	cf 93       	push	r28
 458:	df 93       	push	r29
 45a:	c8 2f       	mov	r28, r24
 45c:	85 b7       	in	r24, 0x35	; 53
 45e:	85 bf       	out	0x35, r24	; 53
 460:	12 b8       	out	0x02, r1	; 2
 462:	8f ef       	ldi	r24, 0xFF	; 255
 464:	81 b9       	out	0x01, r24	; 1
 466:	15 b8       	out	0x05, r1	; 5
 468:	84 b9       	out	0x04, r24	; 4
 46a:	88 b9       	out	0x08, r24	; 8
 46c:	17 b8       	out	0x07, r1	; 7
 46e:	8b b9       	out	0x0b, r24	; 11
 470:	1a b8       	out	0x0a, r1	; 10
 472:	8e b9       	out	0x0e, r24	; 14
 474:	1d b8       	out	0x0d, r1	; 13
 476:	72 98       	cbi	0x0e, 2	; 14
 478:	11 ba       	out	0x11, r1	; 17
 47a:	10 ba       	out	0x10, r1	; 16
 47c:	94 e0       	ldi	r25, 0x04	; 4
 47e:	94 bb       	out	0x14, r25	; 20
 480:	93 b3       	in	r25, 0x13	; 19
 482:	93 60       	ori	r25, 0x03	; 3
 484:	93 bb       	out	0x13, r25	; 19
 486:	9d 9a       	sbi	0x13, 5	; 19
 488:	97 ec       	ldi	r25, 0xC7	; 199
 48a:	90 93 02 01 	sts	0x0102, r25	; 0x800102 <__TEXT_REGION_LENGTH__+0x700102>
 48e:	98 e3       	ldi	r25, 0x38	; 56
 490:	90 93 01 01 	sts	0x0101, r25	; 0x800101 <__TEXT_REGION_LENGTH__+0x700101>
 494:	10 92 05 01 	sts	0x0105, r1	; 0x800105 <__TEXT_REGION_LENGTH__+0x700105>
 498:	80 93 04 01 	sts	0x0104, r24	; 0x800104 <__TEXT_REGION_LENGTH__+0x700104>
 49c:	10 92 08 01 	sts	0x0108, r1	; 0x800108 <__TEXT_REGION_LENGTH__+0x700108>
 4a0:	10 92 07 01 	sts	0x0107, r1	; 0x800107 <__TEXT_REGION_LENGTH__+0x700107>
 4a4:	8c e3       	ldi	r24, 0x3C	; 60
 4a6:	80 93 0b 01 	sts	0x010B, r24	; 0x80010b <__TEXT_REGION_LENGTH__+0x70010b>
 4aa:	10 92 0a 01 	sts	0x010A, r1	; 0x80010a <__TEXT_REGION_LENGTH__+0x70010a>
 4ae:	78 94       	sei
 4b0:	6b de       	rcall	.-810    	; 0x188 <startSystemTimeMs>
 4b2:	a2 df       	rcall	.-188    	; 0x3f8 <initLcd>
 4b4:	73 de       	rcall	.-794    	; 0x19c <initAdc>
 4b6:	aa de       	rcall	.-684    	; 0x20c <initRgb>
 4b8:	cc 23       	and	r28, r28
 4ba:	09 f4       	brne	.+2      	; 0x4be <initBoard+0x84>
 4bc:	b8 c0       	rjmp	.+368    	; 0x62e <initBoard+0x1f4>
 4be:	8f ef       	ldi	r24, 0xFF	; 255
 4c0:	c5 de       	rcall	.-630    	; 0x24c <lcdLight>
 4c2:	40 e0       	ldi	r20, 0x00	; 0
 4c4:	50 e0       	ldi	r21, 0x00	; 0
 4c6:	6f ef       	ldi	r22, 0xFF	; 255
 4c8:	73 e0       	ldi	r23, 0x03	; 3
 4ca:	80 e0       	ldi	r24, 0x00	; 0
 4cc:	90 e0       	ldi	r25, 0x00	; 0
 4ce:	87 de       	rcall	.-754    	; 0x1de <rgbWrite>
 4d0:	8d e1       	ldi	r24, 0x1D	; 29
 4d2:	92 e0       	ldi	r25, 0x02	; 2
 4d4:	9f 93       	push	r25
 4d6:	8f 93       	push	r24
 4d8:	1f 92       	push	r1
 4da:	1f 92       	push	r1
 4dc:	3a df       	rcall	.-396    	; 0x352 <lcdWriteText>
 4de:	82 e3       	ldi	r24, 0x32	; 50
 4e0:	92 e0       	ldi	r25, 0x02	; 2
 4e2:	9f 93       	push	r25
 4e4:	8f 93       	push	r24
 4e6:	1f 92       	push	r1
 4e8:	81 e0       	ldi	r24, 0x01	; 1
 4ea:	8f 93       	push	r24
 4ec:	32 df       	rcall	.-412    	; 0x352 <lcdWriteText>
 4ee:	88 e0       	ldi	r24, 0x08	; 8
 4f0:	92 e0       	ldi	r25, 0x02	; 2
 4f2:	9f 93       	push	r25
 4f4:	8f 93       	push	r24
 4f6:	1f 92       	push	r1
 4f8:	82 e0       	ldi	r24, 0x02	; 2
 4fa:	8f 93       	push	r24
 4fc:	2a df       	rcall	.-428    	; 0x352 <lcdWriteText>
 4fe:	87 e4       	ldi	r24, 0x47	; 71
 500:	92 e0       	ldi	r25, 0x02	; 2
 502:	9f 93       	push	r25
 504:	8f 93       	push	r24
 506:	1f 92       	push	r1
 508:	83 e0       	ldi	r24, 0x03	; 3
 50a:	8f 93       	push	r24
 50c:	22 df       	rcall	.-444    	; 0x352 <lcdWriteText>
 50e:	8d b7       	in	r24, 0x3d	; 61
 510:	9e b7       	in	r25, 0x3e	; 62
 512:	40 96       	adiw	r24, 0x10	; 16
 514:	0f b6       	in	r0, 0x3f	; 63
 516:	f8 94       	cli
 518:	9e bf       	out	0x3e, r25	; 62
 51a:	0f be       	out	0x3f, r0	; 63
 51c:	8d bf       	out	0x3d, r24	; 61
 51e:	88 24       	eor	r8, r8
 520:	83 94       	inc	r8
 522:	c0 e0       	ldi	r28, 0x00	; 0
 524:	71 2c       	mov	r7, r1
 526:	99 24       	eor	r9, r9
 528:	93 94       	inc	r9
 52a:	d0 e0       	ldi	r29, 0x00	; 0
 52c:	cc 24       	eor	r12, r12
 52e:	c3 94       	inc	r12
 530:	d1 2c       	mov	r13, r1
 532:	e1 2c       	mov	r14, r1
 534:	68 94       	set
 536:	ff 24       	eor	r15, r15
 538:	f7 f8       	bld	r15, 7
 53a:	66 24       	eor	r6, r6
 53c:	63 94       	inc	r6
 53e:	51 2c       	mov	r5, r1
 540:	09 e0       	ldi	r16, 0x09	; 9
 542:	11 e0       	ldi	r17, 0x01	; 1
 544:	0f 2e       	mov	r0, r31
 546:	fc e5       	ldi	r31, 0x5C	; 92
 548:	af 2e       	mov	r10, r31
 54a:	f2 e0       	ldi	r31, 0x02	; 2
 54c:	bf 2e       	mov	r11, r31
 54e:	f0 2d       	mov	r31, r0
 550:	0f 2e       	mov	r0, r31
 552:	f3 e0       	ldi	r31, 0x03	; 3
 554:	4f 2e       	mov	r4, r31
 556:	f0 2d       	mov	r31, r0
 558:	99 20       	and	r9, r9
 55a:	49 f0       	breq	.+18     	; 0x56e <initBoard+0x134>
 55c:	c7 01       	movw	r24, r14
 55e:	0d 2e       	mov	r0, r29
 560:	02 c0       	rjmp	.+4      	; 0x566 <initBoard+0x12c>
 562:	96 95       	lsr	r25
 564:	87 95       	ror	r24
 566:	0a 94       	dec	r0
 568:	e2 f7       	brpl	.-8      	; 0x562 <initBoard+0x128>
 56a:	09 de       	rcall	.-1006   	; 0x17e <ledWriteAll>
 56c:	08 c0       	rjmp	.+16     	; 0x57e <initBoard+0x144>
 56e:	c6 01       	movw	r24, r12
 570:	0d 2e       	mov	r0, r29
 572:	02 c0       	rjmp	.+4      	; 0x578 <initBoard+0x13e>
 574:	88 0f       	add	r24, r24
 576:	99 1f       	adc	r25, r25
 578:	0a 94       	dec	r0
 57a:	e2 f7       	brpl	.-8      	; 0x574 <initBoard+0x13a>
 57c:	00 de       	rcall	.-1024   	; 0x17e <ledWriteAll>
 57e:	df 5f       	subi	r29, 0xFF	; 255
 580:	d1 31       	cpi	r29, 0x11	; 17
 582:	28 f0       	brcs	.+10     	; 0x58e <initBoard+0x154>
 584:	86 2d       	mov	r24, r6
 586:	91 10       	cpse	r9, r1
 588:	85 2d       	mov	r24, r5
 58a:	98 2e       	mov	r9, r24
 58c:	d0 e0       	ldi	r29, 0x00	; 0
 58e:	88 20       	and	r8, r8
 590:	11 f0       	breq	.+4      	; 0x596 <initBoard+0x15c>
 592:	ce 5f       	subi	r28, 0xFE	; 254
 594:	01 c0       	rjmp	.+2      	; 0x598 <initBoard+0x15e>
 596:	c2 50       	subi	r28, 0x02	; 2
 598:	8c 2f       	mov	r24, r28
 59a:	58 de       	rcall	.-848    	; 0x24c <lcdLight>
 59c:	ce 3f       	cpi	r28, 0xFE	; 254
 59e:	21 f0       	breq	.+8      	; 0x5a8 <initBoard+0x16e>
 5a0:	c8 37       	cpi	r28, 0x78	; 120
 5a2:	19 f4       	brne	.+6      	; 0x5aa <initBoard+0x170>
 5a4:	86 2c       	mov	r8, r6
 5a6:	01 c0       	rjmp	.+2      	; 0x5aa <initBoard+0x170>
 5a8:	85 2c       	mov	r8, r5
 5aa:	71 10       	cpse	r7, r1
 5ac:	3b c0       	rjmp	.+118    	; 0x624 <initBoard+0x1ea>
 5ae:	f8 01       	movw	r30, r16
 5b0:	80 81       	ld	r24, Z
 5b2:	83 7c       	andi	r24, 0xC3	; 195
 5b4:	91 f0       	breq	.+36     	; 0x5da <initBoard+0x1a0>
 5b6:	40 e0       	ldi	r20, 0x00	; 0
 5b8:	50 e0       	ldi	r21, 0x00	; 0
 5ba:	66 e2       	ldi	r22, 0x26	; 38
 5bc:	72 e0       	ldi	r23, 0x02	; 2
 5be:	8f ef       	ldi	r24, 0xFF	; 255
 5c0:	93 e0       	ldi	r25, 0x03	; 3
 5c2:	0d de       	rcall	.-998    	; 0x1de <rgbWrite>
 5c4:	bf 92       	push	r11
 5c6:	af 92       	push	r10
 5c8:	1f 92       	push	r1
 5ca:	4f 92       	push	r4
 5cc:	c2 de       	rcall	.-636    	; 0x352 <lcdWriteText>
 5ce:	0f 90       	pop	r0
 5d0:	0f 90       	pop	r0
 5d2:	0f 90       	pop	r0
 5d4:	0f 90       	pop	r0
 5d6:	76 2c       	mov	r7, r6
 5d8:	25 c0       	rjmp	.+74     	; 0x624 <initBoard+0x1ea>
 5da:	8f ef       	ldi	r24, 0xFF	; 255
 5dc:	9c e7       	ldi	r25, 0x7C	; 124
 5de:	01 97       	sbiw	r24, 0x01	; 1
 5e0:	f1 f7       	brne	.-4      	; 0x5de <initBoard+0x1a4>
 5e2:	00 c0       	rjmp	.+0      	; 0x5e4 <initBoard+0x1aa>
 5e4:	00 00       	nop
 5e6:	b8 cf       	rjmp	.-144    	; 0x558 <initBoard+0x11e>
 5e8:	f0 de       	rcall	.-544    	; 0x3ca <lcdClear>
 5ea:	80 e0       	ldi	r24, 0x00	; 0
 5ec:	2f de       	rcall	.-930    	; 0x24c <lcdLight>
 5ee:	80 e0       	ldi	r24, 0x00	; 0
 5f0:	90 e0       	ldi	r25, 0x00	; 0
 5f2:	c5 dd       	rcall	.-1142   	; 0x17e <ledWriteAll>
 5f4:	40 e0       	ldi	r20, 0x00	; 0
 5f6:	50 e0       	ldi	r21, 0x00	; 0
 5f8:	60 e0       	ldi	r22, 0x00	; 0
 5fa:	70 e0       	ldi	r23, 0x00	; 0
 5fc:	80 e0       	ldi	r24, 0x00	; 0
 5fe:	90 e0       	ldi	r25, 0x00	; 0
 600:	ee dd       	rcall	.-1060   	; 0x1de <rgbWrite>
 602:	10 92 79 02 	sts	0x0279, r1	; 0x800279 <systemTimeMs>
 606:	10 92 7a 02 	sts	0x027A, r1	; 0x80027a <systemTimeMs+0x1>
 60a:	10 92 7b 02 	sts	0x027B, r1	; 0x80027b <systemTimeMs+0x2>
 60e:	10 92 7c 02 	sts	0x027C, r1	; 0x80027c <systemTimeMs+0x3>
 612:	10 92 7d 02 	sts	0x027D, r1	; 0x80027d <systemTimeMs+0x4>
 616:	10 92 7e 02 	sts	0x027E, r1	; 0x80027e <systemTimeMs+0x5>
 61a:	10 92 7f 02 	sts	0x027F, r1	; 0x80027f <systemTimeMs+0x6>
 61e:	10 92 80 02 	sts	0x0280, r1	; 0x800280 <systemTimeMs+0x7>
 622:	05 c0       	rjmp	.+10     	; 0x62e <initBoard+0x1f4>
 624:	f8 01       	movw	r30, r16
 626:	80 81       	ld	r24, Z
 628:	83 7c       	andi	r24, 0xC3	; 195
 62a:	b9 f6       	brne	.-82     	; 0x5da <initBoard+0x1a0>
 62c:	dd cf       	rjmp	.-70     	; 0x5e8 <initBoard+0x1ae>
 62e:	df 91       	pop	r29
 630:	cf 91       	pop	r28
 632:	1f 91       	pop	r17
 634:	0f 91       	pop	r16
 636:	ff 90       	pop	r15
 638:	ef 90       	pop	r14
 63a:	df 90       	pop	r13
 63c:	cf 90       	pop	r12
 63e:	bf 90       	pop	r11
 640:	af 90       	pop	r10
 642:	9f 90       	pop	r9
 644:	8f 90       	pop	r8
 646:	7f 90       	pop	r7
 648:	6f 90       	pop	r6
 64a:	5f 90       	pop	r5
 64c:	4f 90       	pop	r4
 64e:	08 95       	ret

00000650 <matrixWriteNextLine>:




void matrixWriteNextLine(void)
{
 650:	cf 93       	push	r28
 652:	df 93       	push	r29
 654:	cd b7       	in	r28, 0x3d	; 61
 656:	de b7       	in	r29, 0x3e	; 62
 658:	28 97       	sbiw	r28, 0x08	; 8
 65a:	0f b6       	in	r0, 0x3f	; 63
 65c:	f8 94       	cli
 65e:	de bf       	out	0x3e, r29	; 62
 660:	0f be       	out	0x3f, r0	; 63
 662:	cd bf       	out	0x3d, r28	; 61
    const  uint8_t Bit_Muster_Tab[8] = {1,2,4,8,16,32,64,128};
 664:	88 e0       	ldi	r24, 0x08	; 8
 666:	e0 e0       	ldi	r30, 0x00	; 0
 668:	f2 e0       	ldi	r31, 0x02	; 2
 66a:	de 01       	movw	r26, r28
 66c:	11 96       	adiw	r26, 0x01	; 1
 66e:	01 90       	ld	r0, Z+
 670:	0d 92       	st	X+, r0
 672:	8a 95       	dec	r24
 674:	e1 f7       	brne	.-8      	; 0x66e <matrixWriteNextLine+0x1e>
    static uint16_t Zeilen_Nr, Bit_Muster;
    uint8_t i;
    
    STROBE_0;                             // Daten des Scheiberegisters nicht ins Latch schreiben
 676:	e5 e0       	ldi	r30, 0x05	; 5
 678:	f1 e0       	ldi	r31, 0x01	; 1
 67a:	80 81       	ld	r24, Z
 67c:	8f 7b       	andi	r24, 0xBF	; 191
 67e:	80 83       	st	Z, r24

    Bit_Muster = Bit_Muster_Tab[Zeilen_Nr]; // Bitmuster aus Tabelle holen, um mit Daten in matrix[] zu vergleichen.
 680:	e0 91 76 02 	lds	r30, 0x0276	; 0x800276 <Zeilen_Nr.2725>
 684:	f0 91 77 02 	lds	r31, 0x0277	; 0x800277 <Zeilen_Nr.2725+0x1>
 688:	81 e0       	ldi	r24, 0x01	; 1
 68a:	90 e0       	ldi	r25, 0x00	; 0
 68c:	8c 0f       	add	r24, r28
 68e:	9d 1f       	adc	r25, r29
 690:	e8 0f       	add	r30, r24
 692:	f9 1f       	adc	r31, r25
 694:	80 81       	ld	r24, Z
 696:	90 e0       	ldi	r25, 0x00	; 0
 698:	90 93 75 02 	sts	0x0275, r25	; 0x800275 <__data_end+0x1>
 69c:	80 93 74 02 	sts	0x0274, r24	; 0x800274 <__data_end>
 6a0:	a2 ef       	ldi	r26, 0xF2	; 242
 6a2:	b2 e0       	ldi	r27, 0x02	; 2
 6a4:	22 e8       	ldi	r18, 0x82	; 130
 6a6:	32 e0       	ldi	r19, 0x02	; 2
    {                                       // Vergleicht Bit-Muster der aktuellen Zeile mit Daten in matrix[]
        if((matrix[Anzahl_Spalten-1- i] & Bit_Muster) != 0)     // Ist in matrix[] das entsprechende Bit gesetzt?
        { DATA_Modul_1_ON;                    //   JA:   ==> Datenbit "1" ins Schieberegister schreiben
        }
        else
        { DATA_Modul_1_OFF;                   //   NEIN: ==> Datenbit "0" ins Schieberegister schreiben
 6a8:	e5 e0       	ldi	r30, 0x05	; 5
 6aa:	f1 e0       	ldi	r31, 0x01	; 1
    Bit_Muster = Bit_Muster_Tab[Zeilen_Nr]; // Bitmuster aus Tabelle holen, um mit Daten in matrix[] zu vergleichen.
    
    // Alle Bits seriell ins Schieberegister hineinschreiben
    for(i=0; i<Anzahl_Spalten; i++)         // Alle Spalten durchgehen und überpüfen, ob Bit gesetzt ist
    {                                       // Vergleicht Bit-Muster der aktuellen Zeile mit Daten in matrix[]
        if((matrix[Anzahl_Spalten-1- i] & Bit_Muster) != 0)     // Ist in matrix[] das entsprechende Bit gesetzt?
 6ac:	5e 91       	ld	r21, -X
 6ae:	4e 91       	ld	r20, -X
 6b0:	80 91 74 02 	lds	r24, 0x0274	; 0x800274 <__data_end>
 6b4:	90 91 75 02 	lds	r25, 0x0275	; 0x800275 <__data_end+0x1>
 6b8:	84 23       	and	r24, r20
 6ba:	95 23       	and	r25, r21
 6bc:	89 2b       	or	r24, r25
 6be:	21 f0       	breq	.+8      	; 0x6c8 <matrixWriteNextLine+0x78>
        { DATA_Modul_1_ON;                    //   JA:   ==> Datenbit "1" ins Schieberegister schreiben
 6c0:	80 81       	ld	r24, Z
 6c2:	80 62       	ori	r24, 0x20	; 32
 6c4:	80 83       	st	Z, r24
 6c6:	03 c0       	rjmp	.+6      	; 0x6ce <matrixWriteNextLine+0x7e>
        }
        else
        { DATA_Modul_1_OFF;                   //   NEIN: ==> Datenbit "0" ins Schieberegister schreiben
 6c8:	80 81       	ld	r24, Z
 6ca:	8f 7d       	andi	r24, 0xDF	; 223
 6cc:	80 83       	st	Z, r24
        }
        CLOCK_1;
 6ce:	80 81       	ld	r24, Z
 6d0:	80 61       	ori	r24, 0x10	; 16
 6d2:	80 83       	st	Z, r24
        CLOCK_0;                            // Datenbit wird bei der negativen Flanke des Clock-Signals übernommen
 6d4:	80 81       	ld	r24, Z
 6d6:	8f 7e       	andi	r24, 0xEF	; 239
 6d8:	80 83       	st	Z, r24
    STROBE_0;                             // Daten des Scheiberegisters nicht ins Latch schreiben

    Bit_Muster = Bit_Muster_Tab[Zeilen_Nr]; // Bitmuster aus Tabelle holen, um mit Daten in matrix[] zu vergleichen.
    
    // Alle Bits seriell ins Schieberegister hineinschreiben
    for(i=0; i<Anzahl_Spalten; i++)         // Alle Spalten durchgehen und überpüfen, ob Bit gesetzt ist
 6da:	a2 17       	cp	r26, r18
 6dc:	b3 07       	cpc	r27, r19
 6de:	31 f7       	brne	.-52     	; 0x6ac <matrixWriteNextLine+0x5c>
        }
        CLOCK_1;
        CLOCK_0;                            // Datenbit wird bei der negativen Flanke des Clock-Signals übernommen
    }
    
    ENABLE_0;                                // +5V aller Zeilen abschalten
 6e0:	e5 e0       	ldi	r30, 0x05	; 5
 6e2:	f1 e0       	ldi	r31, 0x01	; 1
 6e4:	80 81       	ld	r24, Z
 6e6:	87 7f       	andi	r24, 0xF7	; 247
 6e8:	80 83       	st	Z, r24
    PORTJ &= ~0x07;
 6ea:	80 81       	ld	r24, Z
 6ec:	88 7f       	andi	r24, 0xF8	; 248
 6ee:	80 83       	st	Z, r24
    PORTJ |= Zeilen_Nr;                     // gewünschte Zeile einstellen
 6f0:	90 81       	ld	r25, Z
 6f2:	80 91 76 02 	lds	r24, 0x0276	; 0x800276 <Zeilen_Nr.2725>
 6f6:	89 2b       	or	r24, r25
 6f8:	80 83       	st	Z, r24
    STROBE_1;                             // Daten ins Latch schreiben
 6fa:	80 81       	ld	r24, Z
 6fc:	80 64       	ori	r24, 0x40	; 64
 6fe:	80 83       	st	Z, r24
    ENABLE_1;                             // +5V Speisung der eingestellten Zeile einschalten
 700:	80 81       	ld	r24, Z
 702:	88 60       	ori	r24, 0x08	; 8
 704:	80 83       	st	Z, r24

    // Die Zeilen werden nacheinander eingeschaltet --> zyklisch 0,1,2,3,4,5,6,7, 0,1,2,3, ...
    if (Zeilen_Nr < 7)
 706:	80 91 76 02 	lds	r24, 0x0276	; 0x800276 <Zeilen_Nr.2725>
 70a:	90 91 77 02 	lds	r25, 0x0277	; 0x800277 <Zeilen_Nr.2725+0x1>
 70e:	87 30       	cpi	r24, 0x07	; 7
 710:	91 05       	cpc	r25, r1
 712:	30 f4       	brcc	.+12     	; 0x720 <matrixWriteNextLine+0xd0>
    {
        Zeilen_Nr++;
 714:	01 96       	adiw	r24, 0x01	; 1
 716:	90 93 77 02 	sts	0x0277, r25	; 0x800277 <Zeilen_Nr.2725+0x1>
 71a:	80 93 76 02 	sts	0x0276, r24	; 0x800276 <Zeilen_Nr.2725>
 71e:	07 c0       	rjmp	.+14     	; 0x72e <matrixWriteNextLine+0xde>
    }
    else
    {
        Zeilen_Nr = 0;
 720:	10 92 77 02 	sts	0x0277, r1	; 0x800277 <Zeilen_Nr.2725+0x1>
 724:	10 92 76 02 	sts	0x0276, r1	; 0x800276 <Zeilen_Nr.2725>
        writeTextFinished = 1;
 728:	81 e0       	ldi	r24, 0x01	; 1
 72a:	80 93 78 02 	sts	0x0278, r24	; 0x800278 <writeTextFinished>
    }
    
 72e:	28 96       	adiw	r28, 0x08	; 8
 730:	0f b6       	in	r0, 0x3f	; 63
 732:	f8 94       	cli
 734:	de bf       	out	0x3e, r29	; 62
 736:	0f be       	out	0x3f, r0	; 63
 738:	cd bf       	out	0x3d, r28	; 61
 73a:	df 91       	pop	r29
 73c:	cf 91       	pop	r28
 73e:	08 95       	ret

00000740 <__vector_23>:
//--------------------------------------------------------------------------------------------
// Timer 0 Overflow Interrupt ->  Wird alle 1ms aufgerufen
//--------------------------------------------------------------------------------------------

ISR(TIMER0_OVF_vect)
{
 740:	1f 92       	push	r1
 742:	0f 92       	push	r0
 744:	0f b6       	in	r0, 0x3f	; 63
 746:	0f 92       	push	r0
 748:	11 24       	eor	r1, r1
 74a:	0b b6       	in	r0, 0x3b	; 59
 74c:	0f 92       	push	r0
 74e:	2f 93       	push	r18
 750:	3f 93       	push	r19
 752:	4f 93       	push	r20
 754:	5f 93       	push	r21
 756:	6f 93       	push	r22
 758:	7f 93       	push	r23
 75a:	8f 93       	push	r24
 75c:	9f 93       	push	r25
 75e:	af 93       	push	r26
 760:	bf 93       	push	r27
 762:	ef 93       	push	r30
 764:	ff 93       	push	r31
    systemTimeMs += 1;
 766:	20 91 79 02 	lds	r18, 0x0279	; 0x800279 <systemTimeMs>
 76a:	30 91 7a 02 	lds	r19, 0x027A	; 0x80027a <systemTimeMs+0x1>
 76e:	40 91 7b 02 	lds	r20, 0x027B	; 0x80027b <systemTimeMs+0x2>
 772:	50 91 7c 02 	lds	r21, 0x027C	; 0x80027c <systemTimeMs+0x3>
 776:	60 91 7d 02 	lds	r22, 0x027D	; 0x80027d <systemTimeMs+0x4>
 77a:	70 91 7e 02 	lds	r23, 0x027E	; 0x80027e <systemTimeMs+0x5>
 77e:	80 91 7f 02 	lds	r24, 0x027F	; 0x80027f <systemTimeMs+0x6>
 782:	90 91 80 02 	lds	r25, 0x0280	; 0x800280 <systemTimeMs+0x7>
 786:	a1 e0       	ldi	r26, 0x01	; 1
 788:	27 d0       	rcall	.+78     	; 0x7d8 <__adddi3_s8>
 78a:	20 93 79 02 	sts	0x0279, r18	; 0x800279 <systemTimeMs>
 78e:	30 93 7a 02 	sts	0x027A, r19	; 0x80027a <systemTimeMs+0x1>
 792:	40 93 7b 02 	sts	0x027B, r20	; 0x80027b <systemTimeMs+0x2>
 796:	50 93 7c 02 	sts	0x027C, r21	; 0x80027c <systemTimeMs+0x3>
 79a:	60 93 7d 02 	sts	0x027D, r22	; 0x80027d <systemTimeMs+0x4>
 79e:	70 93 7e 02 	sts	0x027E, r23	; 0x80027e <systemTimeMs+0x5>
 7a2:	80 93 7f 02 	sts	0x027F, r24	; 0x80027f <systemTimeMs+0x6>
 7a6:	90 93 80 02 	sts	0x0280, r25	; 0x800280 <systemTimeMs+0x7>

    if(matrixRunning)matrixWriteNextLine();
 7aa:	80 91 81 02 	lds	r24, 0x0281	; 0x800281 <matrixRunning>
 7ae:	81 11       	cpse	r24, r1
 7b0:	4f df       	rcall	.-354    	; 0x650 <matrixWriteNextLine>
}
 7b2:	ff 91       	pop	r31
 7b4:	ef 91       	pop	r30
 7b6:	bf 91       	pop	r27
 7b8:	af 91       	pop	r26
 7ba:	9f 91       	pop	r25
 7bc:	8f 91       	pop	r24
 7be:	7f 91       	pop	r23
 7c0:	6f 91       	pop	r22
 7c2:	5f 91       	pop	r21
 7c4:	4f 91       	pop	r20
 7c6:	3f 91       	pop	r19
 7c8:	2f 91       	pop	r18
 7ca:	0f 90       	pop	r0
 7cc:	0b be       	out	0x3b, r0	; 59
 7ce:	0f 90       	pop	r0
 7d0:	0f be       	out	0x3f, r0	; 63
 7d2:	0f 90       	pop	r0
 7d4:	1f 90       	pop	r1
 7d6:	18 95       	reti

000007d8 <__adddi3_s8>:
 7d8:	00 24       	eor	r0, r0
 7da:	a7 fd       	sbrc	r26, 7
 7dc:	00 94       	com	r0
 7de:	2a 0f       	add	r18, r26
 7e0:	30 1d       	adc	r19, r0
 7e2:	40 1d       	adc	r20, r0
 7e4:	50 1d       	adc	r21, r0
 7e6:	60 1d       	adc	r22, r0
 7e8:	70 1d       	adc	r23, r0
 7ea:	80 1d       	adc	r24, r0
 7ec:	90 1d       	adc	r25, r0
 7ee:	08 95       	ret

000007f0 <vsnprintf>:
 7f0:	0f 93       	push	r16
 7f2:	1f 93       	push	r17
 7f4:	cf 93       	push	r28
 7f6:	df 93       	push	r29
 7f8:	cd b7       	in	r28, 0x3d	; 61
 7fa:	de b7       	in	r29, 0x3e	; 62
 7fc:	2e 97       	sbiw	r28, 0x0e	; 14
 7fe:	0f b6       	in	r0, 0x3f	; 63
 800:	f8 94       	cli
 802:	de bf       	out	0x3e, r29	; 62
 804:	0f be       	out	0x3f, r0	; 63
 806:	cd bf       	out	0x3d, r28	; 61
 808:	8c 01       	movw	r16, r24
 80a:	fa 01       	movw	r30, r20
 80c:	86 e0       	ldi	r24, 0x06	; 6
 80e:	8c 83       	std	Y+4, r24	; 0x04
 810:	1a 83       	std	Y+2, r17	; 0x02
 812:	09 83       	std	Y+1, r16	; 0x01
 814:	77 ff       	sbrs	r23, 7
 816:	02 c0       	rjmp	.+4      	; 0x81c <vsnprintf+0x2c>
 818:	60 e0       	ldi	r22, 0x00	; 0
 81a:	70 e8       	ldi	r23, 0x80	; 128
 81c:	cb 01       	movw	r24, r22
 81e:	01 97       	sbiw	r24, 0x01	; 1
 820:	9e 83       	std	Y+6, r25	; 0x06
 822:	8d 83       	std	Y+5, r24	; 0x05
 824:	a9 01       	movw	r20, r18
 826:	bf 01       	movw	r22, r30
 828:	ce 01       	movw	r24, r28
 82a:	01 96       	adiw	r24, 0x01	; 1
 82c:	19 d0       	rcall	.+50     	; 0x860 <vfprintf>
 82e:	4d 81       	ldd	r20, Y+5	; 0x05
 830:	5e 81       	ldd	r21, Y+6	; 0x06
 832:	57 fd       	sbrc	r21, 7
 834:	0a c0       	rjmp	.+20     	; 0x84a <vsnprintf+0x5a>
 836:	2f 81       	ldd	r18, Y+7	; 0x07
 838:	38 85       	ldd	r19, Y+8	; 0x08
 83a:	42 17       	cp	r20, r18
 83c:	53 07       	cpc	r21, r19
 83e:	0c f4       	brge	.+2      	; 0x842 <vsnprintf+0x52>
 840:	9a 01       	movw	r18, r20
 842:	f8 01       	movw	r30, r16
 844:	e2 0f       	add	r30, r18
 846:	f3 1f       	adc	r31, r19
 848:	10 82       	st	Z, r1
 84a:	2e 96       	adiw	r28, 0x0e	; 14
 84c:	0f b6       	in	r0, 0x3f	; 63
 84e:	f8 94       	cli
 850:	de bf       	out	0x3e, r29	; 62
 852:	0f be       	out	0x3f, r0	; 63
 854:	cd bf       	out	0x3d, r28	; 61
 856:	df 91       	pop	r29
 858:	cf 91       	pop	r28
 85a:	1f 91       	pop	r17
 85c:	0f 91       	pop	r16
 85e:	08 95       	ret

00000860 <vfprintf>:
 860:	2f 92       	push	r2
 862:	3f 92       	push	r3
 864:	4f 92       	push	r4
 866:	5f 92       	push	r5
 868:	6f 92       	push	r6
 86a:	7f 92       	push	r7
 86c:	8f 92       	push	r8
 86e:	9f 92       	push	r9
 870:	af 92       	push	r10
 872:	bf 92       	push	r11
 874:	cf 92       	push	r12
 876:	df 92       	push	r13
 878:	ef 92       	push	r14
 87a:	ff 92       	push	r15
 87c:	0f 93       	push	r16
 87e:	1f 93       	push	r17
 880:	cf 93       	push	r28
 882:	df 93       	push	r29
 884:	cd b7       	in	r28, 0x3d	; 61
 886:	de b7       	in	r29, 0x3e	; 62
 888:	2b 97       	sbiw	r28, 0x0b	; 11
 88a:	0f b6       	in	r0, 0x3f	; 63
 88c:	f8 94       	cli
 88e:	de bf       	out	0x3e, r29	; 62
 890:	0f be       	out	0x3f, r0	; 63
 892:	cd bf       	out	0x3d, r28	; 61
 894:	6c 01       	movw	r12, r24
 896:	7b 01       	movw	r14, r22
 898:	8a 01       	movw	r16, r20
 89a:	fc 01       	movw	r30, r24
 89c:	17 82       	std	Z+7, r1	; 0x07
 89e:	16 82       	std	Z+6, r1	; 0x06
 8a0:	83 81       	ldd	r24, Z+3	; 0x03
 8a2:	81 ff       	sbrs	r24, 1
 8a4:	bf c1       	rjmp	.+894    	; 0xc24 <vfprintf+0x3c4>
 8a6:	ce 01       	movw	r24, r28
 8a8:	01 96       	adiw	r24, 0x01	; 1
 8aa:	3c 01       	movw	r6, r24
 8ac:	f6 01       	movw	r30, r12
 8ae:	93 81       	ldd	r25, Z+3	; 0x03
 8b0:	f7 01       	movw	r30, r14
 8b2:	93 fd       	sbrc	r25, 3
 8b4:	85 91       	lpm	r24, Z+
 8b6:	93 ff       	sbrs	r25, 3
 8b8:	81 91       	ld	r24, Z+
 8ba:	7f 01       	movw	r14, r30
 8bc:	88 23       	and	r24, r24
 8be:	09 f4       	brne	.+2      	; 0x8c2 <vfprintf+0x62>
 8c0:	ad c1       	rjmp	.+858    	; 0xc1c <vfprintf+0x3bc>
 8c2:	85 32       	cpi	r24, 0x25	; 37
 8c4:	39 f4       	brne	.+14     	; 0x8d4 <vfprintf+0x74>
 8c6:	93 fd       	sbrc	r25, 3
 8c8:	85 91       	lpm	r24, Z+
 8ca:	93 ff       	sbrs	r25, 3
 8cc:	81 91       	ld	r24, Z+
 8ce:	7f 01       	movw	r14, r30
 8d0:	85 32       	cpi	r24, 0x25	; 37
 8d2:	21 f4       	brne	.+8      	; 0x8dc <vfprintf+0x7c>
 8d4:	b6 01       	movw	r22, r12
 8d6:	90 e0       	ldi	r25, 0x00	; 0
 8d8:	d6 d1       	rcall	.+940    	; 0xc86 <fputc>
 8da:	e8 cf       	rjmp	.-48     	; 0x8ac <vfprintf+0x4c>
 8dc:	91 2c       	mov	r9, r1
 8de:	21 2c       	mov	r2, r1
 8e0:	31 2c       	mov	r3, r1
 8e2:	ff e1       	ldi	r31, 0x1F	; 31
 8e4:	f3 15       	cp	r31, r3
 8e6:	d8 f0       	brcs	.+54     	; 0x91e <vfprintf+0xbe>
 8e8:	8b 32       	cpi	r24, 0x2B	; 43
 8ea:	79 f0       	breq	.+30     	; 0x90a <vfprintf+0xaa>
 8ec:	38 f4       	brcc	.+14     	; 0x8fc <vfprintf+0x9c>
 8ee:	80 32       	cpi	r24, 0x20	; 32
 8f0:	79 f0       	breq	.+30     	; 0x910 <vfprintf+0xb0>
 8f2:	83 32       	cpi	r24, 0x23	; 35
 8f4:	a1 f4       	brne	.+40     	; 0x91e <vfprintf+0xbe>
 8f6:	23 2d       	mov	r18, r3
 8f8:	20 61       	ori	r18, 0x10	; 16
 8fa:	1d c0       	rjmp	.+58     	; 0x936 <vfprintf+0xd6>
 8fc:	8d 32       	cpi	r24, 0x2D	; 45
 8fe:	61 f0       	breq	.+24     	; 0x918 <vfprintf+0xb8>
 900:	80 33       	cpi	r24, 0x30	; 48
 902:	69 f4       	brne	.+26     	; 0x91e <vfprintf+0xbe>
 904:	23 2d       	mov	r18, r3
 906:	21 60       	ori	r18, 0x01	; 1
 908:	16 c0       	rjmp	.+44     	; 0x936 <vfprintf+0xd6>
 90a:	83 2d       	mov	r24, r3
 90c:	82 60       	ori	r24, 0x02	; 2
 90e:	38 2e       	mov	r3, r24
 910:	e3 2d       	mov	r30, r3
 912:	e4 60       	ori	r30, 0x04	; 4
 914:	3e 2e       	mov	r3, r30
 916:	2a c0       	rjmp	.+84     	; 0x96c <vfprintf+0x10c>
 918:	f3 2d       	mov	r31, r3
 91a:	f8 60       	ori	r31, 0x08	; 8
 91c:	1d c0       	rjmp	.+58     	; 0x958 <vfprintf+0xf8>
 91e:	37 fc       	sbrc	r3, 7
 920:	2d c0       	rjmp	.+90     	; 0x97c <vfprintf+0x11c>
 922:	20 ed       	ldi	r18, 0xD0	; 208
 924:	28 0f       	add	r18, r24
 926:	2a 30       	cpi	r18, 0x0A	; 10
 928:	40 f0       	brcs	.+16     	; 0x93a <vfprintf+0xda>
 92a:	8e 32       	cpi	r24, 0x2E	; 46
 92c:	b9 f4       	brne	.+46     	; 0x95c <vfprintf+0xfc>
 92e:	36 fc       	sbrc	r3, 6
 930:	75 c1       	rjmp	.+746    	; 0xc1c <vfprintf+0x3bc>
 932:	23 2d       	mov	r18, r3
 934:	20 64       	ori	r18, 0x40	; 64
 936:	32 2e       	mov	r3, r18
 938:	19 c0       	rjmp	.+50     	; 0x96c <vfprintf+0x10c>
 93a:	36 fe       	sbrs	r3, 6
 93c:	06 c0       	rjmp	.+12     	; 0x94a <vfprintf+0xea>
 93e:	8a e0       	ldi	r24, 0x0A	; 10
 940:	98 9e       	mul	r9, r24
 942:	20 0d       	add	r18, r0
 944:	11 24       	eor	r1, r1
 946:	92 2e       	mov	r9, r18
 948:	11 c0       	rjmp	.+34     	; 0x96c <vfprintf+0x10c>
 94a:	ea e0       	ldi	r30, 0x0A	; 10
 94c:	2e 9e       	mul	r2, r30
 94e:	20 0d       	add	r18, r0
 950:	11 24       	eor	r1, r1
 952:	22 2e       	mov	r2, r18
 954:	f3 2d       	mov	r31, r3
 956:	f0 62       	ori	r31, 0x20	; 32
 958:	3f 2e       	mov	r3, r31
 95a:	08 c0       	rjmp	.+16     	; 0x96c <vfprintf+0x10c>
 95c:	8c 36       	cpi	r24, 0x6C	; 108
 95e:	21 f4       	brne	.+8      	; 0x968 <vfprintf+0x108>
 960:	83 2d       	mov	r24, r3
 962:	80 68       	ori	r24, 0x80	; 128
 964:	38 2e       	mov	r3, r24
 966:	02 c0       	rjmp	.+4      	; 0x96c <vfprintf+0x10c>
 968:	88 36       	cpi	r24, 0x68	; 104
 96a:	41 f4       	brne	.+16     	; 0x97c <vfprintf+0x11c>
 96c:	f7 01       	movw	r30, r14
 96e:	93 fd       	sbrc	r25, 3
 970:	85 91       	lpm	r24, Z+
 972:	93 ff       	sbrs	r25, 3
 974:	81 91       	ld	r24, Z+
 976:	7f 01       	movw	r14, r30
 978:	81 11       	cpse	r24, r1
 97a:	b3 cf       	rjmp	.-154    	; 0x8e2 <vfprintf+0x82>
 97c:	98 2f       	mov	r25, r24
 97e:	9f 7d       	andi	r25, 0xDF	; 223
 980:	95 54       	subi	r25, 0x45	; 69
 982:	93 30       	cpi	r25, 0x03	; 3
 984:	28 f4       	brcc	.+10     	; 0x990 <vfprintf+0x130>
 986:	0c 5f       	subi	r16, 0xFC	; 252
 988:	1f 4f       	sbci	r17, 0xFF	; 255
 98a:	9f e3       	ldi	r25, 0x3F	; 63
 98c:	99 83       	std	Y+1, r25	; 0x01
 98e:	0d c0       	rjmp	.+26     	; 0x9aa <vfprintf+0x14a>
 990:	83 36       	cpi	r24, 0x63	; 99
 992:	31 f0       	breq	.+12     	; 0x9a0 <vfprintf+0x140>
 994:	83 37       	cpi	r24, 0x73	; 115
 996:	71 f0       	breq	.+28     	; 0x9b4 <vfprintf+0x154>
 998:	83 35       	cpi	r24, 0x53	; 83
 99a:	09 f0       	breq	.+2      	; 0x99e <vfprintf+0x13e>
 99c:	55 c0       	rjmp	.+170    	; 0xa48 <vfprintf+0x1e8>
 99e:	20 c0       	rjmp	.+64     	; 0x9e0 <vfprintf+0x180>
 9a0:	f8 01       	movw	r30, r16
 9a2:	80 81       	ld	r24, Z
 9a4:	89 83       	std	Y+1, r24	; 0x01
 9a6:	0e 5f       	subi	r16, 0xFE	; 254
 9a8:	1f 4f       	sbci	r17, 0xFF	; 255
 9aa:	88 24       	eor	r8, r8
 9ac:	83 94       	inc	r8
 9ae:	91 2c       	mov	r9, r1
 9b0:	53 01       	movw	r10, r6
 9b2:	12 c0       	rjmp	.+36     	; 0x9d8 <vfprintf+0x178>
 9b4:	28 01       	movw	r4, r16
 9b6:	f2 e0       	ldi	r31, 0x02	; 2
 9b8:	4f 0e       	add	r4, r31
 9ba:	51 1c       	adc	r5, r1
 9bc:	f8 01       	movw	r30, r16
 9be:	a0 80       	ld	r10, Z
 9c0:	b1 80       	ldd	r11, Z+1	; 0x01
 9c2:	36 fe       	sbrs	r3, 6
 9c4:	03 c0       	rjmp	.+6      	; 0x9cc <vfprintf+0x16c>
 9c6:	69 2d       	mov	r22, r9
 9c8:	70 e0       	ldi	r23, 0x00	; 0
 9ca:	02 c0       	rjmp	.+4      	; 0x9d0 <vfprintf+0x170>
 9cc:	6f ef       	ldi	r22, 0xFF	; 255
 9ce:	7f ef       	ldi	r23, 0xFF	; 255
 9d0:	c5 01       	movw	r24, r10
 9d2:	4e d1       	rcall	.+668    	; 0xc70 <strnlen>
 9d4:	4c 01       	movw	r8, r24
 9d6:	82 01       	movw	r16, r4
 9d8:	f3 2d       	mov	r31, r3
 9da:	ff 77       	andi	r31, 0x7F	; 127
 9dc:	3f 2e       	mov	r3, r31
 9de:	15 c0       	rjmp	.+42     	; 0xa0a <vfprintf+0x1aa>
 9e0:	28 01       	movw	r4, r16
 9e2:	22 e0       	ldi	r18, 0x02	; 2
 9e4:	42 0e       	add	r4, r18
 9e6:	51 1c       	adc	r5, r1
 9e8:	f8 01       	movw	r30, r16
 9ea:	a0 80       	ld	r10, Z
 9ec:	b1 80       	ldd	r11, Z+1	; 0x01
 9ee:	36 fe       	sbrs	r3, 6
 9f0:	03 c0       	rjmp	.+6      	; 0x9f8 <vfprintf+0x198>
 9f2:	69 2d       	mov	r22, r9
 9f4:	70 e0       	ldi	r23, 0x00	; 0
 9f6:	02 c0       	rjmp	.+4      	; 0x9fc <vfprintf+0x19c>
 9f8:	6f ef       	ldi	r22, 0xFF	; 255
 9fa:	7f ef       	ldi	r23, 0xFF	; 255
 9fc:	c5 01       	movw	r24, r10
 9fe:	2d d1       	rcall	.+602    	; 0xc5a <strnlen_P>
 a00:	4c 01       	movw	r8, r24
 a02:	f3 2d       	mov	r31, r3
 a04:	f0 68       	ori	r31, 0x80	; 128
 a06:	3f 2e       	mov	r3, r31
 a08:	82 01       	movw	r16, r4
 a0a:	33 fc       	sbrc	r3, 3
 a0c:	19 c0       	rjmp	.+50     	; 0xa40 <vfprintf+0x1e0>
 a0e:	82 2d       	mov	r24, r2
 a10:	90 e0       	ldi	r25, 0x00	; 0
 a12:	88 16       	cp	r8, r24
 a14:	99 06       	cpc	r9, r25
 a16:	a0 f4       	brcc	.+40     	; 0xa40 <vfprintf+0x1e0>
 a18:	b6 01       	movw	r22, r12
 a1a:	80 e2       	ldi	r24, 0x20	; 32
 a1c:	90 e0       	ldi	r25, 0x00	; 0
 a1e:	33 d1       	rcall	.+614    	; 0xc86 <fputc>
 a20:	2a 94       	dec	r2
 a22:	f5 cf       	rjmp	.-22     	; 0xa0e <vfprintf+0x1ae>
 a24:	f5 01       	movw	r30, r10
 a26:	37 fc       	sbrc	r3, 7
 a28:	85 91       	lpm	r24, Z+
 a2a:	37 fe       	sbrs	r3, 7
 a2c:	81 91       	ld	r24, Z+
 a2e:	5f 01       	movw	r10, r30
 a30:	b6 01       	movw	r22, r12
 a32:	90 e0       	ldi	r25, 0x00	; 0
 a34:	28 d1       	rcall	.+592    	; 0xc86 <fputc>
 a36:	21 10       	cpse	r2, r1
 a38:	2a 94       	dec	r2
 a3a:	21 e0       	ldi	r18, 0x01	; 1
 a3c:	82 1a       	sub	r8, r18
 a3e:	91 08       	sbc	r9, r1
 a40:	81 14       	cp	r8, r1
 a42:	91 04       	cpc	r9, r1
 a44:	79 f7       	brne	.-34     	; 0xa24 <vfprintf+0x1c4>
 a46:	e1 c0       	rjmp	.+450    	; 0xc0a <vfprintf+0x3aa>
 a48:	84 36       	cpi	r24, 0x64	; 100
 a4a:	11 f0       	breq	.+4      	; 0xa50 <vfprintf+0x1f0>
 a4c:	89 36       	cpi	r24, 0x69	; 105
 a4e:	39 f5       	brne	.+78     	; 0xa9e <vfprintf+0x23e>
 a50:	f8 01       	movw	r30, r16
 a52:	37 fe       	sbrs	r3, 7
 a54:	07 c0       	rjmp	.+14     	; 0xa64 <vfprintf+0x204>
 a56:	60 81       	ld	r22, Z
 a58:	71 81       	ldd	r23, Z+1	; 0x01
 a5a:	82 81       	ldd	r24, Z+2	; 0x02
 a5c:	93 81       	ldd	r25, Z+3	; 0x03
 a5e:	0c 5f       	subi	r16, 0xFC	; 252
 a60:	1f 4f       	sbci	r17, 0xFF	; 255
 a62:	08 c0       	rjmp	.+16     	; 0xa74 <vfprintf+0x214>
 a64:	60 81       	ld	r22, Z
 a66:	71 81       	ldd	r23, Z+1	; 0x01
 a68:	07 2e       	mov	r0, r23
 a6a:	00 0c       	add	r0, r0
 a6c:	88 0b       	sbc	r24, r24
 a6e:	99 0b       	sbc	r25, r25
 a70:	0e 5f       	subi	r16, 0xFE	; 254
 a72:	1f 4f       	sbci	r17, 0xFF	; 255
 a74:	f3 2d       	mov	r31, r3
 a76:	ff 76       	andi	r31, 0x6F	; 111
 a78:	3f 2e       	mov	r3, r31
 a7a:	97 ff       	sbrs	r25, 7
 a7c:	09 c0       	rjmp	.+18     	; 0xa90 <vfprintf+0x230>
 a7e:	90 95       	com	r25
 a80:	80 95       	com	r24
 a82:	70 95       	com	r23
 a84:	61 95       	neg	r22
 a86:	7f 4f       	sbci	r23, 0xFF	; 255
 a88:	8f 4f       	sbci	r24, 0xFF	; 255
 a8a:	9f 4f       	sbci	r25, 0xFF	; 255
 a8c:	f0 68       	ori	r31, 0x80	; 128
 a8e:	3f 2e       	mov	r3, r31
 a90:	2a e0       	ldi	r18, 0x0A	; 10
 a92:	30 e0       	ldi	r19, 0x00	; 0
 a94:	a3 01       	movw	r20, r6
 a96:	33 d1       	rcall	.+614    	; 0xcfe <__ultoa_invert>
 a98:	88 2e       	mov	r8, r24
 a9a:	86 18       	sub	r8, r6
 a9c:	44 c0       	rjmp	.+136    	; 0xb26 <vfprintf+0x2c6>
 a9e:	85 37       	cpi	r24, 0x75	; 117
 aa0:	31 f4       	brne	.+12     	; 0xaae <vfprintf+0x24e>
 aa2:	23 2d       	mov	r18, r3
 aa4:	2f 7e       	andi	r18, 0xEF	; 239
 aa6:	b2 2e       	mov	r11, r18
 aa8:	2a e0       	ldi	r18, 0x0A	; 10
 aaa:	30 e0       	ldi	r19, 0x00	; 0
 aac:	25 c0       	rjmp	.+74     	; 0xaf8 <vfprintf+0x298>
 aae:	93 2d       	mov	r25, r3
 ab0:	99 7f       	andi	r25, 0xF9	; 249
 ab2:	b9 2e       	mov	r11, r25
 ab4:	8f 36       	cpi	r24, 0x6F	; 111
 ab6:	c1 f0       	breq	.+48     	; 0xae8 <vfprintf+0x288>
 ab8:	18 f4       	brcc	.+6      	; 0xac0 <vfprintf+0x260>
 aba:	88 35       	cpi	r24, 0x58	; 88
 abc:	79 f0       	breq	.+30     	; 0xadc <vfprintf+0x27c>
 abe:	ae c0       	rjmp	.+348    	; 0xc1c <vfprintf+0x3bc>
 ac0:	80 37       	cpi	r24, 0x70	; 112
 ac2:	19 f0       	breq	.+6      	; 0xaca <vfprintf+0x26a>
 ac4:	88 37       	cpi	r24, 0x78	; 120
 ac6:	21 f0       	breq	.+8      	; 0xad0 <vfprintf+0x270>
 ac8:	a9 c0       	rjmp	.+338    	; 0xc1c <vfprintf+0x3bc>
 aca:	e9 2f       	mov	r30, r25
 acc:	e0 61       	ori	r30, 0x10	; 16
 ace:	be 2e       	mov	r11, r30
 ad0:	b4 fe       	sbrs	r11, 4
 ad2:	0d c0       	rjmp	.+26     	; 0xaee <vfprintf+0x28e>
 ad4:	fb 2d       	mov	r31, r11
 ad6:	f4 60       	ori	r31, 0x04	; 4
 ad8:	bf 2e       	mov	r11, r31
 ada:	09 c0       	rjmp	.+18     	; 0xaee <vfprintf+0x28e>
 adc:	34 fe       	sbrs	r3, 4
 ade:	0a c0       	rjmp	.+20     	; 0xaf4 <vfprintf+0x294>
 ae0:	29 2f       	mov	r18, r25
 ae2:	26 60       	ori	r18, 0x06	; 6
 ae4:	b2 2e       	mov	r11, r18
 ae6:	06 c0       	rjmp	.+12     	; 0xaf4 <vfprintf+0x294>
 ae8:	28 e0       	ldi	r18, 0x08	; 8
 aea:	30 e0       	ldi	r19, 0x00	; 0
 aec:	05 c0       	rjmp	.+10     	; 0xaf8 <vfprintf+0x298>
 aee:	20 e1       	ldi	r18, 0x10	; 16
 af0:	30 e0       	ldi	r19, 0x00	; 0
 af2:	02 c0       	rjmp	.+4      	; 0xaf8 <vfprintf+0x298>
 af4:	20 e1       	ldi	r18, 0x10	; 16
 af6:	32 e0       	ldi	r19, 0x02	; 2
 af8:	f8 01       	movw	r30, r16
 afa:	b7 fe       	sbrs	r11, 7
 afc:	07 c0       	rjmp	.+14     	; 0xb0c <vfprintf+0x2ac>
 afe:	60 81       	ld	r22, Z
 b00:	71 81       	ldd	r23, Z+1	; 0x01
 b02:	82 81       	ldd	r24, Z+2	; 0x02
 b04:	93 81       	ldd	r25, Z+3	; 0x03
 b06:	0c 5f       	subi	r16, 0xFC	; 252
 b08:	1f 4f       	sbci	r17, 0xFF	; 255
 b0a:	06 c0       	rjmp	.+12     	; 0xb18 <vfprintf+0x2b8>
 b0c:	60 81       	ld	r22, Z
 b0e:	71 81       	ldd	r23, Z+1	; 0x01
 b10:	80 e0       	ldi	r24, 0x00	; 0
 b12:	90 e0       	ldi	r25, 0x00	; 0
 b14:	0e 5f       	subi	r16, 0xFE	; 254
 b16:	1f 4f       	sbci	r17, 0xFF	; 255
 b18:	a3 01       	movw	r20, r6
 b1a:	f1 d0       	rcall	.+482    	; 0xcfe <__ultoa_invert>
 b1c:	88 2e       	mov	r8, r24
 b1e:	86 18       	sub	r8, r6
 b20:	fb 2d       	mov	r31, r11
 b22:	ff 77       	andi	r31, 0x7F	; 127
 b24:	3f 2e       	mov	r3, r31
 b26:	36 fe       	sbrs	r3, 6
 b28:	0d c0       	rjmp	.+26     	; 0xb44 <vfprintf+0x2e4>
 b2a:	23 2d       	mov	r18, r3
 b2c:	2e 7f       	andi	r18, 0xFE	; 254
 b2e:	a2 2e       	mov	r10, r18
 b30:	89 14       	cp	r8, r9
 b32:	58 f4       	brcc	.+22     	; 0xb4a <vfprintf+0x2ea>
 b34:	34 fe       	sbrs	r3, 4
 b36:	0b c0       	rjmp	.+22     	; 0xb4e <vfprintf+0x2ee>
 b38:	32 fc       	sbrc	r3, 2
 b3a:	09 c0       	rjmp	.+18     	; 0xb4e <vfprintf+0x2ee>
 b3c:	83 2d       	mov	r24, r3
 b3e:	8e 7e       	andi	r24, 0xEE	; 238
 b40:	a8 2e       	mov	r10, r24
 b42:	05 c0       	rjmp	.+10     	; 0xb4e <vfprintf+0x2ee>
 b44:	b8 2c       	mov	r11, r8
 b46:	a3 2c       	mov	r10, r3
 b48:	03 c0       	rjmp	.+6      	; 0xb50 <vfprintf+0x2f0>
 b4a:	b8 2c       	mov	r11, r8
 b4c:	01 c0       	rjmp	.+2      	; 0xb50 <vfprintf+0x2f0>
 b4e:	b9 2c       	mov	r11, r9
 b50:	a4 fe       	sbrs	r10, 4
 b52:	0f c0       	rjmp	.+30     	; 0xb72 <vfprintf+0x312>
 b54:	fe 01       	movw	r30, r28
 b56:	e8 0d       	add	r30, r8
 b58:	f1 1d       	adc	r31, r1
 b5a:	80 81       	ld	r24, Z
 b5c:	80 33       	cpi	r24, 0x30	; 48
 b5e:	21 f4       	brne	.+8      	; 0xb68 <vfprintf+0x308>
 b60:	9a 2d       	mov	r25, r10
 b62:	99 7e       	andi	r25, 0xE9	; 233
 b64:	a9 2e       	mov	r10, r25
 b66:	09 c0       	rjmp	.+18     	; 0xb7a <vfprintf+0x31a>
 b68:	a2 fe       	sbrs	r10, 2
 b6a:	06 c0       	rjmp	.+12     	; 0xb78 <vfprintf+0x318>
 b6c:	b3 94       	inc	r11
 b6e:	b3 94       	inc	r11
 b70:	04 c0       	rjmp	.+8      	; 0xb7a <vfprintf+0x31a>
 b72:	8a 2d       	mov	r24, r10
 b74:	86 78       	andi	r24, 0x86	; 134
 b76:	09 f0       	breq	.+2      	; 0xb7a <vfprintf+0x31a>
 b78:	b3 94       	inc	r11
 b7a:	a3 fc       	sbrc	r10, 3
 b7c:	10 c0       	rjmp	.+32     	; 0xb9e <vfprintf+0x33e>
 b7e:	a0 fe       	sbrs	r10, 0
 b80:	06 c0       	rjmp	.+12     	; 0xb8e <vfprintf+0x32e>
 b82:	b2 14       	cp	r11, r2
 b84:	80 f4       	brcc	.+32     	; 0xba6 <vfprintf+0x346>
 b86:	28 0c       	add	r2, r8
 b88:	92 2c       	mov	r9, r2
 b8a:	9b 18       	sub	r9, r11
 b8c:	0d c0       	rjmp	.+26     	; 0xba8 <vfprintf+0x348>
 b8e:	b2 14       	cp	r11, r2
 b90:	58 f4       	brcc	.+22     	; 0xba8 <vfprintf+0x348>
 b92:	b6 01       	movw	r22, r12
 b94:	80 e2       	ldi	r24, 0x20	; 32
 b96:	90 e0       	ldi	r25, 0x00	; 0
 b98:	76 d0       	rcall	.+236    	; 0xc86 <fputc>
 b9a:	b3 94       	inc	r11
 b9c:	f8 cf       	rjmp	.-16     	; 0xb8e <vfprintf+0x32e>
 b9e:	b2 14       	cp	r11, r2
 ba0:	18 f4       	brcc	.+6      	; 0xba8 <vfprintf+0x348>
 ba2:	2b 18       	sub	r2, r11
 ba4:	02 c0       	rjmp	.+4      	; 0xbaa <vfprintf+0x34a>
 ba6:	98 2c       	mov	r9, r8
 ba8:	21 2c       	mov	r2, r1
 baa:	a4 fe       	sbrs	r10, 4
 bac:	0f c0       	rjmp	.+30     	; 0xbcc <vfprintf+0x36c>
 bae:	b6 01       	movw	r22, r12
 bb0:	80 e3       	ldi	r24, 0x30	; 48
 bb2:	90 e0       	ldi	r25, 0x00	; 0
 bb4:	68 d0       	rcall	.+208    	; 0xc86 <fputc>
 bb6:	a2 fe       	sbrs	r10, 2
 bb8:	16 c0       	rjmp	.+44     	; 0xbe6 <vfprintf+0x386>
 bba:	a1 fc       	sbrc	r10, 1
 bbc:	03 c0       	rjmp	.+6      	; 0xbc4 <vfprintf+0x364>
 bbe:	88 e7       	ldi	r24, 0x78	; 120
 bc0:	90 e0       	ldi	r25, 0x00	; 0
 bc2:	02 c0       	rjmp	.+4      	; 0xbc8 <vfprintf+0x368>
 bc4:	88 e5       	ldi	r24, 0x58	; 88
 bc6:	90 e0       	ldi	r25, 0x00	; 0
 bc8:	b6 01       	movw	r22, r12
 bca:	0c c0       	rjmp	.+24     	; 0xbe4 <vfprintf+0x384>
 bcc:	8a 2d       	mov	r24, r10
 bce:	86 78       	andi	r24, 0x86	; 134
 bd0:	51 f0       	breq	.+20     	; 0xbe6 <vfprintf+0x386>
 bd2:	a1 fe       	sbrs	r10, 1
 bd4:	02 c0       	rjmp	.+4      	; 0xbda <vfprintf+0x37a>
 bd6:	8b e2       	ldi	r24, 0x2B	; 43
 bd8:	01 c0       	rjmp	.+2      	; 0xbdc <vfprintf+0x37c>
 bda:	80 e2       	ldi	r24, 0x20	; 32
 bdc:	a7 fc       	sbrc	r10, 7
 bde:	8d e2       	ldi	r24, 0x2D	; 45
 be0:	b6 01       	movw	r22, r12
 be2:	90 e0       	ldi	r25, 0x00	; 0
 be4:	50 d0       	rcall	.+160    	; 0xc86 <fputc>
 be6:	89 14       	cp	r8, r9
 be8:	30 f4       	brcc	.+12     	; 0xbf6 <vfprintf+0x396>
 bea:	b6 01       	movw	r22, r12
 bec:	80 e3       	ldi	r24, 0x30	; 48
 bee:	90 e0       	ldi	r25, 0x00	; 0
 bf0:	4a d0       	rcall	.+148    	; 0xc86 <fputc>
 bf2:	9a 94       	dec	r9
 bf4:	f8 cf       	rjmp	.-16     	; 0xbe6 <vfprintf+0x386>
 bf6:	8a 94       	dec	r8
 bf8:	f3 01       	movw	r30, r6
 bfa:	e8 0d       	add	r30, r8
 bfc:	f1 1d       	adc	r31, r1
 bfe:	80 81       	ld	r24, Z
 c00:	b6 01       	movw	r22, r12
 c02:	90 e0       	ldi	r25, 0x00	; 0
 c04:	40 d0       	rcall	.+128    	; 0xc86 <fputc>
 c06:	81 10       	cpse	r8, r1
 c08:	f6 cf       	rjmp	.-20     	; 0xbf6 <vfprintf+0x396>
 c0a:	22 20       	and	r2, r2
 c0c:	09 f4       	brne	.+2      	; 0xc10 <vfprintf+0x3b0>
 c0e:	4e ce       	rjmp	.-868    	; 0x8ac <vfprintf+0x4c>
 c10:	b6 01       	movw	r22, r12
 c12:	80 e2       	ldi	r24, 0x20	; 32
 c14:	90 e0       	ldi	r25, 0x00	; 0
 c16:	37 d0       	rcall	.+110    	; 0xc86 <fputc>
 c18:	2a 94       	dec	r2
 c1a:	f7 cf       	rjmp	.-18     	; 0xc0a <vfprintf+0x3aa>
 c1c:	f6 01       	movw	r30, r12
 c1e:	86 81       	ldd	r24, Z+6	; 0x06
 c20:	97 81       	ldd	r25, Z+7	; 0x07
 c22:	02 c0       	rjmp	.+4      	; 0xc28 <vfprintf+0x3c8>
 c24:	8f ef       	ldi	r24, 0xFF	; 255
 c26:	9f ef       	ldi	r25, 0xFF	; 255
 c28:	2b 96       	adiw	r28, 0x0b	; 11
 c2a:	0f b6       	in	r0, 0x3f	; 63
 c2c:	f8 94       	cli
 c2e:	de bf       	out	0x3e, r29	; 62
 c30:	0f be       	out	0x3f, r0	; 63
 c32:	cd bf       	out	0x3d, r28	; 61
 c34:	df 91       	pop	r29
 c36:	cf 91       	pop	r28
 c38:	1f 91       	pop	r17
 c3a:	0f 91       	pop	r16
 c3c:	ff 90       	pop	r15
 c3e:	ef 90       	pop	r14
 c40:	df 90       	pop	r13
 c42:	cf 90       	pop	r12
 c44:	bf 90       	pop	r11
 c46:	af 90       	pop	r10
 c48:	9f 90       	pop	r9
 c4a:	8f 90       	pop	r8
 c4c:	7f 90       	pop	r7
 c4e:	6f 90       	pop	r6
 c50:	5f 90       	pop	r5
 c52:	4f 90       	pop	r4
 c54:	3f 90       	pop	r3
 c56:	2f 90       	pop	r2
 c58:	08 95       	ret

00000c5a <strnlen_P>:
 c5a:	fc 01       	movw	r30, r24
 c5c:	05 90       	lpm	r0, Z+
 c5e:	61 50       	subi	r22, 0x01	; 1
 c60:	70 40       	sbci	r23, 0x00	; 0
 c62:	01 10       	cpse	r0, r1
 c64:	d8 f7       	brcc	.-10     	; 0xc5c <strnlen_P+0x2>
 c66:	80 95       	com	r24
 c68:	90 95       	com	r25
 c6a:	8e 0f       	add	r24, r30
 c6c:	9f 1f       	adc	r25, r31
 c6e:	08 95       	ret

00000c70 <strnlen>:
 c70:	fc 01       	movw	r30, r24
 c72:	61 50       	subi	r22, 0x01	; 1
 c74:	70 40       	sbci	r23, 0x00	; 0
 c76:	01 90       	ld	r0, Z+
 c78:	01 10       	cpse	r0, r1
 c7a:	d8 f7       	brcc	.-10     	; 0xc72 <strnlen+0x2>
 c7c:	80 95       	com	r24
 c7e:	90 95       	com	r25
 c80:	8e 0f       	add	r24, r30
 c82:	9f 1f       	adc	r25, r31
 c84:	08 95       	ret

00000c86 <fputc>:
 c86:	0f 93       	push	r16
 c88:	1f 93       	push	r17
 c8a:	cf 93       	push	r28
 c8c:	df 93       	push	r29
 c8e:	fb 01       	movw	r30, r22
 c90:	23 81       	ldd	r18, Z+3	; 0x03
 c92:	21 fd       	sbrc	r18, 1
 c94:	03 c0       	rjmp	.+6      	; 0xc9c <fputc+0x16>
 c96:	8f ef       	ldi	r24, 0xFF	; 255
 c98:	9f ef       	ldi	r25, 0xFF	; 255
 c9a:	2c c0       	rjmp	.+88     	; 0xcf4 <fputc+0x6e>
 c9c:	22 ff       	sbrs	r18, 2
 c9e:	16 c0       	rjmp	.+44     	; 0xccc <fputc+0x46>
 ca0:	46 81       	ldd	r20, Z+6	; 0x06
 ca2:	57 81       	ldd	r21, Z+7	; 0x07
 ca4:	24 81       	ldd	r18, Z+4	; 0x04
 ca6:	35 81       	ldd	r19, Z+5	; 0x05
 ca8:	42 17       	cp	r20, r18
 caa:	53 07       	cpc	r21, r19
 cac:	44 f4       	brge	.+16     	; 0xcbe <fputc+0x38>
 cae:	a0 81       	ld	r26, Z
 cb0:	b1 81       	ldd	r27, Z+1	; 0x01
 cb2:	9d 01       	movw	r18, r26
 cb4:	2f 5f       	subi	r18, 0xFF	; 255
 cb6:	3f 4f       	sbci	r19, 0xFF	; 255
 cb8:	31 83       	std	Z+1, r19	; 0x01
 cba:	20 83       	st	Z, r18
 cbc:	8c 93       	st	X, r24
 cbe:	26 81       	ldd	r18, Z+6	; 0x06
 cc0:	37 81       	ldd	r19, Z+7	; 0x07
 cc2:	2f 5f       	subi	r18, 0xFF	; 255
 cc4:	3f 4f       	sbci	r19, 0xFF	; 255
 cc6:	37 83       	std	Z+7, r19	; 0x07
 cc8:	26 83       	std	Z+6, r18	; 0x06
 cca:	14 c0       	rjmp	.+40     	; 0xcf4 <fputc+0x6e>
 ccc:	8b 01       	movw	r16, r22
 cce:	ec 01       	movw	r28, r24
 cd0:	fb 01       	movw	r30, r22
 cd2:	00 84       	ldd	r0, Z+8	; 0x08
 cd4:	f1 85       	ldd	r31, Z+9	; 0x09
 cd6:	e0 2d       	mov	r30, r0
 cd8:	19 95       	eicall
 cda:	89 2b       	or	r24, r25
 cdc:	e1 f6       	brne	.-72     	; 0xc96 <fputc+0x10>
 cde:	d8 01       	movw	r26, r16
 ce0:	16 96       	adiw	r26, 0x06	; 6
 ce2:	8d 91       	ld	r24, X+
 ce4:	9c 91       	ld	r25, X
 ce6:	17 97       	sbiw	r26, 0x07	; 7
 ce8:	01 96       	adiw	r24, 0x01	; 1
 cea:	17 96       	adiw	r26, 0x07	; 7
 cec:	9c 93       	st	X, r25
 cee:	8e 93       	st	-X, r24
 cf0:	16 97       	sbiw	r26, 0x06	; 6
 cf2:	ce 01       	movw	r24, r28
 cf4:	df 91       	pop	r29
 cf6:	cf 91       	pop	r28
 cf8:	1f 91       	pop	r17
 cfa:	0f 91       	pop	r16
 cfc:	08 95       	ret

00000cfe <__ultoa_invert>:
 cfe:	fa 01       	movw	r30, r20
 d00:	aa 27       	eor	r26, r26
 d02:	28 30       	cpi	r18, 0x08	; 8
 d04:	51 f1       	breq	.+84     	; 0xd5a <__ultoa_invert+0x5c>
 d06:	20 31       	cpi	r18, 0x10	; 16
 d08:	81 f1       	breq	.+96     	; 0xd6a <__ultoa_invert+0x6c>
 d0a:	e8 94       	clt
 d0c:	6f 93       	push	r22
 d0e:	6e 7f       	andi	r22, 0xFE	; 254
 d10:	6e 5f       	subi	r22, 0xFE	; 254
 d12:	7f 4f       	sbci	r23, 0xFF	; 255
 d14:	8f 4f       	sbci	r24, 0xFF	; 255
 d16:	9f 4f       	sbci	r25, 0xFF	; 255
 d18:	af 4f       	sbci	r26, 0xFF	; 255
 d1a:	b1 e0       	ldi	r27, 0x01	; 1
 d1c:	3e d0       	rcall	.+124    	; 0xd9a <__ultoa_invert+0x9c>
 d1e:	b4 e0       	ldi	r27, 0x04	; 4
 d20:	3c d0       	rcall	.+120    	; 0xd9a <__ultoa_invert+0x9c>
 d22:	67 0f       	add	r22, r23
 d24:	78 1f       	adc	r23, r24
 d26:	89 1f       	adc	r24, r25
 d28:	9a 1f       	adc	r25, r26
 d2a:	a1 1d       	adc	r26, r1
 d2c:	68 0f       	add	r22, r24
 d2e:	79 1f       	adc	r23, r25
 d30:	8a 1f       	adc	r24, r26
 d32:	91 1d       	adc	r25, r1
 d34:	a1 1d       	adc	r26, r1
 d36:	6a 0f       	add	r22, r26
 d38:	71 1d       	adc	r23, r1
 d3a:	81 1d       	adc	r24, r1
 d3c:	91 1d       	adc	r25, r1
 d3e:	a1 1d       	adc	r26, r1
 d40:	20 d0       	rcall	.+64     	; 0xd82 <__ultoa_invert+0x84>
 d42:	09 f4       	brne	.+2      	; 0xd46 <__ultoa_invert+0x48>
 d44:	68 94       	set
 d46:	3f 91       	pop	r19
 d48:	2a e0       	ldi	r18, 0x0A	; 10
 d4a:	26 9f       	mul	r18, r22
 d4c:	11 24       	eor	r1, r1
 d4e:	30 19       	sub	r19, r0
 d50:	30 5d       	subi	r19, 0xD0	; 208
 d52:	31 93       	st	Z+, r19
 d54:	de f6       	brtc	.-74     	; 0xd0c <__ultoa_invert+0xe>
 d56:	cf 01       	movw	r24, r30
 d58:	08 95       	ret
 d5a:	46 2f       	mov	r20, r22
 d5c:	47 70       	andi	r20, 0x07	; 7
 d5e:	40 5d       	subi	r20, 0xD0	; 208
 d60:	41 93       	st	Z+, r20
 d62:	b3 e0       	ldi	r27, 0x03	; 3
 d64:	0f d0       	rcall	.+30     	; 0xd84 <__ultoa_invert+0x86>
 d66:	c9 f7       	brne	.-14     	; 0xd5a <__ultoa_invert+0x5c>
 d68:	f6 cf       	rjmp	.-20     	; 0xd56 <__ultoa_invert+0x58>
 d6a:	46 2f       	mov	r20, r22
 d6c:	4f 70       	andi	r20, 0x0F	; 15
 d6e:	40 5d       	subi	r20, 0xD0	; 208
 d70:	4a 33       	cpi	r20, 0x3A	; 58
 d72:	18 f0       	brcs	.+6      	; 0xd7a <__ultoa_invert+0x7c>
 d74:	49 5d       	subi	r20, 0xD9	; 217
 d76:	31 fd       	sbrc	r19, 1
 d78:	40 52       	subi	r20, 0x20	; 32
 d7a:	41 93       	st	Z+, r20
 d7c:	02 d0       	rcall	.+4      	; 0xd82 <__ultoa_invert+0x84>
 d7e:	a9 f7       	brne	.-22     	; 0xd6a <__ultoa_invert+0x6c>
 d80:	ea cf       	rjmp	.-44     	; 0xd56 <__ultoa_invert+0x58>
 d82:	b4 e0       	ldi	r27, 0x04	; 4
 d84:	a6 95       	lsr	r26
 d86:	97 95       	ror	r25
 d88:	87 95       	ror	r24
 d8a:	77 95       	ror	r23
 d8c:	67 95       	ror	r22
 d8e:	ba 95       	dec	r27
 d90:	c9 f7       	brne	.-14     	; 0xd84 <__ultoa_invert+0x86>
 d92:	00 97       	sbiw	r24, 0x00	; 0
 d94:	61 05       	cpc	r22, r1
 d96:	71 05       	cpc	r23, r1
 d98:	08 95       	ret
 d9a:	9b 01       	movw	r18, r22
 d9c:	ac 01       	movw	r20, r24
 d9e:	0a 2e       	mov	r0, r26
 da0:	06 94       	lsr	r0
 da2:	57 95       	ror	r21
 da4:	47 95       	ror	r20
 da6:	37 95       	ror	r19
 da8:	27 95       	ror	r18
 daa:	ba 95       	dec	r27
 dac:	c9 f7       	brne	.-14     	; 0xda0 <__ultoa_invert+0xa2>
 dae:	62 0f       	add	r22, r18
 db0:	73 1f       	adc	r23, r19
 db2:	84 1f       	adc	r24, r20
 db4:	95 1f       	adc	r25, r21
 db6:	a0 1d       	adc	r26, r0
 db8:	08 95       	ret

00000dba <_exit>:
 dba:	f8 94       	cli

00000dbc <__stop_program>:
 dbc:	ff cf       	rjmp	.-2      	; 0xdbc <__stop_program>
