
uCBoardBeispiele.elf:     file format elf32-avr

Sections:
Idx Name          Size      VMA       LMA       File off  Algn
  0 .data         00000080  00800200  00001386  0000141a  2**0
                  CONTENTS, ALLOC, LOAD, DATA
  1 .text         00001386  00000000  00000000  00000094  2**1
                  CONTENTS, ALLOC, LOAD, READONLY, CODE
  2 .bss          000000c8  00800280  00800280  0000149a  2**0
                  ALLOC
  3 .comment      0000005c  00000000  00000000  0000149a  2**0
                  CONTENTS, READONLY
  4 .note.gnu.avr.deviceinfo 00000040  00000000  00000000  000014f8  2**2
                  CONTENTS, READONLY
  5 .debug_aranges 000001e0  00000000  00000000  00001538  2**0
                  CONTENTS, READONLY, DEBUGGING
  6 .debug_info   0000246e  00000000  00000000  00001718  2**0
                  CONTENTS, READONLY, DEBUGGING
  7 .debug_abbrev 00000faf  00000000  00000000  00003b86  2**0
                  CONTENTS, READONLY, DEBUGGING
  8 .debug_line   000013c8  00000000  00000000  00004b35  2**0
                  CONTENTS, READONLY, DEBUGGING
  9 .debug_frame  0000067c  00000000  00000000  00005f00  2**2
                  CONTENTS, READONLY, DEBUGGING
 10 .debug_str    00000d05  00000000  00000000  0000657c  2**0
                  CONTENTS, READONLY, DEBUGGING
 11 .debug_loc    00001a71  00000000  00000000  00007281  2**0
                  CONTENTS, READONLY, DEBUGGING
 12 .debug_ranges 00000210  00000000  00000000  00008cf2  2**0
                  CONTENTS, READONLY, DEBUGGING

Disassembly of section .text:

00000000 <__vectors>:
       0:	71 c0       	rjmp	.+226    	; 0xe4 <__ctors_end>
       2:	00 00       	nop
       4:	8f c0       	rjmp	.+286    	; 0x124 <__bad_interrupt>
       6:	00 00       	nop
       8:	8d c0       	rjmp	.+282    	; 0x124 <__bad_interrupt>
       a:	00 00       	nop
       c:	8b c0       	rjmp	.+278    	; 0x124 <__bad_interrupt>
       e:	00 00       	nop
      10:	89 c0       	rjmp	.+274    	; 0x124 <__bad_interrupt>
      12:	00 00       	nop
      14:	87 c0       	rjmp	.+270    	; 0x124 <__bad_interrupt>
      16:	00 00       	nop
      18:	85 c0       	rjmp	.+266    	; 0x124 <__bad_interrupt>
      1a:	00 00       	nop
      1c:	83 c0       	rjmp	.+262    	; 0x124 <__bad_interrupt>
      1e:	00 00       	nop
      20:	81 c0       	rjmp	.+258    	; 0x124 <__bad_interrupt>
      22:	00 00       	nop
      24:	7f c0       	rjmp	.+254    	; 0x124 <__bad_interrupt>
      26:	00 00       	nop
      28:	7d c0       	rjmp	.+250    	; 0x124 <__bad_interrupt>
      2a:	00 00       	nop
      2c:	7b c0       	rjmp	.+246    	; 0x124 <__bad_interrupt>
      2e:	00 00       	nop
      30:	79 c0       	rjmp	.+242    	; 0x124 <__bad_interrupt>
      32:	00 00       	nop
      34:	77 c0       	rjmp	.+238    	; 0x124 <__bad_interrupt>
      36:	00 00       	nop
      38:	75 c0       	rjmp	.+234    	; 0x124 <__bad_interrupt>
      3a:	00 00       	nop
      3c:	73 c0       	rjmp	.+230    	; 0x124 <__bad_interrupt>
      3e:	00 00       	nop
      40:	71 c0       	rjmp	.+226    	; 0x124 <__bad_interrupt>
      42:	00 00       	nop
      44:	6f c0       	rjmp	.+222    	; 0x124 <__bad_interrupt>
      46:	00 00       	nop
      48:	6d c0       	rjmp	.+218    	; 0x124 <__bad_interrupt>
      4a:	00 00       	nop
      4c:	6b c0       	rjmp	.+214    	; 0x124 <__bad_interrupt>
      4e:	00 00       	nop
      50:	69 c0       	rjmp	.+210    	; 0x124 <__bad_interrupt>
      52:	00 00       	nop
      54:	67 c0       	rjmp	.+206    	; 0x124 <__bad_interrupt>
      56:	00 00       	nop
      58:	65 c0       	rjmp	.+202    	; 0x124 <__bad_interrupt>
      5a:	00 00       	nop
      5c:	bd c5       	rjmp	.+2938   	; 0xbd8 <__vector_23>
      5e:	00 00       	nop
      60:	61 c0       	rjmp	.+194    	; 0x124 <__bad_interrupt>
      62:	00 00       	nop
      64:	5f c0       	rjmp	.+190    	; 0x124 <__bad_interrupt>
      66:	00 00       	nop
      68:	5d c0       	rjmp	.+186    	; 0x124 <__bad_interrupt>
      6a:	00 00       	nop
      6c:	5b c0       	rjmp	.+182    	; 0x124 <__bad_interrupt>
      6e:	00 00       	nop
      70:	59 c0       	rjmp	.+178    	; 0x124 <__bad_interrupt>
      72:	00 00       	nop
      74:	57 c0       	rjmp	.+174    	; 0x124 <__bad_interrupt>
      76:	00 00       	nop
      78:	55 c0       	rjmp	.+170    	; 0x124 <__bad_interrupt>
      7a:	00 00       	nop
      7c:	53 c0       	rjmp	.+166    	; 0x124 <__bad_interrupt>
      7e:	00 00       	nop
      80:	51 c0       	rjmp	.+162    	; 0x124 <__bad_interrupt>
      82:	00 00       	nop
      84:	4f c0       	rjmp	.+158    	; 0x124 <__bad_interrupt>
      86:	00 00       	nop
      88:	4d c0       	rjmp	.+154    	; 0x124 <__bad_interrupt>
      8a:	00 00       	nop
      8c:	4b c0       	rjmp	.+150    	; 0x124 <__bad_interrupt>
      8e:	00 00       	nop
      90:	49 c0       	rjmp	.+146    	; 0x124 <__bad_interrupt>
      92:	00 00       	nop
      94:	47 c0       	rjmp	.+142    	; 0x124 <__bad_interrupt>
      96:	00 00       	nop
      98:	45 c0       	rjmp	.+138    	; 0x124 <__bad_interrupt>
      9a:	00 00       	nop
      9c:	43 c0       	rjmp	.+134    	; 0x124 <__bad_interrupt>
      9e:	00 00       	nop
      a0:	41 c0       	rjmp	.+130    	; 0x124 <__bad_interrupt>
      a2:	00 00       	nop
      a4:	3f c0       	rjmp	.+126    	; 0x124 <__bad_interrupt>
      a6:	00 00       	nop
      a8:	3d c0       	rjmp	.+122    	; 0x124 <__bad_interrupt>
      aa:	00 00       	nop
      ac:	3b c0       	rjmp	.+118    	; 0x124 <__bad_interrupt>
      ae:	00 00       	nop
      b0:	39 c0       	rjmp	.+114    	; 0x124 <__bad_interrupt>
      b2:	00 00       	nop
      b4:	37 c0       	rjmp	.+110    	; 0x124 <__bad_interrupt>
      b6:	00 00       	nop
      b8:	35 c0       	rjmp	.+106    	; 0x124 <__bad_interrupt>
      ba:	00 00       	nop
      bc:	33 c0       	rjmp	.+102    	; 0x124 <__bad_interrupt>
      be:	00 00       	nop
      c0:	31 c0       	rjmp	.+98     	; 0x124 <__bad_interrupt>
      c2:	00 00       	nop
      c4:	2f c0       	rjmp	.+94     	; 0x124 <__bad_interrupt>
      c6:	00 00       	nop
      c8:	2d c0       	rjmp	.+90     	; 0x124 <__bad_interrupt>
      ca:	00 00       	nop
      cc:	2b c0       	rjmp	.+86     	; 0x124 <__bad_interrupt>
      ce:	00 00       	nop
      d0:	29 c0       	rjmp	.+82     	; 0x124 <__bad_interrupt>
      d2:	00 00       	nop
      d4:	27 c0       	rjmp	.+78     	; 0x124 <__bad_interrupt>
      d6:	00 00       	nop
      d8:	25 c0       	rjmp	.+74     	; 0x124 <__bad_interrupt>
      da:	00 00       	nop
      dc:	23 c0       	rjmp	.+70     	; 0x124 <__bad_interrupt>
      de:	00 00       	nop
      e0:	21 c0       	rjmp	.+66     	; 0x124 <__bad_interrupt>
	...

000000e4 <__ctors_end>:
      e4:	11 24       	eor	r1, r1
      e6:	1f be       	out	0x3f, r1	; 63
      e8:	cf ef       	ldi	r28, 0xFF	; 255
      ea:	d1 e2       	ldi	r29, 0x21	; 33
      ec:	de bf       	out	0x3e, r29	; 62
      ee:	cd bf       	out	0x3d, r28	; 61
      f0:	00 e0       	ldi	r16, 0x00	; 0
      f2:	0c bf       	out	0x3c, r16	; 60

000000f4 <__do_copy_data>:
      f4:	12 e0       	ldi	r17, 0x02	; 2
      f6:	a0 e0       	ldi	r26, 0x00	; 0
      f8:	b2 e0       	ldi	r27, 0x02	; 2
      fa:	e6 e8       	ldi	r30, 0x86	; 134
      fc:	f3 e1       	ldi	r31, 0x13	; 19
      fe:	00 e0       	ldi	r16, 0x00	; 0
     100:	0b bf       	out	0x3b, r16	; 59
     102:	02 c0       	rjmp	.+4      	; 0x108 <__do_copy_data+0x14>
     104:	07 90       	elpm	r0, Z+
     106:	0d 92       	st	X+, r0
     108:	a0 38       	cpi	r26, 0x80	; 128
     10a:	b1 07       	cpc	r27, r17
     10c:	d9 f7       	brne	.-10     	; 0x104 <__do_copy_data+0x10>

0000010e <__do_clear_bss>:
     10e:	23 e0       	ldi	r18, 0x03	; 3
     110:	a0 e8       	ldi	r26, 0x80	; 128
     112:	b2 e0       	ldi	r27, 0x02	; 2
     114:	01 c0       	rjmp	.+2      	; 0x118 <.do_clear_bss_start>

00000116 <.do_clear_bss_loop>:
     116:	1d 92       	st	X+, r1

00000118 <.do_clear_bss_start>:
     118:	a8 34       	cpi	r26, 0x48	; 72
     11a:	b2 07       	cpc	r27, r18
     11c:	e1 f7       	brne	.-8      	; 0x116 <.do_clear_bss_loop>
     11e:	03 d0       	rcall	.+6      	; 0x126 <main>
     120:	0c 94 c1 09 	jmp	0x1382	; 0x1382 <_exit>

00000124 <__bad_interrupt>:
     124:	6d cf       	rjmp	.-294    	; 0x0 <__vectors>

00000126 <main>:
    //Variablen
    uint32_t zahl = 0;
    uint16_t u_mV = 0;

    //Initialisieren
    initBoard(1);
     126:	81 e0       	ldi	r24, 0x01	; 1
     128:	ad d2       	rcall	.+1370   	; 0x684 <initBoard>
       u_mV = zahl * 5 * 1000 / 1023;
        
        //Verarbeitung-------------------------------------------------------------
         
        //Ausgabe------------------------------------------------------------------
        if (u_mV > 3600)
     12a:	0f 2e       	mov	r0, r31
     12c:	cc 24       	eor	r12, r12
     12e:	ca 94       	dec	r12
     130:	f3 e0       	ldi	r31, 0x03	; 3
     132:	df 2e       	mov	r13, r31
     134:	e1 2c       	mov	r14, r1
     136:	f1 2c       	mov	r15, r1
     138:	f0 2d       	mov	r31, r0
        {   
            lcdLog("voll");
        } 
        else
        {
            lcdLog("nicht voll");
     13a:	09 e0       	ldi	r16, 0x09	; 9
     13c:	12 e0       	ldi	r17, 0x02	; 2
        //Verarbeitung-------------------------------------------------------------
         
        //Ausgabe------------------------------------------------------------------
        if (u_mV > 3600)
        {   
            lcdLog("voll");
     13e:	cf e0       	ldi	r28, 0x0F	; 15
     140:	d2 e0       	ldi	r29, 0x02	; 2
    
    //Unendlichschlaufe
    while(1)
    {
        //Eingabe------------------------------------------------------------------
        zahl = adcRead(ADC_08_POTI_1);
     142:	88 e0       	ldi	r24, 0x08	; 8
     144:	44 d0       	rcall	.+136    	; 0x1ce <adcRead>
       u_mV = zahl * 5 * 1000 / 1023;
        
        //Verarbeitung-------------------------------------------------------------
         
        //Ausgabe------------------------------------------------------------------
        if (u_mV > 3600)
     146:	9c 01       	movw	r18, r24
     148:	a8 e8       	ldi	r26, 0x88	; 136
     14a:	b3 e1       	ldi	r27, 0x13	; 19
     14c:	b3 d5       	rcall	.+2918   	; 0xcb4 <__umulhisi3>
     14e:	a7 01       	movw	r20, r14
     150:	96 01       	movw	r18, r12
     152:	8e d5       	rcall	.+2844   	; 0xc70 <__udivmodsi4>
     154:	21 31       	cpi	r18, 0x11	; 17
     156:	3e 40       	sbci	r19, 0x0E	; 14
     158:	30 f0       	brcs	.+12     	; 0x166 <main+0x40>
        {   
            lcdLog("voll");
     15a:	df 93       	push	r29
     15c:	cf 93       	push	r28
     15e:	9d d3       	rcall	.+1850   	; 0x89a <lcdLog>
     160:	0f 90       	pop	r0
     162:	0f 90       	pop	r0
     164:	ee cf       	rjmp	.-36     	; 0x142 <main+0x1c>
        } 
        else
        {
            lcdLog("nicht voll");
     166:	1f 93       	push	r17
     168:	0f 93       	push	r16
     16a:	97 d3       	rcall	.+1838   	; 0x89a <lcdLog>
     16c:	0f 90       	pop	r0
     16e:	0f 90       	pop	r0
     170:	e8 cf       	rjmp	.-48     	; 0x142 <main+0x1c>

00000172 <ledWriteAll>:
     172:	82 b9       	out	0x02, r24	; 2
            }
        }
        matrix_buffer_pos += breite + Zeichenabstand;           // Position für das nächste Zeichen berechnen
        str_p++;                                                // Zeichen-Zeiger auf das nächste Zeichen richten
    }
}
     174:	95 b9       	out	0x05, r25	; 5
     176:	08 95       	ret

00000178 <startSystemTimeMs>:
     178:	83 e0       	ldi	r24, 0x03	; 3
     17a:	84 bd       	out	0x24, r24	; 36
     17c:	8b e0       	ldi	r24, 0x0B	; 11
     17e:	85 bd       	out	0x25, r24	; 37
     180:	81 e0       	ldi	r24, 0x01	; 1
     182:	80 93 6e 00 	sts	0x006E, r24	; 0x80006e <__TEXT_REGION_LENGTH__+0x70006e>
     186:	89 ef       	ldi	r24, 0xF9	; 249
     188:	87 bd       	out	0x27, r24	; 39
     18a:	08 95       	ret

0000018c <initAdc>:
     18c:	11 ba       	out	0x11, r1	; 17
     18e:	10 ba       	out	0x10, r1	; 16
     190:	10 92 08 01 	sts	0x0108, r1	; 0x800108 <__TEXT_REGION_LENGTH__+0x700108>
     194:	10 92 07 01 	sts	0x0107, r1	; 0x800107 <__TEXT_REGION_LENGTH__+0x700107>
     198:	80 e4       	ldi	r24, 0x40	; 64
     19a:	80 93 7c 00 	sts	0x007C, r24	; 0x80007c <__TEXT_REGION_LENGTH__+0x70007c>
     19e:	8f e0       	ldi	r24, 0x0F	; 15
     1a0:	80 93 7e 00 	sts	0x007E, r24	; 0x80007e <__TEXT_REGION_LENGTH__+0x70007e>
     1a4:	8f ef       	ldi	r24, 0xFF	; 255
     1a6:	80 93 7d 00 	sts	0x007D, r24	; 0x80007d <__TEXT_REGION_LENGTH__+0x70007d>
     1aa:	ea e7       	ldi	r30, 0x7A	; 122
     1ac:	f0 e0       	ldi	r31, 0x00	; 0
     1ae:	87 ea       	ldi	r24, 0xA7	; 167
     1b0:	80 83       	st	Z, r24
     1b2:	10 92 7b 00 	sts	0x007B, r1	; 0x80007b <__TEXT_REGION_LENGTH__+0x70007b>
     1b6:	80 81       	ld	r24, Z
     1b8:	80 64       	ori	r24, 0x40	; 64
     1ba:	80 83       	st	Z, r24
     1bc:	80 81       	ld	r24, Z
     1be:	84 ff       	sbrs	r24, 4
     1c0:	fd cf       	rjmp	.-6      	; 0x1bc <initAdc+0x30>
     1c2:	ea e7       	ldi	r30, 0x7A	; 122
     1c4:	f0 e0       	ldi	r31, 0x00	; 0
     1c6:	80 81       	ld	r24, Z
     1c8:	8f 7e       	andi	r24, 0xEF	; 239
     1ca:	80 83       	st	Z, r24
     1cc:	08 95       	ret

000001ce <adcRead>:
     1ce:	90 e4       	ldi	r25, 0x40	; 64
     1d0:	90 93 7c 00 	sts	0x007C, r25	; 0x80007c <__TEXT_REGION_LENGTH__+0x70007c>
     1d4:	88 30       	cpi	r24, 0x08	; 8
     1d6:	60 f0       	brcs	.+24     	; 0x1f0 <adcRead+0x22>
     1d8:	ec e7       	ldi	r30, 0x7C	; 124
     1da:	f0 e0       	ldi	r31, 0x00	; 0
     1dc:	90 81       	ld	r25, Z
     1de:	88 50       	subi	r24, 0x08	; 8
     1e0:	89 2b       	or	r24, r25
     1e2:	80 83       	st	Z, r24
     1e4:	eb e7       	ldi	r30, 0x7B	; 123
     1e6:	f0 e0       	ldi	r31, 0x00	; 0
     1e8:	80 81       	ld	r24, Z
     1ea:	88 61       	ori	r24, 0x18	; 24
     1ec:	80 83       	st	Z, r24
     1ee:	0a c0       	rjmp	.+20     	; 0x204 <adcRead+0x36>
     1f0:	ec e7       	ldi	r30, 0x7C	; 124
     1f2:	f0 e0       	ldi	r31, 0x00	; 0
     1f4:	90 81       	ld	r25, Z
     1f6:	89 2b       	or	r24, r25
     1f8:	80 83       	st	Z, r24
     1fa:	eb e7       	ldi	r30, 0x7B	; 123
     1fc:	f0 e0       	ldi	r31, 0x00	; 0
     1fe:	80 81       	ld	r24, Z
     200:	87 7e       	andi	r24, 0xE7	; 231
     202:	80 83       	st	Z, r24
     204:	ea e7       	ldi	r30, 0x7A	; 122
     206:	f0 e0       	ldi	r31, 0x00	; 0
     208:	80 81       	ld	r24, Z
     20a:	80 64       	ori	r24, 0x40	; 64
     20c:	80 83       	st	Z, r24
     20e:	80 81       	ld	r24, Z
     210:	84 ff       	sbrs	r24, 4
     212:	fd cf       	rjmp	.-6      	; 0x20e <adcRead+0x40>
     214:	8f ea       	ldi	r24, 0xAF	; 175
     216:	94 e0       	ldi	r25, 0x04	; 4
     218:	01 97       	sbiw	r24, 0x01	; 1
     21a:	f1 f7       	brne	.-4      	; 0x218 <adcRead+0x4a>
     21c:	00 c0       	rjmp	.+0      	; 0x21e <adcRead+0x50>
     21e:	00 00       	nop
     220:	80 91 78 00 	lds	r24, 0x0078	; 0x800078 <__TEXT_REGION_LENGTH__+0x700078>
     224:	20 91 79 00 	lds	r18, 0x0079	; 0x800079 <__TEXT_REGION_LENGTH__+0x700079>
     228:	ea e7       	ldi	r30, 0x7A	; 122
     22a:	f0 e0       	ldi	r31, 0x00	; 0
     22c:	90 81       	ld	r25, Z
     22e:	9f 7e       	andi	r25, 0xEF	; 239
     230:	90 83       	st	Z, r25
     232:	90 e0       	ldi	r25, 0x00	; 0
     234:	92 2b       	or	r25, r18
     236:	08 95       	ret

00000238 <rgbWrite>:
     238:	2f ef       	ldi	r18, 0xFF	; 255
     23a:	33 e0       	ldi	r19, 0x03	; 3
     23c:	f9 01       	movw	r30, r18
     23e:	e8 1b       	sub	r30, r24
     240:	f9 0b       	sbc	r31, r25
     242:	c9 01       	movw	r24, r18
     244:	86 1b       	sub	r24, r22
     246:	97 0b       	sbc	r25, r23
     248:	24 1b       	sub	r18, r20
     24a:	35 0b       	sbc	r19, r21
     24c:	f0 93 a9 00 	sts	0x00A9, r31	; 0x8000a9 <__TEXT_REGION_LENGTH__+0x7000a9>
     250:	e0 93 a8 00 	sts	0x00A8, r30	; 0x8000a8 <__TEXT_REGION_LENGTH__+0x7000a8>
     254:	90 93 ab 00 	sts	0x00AB, r25	; 0x8000ab <__TEXT_REGION_LENGTH__+0x7000ab>
     258:	80 93 aa 00 	sts	0x00AA, r24	; 0x8000aa <__TEXT_REGION_LENGTH__+0x7000aa>
     25c:	30 93 ad 00 	sts	0x00AD, r19	; 0x8000ad <__TEXT_REGION_LENGTH__+0x7000ad>
     260:	20 93 ac 00 	sts	0x00AC, r18	; 0x8000ac <__TEXT_REGION_LENGTH__+0x7000ac>
     264:	08 95       	ret

00000266 <initRgb>:
     266:	8e ef       	ldi	r24, 0xFE	; 254
     268:	80 93 a0 00 	sts	0x00A0, r24	; 0x8000a0 <__TEXT_REGION_LENGTH__+0x7000a0>
     26c:	8b e1       	ldi	r24, 0x1B	; 27
     26e:	80 93 a1 00 	sts	0x00A1, r24	; 0x8000a1 <__TEXT_REGION_LENGTH__+0x7000a1>
     272:	83 e0       	ldi	r24, 0x03	; 3
     274:	80 93 a7 00 	sts	0x00A7, r24	; 0x8000a7 <__TEXT_REGION_LENGTH__+0x7000a7>
     278:	8f ef       	ldi	r24, 0xFF	; 255
     27a:	80 93 a6 00 	sts	0x00A6, r24	; 0x8000a6 <__TEXT_REGION_LENGTH__+0x7000a6>
     27e:	40 e0       	ldi	r20, 0x00	; 0
     280:	50 e0       	ldi	r21, 0x00	; 0
     282:	60 e0       	ldi	r22, 0x00	; 0
     284:	70 e0       	ldi	r23, 0x00	; 0
     286:	80 e0       	ldi	r24, 0x00	; 0
     288:	90 e0       	ldi	r25, 0x00	; 0
     28a:	d6 cf       	rjmp	.-84     	; 0x238 <rgbWrite>
     28c:	08 95       	ret

0000028e <lcdSid>:
     28e:	88 23       	and	r24, r24
     290:	11 f0       	breq	.+4      	; 0x296 <lcdSid+0x8>
     292:	a0 9a       	sbi	0x14, 0	; 20
     294:	08 95       	ret
     296:	a0 98       	cbi	0x14, 0	; 20
     298:	08 95       	ret

0000029a <lcdSclk>:
     29a:	88 23       	and	r24, r24
     29c:	11 f0       	breq	.+4      	; 0x2a2 <lcdSclk+0x8>
     29e:	a1 9a       	sbi	0x14, 1	; 20
     2a0:	08 95       	ret
     2a2:	a1 98       	cbi	0x14, 1	; 20
     2a4:	08 95       	ret

000002a6 <lcdLight>:
     2a6:	81 11       	cpse	r24, r1
     2a8:	04 c0       	rjmp	.+8      	; 0x2b2 <lcdLight+0xc>
     2aa:	84 b5       	in	r24, 0x24	; 36
     2ac:	8f 7d       	andi	r24, 0xDF	; 223
     2ae:	84 bd       	out	0x24, r24	; 36
     2b0:	08 95       	ret
     2b2:	94 b5       	in	r25, 0x24	; 36
     2b4:	90 62       	ori	r25, 0x20	; 32
     2b6:	94 bd       	out	0x24, r25	; 36
     2b8:	88 bd       	out	0x28, r24	; 40
     2ba:	08 95       	ret

000002bc <writeLcdF>:
     2bc:	ef 92       	push	r14
     2be:	ff 92       	push	r15
     2c0:	0f 93       	push	r16
     2c2:	1f 93       	push	r17
     2c4:	cf 93       	push	r28
     2c6:	df 93       	push	r29
     2c8:	7c 01       	movw	r14, r24
     2ca:	eb 01       	movw	r28, r22
     2cc:	81 e0       	ldi	r24, 0x01	; 1
     2ce:	df df       	rcall	.-66     	; 0x28e <lcdSid>
     2d0:	05 e0       	ldi	r16, 0x05	; 5
     2d2:	10 e0       	ldi	r17, 0x00	; 0
     2d4:	80 e0       	ldi	r24, 0x00	; 0
     2d6:	e1 df       	rcall	.-62     	; 0x29a <lcdSclk>
     2d8:	81 e0       	ldi	r24, 0x01	; 1
     2da:	df df       	rcall	.-66     	; 0x29a <lcdSclk>
     2dc:	01 50       	subi	r16, 0x01	; 1
     2de:	11 09       	sbc	r17, r1
     2e0:	c9 f7       	brne	.-14     	; 0x2d4 <writeLcdF+0x18>
     2e2:	80 e0       	ldi	r24, 0x00	; 0
     2e4:	d4 df       	rcall	.-88     	; 0x28e <lcdSid>
     2e6:	80 e0       	ldi	r24, 0x00	; 0
     2e8:	d8 df       	rcall	.-80     	; 0x29a <lcdSclk>
     2ea:	81 e0       	ldi	r24, 0x01	; 1
     2ec:	d6 df       	rcall	.-84     	; 0x29a <lcdSclk>
     2ee:	83 e4       	ldi	r24, 0x43	; 67
     2f0:	e8 16       	cp	r14, r24
     2f2:	f1 04       	cpc	r15, r1
     2f4:	19 f4       	brne	.+6      	; 0x2fc <writeLcdF+0x40>
     2f6:	80 e0       	ldi	r24, 0x00	; 0
     2f8:	ca df       	rcall	.-108    	; 0x28e <lcdSid>
     2fa:	02 c0       	rjmp	.+4      	; 0x300 <writeLcdF+0x44>
     2fc:	81 e0       	ldi	r24, 0x01	; 1
     2fe:	c7 df       	rcall	.-114    	; 0x28e <lcdSid>
     300:	80 e0       	ldi	r24, 0x00	; 0
     302:	cb df       	rcall	.-106    	; 0x29a <lcdSclk>
     304:	81 e0       	ldi	r24, 0x01	; 1
     306:	c9 df       	rcall	.-110    	; 0x29a <lcdSclk>
     308:	80 e0       	ldi	r24, 0x00	; 0
     30a:	c1 df       	rcall	.-126    	; 0x28e <lcdSid>
     30c:	80 e0       	ldi	r24, 0x00	; 0
     30e:	c5 df       	rcall	.-118    	; 0x29a <lcdSclk>
     310:	81 e0       	ldi	r24, 0x01	; 1
     312:	c3 df       	rcall	.-122    	; 0x29a <lcdSclk>
     314:	04 e0       	ldi	r16, 0x04	; 4
     316:	10 e0       	ldi	r17, 0x00	; 0
     318:	80 e0       	ldi	r24, 0x00	; 0
     31a:	bf df       	rcall	.-130    	; 0x29a <lcdSclk>
     31c:	c0 ff       	sbrs	r28, 0
     31e:	03 c0       	rjmp	.+6      	; 0x326 <writeLcdF+0x6a>
     320:	81 e0       	ldi	r24, 0x01	; 1
     322:	b5 df       	rcall	.-150    	; 0x28e <lcdSid>
     324:	02 c0       	rjmp	.+4      	; 0x32a <writeLcdF+0x6e>
     326:	80 e0       	ldi	r24, 0x00	; 0
     328:	b2 df       	rcall	.-156    	; 0x28e <lcdSid>
     32a:	d6 95       	lsr	r29
     32c:	c7 95       	ror	r28
     32e:	80 e0       	ldi	r24, 0x00	; 0
     330:	b4 df       	rcall	.-152    	; 0x29a <lcdSclk>
     332:	81 e0       	ldi	r24, 0x01	; 1
     334:	b2 df       	rcall	.-156    	; 0x29a <lcdSclk>
     336:	01 50       	subi	r16, 0x01	; 1
     338:	11 09       	sbc	r17, r1
     33a:	71 f7       	brne	.-36     	; 0x318 <writeLcdF+0x5c>
     33c:	80 e0       	ldi	r24, 0x00	; 0
     33e:	a7 df       	rcall	.-178    	; 0x28e <lcdSid>
     340:	04 e0       	ldi	r16, 0x04	; 4
     342:	10 e0       	ldi	r17, 0x00	; 0
     344:	80 e0       	ldi	r24, 0x00	; 0
     346:	a9 df       	rcall	.-174    	; 0x29a <lcdSclk>
     348:	81 e0       	ldi	r24, 0x01	; 1
     34a:	a7 df       	rcall	.-178    	; 0x29a <lcdSclk>
     34c:	01 50       	subi	r16, 0x01	; 1
     34e:	11 09       	sbc	r17, r1
     350:	c9 f7       	brne	.-14     	; 0x344 <writeLcdF+0x88>
     352:	04 e0       	ldi	r16, 0x04	; 4
     354:	10 e0       	ldi	r17, 0x00	; 0
     356:	80 e0       	ldi	r24, 0x00	; 0
     358:	a0 df       	rcall	.-192    	; 0x29a <lcdSclk>
     35a:	c0 ff       	sbrs	r28, 0
     35c:	03 c0       	rjmp	.+6      	; 0x364 <writeLcdF+0xa8>
     35e:	81 e0       	ldi	r24, 0x01	; 1
     360:	96 df       	rcall	.-212    	; 0x28e <lcdSid>
     362:	02 c0       	rjmp	.+4      	; 0x368 <writeLcdF+0xac>
     364:	80 e0       	ldi	r24, 0x00	; 0
     366:	93 df       	rcall	.-218    	; 0x28e <lcdSid>
     368:	d6 95       	lsr	r29
     36a:	c7 95       	ror	r28
     36c:	80 e0       	ldi	r24, 0x00	; 0
     36e:	95 df       	rcall	.-214    	; 0x29a <lcdSclk>
     370:	81 e0       	ldi	r24, 0x01	; 1
     372:	93 df       	rcall	.-218    	; 0x29a <lcdSclk>
     374:	01 50       	subi	r16, 0x01	; 1
     376:	11 09       	sbc	r17, r1
     378:	71 f7       	brne	.-36     	; 0x356 <writeLcdF+0x9a>
     37a:	80 e0       	ldi	r24, 0x00	; 0
     37c:	88 df       	rcall	.-240    	; 0x28e <lcdSid>
     37e:	c4 e0       	ldi	r28, 0x04	; 4
     380:	d0 e0       	ldi	r29, 0x00	; 0
     382:	80 e0       	ldi	r24, 0x00	; 0
     384:	8a df       	rcall	.-236    	; 0x29a <lcdSclk>
     386:	81 e0       	ldi	r24, 0x01	; 1
     388:	88 df       	rcall	.-240    	; 0x29a <lcdSclk>
     38a:	21 97       	sbiw	r28, 0x01	; 1
     38c:	d1 f7       	brne	.-12     	; 0x382 <writeLcdF+0xc6>
     38e:	81 e0       	ldi	r24, 0x01	; 1
     390:	7e df       	rcall	.-260    	; 0x28e <lcdSid>
     392:	87 ec       	ldi	r24, 0xC7	; 199
     394:	90 e0       	ldi	r25, 0x00	; 0
     396:	01 97       	sbiw	r24, 0x01	; 1
     398:	f1 f7       	brne	.-4      	; 0x396 <writeLcdF+0xda>
     39a:	00 c0       	rjmp	.+0      	; 0x39c <writeLcdF+0xe0>
     39c:	00 00       	nop
     39e:	df 91       	pop	r29
     3a0:	cf 91       	pop	r28
     3a2:	1f 91       	pop	r17
     3a4:	0f 91       	pop	r16
     3a6:	ff 90       	pop	r15
     3a8:	ef 90       	pop	r14
     3aa:	08 95       	ret

000003ac <lcdWriteText>:
     3ac:	1f 93       	push	r17
     3ae:	cf 93       	push	r28
     3b0:	df 93       	push	r29
     3b2:	cd b7       	in	r28, 0x3d	; 61
     3b4:	de b7       	in	r29, 0x3e	; 62
     3b6:	65 97       	sbiw	r28, 0x15	; 21
     3b8:	0f b6       	in	r0, 0x3f	; 63
     3ba:	f8 94       	cli
     3bc:	de bf       	out	0x3e, r29	; 62
     3be:	0f be       	out	0x3f, r0	; 63
     3c0:	cd bf       	out	0x3d, r28	; 61
     3c2:	9e 01       	movw	r18, r28
     3c4:	20 5e       	subi	r18, 0xE0	; 224
     3c6:	3f 4f       	sbci	r19, 0xFF	; 255
     3c8:	4e 8d       	ldd	r20, Y+30	; 0x1e
     3ca:	5f 8d       	ldd	r21, Y+31	; 0x1f
     3cc:	65 e1       	ldi	r22, 0x15	; 21
     3ce:	70 e0       	ldi	r23, 0x00	; 0
     3d0:	ce 01       	movw	r24, r28
     3d2:	01 96       	adiw	r24, 0x01	; 1
     3d4:	f1 d4       	rcall	.+2530   	; 0xdb8 <vsnprintf>
     3d6:	6d 8d       	ldd	r22, Y+29	; 0x1d
     3d8:	8c 8d       	ldd	r24, Y+28	; 0x1c
     3da:	90 e2       	ldi	r25, 0x20	; 32
     3dc:	89 9f       	mul	r24, r25
     3de:	60 0d       	add	r22, r0
     3e0:	11 24       	eor	r1, r1
     3e2:	60 68       	ori	r22, 0x80	; 128
     3e4:	70 e0       	ldi	r23, 0x00	; 0
     3e6:	83 e4       	ldi	r24, 0x43	; 67
     3e8:	90 e0       	ldi	r25, 0x00	; 0
     3ea:	68 df       	rcall	.-304    	; 0x2bc <writeLcdF>
     3ec:	69 81       	ldd	r22, Y+1	; 0x01
     3ee:	66 23       	and	r22, r22
     3f0:	79 f0       	breq	.+30     	; 0x410 <__LOCK_REGION_LENGTH__+0x10>
     3f2:	10 e0       	ldi	r17, 0x00	; 0
     3f4:	1f 5f       	subi	r17, 0xFF	; 255
     3f6:	70 e0       	ldi	r23, 0x00	; 0
     3f8:	84 e4       	ldi	r24, 0x44	; 68
     3fa:	90 e0       	ldi	r25, 0x00	; 0
     3fc:	5f df       	rcall	.-322    	; 0x2bc <writeLcdF>
     3fe:	e1 e0       	ldi	r30, 0x01	; 1
     400:	f0 e0       	ldi	r31, 0x00	; 0
     402:	ec 0f       	add	r30, r28
     404:	fd 1f       	adc	r31, r29
     406:	e1 0f       	add	r30, r17
     408:	f1 1d       	adc	r31, r1
     40a:	60 81       	ld	r22, Z
     40c:	61 11       	cpse	r22, r1
     40e:	f2 cf       	rjmp	.-28     	; 0x3f4 <lcdWriteText+0x48>
     410:	65 96       	adiw	r28, 0x15	; 21
     412:	0f b6       	in	r0, 0x3f	; 63
     414:	f8 94       	cli
     416:	de bf       	out	0x3e, r29	; 62
     418:	0f be       	out	0x3f, r0	; 63
     41a:	cd bf       	out	0x3d, r28	; 61
     41c:	df 91       	pop	r29
     41e:	cf 91       	pop	r28
     420:	1f 91       	pop	r17
     422:	08 95       	ret

00000424 <lcdWriteZahl>:
     424:	2f 92       	push	r2
     426:	3f 92       	push	r3
     428:	4f 92       	push	r4
     42a:	5f 92       	push	r5
     42c:	6f 92       	push	r6
     42e:	7f 92       	push	r7
     430:	8f 92       	push	r8
     432:	9f 92       	push	r9
     434:	af 92       	push	r10
     436:	bf 92       	push	r11
     438:	cf 92       	push	r12
     43a:	df 92       	push	r13
     43c:	ef 92       	push	r14
     43e:	ff 92       	push	r15
     440:	0f 93       	push	r16
     442:	1f 93       	push	r17
     444:	cf 93       	push	r28
     446:	df 93       	push	r29
     448:	cd b7       	in	r28, 0x3d	; 61
     44a:	de b7       	in	r29, 0x3e	; 62
     44c:	e3 97       	sbiw	r28, 0x33	; 51
     44e:	0f b6       	in	r0, 0x3f	; 63
     450:	f8 94       	cli
     452:	de bf       	out	0x3e, r29	; 62
     454:	0f be       	out	0x3f, r0	; 63
     456:	cd bf       	out	0x3d, r28	; 61
     458:	8a ab       	std	Y+50, r24	; 0x32
     45a:	6b ab       	std	Y+51, r22	; 0x33
     45c:	ed a6       	std	Y+45, r14	; 0x2d
     45e:	fe a6       	std	Y+46, r15	; 0x2e
     460:	70 2e       	mov	r7, r16
     462:	61 2e       	mov	r6, r17
     464:	52 2e       	mov	r5, r18
     466:	43 2e       	mov	r4, r19
     468:	cf a6       	std	Y+47, r12	; 0x2f
     46a:	a8 aa       	std	Y+48, r10	; 0x30
     46c:	8c 2d       	mov	r24, r12
     46e:	8a 0d       	add	r24, r10
     470:	89 ab       	std	Y+49, r24	; 0x31
     472:	85 31       	cpi	r24, 0x15	; 21
     474:	70 f0       	brcs	.+28     	; 0x492 <lcdWriteZahl+0x6e>
     476:	84 e1       	ldi	r24, 0x14	; 20
     478:	92 e0       	ldi	r25, 0x02	; 2
     47a:	9f 93       	push	r25
     47c:	8f 93       	push	r24
     47e:	9b a9       	ldd	r25, Y+51	; 0x33
     480:	9f 93       	push	r25
     482:	ea a9       	ldd	r30, Y+50	; 0x32
     484:	ef 93       	push	r30
     486:	92 df       	rcall	.-220    	; 0x3ac <lcdWriteText>
     488:	0f 90       	pop	r0
     48a:	0f 90       	pop	r0
     48c:	0f 90       	pop	r0
     48e:	0f 90       	pop	r0
     490:	a8 c0       	rjmp	.+336    	; 0x5e2 <lcdWriteZahl+0x1be>
     492:	4e 01       	movw	r8, r28
     494:	f5 e1       	ldi	r31, 0x15	; 21
     496:	8f 0e       	add	r8, r31
     498:	91 1c       	adc	r9, r1
     49a:	ce 01       	movw	r24, r28
     49c:	01 96       	adiw	r24, 0x01	; 1
     49e:	9c a7       	std	Y+44, r25	; 0x2c
     4a0:	8b a7       	std	Y+43, r24	; 0x2b
     4a2:	24 2e       	mov	r2, r20
     4a4:	35 2e       	mov	r3, r21
     4a6:	0f 2e       	mov	r0, r31
     4a8:	fa e0       	ldi	r31, 0x0A	; 10
     4aa:	af 2e       	mov	r10, r31
     4ac:	f0 2d       	mov	r31, r0
     4ae:	b1 2c       	mov	r11, r1
     4b0:	c1 2c       	mov	r12, r1
     4b2:	d1 2c       	mov	r13, r1
     4b4:	e1 2c       	mov	r14, r1
     4b6:	f1 2c       	mov	r15, r1
     4b8:	00 e0       	ldi	r16, 0x00	; 0
     4ba:	10 e0       	ldi	r17, 0x00	; 0
     4bc:	2d a5       	ldd	r18, Y+45	; 0x2d
     4be:	3e a5       	ldd	r19, Y+46	; 0x2e
     4c0:	47 2d       	mov	r20, r7
     4c2:	56 2d       	mov	r21, r6
     4c4:	65 2d       	mov	r22, r5
     4c6:	74 2d       	mov	r23, r4
     4c8:	82 2d       	mov	r24, r2
     4ca:	93 2d       	mov	r25, r3
     4cc:	02 d4       	rcall	.+2052   	; 0xcd2 <__umoddi3>
     4ce:	20 5d       	subi	r18, 0xD0	; 208
     4d0:	f4 01       	movw	r30, r8
     4d2:	22 93       	st	-Z, r18
     4d4:	4f 01       	movw	r8, r30
     4d6:	2d a5       	ldd	r18, Y+45	; 0x2d
     4d8:	3e a5       	ldd	r19, Y+46	; 0x2e
     4da:	47 2d       	mov	r20, r7
     4dc:	56 2d       	mov	r21, r6
     4de:	65 2d       	mov	r22, r5
     4e0:	74 2d       	mov	r23, r4
     4e2:	82 2d       	mov	r24, r2
     4e4:	93 2d       	mov	r25, r3
     4e6:	f7 d3       	rcall	.+2030   	; 0xcd6 <__udivdi3>
     4e8:	2d a7       	std	Y+45, r18	; 0x2d
     4ea:	3e a7       	std	Y+46, r19	; 0x2e
     4ec:	74 2e       	mov	r7, r20
     4ee:	65 2e       	mov	r6, r21
     4f0:	56 2e       	mov	r5, r22
     4f2:	47 2e       	mov	r4, r23
     4f4:	28 2e       	mov	r2, r24
     4f6:	39 2e       	mov	r3, r25
     4f8:	8b a5       	ldd	r24, Y+43	; 0x2b
     4fa:	9c a5       	ldd	r25, Y+44	; 0x2c
     4fc:	88 15       	cp	r24, r8
     4fe:	99 05       	cpc	r25, r9
     500:	91 f6       	brne	.-92     	; 0x4a6 <lcdWriteZahl+0x82>
     502:	84 e1       	ldi	r24, 0x14	; 20
     504:	99 a9       	ldd	r25, Y+49	; 0x31
     506:	89 1b       	sub	r24, r25
     508:	ef a5       	ldd	r30, Y+47	; 0x2f
     50a:	ee 23       	and	r30, r30
     50c:	89 f0       	breq	.+34     	; 0x530 <lcdWriteZahl+0x10c>
     50e:	fe 01       	movw	r30, r28
     510:	75 96       	adiw	r30, 0x15	; 21
     512:	2f a5       	ldd	r18, Y+47	; 0x2f
     514:	28 0f       	add	r18, r24
     516:	a1 e0       	ldi	r26, 0x01	; 1
     518:	b0 e0       	ldi	r27, 0x00	; 0
     51a:	ac 0f       	add	r26, r28
     51c:	bd 1f       	adc	r27, r29
     51e:	a8 0f       	add	r26, r24
     520:	b1 1d       	adc	r27, r1
     522:	9c 91       	ld	r25, X
     524:	91 93       	st	Z+, r25
     526:	8f 5f       	subi	r24, 0xFF	; 255
     528:	82 13       	cpse	r24, r18
     52a:	f5 cf       	rjmp	.-22     	; 0x516 <lcdWriteZahl+0xf2>
     52c:	3f a5       	ldd	r19, Y+47	; 0x2f
     52e:	02 c0       	rjmp	.+4      	; 0x534 <lcdWriteZahl+0x110>
     530:	28 2f       	mov	r18, r24
     532:	3f a5       	ldd	r19, Y+47	; 0x2f
     534:	f8 a9       	ldd	r31, Y+48	; 0x30
     536:	ff 23       	and	r31, r31
     538:	f1 f0       	breq	.+60     	; 0x576 <lcdWriteZahl+0x152>
     53a:	fe 01       	movw	r30, r28
     53c:	e3 0f       	add	r30, r19
     53e:	f1 1d       	adc	r31, r1
     540:	8e e2       	ldi	r24, 0x2E	; 46
     542:	85 8b       	std	Z+21, r24	; 0x15
     544:	91 e0       	ldi	r25, 0x01	; 1
     546:	93 0f       	add	r25, r19
     548:	38 a9       	ldd	r19, Y+48	; 0x30
     54a:	39 0f       	add	r19, r25
     54c:	89 2f       	mov	r24, r25
     54e:	29 1b       	sub	r18, r25
     550:	e5 e1       	ldi	r30, 0x15	; 21
     552:	f0 e0       	ldi	r31, 0x00	; 0
     554:	ec 0f       	add	r30, r28
     556:	fd 1f       	adc	r31, r29
     558:	e8 0f       	add	r30, r24
     55a:	f1 1d       	adc	r31, r1
     55c:	92 2f       	mov	r25, r18
     55e:	98 0f       	add	r25, r24
     560:	a1 e0       	ldi	r26, 0x01	; 1
     562:	b0 e0       	ldi	r27, 0x00	; 0
     564:	ac 0f       	add	r26, r28
     566:	bd 1f       	adc	r27, r29
     568:	a9 0f       	add	r26, r25
     56a:	b1 1d       	adc	r27, r1
     56c:	9c 91       	ld	r25, X
     56e:	90 83       	st	Z, r25
     570:	8f 5f       	subi	r24, 0xFF	; 255
     572:	38 13       	cpse	r19, r24
     574:	ed cf       	rjmp	.-38     	; 0x550 <lcdWriteZahl+0x12c>
     576:	fe 01       	movw	r30, r28
     578:	e3 0f       	add	r30, r19
     57a:	f1 1d       	adc	r31, r1
     57c:	15 8a       	std	Z+21, r1	; 0x15
     57e:	8d 89       	ldd	r24, Y+21	; 0x15
     580:	80 33       	cpi	r24, 0x30	; 48
     582:	11 f5       	brne	.+68     	; 0x5c8 <lcdWriteZahl+0x1a4>
     584:	8f a5       	ldd	r24, Y+47	; 0x2f
     586:	48 2f       	mov	r20, r24
     588:	50 e0       	ldi	r21, 0x00	; 0
     58a:	41 50       	subi	r20, 0x01	; 1
     58c:	51 09       	sbc	r21, r1
     58e:	14 16       	cp	r1, r20
     590:	15 06       	cpc	r1, r21
     592:	d4 f4       	brge	.+52     	; 0x5c8 <lcdWriteZahl+0x1a4>
     594:	80 e0       	ldi	r24, 0x00	; 0
     596:	90 e0       	ldi	r25, 0x00	; 0
     598:	20 e0       	ldi	r18, 0x00	; 0
     59a:	60 e2       	ldi	r22, 0x20	; 32
     59c:	2f 5f       	subi	r18, 0xFF	; 255
     59e:	e5 e1       	ldi	r30, 0x15	; 21
     5a0:	f0 e0       	ldi	r31, 0x00	; 0
     5a2:	ec 0f       	add	r30, r28
     5a4:	fd 1f       	adc	r31, r29
     5a6:	e8 0f       	add	r30, r24
     5a8:	f9 1f       	adc	r31, r25
     5aa:	60 83       	st	Z, r22
     5ac:	82 2f       	mov	r24, r18
     5ae:	90 e0       	ldi	r25, 0x00	; 0
     5b0:	e5 e1       	ldi	r30, 0x15	; 21
     5b2:	f0 e0       	ldi	r31, 0x00	; 0
     5b4:	ec 0f       	add	r30, r28
     5b6:	fd 1f       	adc	r31, r29
     5b8:	e8 0f       	add	r30, r24
     5ba:	f9 1f       	adc	r31, r25
     5bc:	30 81       	ld	r19, Z
     5be:	30 33       	cpi	r19, 0x30	; 48
     5c0:	19 f4       	brne	.+6      	; 0x5c8 <lcdWriteZahl+0x1a4>
     5c2:	84 17       	cp	r24, r20
     5c4:	95 07       	cpc	r25, r21
     5c6:	54 f3       	brlt	.-44     	; 0x59c <lcdWriteZahl+0x178>
     5c8:	ce 01       	movw	r24, r28
     5ca:	45 96       	adiw	r24, 0x15	; 21
     5cc:	9f 93       	push	r25
     5ce:	8f 93       	push	r24
     5d0:	9b a9       	ldd	r25, Y+51	; 0x33
     5d2:	9f 93       	push	r25
     5d4:	ea a9       	ldd	r30, Y+50	; 0x32
     5d6:	ef 93       	push	r30
     5d8:	e9 de       	rcall	.-558    	; 0x3ac <lcdWriteText>
     5da:	0f 90       	pop	r0
     5dc:	0f 90       	pop	r0
     5de:	0f 90       	pop	r0
     5e0:	0f 90       	pop	r0
     5e2:	e3 96       	adiw	r28, 0x33	; 51
     5e4:	0f b6       	in	r0, 0x3f	; 63
     5e6:	f8 94       	cli
     5e8:	de bf       	out	0x3e, r29	; 62
     5ea:	0f be       	out	0x3f, r0	; 63
     5ec:	cd bf       	out	0x3d, r28	; 61
     5ee:	df 91       	pop	r29
     5f0:	cf 91       	pop	r28
     5f2:	1f 91       	pop	r17
     5f4:	0f 91       	pop	r16
     5f6:	ff 90       	pop	r15
     5f8:	ef 90       	pop	r14
     5fa:	df 90       	pop	r13
     5fc:	cf 90       	pop	r12
     5fe:	bf 90       	pop	r11
     600:	af 90       	pop	r10
     602:	9f 90       	pop	r9
     604:	8f 90       	pop	r8
     606:	7f 90       	pop	r7
     608:	6f 90       	pop	r6
     60a:	5f 90       	pop	r5
     60c:	4f 90       	pop	r4
     60e:	3f 90       	pop	r3
     610:	2f 90       	pop	r2
     612:	08 95       	ret

00000614 <lcdClear>:
     614:	61 e0       	ldi	r22, 0x01	; 1
     616:	70 e0       	ldi	r23, 0x00	; 0
     618:	83 e4       	ldi	r24, 0x43	; 67
     61a:	90 e0       	ldi	r25, 0x00	; 0
     61c:	4f de       	rcall	.-866    	; 0x2bc <writeLcdF>
     61e:	8f e3       	ldi	r24, 0x3F	; 63
     620:	9f e1       	ldi	r25, 0x1F	; 31
     622:	01 97       	sbiw	r24, 0x01	; 1
     624:	f1 f7       	brne	.-4      	; 0x622 <lcdClear+0xe>
     626:	00 c0       	rjmp	.+0      	; 0x628 <lcdClear+0x14>
     628:	00 00       	nop
     62a:	8c e3       	ldi	r24, 0x3C	; 60
     62c:	92 e0       	ldi	r25, 0x02	; 2
     62e:	9f 93       	push	r25
     630:	8f 93       	push	r24
     632:	1f 92       	push	r1
     634:	1f 92       	push	r1
     636:	ba de       	rcall	.-652    	; 0x3ac <lcdWriteText>
     638:	0f 90       	pop	r0
     63a:	0f 90       	pop	r0
     63c:	0f 90       	pop	r0
     63e:	0f 90       	pop	r0
     640:	08 95       	ret

00000642 <initLcd>:
     642:	81 e0       	ldi	r24, 0x01	; 1
     644:	2a de       	rcall	.-940    	; 0x29a <lcdSclk>
     646:	80 e0       	ldi	r24, 0x00	; 0
     648:	22 de       	rcall	.-956    	; 0x28e <lcdSid>
     64a:	64 e3       	ldi	r22, 0x34	; 52
     64c:	70 e0       	ldi	r23, 0x00	; 0
     64e:	83 e4       	ldi	r24, 0x43	; 67
     650:	90 e0       	ldi	r25, 0x00	; 0
     652:	34 de       	rcall	.-920    	; 0x2bc <writeLcdF>
     654:	69 e0       	ldi	r22, 0x09	; 9
     656:	70 e0       	ldi	r23, 0x00	; 0
     658:	83 e4       	ldi	r24, 0x43	; 67
     65a:	90 e0       	ldi	r25, 0x00	; 0
     65c:	2f de       	rcall	.-930    	; 0x2bc <writeLcdF>
     65e:	60 e3       	ldi	r22, 0x30	; 48
     660:	70 e0       	ldi	r23, 0x00	; 0
     662:	83 e4       	ldi	r24, 0x43	; 67
     664:	90 e0       	ldi	r25, 0x00	; 0
     666:	2a de       	rcall	.-940    	; 0x2bc <writeLcdF>
     668:	6c e0       	ldi	r22, 0x0C	; 12
     66a:	70 e0       	ldi	r23, 0x00	; 0
     66c:	83 e4       	ldi	r24, 0x43	; 67
     66e:	90 e0       	ldi	r25, 0x00	; 0
     670:	25 de       	rcall	.-950    	; 0x2bc <writeLcdF>
     672:	d0 df       	rcall	.-96     	; 0x614 <lcdClear>
     674:	67 e0       	ldi	r22, 0x07	; 7
     676:	70 e0       	ldi	r23, 0x00	; 0
     678:	83 e4       	ldi	r24, 0x43	; 67
     67a:	90 e0       	ldi	r25, 0x00	; 0
     67c:	1f de       	rcall	.-962    	; 0x2bc <writeLcdF>
     67e:	80 e0       	ldi	r24, 0x00	; 0
     680:	12 ce       	rjmp	.-988    	; 0x2a6 <lcdLight>
     682:	08 95       	ret

00000684 <initBoard>:
     684:	4f 92       	push	r4
     686:	5f 92       	push	r5
     688:	6f 92       	push	r6
     68a:	7f 92       	push	r7
     68c:	8f 92       	push	r8
     68e:	9f 92       	push	r9
     690:	af 92       	push	r10
     692:	bf 92       	push	r11
     694:	cf 92       	push	r12
     696:	df 92       	push	r13
     698:	ef 92       	push	r14
     69a:	ff 92       	push	r15
     69c:	0f 93       	push	r16
     69e:	1f 93       	push	r17
     6a0:	cf 93       	push	r28
     6a2:	df 93       	push	r29
     6a4:	c8 2f       	mov	r28, r24
     6a6:	85 b7       	in	r24, 0x35	; 53
     6a8:	85 bf       	out	0x35, r24	; 53
     6aa:	12 b8       	out	0x02, r1	; 2
     6ac:	8f ef       	ldi	r24, 0xFF	; 255
     6ae:	81 b9       	out	0x01, r24	; 1
     6b0:	15 b8       	out	0x05, r1	; 5
     6b2:	84 b9       	out	0x04, r24	; 4
     6b4:	88 b9       	out	0x08, r24	; 8
     6b6:	17 b8       	out	0x07, r1	; 7
     6b8:	8b b9       	out	0x0b, r24	; 11
     6ba:	1a b8       	out	0x0a, r1	; 10
     6bc:	8e b9       	out	0x0e, r24	; 14
     6be:	1d b8       	out	0x0d, r1	; 13
     6c0:	72 98       	cbi	0x0e, 2	; 14
     6c2:	11 ba       	out	0x11, r1	; 17
     6c4:	10 ba       	out	0x10, r1	; 16
     6c6:	94 e0       	ldi	r25, 0x04	; 4
     6c8:	94 bb       	out	0x14, r25	; 20
     6ca:	93 b3       	in	r25, 0x13	; 19
     6cc:	93 60       	ori	r25, 0x03	; 3
     6ce:	93 bb       	out	0x13, r25	; 19
     6d0:	9d 9a       	sbi	0x13, 5	; 19
     6d2:	97 ec       	ldi	r25, 0xC7	; 199
     6d4:	90 93 02 01 	sts	0x0102, r25	; 0x800102 <__TEXT_REGION_LENGTH__+0x700102>
     6d8:	98 e3       	ldi	r25, 0x38	; 56
     6da:	90 93 01 01 	sts	0x0101, r25	; 0x800101 <__TEXT_REGION_LENGTH__+0x700101>
     6de:	10 92 05 01 	sts	0x0105, r1	; 0x800105 <__TEXT_REGION_LENGTH__+0x700105>
     6e2:	80 93 04 01 	sts	0x0104, r24	; 0x800104 <__TEXT_REGION_LENGTH__+0x700104>
     6e6:	10 92 08 01 	sts	0x0108, r1	; 0x800108 <__TEXT_REGION_LENGTH__+0x700108>
     6ea:	10 92 07 01 	sts	0x0107, r1	; 0x800107 <__TEXT_REGION_LENGTH__+0x700107>
     6ee:	8c e3       	ldi	r24, 0x3C	; 60
     6f0:	80 93 0b 01 	sts	0x010B, r24	; 0x80010b <__TEXT_REGION_LENGTH__+0x70010b>
     6f4:	10 92 0a 01 	sts	0x010A, r1	; 0x80010a <__TEXT_REGION_LENGTH__+0x70010a>
     6f8:	78 94       	sei
     6fa:	3e dd       	rcall	.-1412   	; 0x178 <startSystemTimeMs>
     6fc:	a2 df       	rcall	.-188    	; 0x642 <initLcd>
     6fe:	46 dd       	rcall	.-1396   	; 0x18c <initAdc>
     700:	b2 dd       	rcall	.-1180   	; 0x266 <initRgb>
     702:	cc 23       	and	r28, r28
     704:	09 f4       	brne	.+2      	; 0x708 <initBoard+0x84>
     706:	b8 c0       	rjmp	.+368    	; 0x878 <initBoard+0x1f4>
     708:	8f ef       	ldi	r24, 0xFF	; 255
     70a:	cd dd       	rcall	.-1126   	; 0x2a6 <lcdLight>
     70c:	40 e0       	ldi	r20, 0x00	; 0
     70e:	50 e0       	ldi	r21, 0x00	; 0
     710:	6f ef       	ldi	r22, 0xFF	; 255
     712:	73 e0       	ldi	r23, 0x03	; 3
     714:	80 e0       	ldi	r24, 0x00	; 0
     716:	90 e0       	ldi	r25, 0x00	; 0
     718:	8f dd       	rcall	.-1250   	; 0x238 <rgbWrite>
     71a:	89 e2       	ldi	r24, 0x29	; 41
     71c:	92 e0       	ldi	r25, 0x02	; 2
     71e:	9f 93       	push	r25
     720:	8f 93       	push	r24
     722:	1f 92       	push	r1
     724:	1f 92       	push	r1
     726:	42 de       	rcall	.-892    	; 0x3ac <lcdWriteText>
     728:	8e e3       	ldi	r24, 0x3E	; 62
     72a:	92 e0       	ldi	r25, 0x02	; 2
     72c:	9f 93       	push	r25
     72e:	8f 93       	push	r24
     730:	1f 92       	push	r1
     732:	81 e0       	ldi	r24, 0x01	; 1
     734:	8f 93       	push	r24
     736:	3a de       	rcall	.-908    	; 0x3ac <lcdWriteText>
     738:	84 e1       	ldi	r24, 0x14	; 20
     73a:	92 e0       	ldi	r25, 0x02	; 2
     73c:	9f 93       	push	r25
     73e:	8f 93       	push	r24
     740:	1f 92       	push	r1
     742:	82 e0       	ldi	r24, 0x02	; 2
     744:	8f 93       	push	r24
     746:	32 de       	rcall	.-924    	; 0x3ac <lcdWriteText>
     748:	83 e5       	ldi	r24, 0x53	; 83
     74a:	92 e0       	ldi	r25, 0x02	; 2
     74c:	9f 93       	push	r25
     74e:	8f 93       	push	r24
     750:	1f 92       	push	r1
     752:	83 e0       	ldi	r24, 0x03	; 3
     754:	8f 93       	push	r24
     756:	2a de       	rcall	.-940    	; 0x3ac <lcdWriteText>
     758:	8d b7       	in	r24, 0x3d	; 61
     75a:	9e b7       	in	r25, 0x3e	; 62
     75c:	40 96       	adiw	r24, 0x10	; 16
     75e:	0f b6       	in	r0, 0x3f	; 63
     760:	f8 94       	cli
     762:	9e bf       	out	0x3e, r25	; 62
     764:	0f be       	out	0x3f, r0	; 63
     766:	8d bf       	out	0x3d, r24	; 61
     768:	88 24       	eor	r8, r8
     76a:	83 94       	inc	r8
     76c:	c0 e0       	ldi	r28, 0x00	; 0
     76e:	71 2c       	mov	r7, r1
     770:	99 24       	eor	r9, r9
     772:	93 94       	inc	r9
     774:	d0 e0       	ldi	r29, 0x00	; 0
     776:	cc 24       	eor	r12, r12
     778:	c3 94       	inc	r12
     77a:	d1 2c       	mov	r13, r1
     77c:	e1 2c       	mov	r14, r1
     77e:	68 94       	set
     780:	ff 24       	eor	r15, r15
     782:	f7 f8       	bld	r15, 7
     784:	66 24       	eor	r6, r6
     786:	63 94       	inc	r6
     788:	51 2c       	mov	r5, r1
     78a:	09 e0       	ldi	r16, 0x09	; 9
     78c:	11 e0       	ldi	r17, 0x01	; 1
     78e:	0f 2e       	mov	r0, r31
     790:	f8 e6       	ldi	r31, 0x68	; 104
     792:	af 2e       	mov	r10, r31
     794:	f2 e0       	ldi	r31, 0x02	; 2
     796:	bf 2e       	mov	r11, r31
     798:	f0 2d       	mov	r31, r0
     79a:	0f 2e       	mov	r0, r31
     79c:	f3 e0       	ldi	r31, 0x03	; 3
     79e:	4f 2e       	mov	r4, r31
     7a0:	f0 2d       	mov	r31, r0
     7a2:	99 20       	and	r9, r9
     7a4:	49 f0       	breq	.+18     	; 0x7b8 <initBoard+0x134>
     7a6:	c7 01       	movw	r24, r14
     7a8:	0d 2e       	mov	r0, r29
     7aa:	02 c0       	rjmp	.+4      	; 0x7b0 <initBoard+0x12c>
     7ac:	96 95       	lsr	r25
     7ae:	87 95       	ror	r24
     7b0:	0a 94       	dec	r0
     7b2:	e2 f7       	brpl	.-8      	; 0x7ac <initBoard+0x128>
     7b4:	de dc       	rcall	.-1604   	; 0x172 <ledWriteAll>
     7b6:	08 c0       	rjmp	.+16     	; 0x7c8 <initBoard+0x144>
     7b8:	c6 01       	movw	r24, r12
     7ba:	0d 2e       	mov	r0, r29
     7bc:	02 c0       	rjmp	.+4      	; 0x7c2 <initBoard+0x13e>
     7be:	88 0f       	add	r24, r24
     7c0:	99 1f       	adc	r25, r25
     7c2:	0a 94       	dec	r0
     7c4:	e2 f7       	brpl	.-8      	; 0x7be <initBoard+0x13a>
     7c6:	d5 dc       	rcall	.-1622   	; 0x172 <ledWriteAll>
     7c8:	df 5f       	subi	r29, 0xFF	; 255
     7ca:	d1 31       	cpi	r29, 0x11	; 17
     7cc:	28 f0       	brcs	.+10     	; 0x7d8 <initBoard+0x154>
     7ce:	86 2d       	mov	r24, r6
     7d0:	91 10       	cpse	r9, r1
     7d2:	85 2d       	mov	r24, r5
     7d4:	98 2e       	mov	r9, r24
     7d6:	d0 e0       	ldi	r29, 0x00	; 0
     7d8:	88 20       	and	r8, r8
     7da:	11 f0       	breq	.+4      	; 0x7e0 <initBoard+0x15c>
     7dc:	ce 5f       	subi	r28, 0xFE	; 254
     7de:	01 c0       	rjmp	.+2      	; 0x7e2 <initBoard+0x15e>
     7e0:	c2 50       	subi	r28, 0x02	; 2
     7e2:	8c 2f       	mov	r24, r28
     7e4:	60 dd       	rcall	.-1344   	; 0x2a6 <lcdLight>
     7e6:	ce 3f       	cpi	r28, 0xFE	; 254
     7e8:	21 f0       	breq	.+8      	; 0x7f2 <initBoard+0x16e>
     7ea:	c8 37       	cpi	r28, 0x78	; 120
     7ec:	19 f4       	brne	.+6      	; 0x7f4 <initBoard+0x170>
     7ee:	86 2c       	mov	r8, r6
     7f0:	01 c0       	rjmp	.+2      	; 0x7f4 <initBoard+0x170>
     7f2:	85 2c       	mov	r8, r5
     7f4:	71 10       	cpse	r7, r1
     7f6:	3b c0       	rjmp	.+118    	; 0x86e <initBoard+0x1ea>
     7f8:	f8 01       	movw	r30, r16
     7fa:	80 81       	ld	r24, Z
     7fc:	83 7c       	andi	r24, 0xC3	; 195
     7fe:	91 f0       	breq	.+36     	; 0x824 <initBoard+0x1a0>
     800:	40 e0       	ldi	r20, 0x00	; 0
     802:	50 e0       	ldi	r21, 0x00	; 0
     804:	66 e2       	ldi	r22, 0x26	; 38
     806:	72 e0       	ldi	r23, 0x02	; 2
     808:	8f ef       	ldi	r24, 0xFF	; 255
     80a:	93 e0       	ldi	r25, 0x03	; 3
     80c:	15 dd       	rcall	.-1494   	; 0x238 <rgbWrite>
     80e:	bf 92       	push	r11
     810:	af 92       	push	r10
     812:	1f 92       	push	r1
     814:	4f 92       	push	r4
     816:	ca dd       	rcall	.-1132   	; 0x3ac <lcdWriteText>
     818:	0f 90       	pop	r0
     81a:	0f 90       	pop	r0
     81c:	0f 90       	pop	r0
     81e:	0f 90       	pop	r0
     820:	76 2c       	mov	r7, r6
     822:	25 c0       	rjmp	.+74     	; 0x86e <initBoard+0x1ea>
     824:	8f ef       	ldi	r24, 0xFF	; 255
     826:	9c e7       	ldi	r25, 0x7C	; 124
     828:	01 97       	sbiw	r24, 0x01	; 1
     82a:	f1 f7       	brne	.-4      	; 0x828 <initBoard+0x1a4>
     82c:	00 c0       	rjmp	.+0      	; 0x82e <initBoard+0x1aa>
     82e:	00 00       	nop
     830:	b8 cf       	rjmp	.-144    	; 0x7a2 <initBoard+0x11e>
     832:	f0 de       	rcall	.-544    	; 0x614 <lcdClear>
     834:	80 e0       	ldi	r24, 0x00	; 0
     836:	37 dd       	rcall	.-1426   	; 0x2a6 <lcdLight>
     838:	80 e0       	ldi	r24, 0x00	; 0
     83a:	90 e0       	ldi	r25, 0x00	; 0
     83c:	9a dc       	rcall	.-1740   	; 0x172 <ledWriteAll>
     83e:	40 e0       	ldi	r20, 0x00	; 0
     840:	50 e0       	ldi	r21, 0x00	; 0
     842:	60 e0       	ldi	r22, 0x00	; 0
     844:	70 e0       	ldi	r23, 0x00	; 0
     846:	80 e0       	ldi	r24, 0x00	; 0
     848:	90 e0       	ldi	r25, 0x00	; 0
     84a:	f6 dc       	rcall	.-1556   	; 0x238 <rgbWrite>
     84c:	10 92 cf 02 	sts	0x02CF, r1	; 0x8002cf <systemTimeMs>
     850:	10 92 d0 02 	sts	0x02D0, r1	; 0x8002d0 <systemTimeMs+0x1>
     854:	10 92 d1 02 	sts	0x02D1, r1	; 0x8002d1 <systemTimeMs+0x2>
     858:	10 92 d2 02 	sts	0x02D2, r1	; 0x8002d2 <systemTimeMs+0x3>
     85c:	10 92 d3 02 	sts	0x02D3, r1	; 0x8002d3 <systemTimeMs+0x4>
     860:	10 92 d4 02 	sts	0x02D4, r1	; 0x8002d4 <systemTimeMs+0x5>
     864:	10 92 d5 02 	sts	0x02D5, r1	; 0x8002d5 <systemTimeMs+0x6>
     868:	10 92 d6 02 	sts	0x02D6, r1	; 0x8002d6 <systemTimeMs+0x7>
     86c:	05 c0       	rjmp	.+10     	; 0x878 <initBoard+0x1f4>
     86e:	f8 01       	movw	r30, r16
     870:	80 81       	ld	r24, Z
     872:	83 7c       	andi	r24, 0xC3	; 195
     874:	b9 f6       	brne	.-82     	; 0x824 <initBoard+0x1a0>
     876:	dd cf       	rjmp	.-70     	; 0x832 <initBoard+0x1ae>
     878:	df 91       	pop	r29
     87a:	cf 91       	pop	r28
     87c:	1f 91       	pop	r17
     87e:	0f 91       	pop	r16
     880:	ff 90       	pop	r15
     882:	ef 90       	pop	r14
     884:	df 90       	pop	r13
     886:	cf 90       	pop	r12
     888:	bf 90       	pop	r11
     88a:	af 90       	pop	r10
     88c:	9f 90       	pop	r9
     88e:	8f 90       	pop	r8
     890:	7f 90       	pop	r7
     892:	6f 90       	pop	r6
     894:	5f 90       	pop	r5
     896:	4f 90       	pop	r4
     898:	08 95       	ret

0000089a <lcdLog>:
     89a:	6f 92       	push	r6
     89c:	7f 92       	push	r7
     89e:	8f 92       	push	r8
     8a0:	9f 92       	push	r9
     8a2:	af 92       	push	r10
     8a4:	bf 92       	push	r11
     8a6:	cf 92       	push	r12
     8a8:	df 92       	push	r13
     8aa:	ef 92       	push	r14
     8ac:	ff 92       	push	r15
     8ae:	0f 93       	push	r16
     8b0:	1f 93       	push	r17
     8b2:	cf 93       	push	r28
     8b4:	df 93       	push	r29
     8b6:	cd b7       	in	r28, 0x3d	; 61
     8b8:	de b7       	in	r29, 0x3e	; 62
     8ba:	60 97       	sbiw	r28, 0x10	; 16
     8bc:	0f b6       	in	r0, 0x3f	; 63
     8be:	f8 94       	cli
     8c0:	de bf       	out	0x3e, r29	; 62
     8c2:	0f be       	out	0x3f, r0	; 63
     8c4:	cd bf       	out	0x3d, r28	; 61
     8c6:	80 91 00 02 	lds	r24, 0x0200	; 0x800200 <__DATA_REGION_ORIGIN__>
     8ca:	88 23       	and	r24, r24
     8cc:	b1 f1       	breq	.+108    	; 0x93a <lcdLog+0xa0>
     8ce:	a2 de       	rcall	.-700    	; 0x614 <lcdClear>
     8d0:	10 92 00 02 	sts	0x0200, r1	; 0x800200 <__DATA_REGION_ORIGIN__>
     8d4:	10 92 cd 02 	sts	0x02CD, r1	; 0x8002cd <nummer.2610+0x1>
     8d8:	10 92 cc 02 	sts	0x02CC, r1	; 0x8002cc <nummer.2610>
     8dc:	0f 2e       	mov	r0, r31
     8de:	f4 ec       	ldi	r31, 0xC4	; 196
     8e0:	ef 2e       	mov	r14, r31
     8e2:	f2 e0       	ldi	r31, 0x02	; 2
     8e4:	ff 2e       	mov	r15, r31
     8e6:	f0 2d       	mov	r31, r0
     8e8:	04 e8       	ldi	r16, 0x84	; 132
     8ea:	12 e0       	ldi	r17, 0x02	; 2
     8ec:	a0 e0       	ldi	r26, 0x00	; 0
     8ee:	b0 e0       	ldi	r27, 0x00	; 0
     8f0:	40 e2       	ldi	r20, 0x20	; 32
     8f2:	bd 01       	movw	r22, r26
     8f4:	f7 01       	movw	r30, r14
     8f6:	11 92       	st	Z+, r1
     8f8:	11 92       	st	Z+, r1
     8fa:	7f 01       	movw	r14, r30
     8fc:	f8 01       	movw	r30, r16
     8fe:	41 93       	st	Z+, r20
     900:	81 e0       	ldi	r24, 0x01	; 1
     902:	90 e0       	ldi	r25, 0x00	; 0
     904:	13 c0       	rjmp	.+38     	; 0x92c <lcdLog+0x92>
     906:	62 95       	swap	r22
     908:	72 95       	swap	r23
     90a:	70 7f       	andi	r23, 0xF0	; 240
     90c:	76 27       	eor	r23, r22
     90e:	60 7f       	andi	r22, 0xF0	; 240
     910:	76 27       	eor	r23, r22
     912:	6c 57       	subi	r22, 0x7C	; 124
     914:	7d 4f       	sbci	r23, 0xFD	; 253
     916:	fb 01       	movw	r30, r22
     918:	e2 0f       	add	r30, r18
     91a:	f3 1f       	adc	r31, r19
     91c:	10 82       	st	Z, r1
     91e:	11 96       	adiw	r26, 0x01	; 1
     920:	00 5f       	subi	r16, 0xF0	; 240
     922:	1f 4f       	sbci	r17, 0xFF	; 255
     924:	a4 30       	cpi	r26, 0x04	; 4
     926:	b1 05       	cpc	r27, r1
     928:	21 f7       	brne	.-56     	; 0x8f2 <lcdLog+0x58>
     92a:	07 c0       	rjmp	.+14     	; 0x93a <lcdLog+0xa0>
     92c:	9c 01       	movw	r18, r24
     92e:	41 93       	st	Z+, r20
     930:	01 96       	adiw	r24, 0x01	; 1
     932:	80 31       	cpi	r24, 0x10	; 16
     934:	91 05       	cpc	r25, r1
     936:	d1 f7       	brne	.-12     	; 0x92c <lcdLog+0x92>
     938:	e6 cf       	rjmp	.-52     	; 0x906 <lcdLog+0x6c>
     93a:	80 91 cc 02 	lds	r24, 0x02CC	; 0x8002cc <nummer.2610>
     93e:	90 91 cd 02 	lds	r25, 0x02CD	; 0x8002cd <nummer.2610+0x1>
     942:	01 96       	adiw	r24, 0x01	; 1
     944:	90 93 cd 02 	sts	0x02CD, r25	; 0x8002cd <nummer.2610+0x1>
     948:	80 93 cc 02 	sts	0x02CC, r24	; 0x8002cc <nummer.2610>
     94c:	9e 01       	movw	r18, r28
     94e:	2c 5d       	subi	r18, 0xDC	; 220
     950:	3f 4f       	sbci	r19, 0xFF	; 255
     952:	4a a1       	ldd	r20, Y+34	; 0x22
     954:	5b a1       	ldd	r21, Y+35	; 0x23
     956:	60 e1       	ldi	r22, 0x10	; 16
     958:	70 e0       	ldi	r23, 0x00	; 0
     95a:	ce 01       	movw	r24, r28
     95c:	01 96       	adiw	r24, 0x01	; 1
     95e:	2c d2       	rcall	.+1112   	; 0xdb8 <vsnprintf>
     960:	8e 01       	movw	r16, r28
     962:	0f 5f       	subi	r16, 0xFF	; 255
     964:	1f 4f       	sbci	r17, 0xFF	; 255
     966:	7e 01       	movw	r14, r28
     968:	f1 e1       	ldi	r31, 0x11	; 17
     96a:	ef 0e       	add	r14, r31
     96c:	f1 1c       	adc	r15, r1
     96e:	f8 01       	movw	r30, r16
     970:	90 e0       	ldi	r25, 0x00	; 0
     972:	30 e2       	ldi	r19, 0x20	; 32
     974:	21 e0       	ldi	r18, 0x01	; 1
     976:	df 01       	movw	r26, r30
     978:	80 81       	ld	r24, Z
     97a:	88 23       	and	r24, r24
     97c:	19 f0       	breq	.+6      	; 0x984 <lcdLog+0xea>
     97e:	99 23       	and	r25, r25
     980:	19 f0       	breq	.+6      	; 0x988 <lcdLog+0xee>
     982:	01 c0       	rjmp	.+2      	; 0x986 <lcdLog+0xec>
     984:	92 2f       	mov	r25, r18
     986:	3c 93       	st	X, r19
     988:	31 96       	adiw	r30, 0x01	; 1
     98a:	ee 15       	cp	r30, r14
     98c:	ff 05       	cpc	r31, r15
     98e:	99 f7       	brne	.-26     	; 0x976 <lcdLog+0xdc>
     990:	18 8a       	std	Y+16, r1	; 0x10
     992:	64 e8       	ldi	r22, 0x84	; 132
     994:	72 e0       	ldi	r23, 0x02	; 2
     996:	ce 01       	movw	r24, r28
     998:	01 96       	adiw	r24, 0x01	; 1
     99a:	05 d2       	rcall	.+1034   	; 0xda6 <strcmp>
     99c:	88 23       	and	r24, r24
     99e:	09 f4       	brne	.+2      	; 0x9a2 <lcdLog+0x108>
     9a0:	77 c0       	rjmp	.+238    	; 0xa90 <lcdLog+0x1f6>
     9a2:	0f 2e       	mov	r0, r31
     9a4:	fa ec       	ldi	r31, 0xCA	; 202
     9a6:	8f 2e       	mov	r8, r31
     9a8:	f2 e0       	ldi	r31, 0x02	; 2
     9aa:	9f 2e       	mov	r9, r31
     9ac:	f0 2d       	mov	r31, r0
     9ae:	64 eb       	ldi	r22, 0xB4	; 180
     9b0:	72 e0       	ldi	r23, 0x02	; 2
     9b2:	44 e8       	ldi	r20, 0x84	; 132
     9b4:	52 e0       	ldi	r21, 0x02	; 2
     9b6:	f4 01       	movw	r30, r8
     9b8:	92 91       	ld	r25, -Z
     9ba:	82 91       	ld	r24, -Z
     9bc:	4f 01       	movw	r8, r30
     9be:	93 83       	std	Z+3, r25	; 0x03
     9c0:	82 83       	std	Z+2, r24	; 0x02
     9c2:	db 01       	movw	r26, r22
     9c4:	50 97       	sbiw	r26, 0x10	; 16
     9c6:	9b 01       	movw	r18, r22
     9c8:	20 5f       	subi	r18, 0xF0	; 240
     9ca:	3f 4f       	sbci	r19, 0xFF	; 255
     9cc:	fb 01       	movw	r30, r22
     9ce:	8d 91       	ld	r24, X+
     9d0:	81 93       	st	Z+, r24
     9d2:	e2 17       	cp	r30, r18
     9d4:	f3 07       	cpc	r31, r19
     9d6:	d9 f7       	brne	.-10     	; 0x9ce <lcdLog+0x134>
     9d8:	60 51       	subi	r22, 0x10	; 16
     9da:	71 09       	sbc	r23, r1
     9dc:	64 17       	cp	r22, r20
     9de:	75 07       	cpc	r23, r21
     9e0:	51 f7       	brne	.-44     	; 0x9b6 <lcdLog+0x11c>
     9e2:	f8 01       	movw	r30, r16
     9e4:	81 91       	ld	r24, Z+
     9e6:	8f 01       	movw	r16, r30
     9e8:	fa 01       	movw	r30, r20
     9ea:	81 93       	st	Z+, r24
     9ec:	af 01       	movw	r20, r30
     9ee:	0e 15       	cp	r16, r14
     9f0:	1f 05       	cpc	r17, r15
     9f2:	b9 f7       	brne	.-18     	; 0x9e2 <lcdLog+0x148>
     9f4:	80 91 cc 02 	lds	r24, 0x02CC	; 0x8002cc <nummer.2610>
     9f8:	90 91 cd 02 	lds	r25, 0x02CD	; 0x8002cd <nummer.2610+0x1>
     9fc:	90 93 c5 02 	sts	0x02C5, r25	; 0x8002c5 <lcdPrintNr.2608+0x1>
     a00:	80 93 c4 02 	sts	0x02C4, r24	; 0x8002c4 <lcdPrintNr.2608>
     a04:	d1 2c       	mov	r13, r1
     a06:	0f 2e       	mov	r0, r31
     a08:	f3 e0       	ldi	r31, 0x03	; 3
     a0a:	6f 2e       	mov	r6, r31
     a0c:	f0 2d       	mov	r31, r0
     a0e:	0f 2e       	mov	r0, r31
     a10:	f5 e0       	ldi	r31, 0x05	; 5
     a12:	7f 2e       	mov	r7, r31
     a14:	f0 2d       	mov	r31, r0
     a16:	0f 2e       	mov	r0, r31
     a18:	fd e7       	ldi	r31, 0x7D	; 125
     a1a:	8f 2e       	mov	r8, r31
     a1c:	f2 e0       	ldi	r31, 0x02	; 2
     a1e:	9f 2e       	mov	r9, r31
     a20:	f0 2d       	mov	r31, r0
     a22:	68 94       	set
     a24:	bb 24       	eor	r11, r11
     a26:	b2 f8       	bld	r11, 2
     a28:	06 2d       	mov	r16, r6
     a2a:	0d 19       	sub	r16, r13
     a2c:	10 e0       	ldi	r17, 0x00	; 0
     a2e:	c8 01       	movw	r24, r16
     a30:	82 95       	swap	r24
     a32:	92 95       	swap	r25
     a34:	90 7f       	andi	r25, 0xF0	; 240
     a36:	98 27       	eor	r25, r24
     a38:	80 7f       	andi	r24, 0xF0	; 240
     a3a:	98 27       	eor	r25, r24
     a3c:	8c 57       	subi	r24, 0x7C	; 124
     a3e:	9d 4f       	sbci	r25, 0xFD	; 253
     a40:	9f 93       	push	r25
     a42:	8f 93       	push	r24
     a44:	7f 92       	push	r7
     a46:	df 92       	push	r13
     a48:	b1 dc       	rcall	.-1694   	; 0x3ac <lcdWriteText>
     a4a:	9f 92       	push	r9
     a4c:	8f 92       	push	r8
     a4e:	bf 92       	push	r11
     a50:	df 92       	push	r13
     a52:	ac dc       	rcall	.-1704   	; 0x3ac <lcdWriteText>
     a54:	00 0f       	add	r16, r16
     a56:	11 1f       	adc	r17, r17
     a58:	f8 01       	movw	r30, r16
     a5a:	ec 53       	subi	r30, 0x3C	; 60
     a5c:	fd 4f       	sbci	r31, 0xFD	; 253
     a5e:	00 81       	ld	r16, Z
     a60:	11 81       	ldd	r17, Z+1	; 0x01
     a62:	a1 2c       	mov	r10, r1
     a64:	cb 2c       	mov	r12, r11
     a66:	e0 2e       	mov	r14, r16
     a68:	f1 2e       	mov	r15, r17
     a6a:	00 e0       	ldi	r16, 0x00	; 0
     a6c:	10 e0       	ldi	r17, 0x00	; 0
     a6e:	20 e0       	ldi	r18, 0x00	; 0
     a70:	30 e0       	ldi	r19, 0x00	; 0
     a72:	40 e0       	ldi	r20, 0x00	; 0
     a74:	50 e0       	ldi	r21, 0x00	; 0
     a76:	60 e0       	ldi	r22, 0x00	; 0
     a78:	8d 2d       	mov	r24, r13
     a7a:	d4 dc       	rcall	.-1624   	; 0x424 <lcdWriteZahl>
     a7c:	d3 94       	inc	r13
     a7e:	0f b6       	in	r0, 0x3f	; 63
     a80:	f8 94       	cli
     a82:	de bf       	out	0x3e, r29	; 62
     a84:	0f be       	out	0x3f, r0	; 63
     a86:	cd bf       	out	0x3d, r28	; 61
     a88:	94 e0       	ldi	r25, 0x04	; 4
     a8a:	d9 12       	cpse	r13, r25
     a8c:	cd cf       	rjmp	.-102    	; 0xa28 <lcdLog+0x18e>
     a8e:	17 c0       	rjmp	.+46     	; 0xabe <lcdLog+0x224>
     a90:	00 91 cc 02 	lds	r16, 0x02CC	; 0x8002cc <nummer.2610>
     a94:	10 91 cd 02 	lds	r17, 0x02CD	; 0x8002cd <nummer.2610+0x1>
     a98:	10 93 c5 02 	sts	0x02C5, r17	; 0x8002c5 <lcdPrintNr.2608+0x1>
     a9c:	00 93 c4 02 	sts	0x02C4, r16	; 0x8002c4 <lcdPrintNr.2608>
     aa0:	a1 2c       	mov	r10, r1
     aa2:	68 94       	set
     aa4:	cc 24       	eor	r12, r12
     aa6:	c2 f8       	bld	r12, 2
     aa8:	e0 2e       	mov	r14, r16
     aaa:	f1 2e       	mov	r15, r17
     aac:	00 e0       	ldi	r16, 0x00	; 0
     aae:	10 e0       	ldi	r17, 0x00	; 0
     ab0:	20 e0       	ldi	r18, 0x00	; 0
     ab2:	30 e0       	ldi	r19, 0x00	; 0
     ab4:	40 e0       	ldi	r20, 0x00	; 0
     ab6:	50 e0       	ldi	r21, 0x00	; 0
     ab8:	60 e0       	ldi	r22, 0x00	; 0
     aba:	83 e0       	ldi	r24, 0x03	; 3
     abc:	b3 dc       	rcall	.-1690   	; 0x424 <lcdWriteZahl>
     abe:	60 96       	adiw	r28, 0x10	; 16
     ac0:	0f b6       	in	r0, 0x3f	; 63
     ac2:	f8 94       	cli
     ac4:	de bf       	out	0x3e, r29	; 62
     ac6:	0f be       	out	0x3f, r0	; 63
     ac8:	cd bf       	out	0x3d, r28	; 61
     aca:	df 91       	pop	r29
     acc:	cf 91       	pop	r28
     ace:	1f 91       	pop	r17
     ad0:	0f 91       	pop	r16
     ad2:	ff 90       	pop	r15
     ad4:	ef 90       	pop	r14
     ad6:	df 90       	pop	r13
     ad8:	cf 90       	pop	r12
     ada:	bf 90       	pop	r11
     adc:	af 90       	pop	r10
     ade:	9f 90       	pop	r9
     ae0:	8f 90       	pop	r8
     ae2:	7f 90       	pop	r7
     ae4:	6f 90       	pop	r6
     ae6:	08 95       	ret

00000ae8 <matrixWriteNextLine>:




void matrixWriteNextLine(void)
{
     ae8:	cf 93       	push	r28
     aea:	df 93       	push	r29
     aec:	cd b7       	in	r28, 0x3d	; 61
     aee:	de b7       	in	r29, 0x3e	; 62
     af0:	28 97       	sbiw	r28, 0x08	; 8
     af2:	0f b6       	in	r0, 0x3f	; 63
     af4:	f8 94       	cli
     af6:	de bf       	out	0x3e, r29	; 62
     af8:	0f be       	out	0x3f, r0	; 63
     afa:	cd bf       	out	0x3d, r28	; 61
    const  uint8_t Bit_Muster_Tab[8] = {1,2,4,8,16,32,64,128};
     afc:	88 e0       	ldi	r24, 0x08	; 8
     afe:	e1 e0       	ldi	r30, 0x01	; 1
     b00:	f2 e0       	ldi	r31, 0x02	; 2
     b02:	de 01       	movw	r26, r28
     b04:	11 96       	adiw	r26, 0x01	; 1
     b06:	01 90       	ld	r0, Z+
     b08:	0d 92       	st	X+, r0
     b0a:	8a 95       	dec	r24
     b0c:	e1 f7       	brne	.-8      	; 0xb06 <matrixWriteNextLine+0x1e>
    static uint16_t Zeilen_Nr, Bit_Muster;
    uint8_t i;
    
    STROBE_0;                             // Daten des Scheiberegisters nicht ins Latch schreiben
     b0e:	e5 e0       	ldi	r30, 0x05	; 5
     b10:	f1 e0       	ldi	r31, 0x01	; 1
     b12:	80 81       	ld	r24, Z
     b14:	8f 7b       	andi	r24, 0xBF	; 191
     b16:	80 83       	st	Z, r24

    Bit_Muster = Bit_Muster_Tab[Zeilen_Nr]; // Bitmuster aus Tabelle holen, um mit Daten in matrix[] zu vergleichen.
     b18:	e0 91 82 02 	lds	r30, 0x0282	; 0x800282 <Zeilen_Nr.2725>
     b1c:	f0 91 83 02 	lds	r31, 0x0283	; 0x800283 <Zeilen_Nr.2725+0x1>
     b20:	81 e0       	ldi	r24, 0x01	; 1
     b22:	90 e0       	ldi	r25, 0x00	; 0
     b24:	8c 0f       	add	r24, r28
     b26:	9d 1f       	adc	r25, r29
     b28:	e8 0f       	add	r30, r24
     b2a:	f9 1f       	adc	r31, r25
     b2c:	80 81       	ld	r24, Z
     b2e:	90 e0       	ldi	r25, 0x00	; 0
     b30:	90 93 81 02 	sts	0x0281, r25	; 0x800281 <__data_end+0x1>
     b34:	80 93 80 02 	sts	0x0280, r24	; 0x800280 <__data_end>
     b38:	a8 e4       	ldi	r26, 0x48	; 72
     b3a:	b3 e0       	ldi	r27, 0x03	; 3
     b3c:	28 ed       	ldi	r18, 0xD8	; 216
     b3e:	32 e0       	ldi	r19, 0x02	; 2
    {                                       // Vergleicht Bit-Muster der aktuellen Zeile mit Daten in matrix[]
        if((matrix[Anzahl_Spalten-1- i] & Bit_Muster) != 0)     // Ist in matrix[] das entsprechende Bit gesetzt?
        { DATA_Modul_1_ON;                    //   JA:   ==> Datenbit "1" ins Schieberegister schreiben
        }
        else
        { DATA_Modul_1_OFF;                   //   NEIN: ==> Datenbit "0" ins Schieberegister schreiben
     b40:	e5 e0       	ldi	r30, 0x05	; 5
     b42:	f1 e0       	ldi	r31, 0x01	; 1
    Bit_Muster = Bit_Muster_Tab[Zeilen_Nr]; // Bitmuster aus Tabelle holen, um mit Daten in matrix[] zu vergleichen.
    
    // Alle Bits seriell ins Schieberegister hineinschreiben
    for(i=0; i<Anzahl_Spalten; i++)         // Alle Spalten durchgehen und überpüfen, ob Bit gesetzt ist
    {                                       // Vergleicht Bit-Muster der aktuellen Zeile mit Daten in matrix[]
        if((matrix[Anzahl_Spalten-1- i] & Bit_Muster) != 0)     // Ist in matrix[] das entsprechende Bit gesetzt?
     b44:	5e 91       	ld	r21, -X
     b46:	4e 91       	ld	r20, -X
     b48:	80 91 80 02 	lds	r24, 0x0280	; 0x800280 <__data_end>
     b4c:	90 91 81 02 	lds	r25, 0x0281	; 0x800281 <__data_end+0x1>
     b50:	84 23       	and	r24, r20
     b52:	95 23       	and	r25, r21
     b54:	89 2b       	or	r24, r25
     b56:	21 f0       	breq	.+8      	; 0xb60 <matrixWriteNextLine+0x78>
        { DATA_Modul_1_ON;                    //   JA:   ==> Datenbit "1" ins Schieberegister schreiben
     b58:	80 81       	ld	r24, Z
     b5a:	80 62       	ori	r24, 0x20	; 32
     b5c:	80 83       	st	Z, r24
     b5e:	03 c0       	rjmp	.+6      	; 0xb66 <matrixWriteNextLine+0x7e>
        }
        else
        { DATA_Modul_1_OFF;                   //   NEIN: ==> Datenbit "0" ins Schieberegister schreiben
     b60:	80 81       	ld	r24, Z
     b62:	8f 7d       	andi	r24, 0xDF	; 223
     b64:	80 83       	st	Z, r24
        }
        CLOCK_1;
     b66:	80 81       	ld	r24, Z
     b68:	80 61       	ori	r24, 0x10	; 16
     b6a:	80 83       	st	Z, r24
        CLOCK_0;                            // Datenbit wird bei der negativen Flanke des Clock-Signals übernommen
     b6c:	80 81       	ld	r24, Z
     b6e:	8f 7e       	andi	r24, 0xEF	; 239
     b70:	80 83       	st	Z, r24
    STROBE_0;                             // Daten des Scheiberegisters nicht ins Latch schreiben

    Bit_Muster = Bit_Muster_Tab[Zeilen_Nr]; // Bitmuster aus Tabelle holen, um mit Daten in matrix[] zu vergleichen.
    
    // Alle Bits seriell ins Schieberegister hineinschreiben
    for(i=0; i<Anzahl_Spalten; i++)         // Alle Spalten durchgehen und überpüfen, ob Bit gesetzt ist
     b72:	a2 17       	cp	r26, r18
     b74:	b3 07       	cpc	r27, r19
     b76:	31 f7       	brne	.-52     	; 0xb44 <matrixWriteNextLine+0x5c>
        }
        CLOCK_1;
        CLOCK_0;                            // Datenbit wird bei der negativen Flanke des Clock-Signals übernommen
    }
    
    ENABLE_0;                                // +5V aller Zeilen abschalten
     b78:	e5 e0       	ldi	r30, 0x05	; 5
     b7a:	f1 e0       	ldi	r31, 0x01	; 1
     b7c:	80 81       	ld	r24, Z
     b7e:	87 7f       	andi	r24, 0xF7	; 247
     b80:	80 83       	st	Z, r24
    PORTJ &= ~0x07;
     b82:	80 81       	ld	r24, Z
     b84:	88 7f       	andi	r24, 0xF8	; 248
     b86:	80 83       	st	Z, r24
    PORTJ |= Zeilen_Nr;                     // gewünschte Zeile einstellen
     b88:	90 81       	ld	r25, Z
     b8a:	80 91 82 02 	lds	r24, 0x0282	; 0x800282 <Zeilen_Nr.2725>
     b8e:	89 2b       	or	r24, r25
     b90:	80 83       	st	Z, r24
    STROBE_1;                             // Daten ins Latch schreiben
     b92:	80 81       	ld	r24, Z
     b94:	80 64       	ori	r24, 0x40	; 64
     b96:	80 83       	st	Z, r24
    ENABLE_1;                             // +5V Speisung der eingestellten Zeile einschalten
     b98:	80 81       	ld	r24, Z
     b9a:	88 60       	ori	r24, 0x08	; 8
     b9c:	80 83       	st	Z, r24

    // Die Zeilen werden nacheinander eingeschaltet --> zyklisch 0,1,2,3,4,5,6,7, 0,1,2,3, ...
    if (Zeilen_Nr < 7)
     b9e:	80 91 82 02 	lds	r24, 0x0282	; 0x800282 <Zeilen_Nr.2725>
     ba2:	90 91 83 02 	lds	r25, 0x0283	; 0x800283 <Zeilen_Nr.2725+0x1>
     ba6:	87 30       	cpi	r24, 0x07	; 7
     ba8:	91 05       	cpc	r25, r1
     baa:	30 f4       	brcc	.+12     	; 0xbb8 <matrixWriteNextLine+0xd0>
    {
        Zeilen_Nr++;
     bac:	01 96       	adiw	r24, 0x01	; 1
     bae:	90 93 83 02 	sts	0x0283, r25	; 0x800283 <Zeilen_Nr.2725+0x1>
     bb2:	80 93 82 02 	sts	0x0282, r24	; 0x800282 <Zeilen_Nr.2725>
     bb6:	07 c0       	rjmp	.+14     	; 0xbc6 <matrixWriteNextLine+0xde>
    }
    else
    {
        Zeilen_Nr = 0;
     bb8:	10 92 83 02 	sts	0x0283, r1	; 0x800283 <Zeilen_Nr.2725+0x1>
     bbc:	10 92 82 02 	sts	0x0282, r1	; 0x800282 <Zeilen_Nr.2725>
        writeTextFinished = 1;
     bc0:	81 e0       	ldi	r24, 0x01	; 1
     bc2:	80 93 ce 02 	sts	0x02CE, r24	; 0x8002ce <writeTextFinished>
    }
    
     bc6:	28 96       	adiw	r28, 0x08	; 8
     bc8:	0f b6       	in	r0, 0x3f	; 63
     bca:	f8 94       	cli
     bcc:	de bf       	out	0x3e, r29	; 62
     bce:	0f be       	out	0x3f, r0	; 63
     bd0:	cd bf       	out	0x3d, r28	; 61
     bd2:	df 91       	pop	r29
     bd4:	cf 91       	pop	r28
     bd6:	08 95       	ret

00000bd8 <__vector_23>:
//--------------------------------------------------------------------------------------------
// Timer 0 Overflow Interrupt ->  Wird alle 1ms aufgerufen
//--------------------------------------------------------------------------------------------

ISR(TIMER0_OVF_vect)
{
     bd8:	1f 92       	push	r1
     bda:	0f 92       	push	r0
     bdc:	0f b6       	in	r0, 0x3f	; 63
     bde:	0f 92       	push	r0
     be0:	11 24       	eor	r1, r1
     be2:	0b b6       	in	r0, 0x3b	; 59
     be4:	0f 92       	push	r0
     be6:	2f 93       	push	r18
     be8:	3f 93       	push	r19
     bea:	4f 93       	push	r20
     bec:	5f 93       	push	r21
     bee:	6f 93       	push	r22
     bf0:	7f 93       	push	r23
     bf2:	8f 93       	push	r24
     bf4:	9f 93       	push	r25
     bf6:	af 93       	push	r26
     bf8:	bf 93       	push	r27
     bfa:	ef 93       	push	r30
     bfc:	ff 93       	push	r31
    systemTimeMs += 1;
     bfe:	20 91 cf 02 	lds	r18, 0x02CF	; 0x8002cf <systemTimeMs>
     c02:	30 91 d0 02 	lds	r19, 0x02D0	; 0x8002d0 <systemTimeMs+0x1>
     c06:	40 91 d1 02 	lds	r20, 0x02D1	; 0x8002d1 <systemTimeMs+0x2>
     c0a:	50 91 d2 02 	lds	r21, 0x02D2	; 0x8002d2 <systemTimeMs+0x3>
     c0e:	60 91 d3 02 	lds	r22, 0x02D3	; 0x8002d3 <systemTimeMs+0x4>
     c12:	70 91 d4 02 	lds	r23, 0x02D4	; 0x8002d4 <systemTimeMs+0x5>
     c16:	80 91 d5 02 	lds	r24, 0x02D5	; 0x8002d5 <systemTimeMs+0x6>
     c1a:	90 91 d6 02 	lds	r25, 0x02D6	; 0x8002d6 <systemTimeMs+0x7>
     c1e:	a1 e0       	ldi	r26, 0x01	; 1
     c20:	b6 d0       	rcall	.+364    	; 0xd8e <__adddi3_s8>
     c22:	20 93 cf 02 	sts	0x02CF, r18	; 0x8002cf <systemTimeMs>
     c26:	30 93 d0 02 	sts	0x02D0, r19	; 0x8002d0 <systemTimeMs+0x1>
     c2a:	40 93 d1 02 	sts	0x02D1, r20	; 0x8002d1 <systemTimeMs+0x2>
     c2e:	50 93 d2 02 	sts	0x02D2, r21	; 0x8002d2 <systemTimeMs+0x3>
     c32:	60 93 d3 02 	sts	0x02D3, r22	; 0x8002d3 <systemTimeMs+0x4>
     c36:	70 93 d4 02 	sts	0x02D4, r23	; 0x8002d4 <systemTimeMs+0x5>
     c3a:	80 93 d5 02 	sts	0x02D5, r24	; 0x8002d5 <systemTimeMs+0x6>
     c3e:	90 93 d6 02 	sts	0x02D6, r25	; 0x8002d6 <systemTimeMs+0x7>

    if(matrixRunning)matrixWriteNextLine();
     c42:	80 91 d7 02 	lds	r24, 0x02D7	; 0x8002d7 <matrixRunning>
     c46:	81 11       	cpse	r24, r1
     c48:	4f df       	rcall	.-354    	; 0xae8 <matrixWriteNextLine>
}
     c4a:	ff 91       	pop	r31
     c4c:	ef 91       	pop	r30
     c4e:	bf 91       	pop	r27
     c50:	af 91       	pop	r26
     c52:	9f 91       	pop	r25
     c54:	8f 91       	pop	r24
     c56:	7f 91       	pop	r23
     c58:	6f 91       	pop	r22
     c5a:	5f 91       	pop	r21
     c5c:	4f 91       	pop	r20
     c5e:	3f 91       	pop	r19
     c60:	2f 91       	pop	r18
     c62:	0f 90       	pop	r0
     c64:	0b be       	out	0x3b, r0	; 59
     c66:	0f 90       	pop	r0
     c68:	0f be       	out	0x3f, r0	; 63
     c6a:	0f 90       	pop	r0
     c6c:	1f 90       	pop	r1
     c6e:	18 95       	reti

00000c70 <__udivmodsi4>:
     c70:	a1 e2       	ldi	r26, 0x21	; 33
     c72:	1a 2e       	mov	r1, r26
     c74:	aa 1b       	sub	r26, r26
     c76:	bb 1b       	sub	r27, r27
     c78:	fd 01       	movw	r30, r26
     c7a:	0d c0       	rjmp	.+26     	; 0xc96 <__udivmodsi4_ep>

00000c7c <__udivmodsi4_loop>:
     c7c:	aa 1f       	adc	r26, r26
     c7e:	bb 1f       	adc	r27, r27
     c80:	ee 1f       	adc	r30, r30
     c82:	ff 1f       	adc	r31, r31
     c84:	a2 17       	cp	r26, r18
     c86:	b3 07       	cpc	r27, r19
     c88:	e4 07       	cpc	r30, r20
     c8a:	f5 07       	cpc	r31, r21
     c8c:	20 f0       	brcs	.+8      	; 0xc96 <__udivmodsi4_ep>
     c8e:	a2 1b       	sub	r26, r18
     c90:	b3 0b       	sbc	r27, r19
     c92:	e4 0b       	sbc	r30, r20
     c94:	f5 0b       	sbc	r31, r21

00000c96 <__udivmodsi4_ep>:
     c96:	66 1f       	adc	r22, r22
     c98:	77 1f       	adc	r23, r23
     c9a:	88 1f       	adc	r24, r24
     c9c:	99 1f       	adc	r25, r25
     c9e:	1a 94       	dec	r1
     ca0:	69 f7       	brne	.-38     	; 0xc7c <__udivmodsi4_loop>
     ca2:	60 95       	com	r22
     ca4:	70 95       	com	r23
     ca6:	80 95       	com	r24
     ca8:	90 95       	com	r25
     caa:	9b 01       	movw	r18, r22
     cac:	ac 01       	movw	r20, r24
     cae:	bd 01       	movw	r22, r26
     cb0:	cf 01       	movw	r24, r30
     cb2:	08 95       	ret

00000cb4 <__umulhisi3>:
     cb4:	a2 9f       	mul	r26, r18
     cb6:	b0 01       	movw	r22, r0
     cb8:	b3 9f       	mul	r27, r19
     cba:	c0 01       	movw	r24, r0
     cbc:	a3 9f       	mul	r26, r19
     cbe:	70 0d       	add	r23, r0
     cc0:	81 1d       	adc	r24, r1
     cc2:	11 24       	eor	r1, r1
     cc4:	91 1d       	adc	r25, r1
     cc6:	b2 9f       	mul	r27, r18
     cc8:	70 0d       	add	r23, r0
     cca:	81 1d       	adc	r24, r1
     ccc:	11 24       	eor	r1, r1
     cce:	91 1d       	adc	r25, r1
     cd0:	08 95       	ret

00000cd2 <__umoddi3>:
     cd2:	68 94       	set
     cd4:	01 c0       	rjmp	.+2      	; 0xcd8 <__udivdi3_umoddi3>

00000cd6 <__udivdi3>:
     cd6:	e8 94       	clt

00000cd8 <__udivdi3_umoddi3>:
     cd8:	8f 92       	push	r8
     cda:	9f 92       	push	r9
     cdc:	cf 93       	push	r28
     cde:	df 93       	push	r29
     ce0:	05 d0       	rcall	.+10     	; 0xcec <__udivmod64>
     ce2:	df 91       	pop	r29
     ce4:	cf 91       	pop	r28
     ce6:	9f 90       	pop	r9
     ce8:	8f 90       	pop	r8
     cea:	08 95       	ret

00000cec <__udivmod64>:
     cec:	88 24       	eor	r8, r8
     cee:	99 24       	eor	r9, r9
     cf0:	f4 01       	movw	r30, r8
     cf2:	e4 01       	movw	r28, r8
     cf4:	b0 e4       	ldi	r27, 0x40	; 64
     cf6:	9f 93       	push	r25
     cf8:	aa 27       	eor	r26, r26
     cfa:	9a 15       	cp	r25, r10
     cfc:	8b 04       	cpc	r8, r11
     cfe:	9c 04       	cpc	r9, r12
     d00:	ed 05       	cpc	r30, r13
     d02:	fe 05       	cpc	r31, r14
     d04:	cf 05       	cpc	r28, r15
     d06:	d0 07       	cpc	r29, r16
     d08:	a1 07       	cpc	r26, r17
     d0a:	98 f4       	brcc	.+38     	; 0xd32 <__udivmod64+0x46>
     d0c:	ad 2f       	mov	r26, r29
     d0e:	dc 2f       	mov	r29, r28
     d10:	cf 2f       	mov	r28, r31
     d12:	fe 2f       	mov	r31, r30
     d14:	e9 2d       	mov	r30, r9
     d16:	98 2c       	mov	r9, r8
     d18:	89 2e       	mov	r8, r25
     d1a:	98 2f       	mov	r25, r24
     d1c:	87 2f       	mov	r24, r23
     d1e:	76 2f       	mov	r23, r22
     d20:	65 2f       	mov	r22, r21
     d22:	54 2f       	mov	r21, r20
     d24:	43 2f       	mov	r20, r19
     d26:	32 2f       	mov	r19, r18
     d28:	22 27       	eor	r18, r18
     d2a:	b8 50       	subi	r27, 0x08	; 8
     d2c:	31 f7       	brne	.-52     	; 0xcfa <__udivmod64+0xe>
     d2e:	bf 91       	pop	r27
     d30:	27 c0       	rjmp	.+78     	; 0xd80 <__udivmod64+0x94>
     d32:	1b 2e       	mov	r1, r27
     d34:	bf 91       	pop	r27
     d36:	bb 27       	eor	r27, r27
     d38:	22 0f       	add	r18, r18
     d3a:	33 1f       	adc	r19, r19
     d3c:	44 1f       	adc	r20, r20
     d3e:	55 1f       	adc	r21, r21
     d40:	66 1f       	adc	r22, r22
     d42:	77 1f       	adc	r23, r23
     d44:	88 1f       	adc	r24, r24
     d46:	99 1f       	adc	r25, r25
     d48:	88 1c       	adc	r8, r8
     d4a:	99 1c       	adc	r9, r9
     d4c:	ee 1f       	adc	r30, r30
     d4e:	ff 1f       	adc	r31, r31
     d50:	cc 1f       	adc	r28, r28
     d52:	dd 1f       	adc	r29, r29
     d54:	aa 1f       	adc	r26, r26
     d56:	bb 1f       	adc	r27, r27
     d58:	8a 14       	cp	r8, r10
     d5a:	9b 04       	cpc	r9, r11
     d5c:	ec 05       	cpc	r30, r12
     d5e:	fd 05       	cpc	r31, r13
     d60:	ce 05       	cpc	r28, r14
     d62:	df 05       	cpc	r29, r15
     d64:	a0 07       	cpc	r26, r16
     d66:	b1 07       	cpc	r27, r17
     d68:	48 f0       	brcs	.+18     	; 0xd7c <__udivmod64+0x90>
     d6a:	8a 18       	sub	r8, r10
     d6c:	9b 08       	sbc	r9, r11
     d6e:	ec 09       	sbc	r30, r12
     d70:	fd 09       	sbc	r31, r13
     d72:	ce 09       	sbc	r28, r14
     d74:	df 09       	sbc	r29, r15
     d76:	a0 0b       	sbc	r26, r16
     d78:	b1 0b       	sbc	r27, r17
     d7a:	21 60       	ori	r18, 0x01	; 1
     d7c:	1a 94       	dec	r1
     d7e:	e1 f6       	brne	.-72     	; 0xd38 <__udivmod64+0x4c>
     d80:	2e f4       	brtc	.+10     	; 0xd8c <__udivmod64+0xa0>
     d82:	94 01       	movw	r18, r8
     d84:	af 01       	movw	r20, r30
     d86:	be 01       	movw	r22, r28
     d88:	cd 01       	movw	r24, r26
     d8a:	00 0c       	add	r0, r0
     d8c:	08 95       	ret

00000d8e <__adddi3_s8>:
     d8e:	00 24       	eor	r0, r0
     d90:	a7 fd       	sbrc	r26, 7
     d92:	00 94       	com	r0
     d94:	2a 0f       	add	r18, r26
     d96:	30 1d       	adc	r19, r0
     d98:	40 1d       	adc	r20, r0
     d9a:	50 1d       	adc	r21, r0
     d9c:	60 1d       	adc	r22, r0
     d9e:	70 1d       	adc	r23, r0
     da0:	80 1d       	adc	r24, r0
     da2:	90 1d       	adc	r25, r0
     da4:	08 95       	ret

00000da6 <strcmp>:
     da6:	fb 01       	movw	r30, r22
     da8:	dc 01       	movw	r26, r24
     daa:	8d 91       	ld	r24, X+
     dac:	01 90       	ld	r0, Z+
     dae:	80 19       	sub	r24, r0
     db0:	01 10       	cpse	r0, r1
     db2:	d9 f3       	breq	.-10     	; 0xdaa <strcmp+0x4>
     db4:	99 0b       	sbc	r25, r25
     db6:	08 95       	ret

00000db8 <vsnprintf>:
     db8:	0f 93       	push	r16
     dba:	1f 93       	push	r17
     dbc:	cf 93       	push	r28
     dbe:	df 93       	push	r29
     dc0:	cd b7       	in	r28, 0x3d	; 61
     dc2:	de b7       	in	r29, 0x3e	; 62
     dc4:	2e 97       	sbiw	r28, 0x0e	; 14
     dc6:	0f b6       	in	r0, 0x3f	; 63
     dc8:	f8 94       	cli
     dca:	de bf       	out	0x3e, r29	; 62
     dcc:	0f be       	out	0x3f, r0	; 63
     dce:	cd bf       	out	0x3d, r28	; 61
     dd0:	8c 01       	movw	r16, r24
     dd2:	fa 01       	movw	r30, r20
     dd4:	86 e0       	ldi	r24, 0x06	; 6
     dd6:	8c 83       	std	Y+4, r24	; 0x04
     dd8:	1a 83       	std	Y+2, r17	; 0x02
     dda:	09 83       	std	Y+1, r16	; 0x01
     ddc:	77 ff       	sbrs	r23, 7
     dde:	02 c0       	rjmp	.+4      	; 0xde4 <vsnprintf+0x2c>
     de0:	60 e0       	ldi	r22, 0x00	; 0
     de2:	70 e8       	ldi	r23, 0x80	; 128
     de4:	cb 01       	movw	r24, r22
     de6:	01 97       	sbiw	r24, 0x01	; 1
     de8:	9e 83       	std	Y+6, r25	; 0x06
     dea:	8d 83       	std	Y+5, r24	; 0x05
     dec:	a9 01       	movw	r20, r18
     dee:	bf 01       	movw	r22, r30
     df0:	ce 01       	movw	r24, r28
     df2:	01 96       	adiw	r24, 0x01	; 1
     df4:	19 d0       	rcall	.+50     	; 0xe28 <vfprintf>
     df6:	4d 81       	ldd	r20, Y+5	; 0x05
     df8:	5e 81       	ldd	r21, Y+6	; 0x06
     dfa:	57 fd       	sbrc	r21, 7
     dfc:	0a c0       	rjmp	.+20     	; 0xe12 <vsnprintf+0x5a>
     dfe:	2f 81       	ldd	r18, Y+7	; 0x07
     e00:	38 85       	ldd	r19, Y+8	; 0x08
     e02:	42 17       	cp	r20, r18
     e04:	53 07       	cpc	r21, r19
     e06:	0c f4       	brge	.+2      	; 0xe0a <vsnprintf+0x52>
     e08:	9a 01       	movw	r18, r20
     e0a:	f8 01       	movw	r30, r16
     e0c:	e2 0f       	add	r30, r18
     e0e:	f3 1f       	adc	r31, r19
     e10:	10 82       	st	Z, r1
     e12:	2e 96       	adiw	r28, 0x0e	; 14
     e14:	0f b6       	in	r0, 0x3f	; 63
     e16:	f8 94       	cli
     e18:	de bf       	out	0x3e, r29	; 62
     e1a:	0f be       	out	0x3f, r0	; 63
     e1c:	cd bf       	out	0x3d, r28	; 61
     e1e:	df 91       	pop	r29
     e20:	cf 91       	pop	r28
     e22:	1f 91       	pop	r17
     e24:	0f 91       	pop	r16
     e26:	08 95       	ret

00000e28 <vfprintf>:
     e28:	2f 92       	push	r2
     e2a:	3f 92       	push	r3
     e2c:	4f 92       	push	r4
     e2e:	5f 92       	push	r5
     e30:	6f 92       	push	r6
     e32:	7f 92       	push	r7
     e34:	8f 92       	push	r8
     e36:	9f 92       	push	r9
     e38:	af 92       	push	r10
     e3a:	bf 92       	push	r11
     e3c:	cf 92       	push	r12
     e3e:	df 92       	push	r13
     e40:	ef 92       	push	r14
     e42:	ff 92       	push	r15
     e44:	0f 93       	push	r16
     e46:	1f 93       	push	r17
     e48:	cf 93       	push	r28
     e4a:	df 93       	push	r29
     e4c:	cd b7       	in	r28, 0x3d	; 61
     e4e:	de b7       	in	r29, 0x3e	; 62
     e50:	2b 97       	sbiw	r28, 0x0b	; 11
     e52:	0f b6       	in	r0, 0x3f	; 63
     e54:	f8 94       	cli
     e56:	de bf       	out	0x3e, r29	; 62
     e58:	0f be       	out	0x3f, r0	; 63
     e5a:	cd bf       	out	0x3d, r28	; 61
     e5c:	6c 01       	movw	r12, r24
     e5e:	7b 01       	movw	r14, r22
     e60:	8a 01       	movw	r16, r20
     e62:	fc 01       	movw	r30, r24
     e64:	17 82       	std	Z+7, r1	; 0x07
     e66:	16 82       	std	Z+6, r1	; 0x06
     e68:	83 81       	ldd	r24, Z+3	; 0x03
     e6a:	81 ff       	sbrs	r24, 1
     e6c:	bf c1       	rjmp	.+894    	; 0x11ec <vfprintf+0x3c4>
     e6e:	ce 01       	movw	r24, r28
     e70:	01 96       	adiw	r24, 0x01	; 1
     e72:	3c 01       	movw	r6, r24
     e74:	f6 01       	movw	r30, r12
     e76:	93 81       	ldd	r25, Z+3	; 0x03
     e78:	f7 01       	movw	r30, r14
     e7a:	93 fd       	sbrc	r25, 3
     e7c:	85 91       	lpm	r24, Z+
     e7e:	93 ff       	sbrs	r25, 3
     e80:	81 91       	ld	r24, Z+
     e82:	7f 01       	movw	r14, r30
     e84:	88 23       	and	r24, r24
     e86:	09 f4       	brne	.+2      	; 0xe8a <vfprintf+0x62>
     e88:	ad c1       	rjmp	.+858    	; 0x11e4 <vfprintf+0x3bc>
     e8a:	85 32       	cpi	r24, 0x25	; 37
     e8c:	39 f4       	brne	.+14     	; 0xe9c <vfprintf+0x74>
     e8e:	93 fd       	sbrc	r25, 3
     e90:	85 91       	lpm	r24, Z+
     e92:	93 ff       	sbrs	r25, 3
     e94:	81 91       	ld	r24, Z+
     e96:	7f 01       	movw	r14, r30
     e98:	85 32       	cpi	r24, 0x25	; 37
     e9a:	21 f4       	brne	.+8      	; 0xea4 <vfprintf+0x7c>
     e9c:	b6 01       	movw	r22, r12
     e9e:	90 e0       	ldi	r25, 0x00	; 0
     ea0:	d6 d1       	rcall	.+940    	; 0x124e <fputc>
     ea2:	e8 cf       	rjmp	.-48     	; 0xe74 <vfprintf+0x4c>
     ea4:	91 2c       	mov	r9, r1
     ea6:	21 2c       	mov	r2, r1
     ea8:	31 2c       	mov	r3, r1
     eaa:	ff e1       	ldi	r31, 0x1F	; 31
     eac:	f3 15       	cp	r31, r3
     eae:	d8 f0       	brcs	.+54     	; 0xee6 <vfprintf+0xbe>
     eb0:	8b 32       	cpi	r24, 0x2B	; 43
     eb2:	79 f0       	breq	.+30     	; 0xed2 <vfprintf+0xaa>
     eb4:	38 f4       	brcc	.+14     	; 0xec4 <vfprintf+0x9c>
     eb6:	80 32       	cpi	r24, 0x20	; 32
     eb8:	79 f0       	breq	.+30     	; 0xed8 <vfprintf+0xb0>
     eba:	83 32       	cpi	r24, 0x23	; 35
     ebc:	a1 f4       	brne	.+40     	; 0xee6 <vfprintf+0xbe>
     ebe:	23 2d       	mov	r18, r3
     ec0:	20 61       	ori	r18, 0x10	; 16
     ec2:	1d c0       	rjmp	.+58     	; 0xefe <vfprintf+0xd6>
     ec4:	8d 32       	cpi	r24, 0x2D	; 45
     ec6:	61 f0       	breq	.+24     	; 0xee0 <vfprintf+0xb8>
     ec8:	80 33       	cpi	r24, 0x30	; 48
     eca:	69 f4       	brne	.+26     	; 0xee6 <vfprintf+0xbe>
     ecc:	23 2d       	mov	r18, r3
     ece:	21 60       	ori	r18, 0x01	; 1
     ed0:	16 c0       	rjmp	.+44     	; 0xefe <vfprintf+0xd6>
     ed2:	83 2d       	mov	r24, r3
     ed4:	82 60       	ori	r24, 0x02	; 2
     ed6:	38 2e       	mov	r3, r24
     ed8:	e3 2d       	mov	r30, r3
     eda:	e4 60       	ori	r30, 0x04	; 4
     edc:	3e 2e       	mov	r3, r30
     ede:	2a c0       	rjmp	.+84     	; 0xf34 <vfprintf+0x10c>
     ee0:	f3 2d       	mov	r31, r3
     ee2:	f8 60       	ori	r31, 0x08	; 8
     ee4:	1d c0       	rjmp	.+58     	; 0xf20 <vfprintf+0xf8>
     ee6:	37 fc       	sbrc	r3, 7
     ee8:	2d c0       	rjmp	.+90     	; 0xf44 <vfprintf+0x11c>
     eea:	20 ed       	ldi	r18, 0xD0	; 208
     eec:	28 0f       	add	r18, r24
     eee:	2a 30       	cpi	r18, 0x0A	; 10
     ef0:	40 f0       	brcs	.+16     	; 0xf02 <vfprintf+0xda>
     ef2:	8e 32       	cpi	r24, 0x2E	; 46
     ef4:	b9 f4       	brne	.+46     	; 0xf24 <vfprintf+0xfc>
     ef6:	36 fc       	sbrc	r3, 6
     ef8:	75 c1       	rjmp	.+746    	; 0x11e4 <vfprintf+0x3bc>
     efa:	23 2d       	mov	r18, r3
     efc:	20 64       	ori	r18, 0x40	; 64
     efe:	32 2e       	mov	r3, r18
     f00:	19 c0       	rjmp	.+50     	; 0xf34 <vfprintf+0x10c>
     f02:	36 fe       	sbrs	r3, 6
     f04:	06 c0       	rjmp	.+12     	; 0xf12 <vfprintf+0xea>
     f06:	8a e0       	ldi	r24, 0x0A	; 10
     f08:	98 9e       	mul	r9, r24
     f0a:	20 0d       	add	r18, r0
     f0c:	11 24       	eor	r1, r1
     f0e:	92 2e       	mov	r9, r18
     f10:	11 c0       	rjmp	.+34     	; 0xf34 <vfprintf+0x10c>
     f12:	ea e0       	ldi	r30, 0x0A	; 10
     f14:	2e 9e       	mul	r2, r30
     f16:	20 0d       	add	r18, r0
     f18:	11 24       	eor	r1, r1
     f1a:	22 2e       	mov	r2, r18
     f1c:	f3 2d       	mov	r31, r3
     f1e:	f0 62       	ori	r31, 0x20	; 32
     f20:	3f 2e       	mov	r3, r31
     f22:	08 c0       	rjmp	.+16     	; 0xf34 <vfprintf+0x10c>
     f24:	8c 36       	cpi	r24, 0x6C	; 108
     f26:	21 f4       	brne	.+8      	; 0xf30 <vfprintf+0x108>
     f28:	83 2d       	mov	r24, r3
     f2a:	80 68       	ori	r24, 0x80	; 128
     f2c:	38 2e       	mov	r3, r24
     f2e:	02 c0       	rjmp	.+4      	; 0xf34 <vfprintf+0x10c>
     f30:	88 36       	cpi	r24, 0x68	; 104
     f32:	41 f4       	brne	.+16     	; 0xf44 <vfprintf+0x11c>
     f34:	f7 01       	movw	r30, r14
     f36:	93 fd       	sbrc	r25, 3
     f38:	85 91       	lpm	r24, Z+
     f3a:	93 ff       	sbrs	r25, 3
     f3c:	81 91       	ld	r24, Z+
     f3e:	7f 01       	movw	r14, r30
     f40:	81 11       	cpse	r24, r1
     f42:	b3 cf       	rjmp	.-154    	; 0xeaa <vfprintf+0x82>
     f44:	98 2f       	mov	r25, r24
     f46:	9f 7d       	andi	r25, 0xDF	; 223
     f48:	95 54       	subi	r25, 0x45	; 69
     f4a:	93 30       	cpi	r25, 0x03	; 3
     f4c:	28 f4       	brcc	.+10     	; 0xf58 <vfprintf+0x130>
     f4e:	0c 5f       	subi	r16, 0xFC	; 252
     f50:	1f 4f       	sbci	r17, 0xFF	; 255
     f52:	9f e3       	ldi	r25, 0x3F	; 63
     f54:	99 83       	std	Y+1, r25	; 0x01
     f56:	0d c0       	rjmp	.+26     	; 0xf72 <vfprintf+0x14a>
     f58:	83 36       	cpi	r24, 0x63	; 99
     f5a:	31 f0       	breq	.+12     	; 0xf68 <vfprintf+0x140>
     f5c:	83 37       	cpi	r24, 0x73	; 115
     f5e:	71 f0       	breq	.+28     	; 0xf7c <vfprintf+0x154>
     f60:	83 35       	cpi	r24, 0x53	; 83
     f62:	09 f0       	breq	.+2      	; 0xf66 <vfprintf+0x13e>
     f64:	55 c0       	rjmp	.+170    	; 0x1010 <vfprintf+0x1e8>
     f66:	20 c0       	rjmp	.+64     	; 0xfa8 <vfprintf+0x180>
     f68:	f8 01       	movw	r30, r16
     f6a:	80 81       	ld	r24, Z
     f6c:	89 83       	std	Y+1, r24	; 0x01
     f6e:	0e 5f       	subi	r16, 0xFE	; 254
     f70:	1f 4f       	sbci	r17, 0xFF	; 255
     f72:	88 24       	eor	r8, r8
     f74:	83 94       	inc	r8
     f76:	91 2c       	mov	r9, r1
     f78:	53 01       	movw	r10, r6
     f7a:	12 c0       	rjmp	.+36     	; 0xfa0 <vfprintf+0x178>
     f7c:	28 01       	movw	r4, r16
     f7e:	f2 e0       	ldi	r31, 0x02	; 2
     f80:	4f 0e       	add	r4, r31
     f82:	51 1c       	adc	r5, r1
     f84:	f8 01       	movw	r30, r16
     f86:	a0 80       	ld	r10, Z
     f88:	b1 80       	ldd	r11, Z+1	; 0x01
     f8a:	36 fe       	sbrs	r3, 6
     f8c:	03 c0       	rjmp	.+6      	; 0xf94 <vfprintf+0x16c>
     f8e:	69 2d       	mov	r22, r9
     f90:	70 e0       	ldi	r23, 0x00	; 0
     f92:	02 c0       	rjmp	.+4      	; 0xf98 <vfprintf+0x170>
     f94:	6f ef       	ldi	r22, 0xFF	; 255
     f96:	7f ef       	ldi	r23, 0xFF	; 255
     f98:	c5 01       	movw	r24, r10
     f9a:	4e d1       	rcall	.+668    	; 0x1238 <strnlen>
     f9c:	4c 01       	movw	r8, r24
     f9e:	82 01       	movw	r16, r4
     fa0:	f3 2d       	mov	r31, r3
     fa2:	ff 77       	andi	r31, 0x7F	; 127
     fa4:	3f 2e       	mov	r3, r31
     fa6:	15 c0       	rjmp	.+42     	; 0xfd2 <vfprintf+0x1aa>
     fa8:	28 01       	movw	r4, r16
     faa:	22 e0       	ldi	r18, 0x02	; 2
     fac:	42 0e       	add	r4, r18
     fae:	51 1c       	adc	r5, r1
     fb0:	f8 01       	movw	r30, r16
     fb2:	a0 80       	ld	r10, Z
     fb4:	b1 80       	ldd	r11, Z+1	; 0x01
     fb6:	36 fe       	sbrs	r3, 6
     fb8:	03 c0       	rjmp	.+6      	; 0xfc0 <vfprintf+0x198>
     fba:	69 2d       	mov	r22, r9
     fbc:	70 e0       	ldi	r23, 0x00	; 0
     fbe:	02 c0       	rjmp	.+4      	; 0xfc4 <vfprintf+0x19c>
     fc0:	6f ef       	ldi	r22, 0xFF	; 255
     fc2:	7f ef       	ldi	r23, 0xFF	; 255
     fc4:	c5 01       	movw	r24, r10
     fc6:	2d d1       	rcall	.+602    	; 0x1222 <strnlen_P>
     fc8:	4c 01       	movw	r8, r24
     fca:	f3 2d       	mov	r31, r3
     fcc:	f0 68       	ori	r31, 0x80	; 128
     fce:	3f 2e       	mov	r3, r31
     fd0:	82 01       	movw	r16, r4
     fd2:	33 fc       	sbrc	r3, 3
     fd4:	19 c0       	rjmp	.+50     	; 0x1008 <vfprintf+0x1e0>
     fd6:	82 2d       	mov	r24, r2
     fd8:	90 e0       	ldi	r25, 0x00	; 0
     fda:	88 16       	cp	r8, r24
     fdc:	99 06       	cpc	r9, r25
     fde:	a0 f4       	brcc	.+40     	; 0x1008 <vfprintf+0x1e0>
     fe0:	b6 01       	movw	r22, r12
     fe2:	80 e2       	ldi	r24, 0x20	; 32
     fe4:	90 e0       	ldi	r25, 0x00	; 0
     fe6:	33 d1       	rcall	.+614    	; 0x124e <fputc>
     fe8:	2a 94       	dec	r2
     fea:	f5 cf       	rjmp	.-22     	; 0xfd6 <vfprintf+0x1ae>
     fec:	f5 01       	movw	r30, r10
     fee:	37 fc       	sbrc	r3, 7
     ff0:	85 91       	lpm	r24, Z+
     ff2:	37 fe       	sbrs	r3, 7
     ff4:	81 91       	ld	r24, Z+
     ff6:	5f 01       	movw	r10, r30
     ff8:	b6 01       	movw	r22, r12
     ffa:	90 e0       	ldi	r25, 0x00	; 0
     ffc:	28 d1       	rcall	.+592    	; 0x124e <fputc>
     ffe:	21 10       	cpse	r2, r1
    1000:	2a 94       	dec	r2
    1002:	21 e0       	ldi	r18, 0x01	; 1
    1004:	82 1a       	sub	r8, r18
    1006:	91 08       	sbc	r9, r1
    1008:	81 14       	cp	r8, r1
    100a:	91 04       	cpc	r9, r1
    100c:	79 f7       	brne	.-34     	; 0xfec <vfprintf+0x1c4>
    100e:	e1 c0       	rjmp	.+450    	; 0x11d2 <vfprintf+0x3aa>
    1010:	84 36       	cpi	r24, 0x64	; 100
    1012:	11 f0       	breq	.+4      	; 0x1018 <vfprintf+0x1f0>
    1014:	89 36       	cpi	r24, 0x69	; 105
    1016:	39 f5       	brne	.+78     	; 0x1066 <vfprintf+0x23e>
    1018:	f8 01       	movw	r30, r16
    101a:	37 fe       	sbrs	r3, 7
    101c:	07 c0       	rjmp	.+14     	; 0x102c <vfprintf+0x204>
    101e:	60 81       	ld	r22, Z
    1020:	71 81       	ldd	r23, Z+1	; 0x01
    1022:	82 81       	ldd	r24, Z+2	; 0x02
    1024:	93 81       	ldd	r25, Z+3	; 0x03
    1026:	0c 5f       	subi	r16, 0xFC	; 252
    1028:	1f 4f       	sbci	r17, 0xFF	; 255
    102a:	08 c0       	rjmp	.+16     	; 0x103c <vfprintf+0x214>
    102c:	60 81       	ld	r22, Z
    102e:	71 81       	ldd	r23, Z+1	; 0x01
    1030:	07 2e       	mov	r0, r23
    1032:	00 0c       	add	r0, r0
    1034:	88 0b       	sbc	r24, r24
    1036:	99 0b       	sbc	r25, r25
    1038:	0e 5f       	subi	r16, 0xFE	; 254
    103a:	1f 4f       	sbci	r17, 0xFF	; 255
    103c:	f3 2d       	mov	r31, r3
    103e:	ff 76       	andi	r31, 0x6F	; 111
    1040:	3f 2e       	mov	r3, r31
    1042:	97 ff       	sbrs	r25, 7
    1044:	09 c0       	rjmp	.+18     	; 0x1058 <vfprintf+0x230>
    1046:	90 95       	com	r25
    1048:	80 95       	com	r24
    104a:	70 95       	com	r23
    104c:	61 95       	neg	r22
    104e:	7f 4f       	sbci	r23, 0xFF	; 255
    1050:	8f 4f       	sbci	r24, 0xFF	; 255
    1052:	9f 4f       	sbci	r25, 0xFF	; 255
    1054:	f0 68       	ori	r31, 0x80	; 128
    1056:	3f 2e       	mov	r3, r31
    1058:	2a e0       	ldi	r18, 0x0A	; 10
    105a:	30 e0       	ldi	r19, 0x00	; 0
    105c:	a3 01       	movw	r20, r6
    105e:	33 d1       	rcall	.+614    	; 0x12c6 <__ultoa_invert>
    1060:	88 2e       	mov	r8, r24
    1062:	86 18       	sub	r8, r6
    1064:	44 c0       	rjmp	.+136    	; 0x10ee <vfprintf+0x2c6>
    1066:	85 37       	cpi	r24, 0x75	; 117
    1068:	31 f4       	brne	.+12     	; 0x1076 <vfprintf+0x24e>
    106a:	23 2d       	mov	r18, r3
    106c:	2f 7e       	andi	r18, 0xEF	; 239
    106e:	b2 2e       	mov	r11, r18
    1070:	2a e0       	ldi	r18, 0x0A	; 10
    1072:	30 e0       	ldi	r19, 0x00	; 0
    1074:	25 c0       	rjmp	.+74     	; 0x10c0 <vfprintf+0x298>
    1076:	93 2d       	mov	r25, r3
    1078:	99 7f       	andi	r25, 0xF9	; 249
    107a:	b9 2e       	mov	r11, r25
    107c:	8f 36       	cpi	r24, 0x6F	; 111
    107e:	c1 f0       	breq	.+48     	; 0x10b0 <vfprintf+0x288>
    1080:	18 f4       	brcc	.+6      	; 0x1088 <vfprintf+0x260>
    1082:	88 35       	cpi	r24, 0x58	; 88
    1084:	79 f0       	breq	.+30     	; 0x10a4 <vfprintf+0x27c>
    1086:	ae c0       	rjmp	.+348    	; 0x11e4 <vfprintf+0x3bc>
    1088:	80 37       	cpi	r24, 0x70	; 112
    108a:	19 f0       	breq	.+6      	; 0x1092 <vfprintf+0x26a>
    108c:	88 37       	cpi	r24, 0x78	; 120
    108e:	21 f0       	breq	.+8      	; 0x1098 <vfprintf+0x270>
    1090:	a9 c0       	rjmp	.+338    	; 0x11e4 <vfprintf+0x3bc>
    1092:	e9 2f       	mov	r30, r25
    1094:	e0 61       	ori	r30, 0x10	; 16
    1096:	be 2e       	mov	r11, r30
    1098:	b4 fe       	sbrs	r11, 4
    109a:	0d c0       	rjmp	.+26     	; 0x10b6 <vfprintf+0x28e>
    109c:	fb 2d       	mov	r31, r11
    109e:	f4 60       	ori	r31, 0x04	; 4
    10a0:	bf 2e       	mov	r11, r31
    10a2:	09 c0       	rjmp	.+18     	; 0x10b6 <vfprintf+0x28e>
    10a4:	34 fe       	sbrs	r3, 4
    10a6:	0a c0       	rjmp	.+20     	; 0x10bc <vfprintf+0x294>
    10a8:	29 2f       	mov	r18, r25
    10aa:	26 60       	ori	r18, 0x06	; 6
    10ac:	b2 2e       	mov	r11, r18
    10ae:	06 c0       	rjmp	.+12     	; 0x10bc <vfprintf+0x294>
    10b0:	28 e0       	ldi	r18, 0x08	; 8
    10b2:	30 e0       	ldi	r19, 0x00	; 0
    10b4:	05 c0       	rjmp	.+10     	; 0x10c0 <vfprintf+0x298>
    10b6:	20 e1       	ldi	r18, 0x10	; 16
    10b8:	30 e0       	ldi	r19, 0x00	; 0
    10ba:	02 c0       	rjmp	.+4      	; 0x10c0 <vfprintf+0x298>
    10bc:	20 e1       	ldi	r18, 0x10	; 16
    10be:	32 e0       	ldi	r19, 0x02	; 2
    10c0:	f8 01       	movw	r30, r16
    10c2:	b7 fe       	sbrs	r11, 7
    10c4:	07 c0       	rjmp	.+14     	; 0x10d4 <vfprintf+0x2ac>
    10c6:	60 81       	ld	r22, Z
    10c8:	71 81       	ldd	r23, Z+1	; 0x01
    10ca:	82 81       	ldd	r24, Z+2	; 0x02
    10cc:	93 81       	ldd	r25, Z+3	; 0x03
    10ce:	0c 5f       	subi	r16, 0xFC	; 252
    10d0:	1f 4f       	sbci	r17, 0xFF	; 255
    10d2:	06 c0       	rjmp	.+12     	; 0x10e0 <vfprintf+0x2b8>
    10d4:	60 81       	ld	r22, Z
    10d6:	71 81       	ldd	r23, Z+1	; 0x01
    10d8:	80 e0       	ldi	r24, 0x00	; 0
    10da:	90 e0       	ldi	r25, 0x00	; 0
    10dc:	0e 5f       	subi	r16, 0xFE	; 254
    10de:	1f 4f       	sbci	r17, 0xFF	; 255
    10e0:	a3 01       	movw	r20, r6
    10e2:	f1 d0       	rcall	.+482    	; 0x12c6 <__ultoa_invert>
    10e4:	88 2e       	mov	r8, r24
    10e6:	86 18       	sub	r8, r6
    10e8:	fb 2d       	mov	r31, r11
    10ea:	ff 77       	andi	r31, 0x7F	; 127
    10ec:	3f 2e       	mov	r3, r31
    10ee:	36 fe       	sbrs	r3, 6
    10f0:	0d c0       	rjmp	.+26     	; 0x110c <vfprintf+0x2e4>
    10f2:	23 2d       	mov	r18, r3
    10f4:	2e 7f       	andi	r18, 0xFE	; 254
    10f6:	a2 2e       	mov	r10, r18
    10f8:	89 14       	cp	r8, r9
    10fa:	58 f4       	brcc	.+22     	; 0x1112 <vfprintf+0x2ea>
    10fc:	34 fe       	sbrs	r3, 4
    10fe:	0b c0       	rjmp	.+22     	; 0x1116 <vfprintf+0x2ee>
    1100:	32 fc       	sbrc	r3, 2
    1102:	09 c0       	rjmp	.+18     	; 0x1116 <vfprintf+0x2ee>
    1104:	83 2d       	mov	r24, r3
    1106:	8e 7e       	andi	r24, 0xEE	; 238
    1108:	a8 2e       	mov	r10, r24
    110a:	05 c0       	rjmp	.+10     	; 0x1116 <vfprintf+0x2ee>
    110c:	b8 2c       	mov	r11, r8
    110e:	a3 2c       	mov	r10, r3
    1110:	03 c0       	rjmp	.+6      	; 0x1118 <vfprintf+0x2f0>
    1112:	b8 2c       	mov	r11, r8
    1114:	01 c0       	rjmp	.+2      	; 0x1118 <vfprintf+0x2f0>
    1116:	b9 2c       	mov	r11, r9
    1118:	a4 fe       	sbrs	r10, 4
    111a:	0f c0       	rjmp	.+30     	; 0x113a <vfprintf+0x312>
    111c:	fe 01       	movw	r30, r28
    111e:	e8 0d       	add	r30, r8
    1120:	f1 1d       	adc	r31, r1
    1122:	80 81       	ld	r24, Z
    1124:	80 33       	cpi	r24, 0x30	; 48
    1126:	21 f4       	brne	.+8      	; 0x1130 <vfprintf+0x308>
    1128:	9a 2d       	mov	r25, r10
    112a:	99 7e       	andi	r25, 0xE9	; 233
    112c:	a9 2e       	mov	r10, r25
    112e:	09 c0       	rjmp	.+18     	; 0x1142 <vfprintf+0x31a>
    1130:	a2 fe       	sbrs	r10, 2
    1132:	06 c0       	rjmp	.+12     	; 0x1140 <vfprintf+0x318>
    1134:	b3 94       	inc	r11
    1136:	b3 94       	inc	r11
    1138:	04 c0       	rjmp	.+8      	; 0x1142 <vfprintf+0x31a>
    113a:	8a 2d       	mov	r24, r10
    113c:	86 78       	andi	r24, 0x86	; 134
    113e:	09 f0       	breq	.+2      	; 0x1142 <vfprintf+0x31a>
    1140:	b3 94       	inc	r11
    1142:	a3 fc       	sbrc	r10, 3
    1144:	10 c0       	rjmp	.+32     	; 0x1166 <vfprintf+0x33e>
    1146:	a0 fe       	sbrs	r10, 0
    1148:	06 c0       	rjmp	.+12     	; 0x1156 <vfprintf+0x32e>
    114a:	b2 14       	cp	r11, r2
    114c:	80 f4       	brcc	.+32     	; 0x116e <vfprintf+0x346>
    114e:	28 0c       	add	r2, r8
    1150:	92 2c       	mov	r9, r2
    1152:	9b 18       	sub	r9, r11
    1154:	0d c0       	rjmp	.+26     	; 0x1170 <vfprintf+0x348>
    1156:	b2 14       	cp	r11, r2
    1158:	58 f4       	brcc	.+22     	; 0x1170 <vfprintf+0x348>
    115a:	b6 01       	movw	r22, r12
    115c:	80 e2       	ldi	r24, 0x20	; 32
    115e:	90 e0       	ldi	r25, 0x00	; 0
    1160:	76 d0       	rcall	.+236    	; 0x124e <fputc>
    1162:	b3 94       	inc	r11
    1164:	f8 cf       	rjmp	.-16     	; 0x1156 <vfprintf+0x32e>
    1166:	b2 14       	cp	r11, r2
    1168:	18 f4       	brcc	.+6      	; 0x1170 <vfprintf+0x348>
    116a:	2b 18       	sub	r2, r11
    116c:	02 c0       	rjmp	.+4      	; 0x1172 <vfprintf+0x34a>
    116e:	98 2c       	mov	r9, r8
    1170:	21 2c       	mov	r2, r1
    1172:	a4 fe       	sbrs	r10, 4
    1174:	0f c0       	rjmp	.+30     	; 0x1194 <vfprintf+0x36c>
    1176:	b6 01       	movw	r22, r12
    1178:	80 e3       	ldi	r24, 0x30	; 48
    117a:	90 e0       	ldi	r25, 0x00	; 0
    117c:	68 d0       	rcall	.+208    	; 0x124e <fputc>
    117e:	a2 fe       	sbrs	r10, 2
    1180:	16 c0       	rjmp	.+44     	; 0x11ae <vfprintf+0x386>
    1182:	a1 fc       	sbrc	r10, 1
    1184:	03 c0       	rjmp	.+6      	; 0x118c <vfprintf+0x364>
    1186:	88 e7       	ldi	r24, 0x78	; 120
    1188:	90 e0       	ldi	r25, 0x00	; 0
    118a:	02 c0       	rjmp	.+4      	; 0x1190 <vfprintf+0x368>
    118c:	88 e5       	ldi	r24, 0x58	; 88
    118e:	90 e0       	ldi	r25, 0x00	; 0
    1190:	b6 01       	movw	r22, r12
    1192:	0c c0       	rjmp	.+24     	; 0x11ac <vfprintf+0x384>
    1194:	8a 2d       	mov	r24, r10
    1196:	86 78       	andi	r24, 0x86	; 134
    1198:	51 f0       	breq	.+20     	; 0x11ae <vfprintf+0x386>
    119a:	a1 fe       	sbrs	r10, 1
    119c:	02 c0       	rjmp	.+4      	; 0x11a2 <vfprintf+0x37a>
    119e:	8b e2       	ldi	r24, 0x2B	; 43
    11a0:	01 c0       	rjmp	.+2      	; 0x11a4 <vfprintf+0x37c>
    11a2:	80 e2       	ldi	r24, 0x20	; 32
    11a4:	a7 fc       	sbrc	r10, 7
    11a6:	8d e2       	ldi	r24, 0x2D	; 45
    11a8:	b6 01       	movw	r22, r12
    11aa:	90 e0       	ldi	r25, 0x00	; 0
    11ac:	50 d0       	rcall	.+160    	; 0x124e <fputc>
    11ae:	89 14       	cp	r8, r9
    11b0:	30 f4       	brcc	.+12     	; 0x11be <vfprintf+0x396>
    11b2:	b6 01       	movw	r22, r12
    11b4:	80 e3       	ldi	r24, 0x30	; 48
    11b6:	90 e0       	ldi	r25, 0x00	; 0
    11b8:	4a d0       	rcall	.+148    	; 0x124e <fputc>
    11ba:	9a 94       	dec	r9
    11bc:	f8 cf       	rjmp	.-16     	; 0x11ae <vfprintf+0x386>
    11be:	8a 94       	dec	r8
    11c0:	f3 01       	movw	r30, r6
    11c2:	e8 0d       	add	r30, r8
    11c4:	f1 1d       	adc	r31, r1
    11c6:	80 81       	ld	r24, Z
    11c8:	b6 01       	movw	r22, r12
    11ca:	90 e0       	ldi	r25, 0x00	; 0
    11cc:	40 d0       	rcall	.+128    	; 0x124e <fputc>
    11ce:	81 10       	cpse	r8, r1
    11d0:	f6 cf       	rjmp	.-20     	; 0x11be <vfprintf+0x396>
    11d2:	22 20       	and	r2, r2
    11d4:	09 f4       	brne	.+2      	; 0x11d8 <vfprintf+0x3b0>
    11d6:	4e ce       	rjmp	.-868    	; 0xe74 <vfprintf+0x4c>
    11d8:	b6 01       	movw	r22, r12
    11da:	80 e2       	ldi	r24, 0x20	; 32
    11dc:	90 e0       	ldi	r25, 0x00	; 0
    11de:	37 d0       	rcall	.+110    	; 0x124e <fputc>
    11e0:	2a 94       	dec	r2
    11e2:	f7 cf       	rjmp	.-18     	; 0x11d2 <vfprintf+0x3aa>
    11e4:	f6 01       	movw	r30, r12
    11e6:	86 81       	ldd	r24, Z+6	; 0x06
    11e8:	97 81       	ldd	r25, Z+7	; 0x07
    11ea:	02 c0       	rjmp	.+4      	; 0x11f0 <vfprintf+0x3c8>
    11ec:	8f ef       	ldi	r24, 0xFF	; 255
    11ee:	9f ef       	ldi	r25, 0xFF	; 255
    11f0:	2b 96       	adiw	r28, 0x0b	; 11
    11f2:	0f b6       	in	r0, 0x3f	; 63
    11f4:	f8 94       	cli
    11f6:	de bf       	out	0x3e, r29	; 62
    11f8:	0f be       	out	0x3f, r0	; 63
    11fa:	cd bf       	out	0x3d, r28	; 61
    11fc:	df 91       	pop	r29
    11fe:	cf 91       	pop	r28
    1200:	1f 91       	pop	r17
    1202:	0f 91       	pop	r16
    1204:	ff 90       	pop	r15
    1206:	ef 90       	pop	r14
    1208:	df 90       	pop	r13
    120a:	cf 90       	pop	r12
    120c:	bf 90       	pop	r11
    120e:	af 90       	pop	r10
    1210:	9f 90       	pop	r9
    1212:	8f 90       	pop	r8
    1214:	7f 90       	pop	r7
    1216:	6f 90       	pop	r6
    1218:	5f 90       	pop	r5
    121a:	4f 90       	pop	r4
    121c:	3f 90       	pop	r3
    121e:	2f 90       	pop	r2
    1220:	08 95       	ret

00001222 <strnlen_P>:
    1222:	fc 01       	movw	r30, r24
    1224:	05 90       	lpm	r0, Z+
    1226:	61 50       	subi	r22, 0x01	; 1
    1228:	70 40       	sbci	r23, 0x00	; 0
    122a:	01 10       	cpse	r0, r1
    122c:	d8 f7       	brcc	.-10     	; 0x1224 <strnlen_P+0x2>
    122e:	80 95       	com	r24
    1230:	90 95       	com	r25
    1232:	8e 0f       	add	r24, r30
    1234:	9f 1f       	adc	r25, r31
    1236:	08 95       	ret

00001238 <strnlen>:
    1238:	fc 01       	movw	r30, r24
    123a:	61 50       	subi	r22, 0x01	; 1
    123c:	70 40       	sbci	r23, 0x00	; 0
    123e:	01 90       	ld	r0, Z+
    1240:	01 10       	cpse	r0, r1
    1242:	d8 f7       	brcc	.-10     	; 0x123a <strnlen+0x2>
    1244:	80 95       	com	r24
    1246:	90 95       	com	r25
    1248:	8e 0f       	add	r24, r30
    124a:	9f 1f       	adc	r25, r31
    124c:	08 95       	ret

0000124e <fputc>:
    124e:	0f 93       	push	r16
    1250:	1f 93       	push	r17
    1252:	cf 93       	push	r28
    1254:	df 93       	push	r29
    1256:	fb 01       	movw	r30, r22
    1258:	23 81       	ldd	r18, Z+3	; 0x03
    125a:	21 fd       	sbrc	r18, 1
    125c:	03 c0       	rjmp	.+6      	; 0x1264 <fputc+0x16>
    125e:	8f ef       	ldi	r24, 0xFF	; 255
    1260:	9f ef       	ldi	r25, 0xFF	; 255
    1262:	2c c0       	rjmp	.+88     	; 0x12bc <fputc+0x6e>
    1264:	22 ff       	sbrs	r18, 2
    1266:	16 c0       	rjmp	.+44     	; 0x1294 <fputc+0x46>
    1268:	46 81       	ldd	r20, Z+6	; 0x06
    126a:	57 81       	ldd	r21, Z+7	; 0x07
    126c:	24 81       	ldd	r18, Z+4	; 0x04
    126e:	35 81       	ldd	r19, Z+5	; 0x05
    1270:	42 17       	cp	r20, r18
    1272:	53 07       	cpc	r21, r19
    1274:	44 f4       	brge	.+16     	; 0x1286 <fputc+0x38>
    1276:	a0 81       	ld	r26, Z
    1278:	b1 81       	ldd	r27, Z+1	; 0x01
    127a:	9d 01       	movw	r18, r26
    127c:	2f 5f       	subi	r18, 0xFF	; 255
    127e:	3f 4f       	sbci	r19, 0xFF	; 255
    1280:	31 83       	std	Z+1, r19	; 0x01
    1282:	20 83       	st	Z, r18
    1284:	8c 93       	st	X, r24
    1286:	26 81       	ldd	r18, Z+6	; 0x06
    1288:	37 81       	ldd	r19, Z+7	; 0x07
    128a:	2f 5f       	subi	r18, 0xFF	; 255
    128c:	3f 4f       	sbci	r19, 0xFF	; 255
    128e:	37 83       	std	Z+7, r19	; 0x07
    1290:	26 83       	std	Z+6, r18	; 0x06
    1292:	14 c0       	rjmp	.+40     	; 0x12bc <fputc+0x6e>
    1294:	8b 01       	movw	r16, r22
    1296:	ec 01       	movw	r28, r24
    1298:	fb 01       	movw	r30, r22
    129a:	00 84       	ldd	r0, Z+8	; 0x08
    129c:	f1 85       	ldd	r31, Z+9	; 0x09
    129e:	e0 2d       	mov	r30, r0
    12a0:	19 95       	eicall
    12a2:	89 2b       	or	r24, r25
    12a4:	e1 f6       	brne	.-72     	; 0x125e <fputc+0x10>
    12a6:	d8 01       	movw	r26, r16
    12a8:	16 96       	adiw	r26, 0x06	; 6
    12aa:	8d 91       	ld	r24, X+
    12ac:	9c 91       	ld	r25, X
    12ae:	17 97       	sbiw	r26, 0x07	; 7
    12b0:	01 96       	adiw	r24, 0x01	; 1
    12b2:	17 96       	adiw	r26, 0x07	; 7
    12b4:	9c 93       	st	X, r25
    12b6:	8e 93       	st	-X, r24
    12b8:	16 97       	sbiw	r26, 0x06	; 6
    12ba:	ce 01       	movw	r24, r28
    12bc:	df 91       	pop	r29
    12be:	cf 91       	pop	r28
    12c0:	1f 91       	pop	r17
    12c2:	0f 91       	pop	r16
    12c4:	08 95       	ret

000012c6 <__ultoa_invert>:
    12c6:	fa 01       	movw	r30, r20
    12c8:	aa 27       	eor	r26, r26
    12ca:	28 30       	cpi	r18, 0x08	; 8
    12cc:	51 f1       	breq	.+84     	; 0x1322 <__ultoa_invert+0x5c>
    12ce:	20 31       	cpi	r18, 0x10	; 16
    12d0:	81 f1       	breq	.+96     	; 0x1332 <__ultoa_invert+0x6c>
    12d2:	e8 94       	clt
    12d4:	6f 93       	push	r22
    12d6:	6e 7f       	andi	r22, 0xFE	; 254
    12d8:	6e 5f       	subi	r22, 0xFE	; 254
    12da:	7f 4f       	sbci	r23, 0xFF	; 255
    12dc:	8f 4f       	sbci	r24, 0xFF	; 255
    12de:	9f 4f       	sbci	r25, 0xFF	; 255
    12e0:	af 4f       	sbci	r26, 0xFF	; 255
    12e2:	b1 e0       	ldi	r27, 0x01	; 1
    12e4:	3e d0       	rcall	.+124    	; 0x1362 <__ultoa_invert+0x9c>
    12e6:	b4 e0       	ldi	r27, 0x04	; 4
    12e8:	3c d0       	rcall	.+120    	; 0x1362 <__ultoa_invert+0x9c>
    12ea:	67 0f       	add	r22, r23
    12ec:	78 1f       	adc	r23, r24
    12ee:	89 1f       	adc	r24, r25
    12f0:	9a 1f       	adc	r25, r26
    12f2:	a1 1d       	adc	r26, r1
    12f4:	68 0f       	add	r22, r24
    12f6:	79 1f       	adc	r23, r25
    12f8:	8a 1f       	adc	r24, r26
    12fa:	91 1d       	adc	r25, r1
    12fc:	a1 1d       	adc	r26, r1
    12fe:	6a 0f       	add	r22, r26
    1300:	71 1d       	adc	r23, r1
    1302:	81 1d       	adc	r24, r1
    1304:	91 1d       	adc	r25, r1
    1306:	a1 1d       	adc	r26, r1
    1308:	20 d0       	rcall	.+64     	; 0x134a <__ultoa_invert+0x84>
    130a:	09 f4       	brne	.+2      	; 0x130e <__ultoa_invert+0x48>
    130c:	68 94       	set
    130e:	3f 91       	pop	r19
    1310:	2a e0       	ldi	r18, 0x0A	; 10
    1312:	26 9f       	mul	r18, r22
    1314:	11 24       	eor	r1, r1
    1316:	30 19       	sub	r19, r0
    1318:	30 5d       	subi	r19, 0xD0	; 208
    131a:	31 93       	st	Z+, r19
    131c:	de f6       	brtc	.-74     	; 0x12d4 <__ultoa_invert+0xe>
    131e:	cf 01       	movw	r24, r30
    1320:	08 95       	ret
    1322:	46 2f       	mov	r20, r22
    1324:	47 70       	andi	r20, 0x07	; 7
    1326:	40 5d       	subi	r20, 0xD0	; 208
    1328:	41 93       	st	Z+, r20
    132a:	b3 e0       	ldi	r27, 0x03	; 3
    132c:	0f d0       	rcall	.+30     	; 0x134c <__ultoa_invert+0x86>
    132e:	c9 f7       	brne	.-14     	; 0x1322 <__ultoa_invert+0x5c>
    1330:	f6 cf       	rjmp	.-20     	; 0x131e <__ultoa_invert+0x58>
    1332:	46 2f       	mov	r20, r22
    1334:	4f 70       	andi	r20, 0x0F	; 15
    1336:	40 5d       	subi	r20, 0xD0	; 208
    1338:	4a 33       	cpi	r20, 0x3A	; 58
    133a:	18 f0       	brcs	.+6      	; 0x1342 <__ultoa_invert+0x7c>
    133c:	49 5d       	subi	r20, 0xD9	; 217
    133e:	31 fd       	sbrc	r19, 1
    1340:	40 52       	subi	r20, 0x20	; 32
    1342:	41 93       	st	Z+, r20
    1344:	02 d0       	rcall	.+4      	; 0x134a <__ultoa_invert+0x84>
    1346:	a9 f7       	brne	.-22     	; 0x1332 <__ultoa_invert+0x6c>
    1348:	ea cf       	rjmp	.-44     	; 0x131e <__ultoa_invert+0x58>
    134a:	b4 e0       	ldi	r27, 0x04	; 4
    134c:	a6 95       	lsr	r26
    134e:	97 95       	ror	r25
    1350:	87 95       	ror	r24
    1352:	77 95       	ror	r23
    1354:	67 95       	ror	r22
    1356:	ba 95       	dec	r27
    1358:	c9 f7       	brne	.-14     	; 0x134c <__ultoa_invert+0x86>
    135a:	00 97       	sbiw	r24, 0x00	; 0
    135c:	61 05       	cpc	r22, r1
    135e:	71 05       	cpc	r23, r1
    1360:	08 95       	ret
    1362:	9b 01       	movw	r18, r22
    1364:	ac 01       	movw	r20, r24
    1366:	0a 2e       	mov	r0, r26
    1368:	06 94       	lsr	r0
    136a:	57 95       	ror	r21
    136c:	47 95       	ror	r20
    136e:	37 95       	ror	r19
    1370:	27 95       	ror	r18
    1372:	ba 95       	dec	r27
    1374:	c9 f7       	brne	.-14     	; 0x1368 <__ultoa_invert+0xa2>
    1376:	62 0f       	add	r22, r18
    1378:	73 1f       	adc	r23, r19
    137a:	84 1f       	adc	r24, r20
    137c:	95 1f       	adc	r25, r21
    137e:	a0 1d       	adc	r26, r0
    1380:	08 95       	ret

00001382 <_exit>:
    1382:	f8 94       	cli

00001384 <__stop_program>:
    1384:	ff cf       	rjmp	.-2      	; 0x1384 <__stop_program>
